	.text
	.syntax unified
	.eabi_attribute	67, "2.09"	@ Tag_conformance
	.cpu	cortex-m55
	.eabi_attribute	6, 21	@ Tag_CPU_arch
	.eabi_attribute	7, 77	@ Tag_CPU_arch_profile
	.eabi_attribute	8, 0	@ Tag_ARM_ISA_use
	.eabi_attribute	9, 3	@ Tag_THUMB_ISA_use
	.fpu	fpv5-d16
	.arch_extension	mve.fp
	.eabi_attribute	36, 1	@ Tag_FP_HP_extension
	.eabi_attribute	48, 2	@ Tag_MVE_arch
	.eabi_attribute	46, 1	@ Tag_DSP_extension
	.eabi_attribute	34, 1	@ Tag_CPU_unaligned_access
	.eabi_attribute	17, 1	@ Tag_ABI_PCS_GOT_use
	.eabi_attribute	20, 2	@ Tag_ABI_FP_denormal
	.eabi_attribute	21, 0	@ Tag_ABI_FP_exceptions
	.eabi_attribute	23, 1	@ Tag_ABI_FP_number_model
	.eabi_attribute	24, 1	@ Tag_ABI_align_needed
	.eabi_attribute	25, 1	@ Tag_ABI_align_preserved
	.eabi_attribute	28, 1	@ Tag_ABI_VFP_args
	.eabi_attribute	38, 1	@ Tag_ABI_FP_16bit_format
	.eabi_attribute	18, 2	@ Tag_ABI_PCS_wchar_t
	.eabi_attribute	26, 1	@ Tag_ABI_enum_size
	.eabi_attribute	14, 0	@ Tag_ABI_PCS_R9_use
	.file	"BoardInit.cpp"
	.file	1 "C:\\Users\\jimmy\\Desktop\\Nuvoton\\Nuvoton-Team-2\\repos\\m55m1-ElevatorCounting-YOLOv8n\\KEIL" "../BoardInit.cpp"
	.file	2 "C:\\Users\\jimmy" "AppData\\Local\\Keil_v5\\ARM\\ARMCLANG\\bin\\..\\include\\stdint.h"
	.file	3 "C:\\Users\\jimmy\\Desktop\\Nuvoton\\Nuvoton-Team-2\\repos\\m55m1-ElevatorCounting-YOLOv8n\\KEIL" "../../../../Library/Device/Nuvoton/M55M1/Include\\spim_reg.h"
	.file	4 "C:\\Users\\jimmy\\Desktop\\Nuvoton\\Nuvoton-Team-2\\repos\\m55m1-ElevatorCounting-YOLOv8n\\KEIL" "../../../../Library/Device/Nuvoton/M55M1/Include\\sdh_reg.h"
	.file	5 "C:\\Users\\jimmy\\Desktop\\Nuvoton\\Nuvoton-Team-2\\repos\\m55m1-ElevatorCounting-YOLOv8n\\KEIL" "../../../../Library/Device/Nuvoton/M55M1/Include\\sys_reg.h"
	.section	.text._Z9BoardInitv,"ax",%progbits
	.hidden	_Z9BoardInitv                   @ -- Begin function _Z9BoardInitv
	.globl	_Z9BoardInitv
	.p2align	2
	.type	_Z9BoardInitv,%function
	.code	16                              @ @_Z9BoardInitv
	.thumb_func
_Z9BoardInitv:
.Lfunc_begin0:
	.loc	1 107 0                         @ ../BoardInit.cpp:107:0
	.fnstart
	.cfi_sections .debug_frame
	.cfi_startproc
@ %bb.0:
	.save	{r4, r5, r6, r7, lr}
	push	{r4, r5, r6, r7, lr}
	.cfi_def_cfa_offset 20
	.cfi_offset lr, -4
	.cfi_offset r7, -8
	.cfi_offset r6, -12
	.cfi_offset r5, -16
	.cfi_offset r4, -20
	.pad	#4
	sub	sp, #4
	.cfi_def_cfa_offset 24
.Ltmp0:
	.file	6 "C:\\Users\\jimmy\\Desktop\\Nuvoton\\Nuvoton-Team-2\\repos\\m55m1-ElevatorCounting-YOLOv8n\\KEIL" "../../../../Library/StdDriver/inc\\sys.h"
	.loc	6 4257 32 prologue_end          @ ../../../../Library/StdDriver/inc\sys.h:4257:32
	movw	r0, :lower16:SystemCoreClock
	movw	r6, #256
	movt	r0, :upper16:SystemCoreClock
	movs	r1, #89
	ldr	r0, [r0]
.Ltmp1:
	@DEBUG_VALUE: SYS_UnlockReg:u32TimeOutCount <- $r0
	.loc	6 0 32 is_stmt 0                @ ../../../../Library/StdDriver/inc\sys.h:0:32
	movs	r2, #22
	movt	r6, #16384
	movs	r3, #136
.Ltmp2:
.LBB0_1:                                @ =>This Inner Loop Header: Depth=1
	@DEBUG_VALUE: SYS_UnlockReg:u32TimeOutCount <- $r0
	@DEBUG_VALUE: SYS_UnlockReg:u32TimeOutCount <- $r0
	.loc	6 4265 13 is_stmt 1             @ ../../../../Library/StdDriver/inc\sys.h:4265:13
	cmp	r0, #1
	.loc	6 4261 22                       @ ../../../../Library/StdDriver/inc\sys.h:4261:22
	str	r1, [r6]
	.loc	6 4262 22                       @ ../../../../Library/StdDriver/inc\sys.h:4262:22
	str	r2, [r6]
	.loc	6 4263 22                       @ ../../../../Library/StdDriver/inc\sys.h:4263:22
	str	r3, [r6]
.Ltmp3:
	@DEBUG_VALUE: SYS_UnlockReg:u32TimeOutCount <- [DW_OP_constu 1, DW_OP_minus, DW_OP_stack_value] $r0
	.loc	6 4265 13                       @ ../../../../Library/StdDriver/inc\sys.h:4265:13
	beq	.LBB0_9
.Ltmp4:
@ %bb.2:                                @   in Loop: Header=BB0_1 Depth=1
	@DEBUG_VALUE: SYS_UnlockReg:u32TimeOutCount <- [DW_OP_constu 1, DW_OP_minus, DW_OP_stack_value] $r0
	.loc	6 4266 19                       @ ../../../../Library/StdDriver/inc\sys.h:4266:19
	ldr	r7, [r6]
.Ltmp5:
	.loc	6 4266 5 is_stmt 0              @ ../../../../Library/StdDriver/inc\sys.h:4266:5
	cbnz	r7, .LBB0_9
.Ltmp6:
@ %bb.3:                                @   in Loop: Header=BB0_1 Depth=1
	@DEBUG_VALUE: SYS_UnlockReg:u32TimeOutCount <- [DW_OP_constu 1, DW_OP_minus, DW_OP_stack_value] $r0
	@DEBUG_VALUE: SYS_UnlockReg:u32TimeOutCount <- [DW_OP_constu 1, DW_OP_minus, DW_OP_stack_value] $r0
	.loc	6 4265 13 is_stmt 1             @ ../../../../Library/StdDriver/inc\sys.h:4265:13
	cmp	r0, #2
	.loc	6 4261 22                       @ ../../../../Library/StdDriver/inc\sys.h:4261:22
	str	r1, [r6]
	.loc	6 4262 22                       @ ../../../../Library/StdDriver/inc\sys.h:4262:22
	str	r2, [r6]
	.loc	6 4263 22                       @ ../../../../Library/StdDriver/inc\sys.h:4263:22
	str	r3, [r6]
.Ltmp7:
	@DEBUG_VALUE: SYS_UnlockReg:u32TimeOutCount <- [DW_OP_constu 2, DW_OP_minus, DW_OP_stack_value] $r0
	.loc	6 4265 13                       @ ../../../../Library/StdDriver/inc\sys.h:4265:13
	beq	.LBB0_9
.Ltmp8:
@ %bb.4:                                @   in Loop: Header=BB0_1 Depth=1
	@DEBUG_VALUE: SYS_UnlockReg:u32TimeOutCount <- [DW_OP_constu 2, DW_OP_minus, DW_OP_stack_value] $r0
	.loc	6 4266 19                       @ ../../../../Library/StdDriver/inc\sys.h:4266:19
	ldr	r7, [r6]
.Ltmp9:
	.loc	6 4266 5 is_stmt 0              @ ../../../../Library/StdDriver/inc\sys.h:4266:5
	cbnz	r7, .LBB0_9
.Ltmp10:
@ %bb.5:                                @   in Loop: Header=BB0_1 Depth=1
	@DEBUG_VALUE: SYS_UnlockReg:u32TimeOutCount <- [DW_OP_constu 2, DW_OP_minus, DW_OP_stack_value] $r0
	@DEBUG_VALUE: SYS_UnlockReg:u32TimeOutCount <- [DW_OP_constu 2, DW_OP_minus, DW_OP_stack_value] $r0
	.loc	6 4265 13 is_stmt 1             @ ../../../../Library/StdDriver/inc\sys.h:4265:13
	cmp	r0, #3
	.loc	6 4261 22                       @ ../../../../Library/StdDriver/inc\sys.h:4261:22
	str	r1, [r6]
	.loc	6 4262 22                       @ ../../../../Library/StdDriver/inc\sys.h:4262:22
	str	r2, [r6]
	.loc	6 4263 22                       @ ../../../../Library/StdDriver/inc\sys.h:4263:22
	str	r3, [r6]
.Ltmp11:
	@DEBUG_VALUE: SYS_UnlockReg:u32TimeOutCount <- [DW_OP_constu 3, DW_OP_minus, DW_OP_stack_value] $r0
	.loc	6 4265 13                       @ ../../../../Library/StdDriver/inc\sys.h:4265:13
	beq	.LBB0_9
.Ltmp12:
@ %bb.6:                                @   in Loop: Header=BB0_1 Depth=1
	@DEBUG_VALUE: SYS_UnlockReg:u32TimeOutCount <- [DW_OP_constu 3, DW_OP_minus, DW_OP_stack_value] $r0
	.loc	6 4266 19                       @ ../../../../Library/StdDriver/inc\sys.h:4266:19
	ldr	r7, [r6]
.Ltmp13:
	.loc	6 4266 5 is_stmt 0              @ ../../../../Library/StdDriver/inc\sys.h:4266:5
	cbnz	r7, .LBB0_9
.Ltmp14:
@ %bb.7:                                @   in Loop: Header=BB0_1 Depth=1
	@DEBUG_VALUE: SYS_UnlockReg:u32TimeOutCount <- [DW_OP_constu 3, DW_OP_minus, DW_OP_stack_value] $r0
	@DEBUG_VALUE: SYS_UnlockReg:u32TimeOutCount <- [DW_OP_constu 3, DW_OP_minus, DW_OP_stack_value] $r0
	.loc	6 4265 13 is_stmt 1             @ ../../../../Library/StdDriver/inc\sys.h:4265:13
	subs	r0, #4
.Ltmp15:
	@DEBUG_VALUE: SYS_UnlockReg:u32TimeOutCount <- $r0
	.loc	6 4261 22                       @ ../../../../Library/StdDriver/inc\sys.h:4261:22
	str	r1, [r6]
	.loc	6 4262 22                       @ ../../../../Library/StdDriver/inc\sys.h:4262:22
	str	r2, [r6]
	.loc	6 4263 22                       @ ../../../../Library/StdDriver/inc\sys.h:4263:22
	str	r3, [r6]
	.loc	6 4265 13                       @ ../../../../Library/StdDriver/inc\sys.h:4265:13
	beq	.LBB0_9
.Ltmp16:
@ %bb.8:                                @   in Loop: Header=BB0_1 Depth=1
	@DEBUG_VALUE: SYS_UnlockReg:u32TimeOutCount <- $r0
	.loc	6 4266 19                       @ ../../../../Library/StdDriver/inc\sys.h:4266:19
	ldr	r7, [r6]
.Ltmp17:
	.loc	6 4266 5 is_stmt 0              @ ../../../../Library/StdDriver/inc\sys.h:4266:5
	cbnz	r7, .LBB0_9
	le	.LBB0_1
.Ltmp18:
.LBB0_9:
	.loc	1 39 5 is_stmt 1                @ ../BoardInit.cpp:39:5
	movs	r0, #8
	bl	CLK_EnableXtalRC
.Ltmp19:
	.loc	1 42 5                          @ ../BoardInit.cpp:42:5
	movs	r0, #8
	bl	CLK_WaitClockReady
.Ltmp20:
	.loc	1 45 5                          @ ../BoardInit.cpp:45:5
	movs	r0, #16
	bl	CLK_EnableXtalRC
.Ltmp21:
	.loc	1 48 5                          @ ../BoardInit.cpp:48:5
	movs	r0, #16
	bl	CLK_WaitClockReady
.Ltmp22:
	.loc	1 0 5 is_stmt 0                 @ ../BoardInit.cpp:0:5
	movw	r4, #61184
	.loc	1 51 5 is_stmt 1                @ ../BoardInit.cpp:51:5
	movs	r0, #4
	movt	r4, #3356
	movs	r1, #0
	mov	r2, r4
	movs	r7, #0
	bl	CLK_SetBusClock
.Ltmp23:
	.loc	1 54 5                          @ ../BoardInit.cpp:54:5
	mov	r1, r4
	movs	r0, #0
	movs	r2, #1
	bl	CLK_EnableAPLL
.Ltmp24:
	.loc	1 59 5                          @ ../BoardInit.cpp:59:5
	bl	SystemCoreClockUpdate
.Ltmp25:
	.loc	1 62 5                          @ ../BoardInit.cpp:62:5
	movs	r0, #0
	mov.w	r1, #557056
	bl	CLK_EnableModuleClock
.Ltmp26:
	.loc	1 63 5                          @ ../BoardInit.cpp:63:5
	mov.w	r0, #1024
	mov.w	r1, #557056
	bl	CLK_EnableModuleClock
.Ltmp27:
	.loc	1 64 5                          @ ../BoardInit.cpp:64:5
	mov.w	r0, #2048
	mov.w	r1, #557056
	bl	CLK_EnableModuleClock
.Ltmp28:
	.loc	1 65 5                          @ ../BoardInit.cpp:65:5
	mov.w	r0, #3072
	mov.w	r1, #557056
	bl	CLK_EnableModuleClock
.Ltmp29:
	.loc	1 66 5                          @ ../BoardInit.cpp:66:5
	mov.w	r0, #4096
	mov.w	r1, #557056
	bl	CLK_EnableModuleClock
.Ltmp30:
	.loc	1 67 5                          @ ../BoardInit.cpp:67:5
	mov.w	r0, #5120
	mov.w	r1, #557056
	bl	CLK_EnableModuleClock
.Ltmp31:
	.loc	1 68 5                          @ ../BoardInit.cpp:68:5
	mov.w	r0, #6144
	mov.w	r1, #557056
	bl	CLK_EnableModuleClock
.Ltmp32:
	.loc	1 69 5                          @ ../BoardInit.cpp:69:5
	mov.w	r0, #7168
	mov.w	r1, #557056
	bl	CLK_EnableModuleClock
.Ltmp33:
	.loc	1 70 5                          @ ../BoardInit.cpp:70:5
	mov.w	r0, #8192
	mov.w	r1, #557056
	bl	CLK_EnableModuleClock
.Ltmp34:
	.loc	1 71 5                          @ ../BoardInit.cpp:71:5
	mov.w	r0, #9216
	mov.w	r1, #557056
	bl	CLK_EnableModuleClock
.Ltmp35:
	.loc	1 0 5 is_stmt 0                 @ ../BoardInit.cpp:0:5
	movw	r1, #33792
	.loc	1 74 5 is_stmt 1                @ ../BoardInit.cpp:74:5
	mov.w	r0, #8388608
	movt	r1, #7
	bl	CLK_EnableModuleClock
.Ltmp36:
	.loc	1 77 5                          @ ../BoardInit.cpp:77:5
	movs	r0, #0
	mov.w	r1, #1146880
	bl	CLK_EnableModuleClock
.Ltmp37:
	.loc	1 0 5 is_stmt 0                 @ ../BoardInit.cpp:0:5
	movw	r1, #384
	.loc	1 80 5 is_stmt 1                @ ../BoardInit.cpp:80:5
	mov.w	r0, #58720256
	movt	r1, #2
	bl	CLK_EnableModuleClock
.Ltmp38:
	.loc	1 0 5 is_stmt 0                 @ ../BoardInit.cpp:0:5
	movw	r4, #32768
	movw	r5, #35206
	movt	r4, #33791
	.loc	1 83 5 is_stmt 1                @ ../BoardInit.cpp:83:5
	movs	r2, #1
	movt	r5, #22
	mov	r0, r4
	mov	r1, r5
	movs	r3, #4
	bl	CLK_SetModuleClock
.Ltmp39:
	.loc	1 84 5                          @ ../BoardInit.cpp:84:5
	mov	r0, r4
	mov	r1, r5
	bl	CLK_EnableModuleClock
.Ltmp40:
	.loc	1 87 5                          @ ../BoardInit.cpp:87:5
	bl	SetDebugUartCLK
.Ltmp41:
	.loc	1 94 5                          @ ../BoardInit.cpp:94:5
	bl	SetDebugUartMFP
.Ltmp42:
	.loc	1 0 5 is_stmt 0                 @ ../BoardInit.cpp:0:5
	movw	r4, #8192
	movt	r4, #16388
	.loc	1 96 5 is_stmt 1                @ ../BoardInit.cpp:96:5
	mov	r0, r4
	bl	HyperRAM_PinConfig
.Ltmp43:
	.loc	1 23 5                          @ ../BoardInit.cpp:23:5
	ldr.w	r0, [r6, #572]
	movs	r1, #3
	bfi	r0, r1, #8, #5
	str.w	r0, [r6, #572]
	.loc	1 24 5                          @ ../BoardInit.cpp:24:5
	ldr.w	r0, [r6, #580]
	bfi	r0, r1, #16, #5
	str.w	r0, [r6, #580]
	.loc	1 25 5                          @ ../BoardInit.cpp:25:5
	ldr.w	r0, [r6, #580]
	bfi	r0, r1, #24, #5
	str.w	r0, [r6, #580]
	.loc	1 26 5                          @ ../BoardInit.cpp:26:5
	ldr.w	r0, [r6, #576]
	bfi	r0, r1, #16, #5
	str.w	r0, [r6, #576]
	.loc	1 27 5                          @ ../BoardInit.cpp:27:5
	ldr.w	r0, [r6, #576]
	bfi	r0, r1, #24, #5
	str.w	r0, [r6, #576]
	.loc	1 28 5                          @ ../BoardInit.cpp:28:5
	ldr.w	r0, [r6, #580]
	bfi	r0, r1, #0, #5
	str.w	r0, [r6, #580]
	.loc	1 29 5                          @ ../BoardInit.cpp:29:5
	ldr.w	r0, [r6, #580]
	bfi	r0, r1, #8, #5
	str.w	r0, [r6, #580]
.Ltmp44:
	.loc	1 115 5                         @ ../BoardInit.cpp:115:5
	bl	InitDebugUart
.Ltmp45:
	.loc	1 119 5                         @ ../BoardInit.cpp:119:5
	mov	r0, r4
.Ltmp46:
	.loc	6 4278 18                       @ ../../../../Library/StdDriver/inc\sys.h:4278:18
	str	r7, [r6]
.Ltmp47:
	.loc	1 119 5                         @ ../BoardInit.cpp:119:5
	bl	HyperRAM_Init
.Ltmp48:
	.loc	1 121 5                         @ ../BoardInit.cpp:121:5
	mov	r0, r4
	bl	SPIM_HYPER_EnterDirectMapMode
.Ltmp49:
	.loc	1 123 5                         @ ../BoardInit.cpp:123:5
	add.w	r0, r4, #1851392
	mov.w	r1, #256
	bl	SDH_Open_Disk
.Ltmp50:
	.loc	1 125 5                         @ ../BoardInit.cpp:125:5
	movw	r0, :lower16:.L.str
	movt	r0, :upper16:.L.str
	bl	__2printf
.Ltmp51:
	adr	r0, .LCPI0_0
	adr	r1, .LCPI0_1
	bl	__2printf
.Ltmp52:
	.loc	1 132 23                        @ ../BoardInit.cpp:132:23
	bl	arm_ethosu_npu_init
.Ltmp53:
	@DEBUG_VALUE: BoardInit:state <- $r0
	.loc	1 132 9 is_stmt 0               @ ../BoardInit.cpp:132:9
	cbz	r0, .LBB0_11
.Ltmp54:
@ %bb.10:
	@DEBUG_VALUE: BoardInit:state <- $r0
	.loc	1 143 1 epilogue_begin is_stmt 1 @ ../BoardInit.cpp:143:1
	add	sp, #4
	pop	{r4, r5, r6, r7, pc}
.Ltmp55:
.LBB0_11:
	@DEBUG_VALUE: BoardInit:state <- $r0
	.loc	1 140 5                         @ ../BoardInit.cpp:140:5
	movw	r1, :lower16:.L.str
	mov	r4, r0
.Ltmp56:
	@DEBUG_VALUE: BoardInit:state <- $r4
	movt	r1, :upper16:.L.str
	mov	r0, r1
	bl	__2printf
.Ltmp57:
	adr	r0, .LCPI0_2
	adr	r1, .LCPI0_3
	bl	__2printf
.Ltmp58:
	.loc	1 0 5 is_stmt 0                 @ ../BoardInit.cpp:0:5
	mov	r0, r4
	.loc	1 143 1 epilogue_begin is_stmt 1 @ ../BoardInit.cpp:143:1
	add	sp, #4
	pop	{r4, r5, r6, r7, pc}
.Ltmp59:
	.loc	1 0 1 is_stmt 0                 @ :0:1
.Ltmp60:
	.p2align	2
@ %bb.12:
.LCPI0_0:
.L.str.1:
	.asciz	"%s: complete\n\000\000"
.LCPI0_1:
.L__FUNCTION__._Z9BoardInitv:
	.asciz	"BoardInit\000\000"
.LCPI0_2:
.L.str.2:
	.asciz	"Target system: %s\n\000"
.LCPI0_3:
.L.str.3:
	.asciz	"M55M1\000\000"
.Lfunc_end0:
	.size	_Z9BoardInitv, .Lfunc_end0-_Z9BoardInitv
	.cfi_endproc
	.cantunwind
	.fnend
                                        @ -- End function
	.type	.L.str,%object                  @ @.str
	.section	.rodata.str1.1,"aMS",%progbits,1
.L.str:
	.asciz	"INFO - "
	.size	.L.str, 8

	.hidden	_printf_percent
	.hidden	_printf_s
	.hidden	_printf_str
	.file	7 "C:\\Users\\jimmy" "AppData\\Local\\Keil_v5\\ARM\\ARMCLANG\\bin\\..\\include\\stdio.h"
	.file	8 "C:\\Users\\jimmy" "AppData\\Local\\Keil_v5\\ARM\\ARMCLANG\\bin\\..\\include\\libcxx\\cstdio"
	.file	9 "C:\\Users\\jimmy" "AppData\\Local\\Keil_v5\\ARM\\ARMCLANG\\bin\\..\\include\\stddef.h"
	.section	".note.GNU-stack","",%progbits
	.eabi_attribute	30, 1	@ Tag_ABI_optimization_goals
	.ARM_attribute	16, 1	@ Tag_AV_eba