	.text
	.syntax unified
	.eabi_attribute	67, "2.09"	@ Tag_conformance
	.cpu	cortex-m55
	.eabi_attribute	6, 21	@ Tag_CPU_arch
	.eabi_attribute	7, 77	@ Tag_CPU_arch_profile
	.eabi_attribute	8, 0	@ Tag_ARM_ISA_use
	.eabi_attribute	9, 3	@ Tag_THUMB_ISA_use
	.fpu	fpv5-d16
	.arch_extension	mve.fp
	.eabi_attribute	36, 1	@ Tag_FP_HP_extension
	.eabi_attribute	48, 2	@ Tag_MVE_arch
	.eabi_attribute	46, 1	@ Tag_DSP_extension
	.eabi_attribute	34, 1	@ Tag_CPU_unaligned_access
	.eabi_attribute	17, 1	@ Tag_ABI_PCS_GOT_use
	.eabi_attribute	20, 2	@ Tag_ABI_FP_denormal
	.eabi_attribute	21, 0	@ Tag_ABI_FP_exceptions
	.eabi_attribute	23, 1	@ Tag_ABI_FP_number_model
	.eabi_attribute	24, 1	@ Tag_ABI_align_needed
	.eabi_attribute	25, 1	@ Tag_ABI_align_preserved
	.eabi_attribute	28, 1	@ Tag_ABI_VFP_args
	.eabi_attribute	38, 1	@ Tag_ABI_FP_16bit_format
	.eabi_attribute	18, 2	@ Tag_ABI_PCS_wchar_t
	.eabi_attribute	26, 1	@ Tag_ABI_enum_size
	.eabi_attribute	14, 0	@ Tag_ABI_PCS_R9_use
	.file	"ethosu_npu_init.c"
	.file	1 "C:\\Users\\jimmy\\Desktop\\Nuvoton\\Nuvoton-Team\\repos\\m55m1-ElevatorCounting-YOLOv8n\\KEIL" "../NPU/ethosu_npu_init.c"
	.file	2 "C:\\Users\\jimmy\\Desktop\\Nuvoton\\Nuvoton-Team\\repos\\m55m1-ElevatorCounting-YOLOv8n\\KEIL" "../../../../Library/StdDriver/inc/npu\\ethosu_driver.h"
	.file	3 "C:\\Users\\jimmy" "AppData\\Local\\Keil_v5\\ARM\\ARMCLANG\\bin\\..\\include\\stdint.h"
	.file	4 "C:\\Users\\jimmy" "AppData\\Local\\Keil_v5\\ARM\\ARMCLANG\\bin\\..\\include\\stddef.h"
	.file	5 "C:\\Users\\jimmy\\Desktop\\Nuvoton\\Nuvoton-Team\\repos\\m55m1-ElevatorCounting-YOLOv8n\\KEIL" "../../../../Library/Device/Nuvoton/M55M1/Include\\M55M1.h"
	.file	6 "C:\\Users\\jimmy\\Desktop\\Nuvoton\\Nuvoton-Team\\repos\\m55m1-ElevatorCounting-YOLOv8n\\KEIL" "../../../../Library/Device/Nuvoton/M55M1/Include\\ccap_reg.h"
	.file	7 "C:\\Users\\jimmy\\Desktop\\Nuvoton\\Nuvoton-Team\\repos\\m55m1-ElevatorCounting-YOLOv8n\\KEIL" "../../../../Library/CMSIS/Core/Include\\core_cm55.h"
	.section	.text.NPU_IRQHandler,"ax",%progbits
	.hidden	NPU_IRQHandler                  @ -- Begin function NPU_IRQHandler
	.globl	NPU_IRQHandler
	.p2align	2
	.type	NPU_IRQHandler,%function
	.code	16                              @ @NPU_IRQHandler
	.thumb_func
NPU_IRQHandler:
.Lfunc_begin0:
	.loc	1 48 0                          @ ../NPU/ethosu_npu_init.c:48:0
	.fnstart
	.cfi_sections .debug_frame
	.cfi_startproc
@ %bb.0:
	.save	{r7, lr}
	push	{r7, lr}
	.cfi_def_cfa_offset 8
	.cfi_offset lr, -4
	.cfi_offset r7, -8
.Ltmp0:
	.loc	1 49 5 prologue_end             @ ../NPU/ethosu_npu_init.c:49:5
	movw	r0, :lower16:ethosu_drv
	movt	r0, :upper16:ethosu_drv
	bl	ethosu_irq_handler
.Ltmp1:
	.loc	1 50 5                          @ ../NPU/ethosu_npu_init.c:50:5
	dsb	sy
	.loc	1 51 5                          @ ../NPU/ethosu_npu_init.c:51:5
	isb	sy
	.loc	1 52 1 epilogue_begin           @ ../NPU/ethosu_npu_init.c:52:1
	pop	{r7, pc}
.Ltmp2:
.Lfunc_end0:
	.size	NPU_IRQHandler, .Lfunc_end0-NPU_IRQHandler
	.cfi_endproc
	.cantunwind
	.fnend
                                        @ -- End function
	.section	.text.arm_ethosu_npu_init,"ax",%progbits
	.hidden	arm_ethosu_npu_init             @ -- Begin function arm_ethosu_npu_init
	.globl	arm_ethosu_npu_init
	.p2align	2
	.type	arm_ethosu_npu_init,%function
	.code	16                              @ @arm_ethosu_npu_init
	.thumb_func
arm_ethosu_npu_init:
.Lfunc_begin1:
	.loc	1 69 0                          @ ../NPU/ethosu_npu_init.c:69:0
	.fnstart
	.cfi_startproc
@ %bb.0:
	.save	{r4, r5, r6, lr}
	push	{r4, r5, r6, lr}
	.cfi_def_cfa_offset 16
	.cfi_offset lr, -4
	.cfi_offset r6, -8
	.cfi_offset r5, -12
	.cfi_offset r4, -16
	.pad	#56
	sub	sp, #56
	.cfi_def_cfa_offset 72
.Ltmp3:
	@DEBUG_VALUE: arm_ethosu_npu_init:err <- 0
	movw	r0, #57600
	mov.w	r1, #8192
.Ltmp4:
	@DEBUG_VALUE: __NVIC_EnableIRQ:IRQn <- 13
	@DEBUG_VALUE: arm_ethosu_npu_irq_init:ethosu_irqnum <- 13
	movt	r0, #57344
.Ltmp5:
	.loc	7 3909 5 prologue_end           @ ../../../../Library/CMSIS/Core/Include\core_cm55.h:3909:5
	@APP
	@NO_APP
	.loc	7 3910 43                       @ ../../../../Library/CMSIS/Core/Include\core_cm55.h:3910:43
	str	r1, [r0]
.Ltmp6:
	.loc	1 78 21                         @ ../NPU/ethosu_npu_init.c:78:21
	movw	r0, :lower16:ethosu_drv
.Ltmp7:
	.loc	7 3911 5                        @ ../../../../Library/CMSIS/Core/Include\core_cm55.h:3911:5
	@APP
	@NO_APP
.Ltmp8:
	@DEBUG_VALUE: arm_ethosu_npu_init:ethosu_base_address <- 1073754112
	.loc	7 0 5 is_stmt 0                 @ ../../../../Library/CMSIS/Core/Include\core_cm55.h:0:5
	movw	r1, #12288
	movs	r6, #1
.Ltmp9:
	.loc	1 78 21 is_stmt 1               @ ../NPU/ethosu_npu_init.c:78:21
	movt	r0, :upper16:ethosu_drv
	movt	r1, #16384
	movs	r2, #0
	movs	r3, #0
	str	r6, [sp]
	str	r6, [sp, #4]
	bl	ethosu_init
.Ltmp10:
	mov	r4, r0
.Ltmp11:
	@DEBUG_VALUE: arm_ethosu_npu_init:err <- $r4
	.loc	1 78 9 is_stmt 0                @ ../NPU/ethosu_npu_init.c:78:9
	cbz	r0, .LBB1_2
.Ltmp12:
@ %bb.1:
	@DEBUG_VALUE: arm_ethosu_npu_init:err <- $r4
	@DEBUG_VALUE: arm_ethosu_npu_init:ethosu_base_address <- 1073754112
	.loc	1 86 9 is_stmt 1                @ ../NPU/ethosu_npu_init.c:86:9
	adr	r0, .LCPI1_0
	bl	__2printf
.Ltmp13:
	adr	r0, .LCPI1_1
	bl	puts
.Ltmp14:
	.loc	1 87 9                          @ ../NPU/ethosu_npu_init.c:87:9
	b	.LBB1_3
.Ltmp15:
.LBB1_2:
	@DEBUG_VALUE: arm_ethosu_npu_init:err <- $r4
	@DEBUG_VALUE: arm_ethosu_npu_init:ethosu_base_address <- 1073754112
	.loc	1 90 5                          @ ../NPU/ethosu_npu_init.c:90:5
	movw	r5, :lower16:.L.str.2
	movt	r5, :upper16:.L.str.2
	mov	r0, r5
	bl	__2printf
.Ltmp16:
	movw	r0, :lower16:.Lstr
	movt	r0, :upper16:.Lstr
	bl	puts
.Ltmp17:
	.loc	1 0 5 is_stmt 0                 @ ../NPU/ethosu_npu_init.c:0:5
	add.w	r0, sp, #53
	.loc	1 96 5 is_stmt 1                @ ../NPU/ethosu_npu_init.c:96:5
	bl	ethosu_get_driver_version
.Ltmp18:
	.loc	1 97 5                          @ ../NPU/ethosu_npu_init.c:97:5
	movw	r0, :lower16:ethosu_drv
	add	r1, sp, #12
	movt	r0, :upper16:ethosu_drv
	bl	ethosu_get_hw_info
.Ltmp19:
	.loc	1 99 5                          @ ../NPU/ethosu_npu_init.c:99:5
	mov	r0, r5
	bl	__2printf
.Ltmp20:
	movw	r0, :lower16:.Lstr.9
	movt	r0, :upper16:.Lstr.9
	bl	puts
.Ltmp21:
	.loc	1 100 5                         @ ../NPU/ethosu_npu_init.c:100:5
	mov	r0, r5
	bl	__2printf
.Ltmp22:
	ldrd	r3, r2, [sp, #28]
	ldr	r1, [sp, #36]
	adr	r0, .LCPI1_2
	bl	__2printf
.Ltmp23:
	.loc	1 104 5                         @ ../NPU/ethosu_npu_init.c:104:5
	mov	r0, r5
	bl	__2printf
.Ltmp24:
	ldrb.w	r1, [sp, #53]
	ldrb.w	r2, [sp, #54]
	ldrb.w	r3, [sp, #55]
	adr	r0, .LCPI1_3
	bl	__2printf
.Ltmp25:
	.loc	1 108 5                         @ ../NPU/ethosu_npu_init.c:108:5
	mov	r0, r5
	bl	__2printf
.Ltmp26:
	ldr	r0, [sp, #40]
	lsl.w	r1, r6, r0
	adr	r0, .LCPI1_4
	bl	__2printf
.Ltmp27:
	.loc	1 109 5                         @ ../NPU/ethosu_npu_init.c:109:5
	mov	r0, r5
	bl	__2printf
.Ltmp28:
	ldr	r1, [sp, #44]
	adr	r0, .LCPI1_5
	bl	__2printf
.Ltmp29:
.LBB1_3:
	@DEBUG_VALUE: arm_ethosu_npu_init:err <- $r4
	@DEBUG_VALUE: arm_ethosu_npu_init:ethosu_base_address <- 1073754112
	.loc	1 112 1                         @ ../NPU/ethosu_npu_init.c:112:1
	mov	r0, r4
	.loc	1 112 1 epilogue_begin is_stmt 0 @ ../NPU/ethosu_npu_init.c:112:1
	add	sp, #56
	pop	{r4, r5, r6, pc}
.Ltmp30:
	.loc	1 0 1                           @ :0:1
.Ltmp31:
	.p2align	2
@ %bb.4:
.LCPI1_0:
.L.str:
	.asciz	"ERROR - \000\000\000"
.LCPI1_1:
.Lstr.10:
	.asciz	"failed to initialise Ethos-U device"
.LCPI1_2:
.L.str.5:
	.asciz	"\tArch:       v%u.%u.%u\n"
.LCPI1_3:
.L.str.6:
	.asciz	"\tDriver:     v%d.%d.%d\n"
.LCPI1_4:
.L.str.7:
	.asciz	"\tMACs/cc:    %u\n\000\000\000"
.LCPI1_5:
.L.str.8:
	.asciz	"\tCmd stream: v%u\n\000\000"
.Lfunc_end1:
	.size	arm_ethosu_npu_init, .Lfunc_end1-arm_ethosu_npu_init
	.cfi_endproc
	.cantunwind
	.fnend
                                        @ -- End function
	.hidden	ethosu_drv                      @ @ethosu_drv
	.type	ethosu_drv,%object
	.section	.bss.ethosu_drv,"aw",%nobits
	.globl	ethosu_drv
	.p2align	3, 0x0
ethosu_drv:
	.zero	64
	.size	ethosu_drv, 64

	.type	.L.str.2,%object                @ @.str.2
	.section	.rodata.str1.1,"aMS",%progbits,1
.L.str.2:
	.asciz	"INFO - "
	.size	.L.str.2, 8

	.type	.Lstr,%object                   @ @str
.Lstr:
	.asciz	"Ethos-U device initialised"
	.size	.Lstr, 27

	.type	.Lstr.9,%object                 @ @str.9
.Lstr.9:
	.asciz	"Ethos-U version info:"
	.size	.Lstr.9, 22

	.hidden	_printf_percent
	.hidden	_printf_d
	.hidden	_printf_u
	.hidden	_printf_int_dec
	.file	8 "C:\\Users\\jimmy\\Desktop\\Nuvoton\\Nuvoton-Team\\repos\\m55m1-ElevatorCounting-YOLOv8n\\KEIL" "../../../../Library/StdDriver/inc/npu\\ethosu_types.h"
	.section	".note.GNU-stack","",%progbits
	.eabi_attribute	30, 1	@ Tag_ABI_optimization_goals
	.ARM_attribute	16, 1	@ Tag_AV_eba