	.text
	.syntax unified
	.eabi_attribute	67, "2.09"	@ Tag_conformance
	.cpu	cortex-m55
	.eabi_attribute	6, 21	@ Tag_CPU_arch
	.eabi_attribute	7, 77	@ Tag_CPU_arch_profile
	.eabi_attribute	8, 0	@ Tag_ARM_ISA_use
	.eabi_attribute	9, 3	@ Tag_THUMB_ISA_use
	.fpu	fpv5-d16
	.arch_extension	mve.fp
	.eabi_attribute	36, 1	@ Tag_FP_HP_extension
	.eabi_attribute	48, 2	@ Tag_MVE_arch
	.eabi_attribute	46, 1	@ Tag_DSP_extension
	.eabi_attribute	34, 1	@ Tag_CPU_unaligned_access
	.eabi_attribute	17, 1	@ Tag_ABI_PCS_GOT_use
	.eabi_attribute	20, 2	@ Tag_ABI_FP_denormal
	.eabi_attribute	21, 0	@ Tag_ABI_FP_exceptions
	.eabi_attribute	23, 1	@ Tag_ABI_FP_number_model
	.eabi_attribute	24, 1	@ Tag_ABI_align_needed
	.eabi_attribute	25, 1	@ Tag_ABI_align_preserved
	.eabi_attribute	28, 1	@ Tag_ABI_VFP_args
	.eabi_attribute	38, 1	@ Tag_ABI_FP_16bit_format
	.eabi_attribute	18, 2	@ Tag_ABI_PCS_wchar_t
	.eabi_attribute	26, 1	@ Tag_ABI_enum_size
	.eabi_attribute	14, 0	@ Tag_ABI_PCS_R9_use
	.file	"ethosu_profiler.c"
	.file	1 "C:\\Users\\jimmy\\Desktop\\Nuvoton\\Nuvoton-Team-2\\repos\\m55m1-ElevatorCounting-YOLOv8n\\KEIL" "../NPU/ethosu_profiler.c"
	.file	2 "C:\\Users\\jimmy" "AppData\\Local\\Keil_v5\\ARM\\ARMCLANG\\bin\\..\\include\\stdint.h"
	.file	3 "C:\\Users\\jimmy\\Desktop\\Nuvoton\\Nuvoton-Team-2\\repos\\m55m1-ElevatorCounting-YOLOv8n\\KEIL" "../NPU/include\\ethosu_profiler.h"
	.file	4 "C:\\Users\\jimmy\\Desktop\\Nuvoton\\Nuvoton-Team-2\\repos\\m55m1-ElevatorCounting-YOLOv8n\\KEIL" "../../../../Library/StdDriver/inc/npu\\pmu_ethosu.h"
	.file	5 "C:\\Users\\jimmy\\Desktop\\Nuvoton\\Nuvoton-Team-2\\repos\\m55m1-ElevatorCounting-YOLOv8n\\KEIL" "../../../../Library/StdDriver/inc/npu\\ethosu_driver.h"
	.section	.text.ethosu_pmu_init,"ax",%progbits
	.hidden	ethosu_pmu_init                 @ -- Begin function ethosu_pmu_init
	.globl	ethosu_pmu_init
	.p2align	2
	.type	ethosu_pmu_init,%function
	.code	16                              @ @ethosu_pmu_init
	.thumb_func
ethosu_pmu_init:
.Lfunc_begin0:
	.loc	1 49 0                          @ ../NPU/ethosu_profiler.c:49:0
	.fnstart
	.cfi_sections .debug_frame
	.cfi_startproc
@ %bb.0:
	.save	{r4, r5, r6, lr}
	push	{r4, r5, r6, lr}
	.cfi_def_cfa_offset 16
	.cfi_offset lr, -4
	.cfi_offset r6, -8
	.cfi_offset r5, -12
	.cfi_offset r4, -16
.Ltmp0:
	@DEBUG_VALUE: ethosu_pmu_init:i <- 0
	@DEBUG_VALUE: ethosu_pmu_init:evt_mask <- -2147483648
	.loc	1 53 5 prologue_end             @ ../NPU/ethosu_profiler.c:53:5
	movw	r4, :lower16:npu_counters
	movs	r1, #96
	movt	r4, :upper16:npu_counters
.Ltmp1:
	@DEBUG_VALUE: ethosu_pmu_init:counters <- $r4
	mov	r0, r4
	bl	__aeabi_memclr8
.Ltmp2:
	.loc	1 62 40                         @ ../NPU/ethosu_profiler.c:62:40
	movw	r0, :lower16:.L.str.1
	.loc	1 61 40                         @ ../NPU/ethosu_profiler.c:61:40
	adr	r1, .LCPI0_0
	.loc	1 62 40                         @ ../NPU/ethosu_profiler.c:62:40
	movt	r0, :upper16:.L.str.1
	.loc	1 67 40                         @ ../NPU/ethosu_profiler.c:67:40
	movw	r2, :lower16:.L.str.3
	.loc	1 62 40                         @ ../NPU/ethosu_profiler.c:62:40
	strd	r0, r1, [r4, #20]
	.loc	1 66 40                         @ ../NPU/ethosu_profiler.c:66:40
	adr	r1, .LCPI0_1
	.loc	1 88 5                          @ ../NPU/ethosu_profiler.c:88:5
	movw	r5, :lower16:ethosu_drv
	.loc	1 67 40                         @ ../NPU/ethosu_profiler.c:67:40
	movt	r2, :upper16:.L.str.3
	strd	r2, r1, [r4, #40]
	.loc	1 71 40                         @ ../NPU/ethosu_profiler.c:71:40
	adr	r1, .LCPI0_2
	.loc	1 72 40                         @ ../NPU/ethosu_profiler.c:72:40
	strd	r2, r1, [r4, #60]
	movs	r1, #6
	.loc	1 88 5                          @ ../NPU/ethosu_profiler.c:88:5
	movt	r5, :upper16:ethosu_drv
	.loc	1 56 34                         @ ../NPU/ethosu_profiler.c:56:34
	str	r1, [r4, #100]
	movs	r1, #1
	.loc	1 60 46                         @ ../NPU/ethosu_profiler.c:60:46
	str	r1, [r4, #12]
	movs	r1, #40
	.loc	1 64 46                         @ ../NPU/ethosu_profiler.c:64:46
	strb	r1, [r4, #28]
	movs	r1, #2
	.loc	1 59 46                         @ ../NPU/ethosu_profiler.c:59:46
	strb	r1, [r4, #8]
	.loc	1 65 46                         @ ../NPU/ethosu_profiler.c:65:46
	str	r1, [r4, #32]
	movs	r1, #45
	.loc	1 69 46                         @ ../NPU/ethosu_profiler.c:69:46
	strb.w	r1, [r4, #48]
	movs	r1, #4
	.loc	1 70 46                         @ ../NPU/ethosu_profiler.c:70:46
	str	r1, [r4, #52]
	movs	r1, #62
	.loc	1 74 46                         @ ../NPU/ethosu_profiler.c:74:46
	strb.w	r1, [r4, #68]
	movs	r1, #8
	.loc	1 75 46                         @ ../NPU/ethosu_profiler.c:75:46
	str	r1, [r4, #72]
	.loc	1 76 40                         @ ../NPU/ethosu_profiler.c:76:40
	adr	r1, .LCPI0_3
	.loc	1 77 40                         @ ../NPU/ethosu_profiler.c:77:40
	strd	r2, r1, [r4, #80]
	.loc	1 83 44                         @ ../NPU/ethosu_profiler.c:83:44
	adr	r1, .LCPI0_4
	.loc	1 84 44                         @ ../NPU/ethosu_profiler.c:84:44
	strd	r0, r1, [r4, #92]
	.loc	1 88 5                          @ ../NPU/ethosu_profiler.c:88:5
	mov	r0, r5
	bl	ETHOSU_PMU_Enable
.Ltmp3:
	.loc	1 92 78                         @ ../NPU/ethosu_profiler.c:92:78
	ldrb	r2, [r4, #8]
	.loc	1 92 9 is_stmt 0                @ ../NPU/ethosu_profiler.c:92:9
	mov	r0, r5
	movs	r1, #0
	bl	ETHOSU_PMU_Set_EVTYPER
.Ltmp4:
	.loc	1 92 78                         @ ../NPU/ethosu_profiler.c:92:78
	ldrb	r2, [r4, #28]
	.loc	1 92 9                          @ ../NPU/ethosu_profiler.c:92:9
	mov	r0, r5
	.loc	1 93 51 is_stmt 1               @ ../NPU/ethosu_profiler.c:93:51
	ldr	r6, [r4, #12]
.Ltmp5:
	@DEBUG_VALUE: ethosu_pmu_init:evt_mask <- undef
	@DEBUG_VALUE: ethosu_pmu_init:i <- 1
	.loc	1 92 9                          @ ../NPU/ethosu_profiler.c:92:9
	movs	r1, #1
	bl	ETHOSU_PMU_Set_EVTYPER
.Ltmp6:
	.loc	1 93 51                         @ ../NPU/ethosu_profiler.c:93:51
	ldr	r0, [r4, #32]
	.loc	1 92 9                          @ ../NPU/ethosu_profiler.c:92:9
	movs	r1, #2
	.loc	1 92 78 is_stmt 0               @ ../NPU/ethosu_profiler.c:92:78
	ldrb.w	r2, [r4, #48]
	.loc	1 93 18 is_stmt 1               @ ../NPU/ethosu_profiler.c:93:18
	orrs	r6, r0
.Ltmp7:
	@DEBUG_VALUE: ethosu_pmu_init:i <- 2
	.loc	1 92 9                          @ ../NPU/ethosu_profiler.c:92:9
	mov	r0, r5
	bl	ETHOSU_PMU_Set_EVTYPER
.Ltmp8:
	.loc	1 93 51                         @ ../NPU/ethosu_profiler.c:93:51
	ldr	r0, [r4, #52]
	.loc	1 92 9                          @ ../NPU/ethosu_profiler.c:92:9
	movs	r1, #3
	.loc	1 92 78 is_stmt 0               @ ../NPU/ethosu_profiler.c:92:78
	ldrb.w	r2, [r4, #68]
	.loc	1 93 18 is_stmt 1               @ ../NPU/ethosu_profiler.c:93:18
	orrs	r6, r0
.Ltmp9:
	@DEBUG_VALUE: ethosu_pmu_init:i <- 3
	.loc	1 92 9                          @ ../NPU/ethosu_profiler.c:92:9
	mov	r0, r5
	bl	ETHOSU_PMU_Set_EVTYPER
.Ltmp10:
	.loc	1 93 51                         @ ../NPU/ethosu_profiler.c:93:51
	ldr	r0, [r4, #72]
	.loc	1 93 18 is_stmt 0               @ ../NPU/ethosu_profiler.c:93:18
	orrs	r0, r6
	orr	r4, r0, #-2147483648
.Ltmp11:
	@DEBUG_VALUE: ethosu_pmu_init:evt_mask <- $r4
	@DEBUG_VALUE: ethosu_pmu_init:i <- 4
	.loc	1 97 5 is_stmt 1                @ ../NPU/ethosu_profiler.c:97:5
	mov	r0, r5
	mov	r1, r4
	bl	ETHOSU_PMU_Set_CNTR_OVS
.Ltmp12:
	.loc	1 100 5                         @ ../NPU/ethosu_profiler.c:100:5
	mov	r0, r5
	mov	r1, r4
	bl	ETHOSU_PMU_CNTR_Disable
.Ltmp13:
	.loc	1 111 5                         @ ../NPU/ethosu_profiler.c:111:5
	mov	r0, r5
	bl	ETHOSU_PMU_CYCCNT_Reset
.Ltmp14:
	.loc	1 112 5                         @ ../NPU/ethosu_profiler.c:112:5
	mov	r0, r5
	bl	ETHOSU_PMU_EVCNTR_ALL_Reset
.Ltmp15:
	.loc	1 102 5                         @ ../NPU/ethosu_profiler.c:102:5
	mov	r0, r5
	mov	r1, r4
	.loc	1 102 5 epilogue_begin is_stmt 0 @ ../NPU/ethosu_profiler.c:102:5
	pop.w	{r4, r5, r6, lr}
.Ltmp16:
	b	ETHOSU_PMU_CNTR_Enable
.Ltmp17:
	.loc	1 0 5                           @ :0:5
.Ltmp18:
	.p2align	2
@ %bb.1:
.LCPI0_0:
.L.str:
	.asciz	"NPU IDLE\000\000\000"
.LCPI0_1:
.L.str.2:
	.asciz	"NPU AXI0_RD_DATA_BEAT_RECEIVED\000"
.LCPI0_2:
.L.str.4:
	.asciz	"NPU AXI0_WR_DATA_BEAT_WRITTEN\000\000"
.LCPI0_3:
.L.str.5:
	.asciz	"NPU AXI1_RD_DATA_BEAT_RECEIVED\000"
.LCPI0_4:
.L.str.6:
	.asciz	"NPU ACTIVE\000"
.Lfunc_end0:
	.size	ethosu_pmu_init, .Lfunc_end0-ethosu_pmu_init
	.cfi_endproc
	.file	6 "C:\\Users\\jimmy" "AppData\\Local\\Keil_v5\\ARM\\ARMCLANG\\bin\\..\\include\\stddef.h"
	.cantunwind
	.fnend
                                        @ -- End function
	.section	.text.ethosu_pmu_reset_counters,"ax",%progbits
	.hidden	ethosu_pmu_reset_counters       @ -- Begin function ethosu_pmu_reset_counters
	.globl	ethosu_pmu_reset_counters
	.p2align	2
	.type	ethosu_pmu_reset_counters,%function
	.code	16                              @ @ethosu_pmu_reset_counters
	.thumb_func
ethosu_pmu_reset_counters:
.Lfunc_begin1:
	.loc	1 109 0 is_stmt 1               @ ../NPU/ethosu_profiler.c:109:0
	.fnstart
	.cfi_startproc
@ %bb.0:
	.save	{r4, lr}
	push	{r4, lr}
	.cfi_def_cfa_offset 8
	.cfi_offset lr, -4
	.cfi_offset r4, -8
.Ltmp19:
	.loc	1 111 5 prologue_end            @ ../NPU/ethosu_profiler.c:111:5
	movw	r4, :lower16:ethosu_drv
	movt	r4, :upper16:ethosu_drv
	mov	r0, r4
	bl	ETHOSU_PMU_CYCCNT_Reset
.Ltmp20:
	.loc	1 112 5                         @ ../NPU/ethosu_profiler.c:112:5
	mov	r0, r4
	.loc	1 112 5 epilogue_begin is_stmt 0 @ ../NPU/ethosu_profiler.c:112:5
	pop.w	{r4, lr}
.Ltmp21:
	b	ETHOSU_PMU_EVCNTR_ALL_Reset
.Ltmp22:
.Lfunc_end1:
	.size	ethosu_pmu_reset_counters, .Lfunc_end1-ethosu_pmu_reset_counters
	.cfi_endproc
	.cantunwind
	.fnend
                                        @ -- End function
	.section	.text.ethosu_get_pmu_counters,"ax",%progbits
	.hidden	ethosu_get_pmu_counters         @ -- Begin function ethosu_get_pmu_counters
	.globl	ethosu_get_pmu_counters
	.p2align	2
	.type	ethosu_get_pmu_counters,%function
	.code	16                              @ @ethosu_get_pmu_counters
	.thumb_func
ethosu_get_pmu_counters:
.Lfunc_begin2:
	.loc	1 120 0 is_stmt 1               @ ../NPU/ethosu_profiler.c:120:0
	.fnstart
	.cfi_startproc
@ %bb.0:
	.save	{r4, r5, r6, r7, lr}
	push	{r4, r5, r6, r7, lr}
	.cfi_def_cfa_offset 20
	.cfi_offset lr, -4
	.cfi_offset r7, -8
	.cfi_offset r6, -12
	.cfi_offset r5, -16
	.cfi_offset r4, -20
	.pad	#4
	sub	sp, #4
	.cfi_def_cfa_offset 24
.Ltmp23:
	.loc	1 127 60 prologue_end           @ ../NPU/ethosu_profiler.c:127:60
	movw	r6, :lower16:npu_counters
	mov	r4, r0
.Ltmp24:
	@DEBUG_VALUE: ethosu_get_pmu_counters:i <- 0
	@DEBUG_VALUE: counter_overflow:pmu_counter_mask <- $r5
	movt	r6, :upper16:npu_counters
.Ltmp25:
	@DEBUG_VALUE: ethosu_get_pmu_counters:counters <- $r6
	.loc	1 44 38                         @ ../NPU/ethosu_profiler.c:44:38
	movw	r0, :lower16:ethosu_drv
.Ltmp26:
	.loc	1 127 60                        @ ../NPU/ethosu_profiler.c:127:60
	ldr	r5, [r6, #12]
.Ltmp27:
	.loc	1 44 38                         @ ../NPU/ethosu_profiler.c:44:38
	movt	r0, :upper16:ethosu_drv
	bl	ETHOSU_PMU_Get_CNTR_OVS
.Ltmp28:
	@DEBUG_VALUE: counter_overflow:overflow_status <- $r0
	.loc	1 127 13                        @ ../NPU/ethosu_profiler.c:127:13
	tst	r0, r5
	beq	.LBB2_2
.Ltmp29:
@ %bb.1:
	@DEBUG_VALUE: ethosu_get_pmu_counters:counters <- $r6
	@DEBUG_VALUE: ethosu_get_pmu_counters:i <- 0
	.loc	1 129 13                        @ ../NPU/ethosu_profiler.c:129:13
	movw	r0, :lower16:.L.str.7
	movt	r0, :upper16:.L.str.7
	bl	__2printf
.Ltmp30:
	ldr	r1, [r6, #24]
	movw	r0, :lower16:.L.str.8
	movt	r0, :upper16:.L.str.8
	bl	__2printf
.Ltmp31:
.LBB2_2:
	@DEBUG_VALUE: ethosu_get_pmu_counters:counters <- $r6
	@DEBUG_VALUE: ethosu_get_pmu_counters:i <- 0
	.loc	1 133 13                        @ ../NPU/ethosu_profiler.c:133:13
	movw	r5, :lower16:ethosu_drv
	movs	r1, #0
	movt	r5, :upper16:ethosu_drv
	mov	r0, r5
	bl	ETHOSU_PMU_Get_EVCNTR
.Ltmp32:
	.loc	1 127 60                        @ ../NPU/ethosu_profiler.c:127:60
	ldr	r7, [r6, #32]
.Ltmp33:
	.loc	1 132 53                        @ ../NPU/ethosu_profiler.c:132:53
	str	r0, [r6, #16]
.Ltmp34:
	@DEBUG_VALUE: ethosu_get_pmu_counters:i <- 1
	@DEBUG_VALUE: counter_overflow:pmu_counter_mask <- $r7
	.loc	1 44 38                         @ ../NPU/ethosu_profiler.c:44:38
	mov	r0, r5
	bl	ETHOSU_PMU_Get_CNTR_OVS
.Ltmp35:
	@DEBUG_VALUE: counter_overflow:overflow_status <- $r0
	.loc	1 127 13                        @ ../NPU/ethosu_profiler.c:127:13
	tst	r0, r7
	beq	.LBB2_4
.Ltmp36:
@ %bb.3:
	@DEBUG_VALUE: ethosu_get_pmu_counters:i <- 1
	@DEBUG_VALUE: ethosu_get_pmu_counters:counters <- $r6
	.loc	1 129 13                        @ ../NPU/ethosu_profiler.c:129:13
	movw	r0, :lower16:.L.str.7
	movt	r0, :upper16:.L.str.7
	bl	__2printf
.Ltmp37:
	ldr	r1, [r6, #44]
	movw	r0, :lower16:.L.str.8
	movt	r0, :upper16:.L.str.8
	bl	__2printf
.Ltmp38:
.LBB2_4:
	@DEBUG_VALUE: ethosu_get_pmu_counters:i <- 1
	@DEBUG_VALUE: ethosu_get_pmu_counters:counters <- $r6
	.loc	1 133 13                        @ ../NPU/ethosu_profiler.c:133:13
	movw	r5, :lower16:ethosu_drv
	movs	r1, #1
	movt	r5, :upper16:ethosu_drv
	mov	r0, r5
	bl	ETHOSU_PMU_Get_EVCNTR
.Ltmp39:
	.loc	1 127 60                        @ ../NPU/ethosu_profiler.c:127:60
	ldr	r7, [r6, #52]
.Ltmp40:
	.loc	1 132 53                        @ ../NPU/ethosu_profiler.c:132:53
	str	r0, [r6, #36]
.Ltmp41:
	@DEBUG_VALUE: ethosu_get_pmu_counters:i <- 2
	@DEBUG_VALUE: counter_overflow:pmu_counter_mask <- $r7
	.loc	1 44 38                         @ ../NPU/ethosu_profiler.c:44:38
	mov	r0, r5
	bl	ETHOSU_PMU_Get_CNTR_OVS
.Ltmp42:
	@DEBUG_VALUE: counter_overflow:overflow_status <- $r0
	.loc	1 127 13                        @ ../NPU/ethosu_profiler.c:127:13
	tst	r0, r7
	beq	.LBB2_6
.Ltmp43:
@ %bb.5:
	@DEBUG_VALUE: ethosu_get_pmu_counters:i <- 2
	@DEBUG_VALUE: ethosu_get_pmu_counters:counters <- $r6
	.loc	1 129 13                        @ ../NPU/ethosu_profiler.c:129:13
	movw	r0, :lower16:.L.str.7
	movt	r0, :upper16:.L.str.7
	bl	__2printf
.Ltmp44:
	ldr	r1, [r6, #64]
	movw	r0, :lower16:.L.str.8
	movt	r0, :upper16:.L.str.8
	bl	__2printf
.Ltmp45:
.LBB2_6:
	@DEBUG_VALUE: ethosu_get_pmu_counters:i <- 2
	@DEBUG_VALUE: ethosu_get_pmu_counters:counters <- $r6
	.loc	1 133 13                        @ ../NPU/ethosu_profiler.c:133:13
	movw	r5, :lower16:ethosu_drv
	movs	r1, #2
	movt	r5, :upper16:ethosu_drv
	mov	r0, r5
	bl	ETHOSU_PMU_Get_EVCNTR
.Ltmp46:
	.loc	1 127 60                        @ ../NPU/ethosu_profiler.c:127:60
	ldr	r7, [r6, #72]
.Ltmp47:
	.loc	1 132 53                        @ ../NPU/ethosu_profiler.c:132:53
	str	r0, [r6, #56]
.Ltmp48:
	@DEBUG_VALUE: ethosu_get_pmu_counters:i <- 3
	@DEBUG_VALUE: counter_overflow:pmu_counter_mask <- $r7
	.loc	1 44 38                         @ ../NPU/ethosu_profiler.c:44:38
	mov	r0, r5
	bl	ETHOSU_PMU_Get_CNTR_OVS
.Ltmp49:
	@DEBUG_VALUE: counter_overflow:overflow_status <- $r0
	.loc	1 127 13                        @ ../NPU/ethosu_profiler.c:127:13
	tst	r0, r7
	beq	.LBB2_8
.Ltmp50:
@ %bb.7:
	@DEBUG_VALUE: ethosu_get_pmu_counters:i <- 3
	@DEBUG_VALUE: ethosu_get_pmu_counters:counters <- $r6
	.loc	1 129 13                        @ ../NPU/ethosu_profiler.c:129:13
	movw	r0, :lower16:.L.str.7
	movt	r0, :upper16:.L.str.7
	bl	__2printf
.Ltmp51:
	ldr	r1, [r6, #84]
	movw	r0, :lower16:.L.str.8
	movt	r0, :upper16:.L.str.8
	bl	__2printf
.Ltmp52:
.LBB2_8:
	@DEBUG_VALUE: ethosu_get_pmu_counters:i <- 3
	@DEBUG_VALUE: ethosu_get_pmu_counters:counters <- $r6
	.loc	1 133 13                        @ ../NPU/ethosu_profiler.c:133:13
	movw	r5, :lower16:ethosu_drv
	movs	r1, #3
	movt	r5, :upper16:ethosu_drv
	mov	r0, r5
	bl	ETHOSU_PMU_Get_EVCNTR
.Ltmp53:
	.loc	1 132 53                        @ ../NPU/ethosu_profiler.c:132:53
	str	r0, [r6, #76]
.Ltmp54:
	@DEBUG_VALUE: ethosu_get_pmu_counters:i <- 4
	.loc	1 137 32                        @ ../NPU/ethosu_profiler.c:137:32
	mov	r0, r5
	bl	ETHOSU_PMU_Get_CCNTR
.Ltmp55:
	.loc	1 142 39                        @ ../NPU/ethosu_profiler.c:142:39
	ldrb	r2, [r6, #8]
.Ltmp56:
	.loc	1 137 30                        @ ../NPU/ethosu_profiler.c:137:30
	strd	r0, r1, [r6]
	.loc	1 142 9                         @ ../NPU/ethosu_profiler.c:142:9
	cmp	r2, #2
.Ltmp57:
	.loc	1 145 70                        @ ../NPU/ethosu_profiler.c:145:70
	ittt	eq
	ldreq	r1, [r6, #16]
	.loc	1 145 13 is_stmt 0              @ ../NPU/ethosu_profiler.c:145:13
	subeq	r0, r0, r1
	.loc	1 144 57 is_stmt 1              @ ../NPU/ethosu_profiler.c:144:57
	streq	r0, [r6, #88]
.Ltmp58:
	.loc	1 150 12                        @ ../NPU/ethosu_profiler.c:150:12
	movw	r1, :lower16:npu_counters
	mov	r0, r4
	movt	r1, :upper16:npu_counters
	movs	r2, #104
	bl	__aeabi_memcpy8
.Ltmp59:
	.loc	1 151 1 epilogue_begin          @ ../NPU/ethosu_profiler.c:151:1
	add	sp, #4
	pop	{r4, r5, r6, r7, pc}
.Ltmp60:
.Lfunc_end2:
	.size	ethosu_get_pmu_counters, .Lfunc_end2-ethosu_get_pmu_counters
	.cfi_endproc
	.cantunwind
	.fnend
                                        @ -- End function
	.type	.L.str.1,%object                @ @.str.1
	.section	.rodata.str1.1,"aMS",%progbits,1
.L.str.1:
	.asciz	"cycles"
	.size	.L.str.1, 7

	.type	.L.str.3,%object                @ @.str.3
.L.str.3:
	.asciz	"beats"
	.size	.L.str.3, 6

	.type	.L.str.7,%object                @ @.str.7
.L.str.7:
	.asciz	"WARN - "
	.size	.L.str.7, 8

	.type	.L.str.8,%object                @ @.str.8
.L.str.8:
	.asciz	"Counter overflow detected for %s.\n"
	.size	.L.str.8, 35

	.type	npu_counters,%object            @ @npu_counters
	.section	.bss.npu_counters,"aw",%nobits
	.p2align	3, 0x0
npu_counters:
	.zero	104
	.size	npu_counters, 104

	.hidden	_printf_percent
	.hidden	_printf_s
	.hidden	_printf_str
	.section	".note.GNU-stack","",%progbits
	.eabi_attribute	30, 1	@ Tag_ABI_optimization_goals
	.ARM_attribute	16, 1	@ Tag_AV_eba