	.text
	.syntax unified
	.eabi_attribute	67, "2.09"	@ Tag_conformance
	.cpu	cortex-m55
	.eabi_attribute	6, 21	@ Tag_CPU_arch
	.eabi_attribute	7, 77	@ Tag_CPU_arch_profile
	.eabi_attribute	8, 0	@ Tag_ARM_ISA_use
	.eabi_attribute	9, 3	@ Tag_THUMB_ISA_use
	.fpu	fpv5-d16
	.arch_extension	mve.fp
	.eabi_attribute	36, 1	@ Tag_FP_HP_extension
	.eabi_attribute	48, 2	@ Tag_MVE_arch
	.eabi_attribute	46, 1	@ Tag_DSP_extension
	.eabi_attribute	34, 1	@ Tag_CPU_unaligned_access
	.eabi_attribute	17, 1	@ Tag_ABI_PCS_GOT_use
	.eabi_attribute	20, 2	@ Tag_ABI_FP_denormal
	.eabi_attribute	21, 0	@ Tag_ABI_FP_exceptions
	.eabi_attribute	23, 1	@ Tag_ABI_FP_number_model
	.eabi_attribute	24, 1	@ Tag_ABI_align_needed
	.eabi_attribute	25, 1	@ Tag_ABI_align_preserved
	.eabi_attribute	28, 1	@ Tag_ABI_VFP_args
	.eabi_attribute	38, 1	@ Tag_ABI_FP_16bit_format
	.eabi_attribute	18, 2	@ Tag_ABI_PCS_wchar_t
	.eabi_attribute	26, 1	@ Tag_ABI_enum_size
	.eabi_attribute	14, 0	@ Tag_ABI_PCS_R9_use
	.file	"hsusbd.c"
	.file	1 "C:\\Users\\jimmy\\Desktop\\Nuvoton\\Nuvoton-Team\\repos\\m55m1-ElevatorCounting-YOLOv8n\\KEIL" "../../../../Library/StdDriver/inc\\hsusbd.h"
	.file	2 "C:\\Users\\jimmy\\Desktop\\Nuvoton\\Nuvoton-Team\\repos\\m55m1-ElevatorCounting-YOLOv8n\\KEIL" "../../../../Library/StdDriver/src/hsusbd.c"
	.file	3 "C:\\Users\\jimmy" "AppData\\Local\\Keil_v5\\ARM\\ARMCLANG\\bin\\..\\include\\stdint.h"
	.file	4 "C:\\Users\\jimmy\\Desktop\\Nuvoton\\Nuvoton-Team\\repos\\m55m1-ElevatorCounting-YOLOv8n\\KEIL" "../../../../Library/Device/Nuvoton/M55M1/Include\\hsusbd_reg.h"
	.file	5 "C:\\Users\\jimmy\\Desktop\\Nuvoton\\Nuvoton-Team\\repos\\m55m1-ElevatorCounting-YOLOv8n\\KEIL" "../../../../Library/Device/Nuvoton/M55M1/Include\\hsotg_reg.h"
	.file	6 "C:\\Users\\jimmy\\Desktop\\Nuvoton\\Nuvoton-Team\\repos\\m55m1-ElevatorCounting-YOLOv8n\\KEIL" "../../../../Library/Device/Nuvoton/M55M1/Include\\ccap_reg.h"
	.section	.text.HSUSBD_Open,"ax",%progbits
	.hidden	HSUSBD_Open                     @ -- Begin function HSUSBD_Open
	.globl	HSUSBD_Open
	.p2align	2
	.type	HSUSBD_Open,%function
	.code	16                              @ @HSUSBD_Open
	.thumb_func
HSUSBD_Open:
.Lfunc_begin0:
	.fnstart
	.cfi_sections .debug_frame
	.cfi_startproc
@ %bb.0:
	@DEBUG_VALUE: HSUSBD_Open:param <- $r0
	@DEBUG_VALUE: HSUSBD_Open:pfnClassReq <- $r1
	@DEBUG_VALUE: HSUSBD_Open:pfnSetInterface <- $r2
	.loc	2 72 20 prologue_end            @ ../../../../Library/StdDriver/src/hsusbd.c:72:20
	movw	r3, :lower16:g_hsusbd_sInfo
	movt	r3, :upper16:g_hsusbd_sInfo
	str	r0, [r3]
	.loc	2 73 30                         @ ../../../../Library/StdDriver/src/hsusbd.c:73:30
	movw	r3, :lower16:g_hsusbd_pfnClassRequest
	movt	r3, :upper16:g_hsusbd_pfnClassRequest
	str	r1, [r3]
	.loc	2 74 30                         @ ../../../../Library/StdDriver/src/hsusbd.c:74:30
	movw	r1, :lower16:g_hsusbd_pfnSetInterface
.Ltmp0:
	@DEBUG_VALUE: HSUSBD_Open:pfnClassReq <- [DW_OP_LLVM_entry_value 1] $r1
	movt	r1, :upper16:g_hsusbd_pfnSetInterface
	str	r2, [r1]
	.loc	2 77 29                         @ ../../../../Library/StdDriver/src/hsusbd.c:77:29
	movw	r2, :lower16:g_hsusbd_CtrlMaxPktSize
.Ltmp1:
	@DEBUG_VALUE: HSUSBD_Open:pfnSetInterface <- [DW_OP_LLVM_entry_value 1] $r2
	.loc	2 77 47 is_stmt 0               @ ../../../../Library/StdDriver/src/hsusbd.c:77:47
	ldr	r0, [r0]
.Ltmp2:
	@DEBUG_VALUE: HSUSBD_Open:param <- [DW_OP_LLVM_entry_value 1] $r0
	.loc	2 77 29                         @ ../../../../Library/StdDriver/src/hsusbd.c:77:29
	movt	r2, :upper16:g_hsusbd_CtrlMaxPktSize
	.loc	2 77 31                         @ ../../../../Library/StdDriver/src/hsusbd.c:77:31
	ldrb	r1, [r0, #7]
	movw	r0, #22276
	movt	r0, #16416
	.loc	2 77 29                         @ ../../../../Library/StdDriver/src/hsusbd.c:77:29
	str	r1, [r2]
	.loc	2 80 5 is_stmt 1                @ ../../../../Library/StdDriver/src/hsusbd.c:80:5
	ldr	r1, [r0]
	orr	r1, r1, #512
	str	r1, [r0]
	.loc	2 83 21                         @ ../../../../Library/StdDriver/src/hsusbd.c:83:21
	movw	r1, :lower16:SystemCoreClock
	movt	r1, :upper16:SystemCoreClock
	ldr	r1, [r1]
.Ltmp3:
	@DEBUG_VALUE: HSUSBD_Open:u32TimeOutCnt <- $r1
	.loc	2 0 21 is_stmt 0                @ :0:21
.Ltmp4:
	.p2align	2
.LBB0_1:                                @ =>This Inner Loop Header: Depth=1
	@DEBUG_VALUE: HSUSBD_Open:u32TimeOutCnt <- $r1
	@DEBUG_VALUE: HSUSBD_Open:param <- [DW_OP_LLVM_entry_value 1] $r0
	@DEBUG_VALUE: HSUSBD_Open:pfnSetInterface <- [DW_OP_LLVM_entry_value 1] $r2
	@DEBUG_VALUE: HSUSBD_Open:pfnClassReq <- [DW_OP_LLVM_entry_value 1] $r1
	@DEBUG_VALUE: HSUSBD_Open:u32TimeOutCnt <- $r1
	.loc	2 85 22 is_stmt 1               @ ../../../../Library/StdDriver/src/hsusbd.c:85:22
	ldr	r2, [r0]
	.loc	2 85 5 is_stmt 0                @ ../../../../Library/StdDriver/src/hsusbd.c:85:5
	lsls	r2, r2, #4
	bmi	.LBB0_9
.Ltmp5:
@ %bb.2:                                @   in Loop: Header=BB0_1 Depth=1
	@DEBUG_VALUE: HSUSBD_Open:u32TimeOutCnt <- $r1
	@DEBUG_VALUE: HSUSBD_Open:param <- [DW_OP_LLVM_entry_value 1] $r0
	@DEBUG_VALUE: HSUSBD_Open:pfnSetInterface <- [DW_OP_LLVM_entry_value 1] $r2
	@DEBUG_VALUE: HSUSBD_Open:pfnClassReq <- [DW_OP_LLVM_entry_value 1] $r1
	@DEBUG_VALUE: HSUSBD_Open:u32TimeOutCnt <- [DW_OP_constu 1, DW_OP_minus, DW_OP_stack_value] $r1
	.loc	2 87 13 is_stmt 1               @ ../../../../Library/StdDriver/src/hsusbd.c:87:13
	cmp	r1, #1
	beq	.LBB0_10
.Ltmp6:
@ %bb.3:                                @   in Loop: Header=BB0_1 Depth=1
	@DEBUG_VALUE: HSUSBD_Open:u32TimeOutCnt <- [DW_OP_constu 1, DW_OP_minus, DW_OP_stack_value] $r1
	@DEBUG_VALUE: HSUSBD_Open:param <- [DW_OP_LLVM_entry_value 1] $r0
	@DEBUG_VALUE: HSUSBD_Open:pfnSetInterface <- [DW_OP_LLVM_entry_value 1] $r2
	@DEBUG_VALUE: HSUSBD_Open:pfnClassReq <- [DW_OP_LLVM_entry_value 1] $r1
	@DEBUG_VALUE: HSUSBD_Open:u32TimeOutCnt <- [DW_OP_constu 1, DW_OP_minus, DW_OP_stack_value] $r1
	.loc	2 85 22                         @ ../../../../Library/StdDriver/src/hsusbd.c:85:22
	ldr	r2, [r0]
	.loc	2 85 5 is_stmt 0                @ ../../../../Library/StdDriver/src/hsusbd.c:85:5
	lsls	r2, r2, #4
	bmi	.LBB0_9
.Ltmp7:
@ %bb.4:                                @   in Loop: Header=BB0_1 Depth=1
	@DEBUG_VALUE: HSUSBD_Open:u32TimeOutCnt <- [DW_OP_constu 1, DW_OP_minus, DW_OP_stack_value] $r1
	@DEBUG_VALUE: HSUSBD_Open:param <- [DW_OP_LLVM_entry_value 1] $r0
	@DEBUG_VALUE: HSUSBD_Open:pfnSetInterface <- [DW_OP_LLVM_entry_value 1] $r2
	@DEBUG_VALUE: HSUSBD_Open:pfnClassReq <- [DW_OP_LLVM_entry_value 1] $r1
	@DEBUG_VALUE: HSUSBD_Open:u32TimeOutCnt <- [DW_OP_constu 2, DW_OP_minus, DW_OP_stack_value] $r1
	.loc	2 87 13 is_stmt 1               @ ../../../../Library/StdDriver/src/hsusbd.c:87:13
	cmp	r1, #2
	beq	.LBB0_10
.Ltmp8:
@ %bb.5:                                @   in Loop: Header=BB0_1 Depth=1
	@DEBUG_VALUE: HSUSBD_Open:u32TimeOutCnt <- [DW_OP_constu 2, DW_OP_minus, DW_OP_stack_value] $r1
	@DEBUG_VALUE: HSUSBD_Open:param <- [DW_OP_LLVM_entry_value 1] $r0
	@DEBUG_VALUE: HSUSBD_Open:pfnSetInterface <- [DW_OP_LLVM_entry_value 1] $r2
	@DEBUG_VALUE: HSUSBD_Open:pfnClassReq <- [DW_OP_LLVM_entry_value 1] $r1
	@DEBUG_VALUE: HSUSBD_Open:u32TimeOutCnt <- [DW_OP_constu 2, DW_OP_minus, DW_OP_stack_value] $r1
	.loc	2 85 22                         @ ../../../../Library/StdDriver/src/hsusbd.c:85:22
	ldr	r2, [r0]
	.loc	2 85 5 is_stmt 0                @ ../../../../Library/StdDriver/src/hsusbd.c:85:5
	lsls	r2, r2, #4
	bmi	.LBB0_9
.Ltmp9:
@ %bb.6:                                @   in Loop: Header=BB0_1 Depth=1
	@DEBUG_VALUE: HSUSBD_Open:u32TimeOutCnt <- [DW_OP_constu 2, DW_OP_minus, DW_OP_stack_value] $r1
	@DEBUG_VALUE: HSUSBD_Open:param <- [DW_OP_LLVM_entry_value 1] $r0
	@DEBUG_VALUE: HSUSBD_Open:pfnSetInterface <- [DW_OP_LLVM_entry_value 1] $r2
	@DEBUG_VALUE: HSUSBD_Open:pfnClassReq <- [DW_OP_LLVM_entry_value 1] $r1
	@DEBUG_VALUE: HSUSBD_Open:u32TimeOutCnt <- [DW_OP_constu 3, DW_OP_minus, DW_OP_stack_value] $r1
	.loc	2 87 13 is_stmt 1               @ ../../../../Library/StdDriver/src/hsusbd.c:87:13
	cmp	r1, #3
	beq	.LBB0_10
.Ltmp10:
@ %bb.7:                                @   in Loop: Header=BB0_1 Depth=1
	@DEBUG_VALUE: HSUSBD_Open:u32TimeOutCnt <- [DW_OP_constu 3, DW_OP_minus, DW_OP_stack_value] $r1
	@DEBUG_VALUE: HSUSBD_Open:param <- [DW_OP_LLVM_entry_value 1] $r0
	@DEBUG_VALUE: HSUSBD_Open:pfnSetInterface <- [DW_OP_LLVM_entry_value 1] $r2
	@DEBUG_VALUE: HSUSBD_Open:pfnClassReq <- [DW_OP_LLVM_entry_value 1] $r1
	@DEBUG_VALUE: HSUSBD_Open:u32TimeOutCnt <- [DW_OP_constu 3, DW_OP_minus, DW_OP_stack_value] $r1
	.loc	2 85 22                         @ ../../../../Library/StdDriver/src/hsusbd.c:85:22
	ldr	r2, [r0]
	.loc	2 85 5 is_stmt 0                @ ../../../../Library/StdDriver/src/hsusbd.c:85:5
	lsls	r2, r2, #4
	bmi	.LBB0_9
.Ltmp11:
@ %bb.8:                                @   in Loop: Header=BB0_1 Depth=1
	@DEBUG_VALUE: HSUSBD_Open:u32TimeOutCnt <- [DW_OP_constu 3, DW_OP_minus, DW_OP_stack_value] $r1
	@DEBUG_VALUE: HSUSBD_Open:param <- [DW_OP_LLVM_entry_value 1] $r0
	@DEBUG_VALUE: HSUSBD_Open:pfnSetInterface <- [DW_OP_LLVM_entry_value 1] $r2
	@DEBUG_VALUE: HSUSBD_Open:pfnClassReq <- [DW_OP_LLVM_entry_value 1] $r1
	.loc	2 87 13 is_stmt 1               @ ../../../../Library/StdDriver/src/hsusbd.c:87:13
	subs	r1, #4
.Ltmp12:
	@DEBUG_VALUE: HSUSBD_Open:u32TimeOutCnt <- $r1
	.loc	2 0 13 is_stmt 0                @ ../../../../Library/StdDriver/src/hsusbd.c:0:13
	itt	eq
	mvneq	r0, #1
.Ltmp13:
	.loc	2 93 1 is_stmt 1                @ ../../../../Library/StdDriver/src/hsusbd.c:93:1
	bxeq	lr
	b	.LBB0_1
.Ltmp14:
.LBB0_9:
	@DEBUG_VALUE: HSUSBD_Open:param <- [DW_OP_LLVM_entry_value 1] $r0
	@DEBUG_VALUE: HSUSBD_Open:pfnSetInterface <- [DW_OP_LLVM_entry_value 1] $r2
	@DEBUG_VALUE: HSUSBD_Open:pfnClassReq <- [DW_OP_LLVM_entry_value 1] $r1
	.loc	2 0 1 is_stmt 0                 @ ../../../../Library/StdDriver/src/hsusbd.c:0:1
	movw	r0, #20504
	movt	r0, #16416
	.loc	2 90 18 is_stmt 1               @ ../../../../Library/StdDriver/src/hsusbd.c:90:18
	ldr	r1, [r0]
	bic	r1, r1, #2
	str	r1, [r0]
	movs	r0, #0
	.loc	2 93 1                          @ ../../../../Library/StdDriver/src/hsusbd.c:93:1
	bx	lr
.Ltmp15:
.LBB0_10:
	@DEBUG_VALUE: HSUSBD_Open:param <- [DW_OP_LLVM_entry_value 1] $r0
	@DEBUG_VALUE: HSUSBD_Open:pfnSetInterface <- [DW_OP_LLVM_entry_value 1] $r2
	@DEBUG_VALUE: HSUSBD_Open:pfnClassReq <- [DW_OP_LLVM_entry_value 1] $r1
	.loc	2 0 1 is_stmt 0                 @ ../../../../Library/StdDriver/src/hsusbd.c:0:1
	mvn	r0, #1
	.loc	2 93 1                          @ ../../../../Library/StdDriver/src/hsusbd.c:93:1
	bx	lr
.Ltmp16:
.Lfunc_end0:
	.size	HSUSBD_Open, .Lfunc_end0-HSUSBD_Open
	.cfi_endproc
	.cantunwind
	.fnend
                                        @ -- End function
	.section	.text.HSUSBD_Start,"ax",%progbits
	.hidden	HSUSBD_Start                    @ -- Begin function HSUSBD_Start
	.globl	HSUSBD_Start
	.p2align	2
	.type	HSUSBD_Start,%function
	.code	16                              @ @HSUSBD_Start
	.thumb_func
HSUSBD_Start:
.Lfunc_begin1:
	.loc	2 105 0 is_stmt 1               @ ../../../../Library/StdDriver/src/hsusbd.c:105:0
	.fnstart
	.cfi_startproc
@ %bb.0:
	movw	r0, #20504
	movs	r1, #2
	movt	r0, #16416
.Ltmp17:
	.loc	2 106 18 prologue_end           @ ../../../../Library/StdDriver/src/hsusbd.c:106:18
	str	r1, [r0]
	movw	r1, #22276
	movt	r1, #16416
	.loc	2 107 5                         @ ../../../../Library/StdDriver/src/hsusbd.c:107:5
	ldr	r2, [r1]
	orr	r2, r2, #256
	str	r2, [r1]
	.loc	2 108 18                        @ ../../../../Library/StdDriver/src/hsusbd.c:108:18
	ldr	r1, [r0]
	orr	r1, r1, #8
	str	r1, [r0]
	.loc	2 109 1                         @ ../../../../Library/StdDriver/src/hsusbd.c:109:1
	bx	lr
.Ltmp18:
.Lfunc_end1:
	.size	HSUSBD_Start, .Lfunc_end1-HSUSBD_Start
	.cfi_endproc
	.cantunwind
	.fnend
                                        @ -- End function
	.section	.text.HSUSBD_ProcessSetupPacket,"ax",%progbits
	.hidden	HSUSBD_ProcessSetupPacket       @ -- Begin function HSUSBD_ProcessSetupPacket
	.globl	HSUSBD_ProcessSetupPacket
	.p2align	2
	.type	HSUSBD_ProcessSetupPacket,%function
	.code	16                              @ @HSUSBD_ProcessSetupPacket
	.thumb_func
HSUSBD_ProcessSetupPacket:
.Lfunc_begin2:
	.loc	2 121 0                         @ ../../../../Library/StdDriver/src/hsusbd.c:121:0
	.fnstart
	.cfi_startproc
@ %bb.0:
	movw	r0, #20548
.Ltmp19:
	.loc	2 123 27 prologue_end           @ ../../../../Library/StdDriver/src/hsusbd.c:123:27
	movw	r2, :lower16:gUsbCmd
	movt	r0, #16416
	.loc	2 123 47 is_stmt 0              @ ../../../../Library/StdDriver/src/hsusbd.c:123:47
	ldr	r1, [r0]
	.loc	2 123 27                        @ ../../../../Library/StdDriver/src/hsusbd.c:123:27
	movt	r2, :upper16:gUsbCmd
	strb	r1, [r2]
	.loc	2 124 43 is_stmt 1              @ ../../../../Library/StdDriver/src/hsusbd.c:124:43
	ldr	r3, [r0]
	.loc	2 130 5                         @ ../../../../Library/StdDriver/src/hsusbd.c:130:5
	ubfx	r1, r1, #5, #2
	.loc	2 124 52                        @ ../../../../Library/StdDriver/src/hsusbd.c:124:52
	lsrs	r3, r3, #8
	.loc	2 124 22 is_stmt 0              @ ../../../../Library/StdDriver/src/hsusbd.c:124:22
	strb	r3, [r2, #1]
	.loc	2 125 40 is_stmt 1              @ ../../../../Library/StdDriver/src/hsusbd.c:125:40
	ldr	r3, [r0, #4]
	.loc	2 125 20 is_stmt 0              @ ../../../../Library/StdDriver/src/hsusbd.c:125:20
	strh	r3, [r2, #2]
	.loc	2 126 40 is_stmt 1              @ ../../../../Library/StdDriver/src/hsusbd.c:126:40
	ldr	r3, [r0, #8]
	.loc	2 126 20 is_stmt 0              @ ../../../../Library/StdDriver/src/hsusbd.c:126:20
	strh	r3, [r2, #4]
	.loc	2 127 41 is_stmt 1              @ ../../../../Library/StdDriver/src/hsusbd.c:127:41
	ldr	r3, [r0, #12]
	.loc	2 127 21 is_stmt 0              @ ../../../../Library/StdDriver/src/hsusbd.c:127:21
	strh	r3, [r2, #6]
	.loc	2 130 5 is_stmt 1               @ ../../../../Library/StdDriver/src/hsusbd.c:130:5
.LCPI2_0:
	tbb	[pc, r1]
@ %bb.1:
	.loc	2 0 5 is_stmt 0                 @ ../../../../Library/StdDriver/src/hsusbd.c:0:5
.LJTI2_0:
	.byte	(.LBB2_2-(.LCPI2_0+4))/2
	.byte	(.LBB2_6-(.LCPI2_0+4))/2
	.byte	(.LBB2_3-(.LCPI2_0+4))/2
	.byte	(.LBB2_5-(.LCPI2_0+4))/2
	.p2align	1
.LBB2_2:
.Ltmp20:
	.loc	2 134 13 is_stmt 1              @ ../../../../Library/StdDriver/src/hsusbd.c:134:13
	b	HSUSBD_StandardRequest
.Ltmp21:
.LBB2_3:
	.loc	2 150 17                        @ ../../../../Library/StdDriver/src/hsusbd.c:150:17
	movw	r0, :lower16:g_hsusbd_pfnVendorRequest
	movt	r0, :upper16:g_hsusbd_pfnVendorRequest
	ldr	r0, [r0]
.Ltmp22:
	.loc	2 150 17 is_stmt 0              @ ../../../../Library/StdDriver/src/hsusbd.c:150:17
	cmp	r0, #0
.Ltmp23:
	.loc	2 165 1 is_stmt 1               @ ../../../../Library/StdDriver/src/hsusbd.c:165:1
	it	eq
	bxeq	lr
.LBB2_4:
.Ltmp24:
	.loc	2 152 17                        @ ../../../../Library/StdDriver/src/hsusbd.c:152:17
	bx	r0
.Ltmp25:
.LBB2_5:
	.loc	2 0 17 is_stmt 0                @ ../../../../Library/StdDriver/src/hsusbd.c:0:17
	movs	r1, #2
.Ltmp26:
	.loc	2 161 13 is_stmt 1              @ ../../../../Library/StdDriver/src/hsusbd.c:161:13
	str	r1, [r0, #-24]
	b	.LBB2_8
.Ltmp27:
.LBB2_6:
	.loc	2 140 17                        @ ../../../../Library/StdDriver/src/hsusbd.c:140:17
	movw	r0, :lower16:g_hsusbd_pfnClassRequest
	movt	r0, :upper16:g_hsusbd_pfnClassRequest
	ldr	r0, [r0]
.Ltmp28:
	.loc	2 140 17 is_stmt 0              @ ../../../../Library/StdDriver/src/hsusbd.c:140:17
	cbz	r0, .LBB2_8
@ %bb.7:
.Ltmp29:
	.loc	2 142 17 is_stmt 1              @ ../../../../Library/StdDriver/src/hsusbd.c:142:17
	bx	r0
.Ltmp30:
.LBB2_8:
	.loc	2 165 1                         @ ../../../../Library/StdDriver/src/hsusbd.c:165:1
	bx	lr
.Ltmp31:
.Lfunc_end2:
	.size	HSUSBD_ProcessSetupPacket, .Lfunc_end2-HSUSBD_ProcessSetupPacket
	.cfi_endproc
	.cantunwind
	.fnend
                                        @ -- End function
	.section	.text.HSUSBD_StandardRequest,"ax",%progbits
	.hidden	HSUSBD_StandardRequest          @ -- Begin function HSUSBD_StandardRequest
	.globl	HSUSBD_StandardRequest
	.p2align	2
	.type	HSUSBD_StandardRequest,%function
	.code	16                              @ @HSUSBD_StandardRequest
	.thumb_func
HSUSBD_StandardRequest:
.Lfunc_begin3:
	.loc	2 382 0                         @ ../../../../Library/StdDriver/src/hsusbd.c:382:0
	.fnstart
	.cfi_startproc
@ %bb.0:
	.save	{r4, r5, r6, lr}
	push	{r4, r5, r6, lr}
	.cfi_def_cfa_offset 16
	.cfi_offset lr, -4
	.cfi_offset r6, -8
	.cfi_offset r5, -12
	.cfi_offset r4, -16
.Ltmp32:
	.loc	2 387 18 prologue_end           @ ../../../../Library/StdDriver/src/hsusbd.c:387:18
	movw	r0, :lower16:gUsbCmd
.Ltmp33:
	.loc	2 384 28                        @ ../../../../Library/StdDriver/src/hsusbd.c:384:28
	movw	r4, :lower16:g_hsusbd_CtrlInPointer
.Ltmp34:
	.loc	2 387 18                        @ ../../../../Library/StdDriver/src/hsusbd.c:387:18
	movt	r0, :upper16:gUsbCmd
.Ltmp35:
	.loc	2 385 25                        @ ../../../../Library/StdDriver/src/hsusbd.c:385:25
	movw	r5, :lower16:g_hsusbd_CtrlInSize
.Ltmp36:
	.loc	2 387 18                        @ ../../../../Library/StdDriver/src/hsusbd.c:387:18
	ldrb	r1, [r0]
	movs	r3, #0
.Ltmp37:
	.loc	2 384 28                        @ ../../../../Library/StdDriver/src/hsusbd.c:384:28
	movt	r4, :upper16:g_hsusbd_CtrlInPointer
.Ltmp38:
	.loc	2 387 18                        @ ../../../../Library/StdDriver/src/hsusbd.c:387:18
	sxtb	r2, r1
.Ltmp39:
	.loc	2 385 25                        @ ../../../../Library/StdDriver/src/hsusbd.c:385:25
	movt	r5, :upper16:g_hsusbd_CtrlInSize
	.loc	2 387 9                         @ ../../../../Library/StdDriver/src/hsusbd.c:387:9
	cmp.w	r2, #-1
.Ltmp40:
	.loc	2 0 0 is_stmt 0                 @ ../../../../Library/StdDriver/src/hsusbd.c:0:0
	ldrb	r2, [r0, #1]
.Ltmp41:
	.loc	2 384 28 is_stmt 1              @ ../../../../Library/StdDriver/src/hsusbd.c:384:28
	str	r3, [r4]
	.loc	2 385 25                        @ ../../../../Library/StdDriver/src/hsusbd.c:385:25
	str	r3, [r5]
	.loc	2 387 9                         @ ../../../../Library/StdDriver/src/hsusbd.c:387:9
	ble.w	.LBB3_34
@ %bb.1:
.Ltmp42:
	.loc	2 474 9                         @ ../../../../Library/StdDriver/src/hsusbd.c:474:9
	subs	r1, r2, #1
	movw	r4, #20528
	cmp	r1, #10
	movt	r4, #16416
	bhi.w	.LBB3_42
@ %bb.2:
.LCPI3_0:
	tbh	[pc, r1, lsl #1]
@ %bb.3:
	.loc	2 0 9 is_stmt 0                 @ ../../../../Library/StdDriver/src/hsusbd.c:0:9
.LJTI3_1:
	.short	(.LBB3_4-(.LCPI3_0+4))/2
	.short	(.LBB3_42-(.LCPI3_0+4))/2
	.short	(.LBB3_44-(.LCPI3_0+4))/2
	.short	(.LBB3_42-(.LCPI3_0+4))/2
	.short	(.LBB3_43-(.LCPI3_0+4))/2
	.short	(.LBB3_42-(.LCPI3_0+4))/2
	.short	(.LBB3_42-(.LCPI3_0+4))/2
	.short	(.LBB3_42-(.LCPI3_0+4))/2
	.short	(.LBB3_47-(.LCPI3_0+4))/2
	.short	(.LBB3_42-(.LCPI3_0+4))/2
	.short	(.LBB3_48-(.LCPI3_0+4))/2
	.p2align	1
.LBB3_4:
.Ltmp43:
	.loc	2 478 30 is_stmt 1              @ ../../../../Library/StdDriver/src/hsusbd.c:478:30
	ldrb	r1, [r0, #2]
.Ltmp44:
	.loc	2 478 21 is_stmt 0              @ ../../../../Library/StdDriver/src/hsusbd.c:478:21
	cmp	r1, #1
	beq.w	.LBB3_54
@ %bb.5:
	cmp	r1, #0
	bne.w	.LBB3_60
@ %bb.6:
	.loc	2 0 21                          @ ../../../../Library/StdDriver/src/hsusbd.c:0:21
	mov.w	lr, #2
.Ltmp45:
	.loc	2 485 48 is_stmt 1              @ ../../../../Library/StdDriver/src/hsusbd.c:485:48
	ldrh	r0, [r0, #4]
.Ltmp46:
	.loc	2 487 21                        @ ../../../../Library/StdDriver/src/hsusbd.c:487:21
	mov	lr, lr
	movw	r3, :lower16:g_u32HsEpStallLock
.Ltmp47:
	.loc	2 485 55                        @ ../../../../Library/StdDriver/src/hsusbd.c:485:55
	and	r0, r0, #15
.Ltmp48:
	@DEBUG_VALUE: i <- 0
	@DEBUG_VALUE: epNum <- $r0
	.loc	2 0 55 is_stmt 0                @ ../../../../Library/StdDriver/src/hsusbd.c:0:55
	add.w	r1, r4, #228
	movs	r2, #0
	movt	r3, :upper16:g_u32HsEpStallLock
	b	.LBB3_8
.Ltmp49:
	.p2align	2
.LBB3_7:                                @   in Loop: Header=BB3_8 Depth=1
	@DEBUG_VALUE: i <- [DW_OP_plus_uconst 8, DW_OP_stack_value] $r2
	@DEBUG_VALUE: epNum <- $r0
	.loc	2 487 55 is_stmt 1              @ ../../../../Library/StdDriver/src/hsusbd.c:487:55
	adds	r2, #9
.Ltmp50:
	@DEBUG_VALUE: i <- $r2
	.loc	2 487 37 is_stmt 0              @ ../../../../Library/StdDriver/src/hsusbd.c:487:37
	add.w	r1, r1, #360
.Ltmp51:
	.loc	2 487 21                        @ ../../../../Library/StdDriver/src/hsusbd.c:487:21
	subs.w	lr, lr, #1
	bne	.LBB3_8
	b	.LBB3_60
.Ltmp52:
.LBB3_8:                                @ =>This Inner Loop Header: Depth=1
	@DEBUG_VALUE: epNum <- $r0
	@DEBUG_VALUE: i <- $r2
	.loc	2 489 46 is_stmt 1              @ ../../../../Library/StdDriver/src/hsusbd.c:489:46
	ldr	r6, [r1, #-148]
	.loc	2 489 62 is_stmt 0              @ ../../../../Library/StdDriver/src/hsusbd.c:489:62
	ubfx	r6, r6, #4, #4
	.loc	2 489 78                        @ ../../../../Library/StdDriver/src/hsusbd.c:489:78
	cmp	r6, r0
	.loc	2 489 83                        @ ../../../../Library/StdDriver/src/hsusbd.c:489:83
	ittt	eq
	ldreq	r6, [r3]
.Ltmp53:
	.loc	2 489 29                        @ ../../../../Library/StdDriver/src/hsusbd.c:489:29
	lsreq	r6, r2
	lslseq.w	r6, r6, #31
	beq.w	.LBB3_33
.Ltmp54:
.LBB3_9:                                @   in Loop: Header=BB3_8 Depth=1
	@DEBUG_VALUE: i <- $r2
	@DEBUG_VALUE: epNum <- $r0
	@DEBUG_VALUE: i <- [DW_OP_plus_uconst 1, DW_OP_stack_value] $r2
	.loc	2 489 46                        @ ../../../../Library/StdDriver/src/hsusbd.c:489:46
	ldr	r6, [r1, #-108]
	.loc	2 489 62                        @ ../../../../Library/StdDriver/src/hsusbd.c:489:62
	ubfx	r6, r6, #4, #4
	.loc	2 489 78                        @ ../../../../Library/StdDriver/src/hsusbd.c:489:78
	cmp	r6, r0
	bne	.LBB3_12
.Ltmp55:
@ %bb.10:                               @   in Loop: Header=BB3_8 Depth=1
	@DEBUG_VALUE: i <- [DW_OP_plus_uconst 1, DW_OP_stack_value] $r2
	@DEBUG_VALUE: epNum <- $r0
	.loc	2 489 83                        @ ../../../../Library/StdDriver/src/hsusbd.c:489:83
	ldr	r6, [r3]
.Ltmp56:
	.loc	2 489 29                        @ ../../../../Library/StdDriver/src/hsusbd.c:489:29
	lsrs	r6, r2
	lsls	r6, r6, #30
	bmi	.LBB3_12
.Ltmp57:
@ %bb.11:                               @   in Loop: Header=BB3_8 Depth=1
	@DEBUG_VALUE: i <- [DW_OP_plus_uconst 1, DW_OP_stack_value] $r2
	@DEBUG_VALUE: epNum <- $r0
	.loc	2 491 69 is_stmt 1              @ ../../../../Library/StdDriver/src/hsusbd.c:491:69
	ldr	r6, [r1, #-120]
	.loc	2 491 78 is_stmt 0              @ ../../../../Library/StdDriver/src/hsusbd.c:491:78
	and	r6, r6, #231
	.loc	2 491 88                        @ ../../../../Library/StdDriver/src/hsusbd.c:491:88
	adds	r6, #8
	.loc	2 491 52                        @ ../../../../Library/StdDriver/src/hsusbd.c:491:52
	str	r6, [r1, #-120]
.Ltmp58:
	.loc	2 0 52                          @ :0:52
.Ltmp59:
	.p2align	2
.LBB3_12:                               @   in Loop: Header=BB3_8 Depth=1
	@DEBUG_VALUE: i <- [DW_OP_plus_uconst 1, DW_OP_stack_value] $r2
	@DEBUG_VALUE: epNum <- $r0
	@DEBUG_VALUE: i <- [DW_OP_plus_uconst 2, DW_OP_stack_value] $r2
	.loc	2 489 46 is_stmt 1              @ ../../../../Library/StdDriver/src/hsusbd.c:489:46
	ldr	r6, [r1, #-68]
	.loc	2 489 62 is_stmt 0              @ ../../../../Library/StdDriver/src/hsusbd.c:489:62
	ubfx	r6, r6, #4, #4
	.loc	2 489 78                        @ ../../../../Library/StdDriver/src/hsusbd.c:489:78
	cmp	r6, r0
	bne	.LBB3_15
.Ltmp60:
@ %bb.13:                               @   in Loop: Header=BB3_8 Depth=1
	@DEBUG_VALUE: i <- [DW_OP_plus_uconst 2, DW_OP_stack_value] $r2
	@DEBUG_VALUE: epNum <- $r0
	.loc	2 489 83                        @ ../../../../Library/StdDriver/src/hsusbd.c:489:83
	ldr	r6, [r3]
.Ltmp61:
	.loc	2 489 29                        @ ../../../../Library/StdDriver/src/hsusbd.c:489:29
	lsrs	r6, r2
	lsls	r6, r6, #29
	bmi	.LBB3_15
.Ltmp62:
@ %bb.14:                               @   in Loop: Header=BB3_8 Depth=1
	@DEBUG_VALUE: i <- [DW_OP_plus_uconst 2, DW_OP_stack_value] $r2
	@DEBUG_VALUE: epNum <- $r0
	.loc	2 491 69 is_stmt 1              @ ../../../../Library/StdDriver/src/hsusbd.c:491:69
	ldr	r6, [r1, #-80]
	.loc	2 491 78 is_stmt 0              @ ../../../../Library/StdDriver/src/hsusbd.c:491:78
	and	r6, r6, #231
	.loc	2 491 88                        @ ../../../../Library/StdDriver/src/hsusbd.c:491:88
	adds	r6, #8
	.loc	2 491 52                        @ ../../../../Library/StdDriver/src/hsusbd.c:491:52
	str	r6, [r1, #-80]
.Ltmp63:
	.loc	2 0 52                          @ :0:52
.Ltmp64:
	.p2align	2
.LBB3_15:                               @   in Loop: Header=BB3_8 Depth=1
	@DEBUG_VALUE: i <- [DW_OP_plus_uconst 2, DW_OP_stack_value] $r2
	@DEBUG_VALUE: epNum <- $r0
	@DEBUG_VALUE: i <- [DW_OP_plus_uconst 3, DW_OP_stack_value] $r2
	.loc	2 489 46 is_stmt 1              @ ../../../../Library/StdDriver/src/hsusbd.c:489:46
	ldr	r6, [r1, #-28]
	.loc	2 489 62 is_stmt 0              @ ../../../../Library/StdDriver/src/hsusbd.c:489:62
	ubfx	r6, r6, #4, #4
	.loc	2 489 78                        @ ../../../../Library/StdDriver/src/hsusbd.c:489:78
	cmp	r6, r0
	bne	.LBB3_18
.Ltmp65:
@ %bb.16:                               @   in Loop: Header=BB3_8 Depth=1
	@DEBUG_VALUE: i <- [DW_OP_plus_uconst 3, DW_OP_stack_value] $r2
	@DEBUG_VALUE: epNum <- $r0
	.loc	2 489 83                        @ ../../../../Library/StdDriver/src/hsusbd.c:489:83
	ldr	r6, [r3]
.Ltmp66:
	.loc	2 489 29                        @ ../../../../Library/StdDriver/src/hsusbd.c:489:29
	lsrs	r6, r2
	lsls	r6, r6, #28
	bmi	.LBB3_18
.Ltmp67:
@ %bb.17:                               @   in Loop: Header=BB3_8 Depth=1
	@DEBUG_VALUE: i <- [DW_OP_plus_uconst 3, DW_OP_stack_value] $r2
	@DEBUG_VALUE: epNum <- $r0
	.loc	2 491 69 is_stmt 1              @ ../../../../Library/StdDriver/src/hsusbd.c:491:69
	ldr	r6, [r1, #-40]
	.loc	2 491 78 is_stmt 0              @ ../../../../Library/StdDriver/src/hsusbd.c:491:78
	and	r6, r6, #231
	.loc	2 491 88                        @ ../../../../Library/StdDriver/src/hsusbd.c:491:88
	adds	r6, #8
	.loc	2 491 52                        @ ../../../../Library/StdDriver/src/hsusbd.c:491:52
	str	r6, [r1, #-40]
.Ltmp68:
	.loc	2 0 52                          @ :0:52
.Ltmp69:
	.p2align	2
.LBB3_18:                               @   in Loop: Header=BB3_8 Depth=1
	@DEBUG_VALUE: i <- [DW_OP_plus_uconst 3, DW_OP_stack_value] $r2
	@DEBUG_VALUE: epNum <- $r0
	@DEBUG_VALUE: i <- [DW_OP_plus_uconst 4, DW_OP_stack_value] $r2
	.loc	2 489 46 is_stmt 1              @ ../../../../Library/StdDriver/src/hsusbd.c:489:46
	ldr	r6, [r1, #12]
	.loc	2 489 62 is_stmt 0              @ ../../../../Library/StdDriver/src/hsusbd.c:489:62
	ubfx	r6, r6, #4, #4
	.loc	2 489 78                        @ ../../../../Library/StdDriver/src/hsusbd.c:489:78
	cmp	r6, r0
	bne	.LBB3_21
.Ltmp70:
@ %bb.19:                               @   in Loop: Header=BB3_8 Depth=1
	@DEBUG_VALUE: i <- [DW_OP_plus_uconst 4, DW_OP_stack_value] $r2
	@DEBUG_VALUE: epNum <- $r0
	.loc	2 489 83                        @ ../../../../Library/StdDriver/src/hsusbd.c:489:83
	ldr	r6, [r3]
.Ltmp71:
	.loc	2 489 29                        @ ../../../../Library/StdDriver/src/hsusbd.c:489:29
	lsrs	r6, r2
	lsls	r6, r6, #27
	bmi	.LBB3_21
.Ltmp72:
@ %bb.20:                               @   in Loop: Header=BB3_8 Depth=1
	@DEBUG_VALUE: i <- [DW_OP_plus_uconst 4, DW_OP_stack_value] $r2
	@DEBUG_VALUE: epNum <- $r0
	.loc	2 491 69 is_stmt 1              @ ../../../../Library/StdDriver/src/hsusbd.c:491:69
	ldr	r6, [r1]
	.loc	2 491 78 is_stmt 0              @ ../../../../Library/StdDriver/src/hsusbd.c:491:78
	and	r6, r6, #231
	.loc	2 491 88                        @ ../../../../Library/StdDriver/src/hsusbd.c:491:88
	adds	r6, #8
	.loc	2 491 52                        @ ../../../../Library/StdDriver/src/hsusbd.c:491:52
	str	r6, [r1]
.Ltmp73:
	.loc	2 0 52                          @ :0:52
.Ltmp74:
	.p2align	2
.LBB3_21:                               @   in Loop: Header=BB3_8 Depth=1
	@DEBUG_VALUE: i <- [DW_OP_plus_uconst 4, DW_OP_stack_value] $r2
	@DEBUG_VALUE: epNum <- $r0
	@DEBUG_VALUE: i <- [DW_OP_plus_uconst 5, DW_OP_stack_value] $r2
	.loc	2 489 46 is_stmt 1              @ ../../../../Library/StdDriver/src/hsusbd.c:489:46
	ldr	r6, [r1, #52]
	.loc	2 489 62 is_stmt 0              @ ../../../../Library/StdDriver/src/hsusbd.c:489:62
	ubfx	r6, r6, #4, #4
	.loc	2 489 78                        @ ../../../../Library/StdDriver/src/hsusbd.c:489:78
	cmp	r6, r0
	bne	.LBB3_24
.Ltmp75:
@ %bb.22:                               @   in Loop: Header=BB3_8 Depth=1
	@DEBUG_VALUE: i <- [DW_OP_plus_uconst 5, DW_OP_stack_value] $r2
	@DEBUG_VALUE: epNum <- $r0
	.loc	2 489 83                        @ ../../../../Library/StdDriver/src/hsusbd.c:489:83
	ldr	r6, [r3]
.Ltmp76:
	.loc	2 489 29                        @ ../../../../Library/StdDriver/src/hsusbd.c:489:29
	lsrs	r6, r2
	lsls	r6, r6, #26
	bmi	.LBB3_24
.Ltmp77:
@ %bb.23:                               @   in Loop: Header=BB3_8 Depth=1
	@DEBUG_VALUE: i <- [DW_OP_plus_uconst 5, DW_OP_stack_value] $r2
	@DEBUG_VALUE: epNum <- $r0
	.loc	2 491 69 is_stmt 1              @ ../../../../Library/StdDriver/src/hsusbd.c:491:69
	ldr	r6, [r1, #40]
	.loc	2 491 78 is_stmt 0              @ ../../../../Library/StdDriver/src/hsusbd.c:491:78
	and	r6, r6, #231
	.loc	2 491 88                        @ ../../../../Library/StdDriver/src/hsusbd.c:491:88
	adds	r6, #8
	.loc	2 491 52                        @ ../../../../Library/StdDriver/src/hsusbd.c:491:52
	str	r6, [r1, #40]
.Ltmp78:
	.loc	2 0 52                          @ :0:52
.Ltmp79:
	.p2align	2
.LBB3_24:                               @   in Loop: Header=BB3_8 Depth=1
	@DEBUG_VALUE: i <- [DW_OP_plus_uconst 5, DW_OP_stack_value] $r2
	@DEBUG_VALUE: epNum <- $r0
	@DEBUG_VALUE: i <- [DW_OP_plus_uconst 6, DW_OP_stack_value] $r2
	.loc	2 489 46 is_stmt 1              @ ../../../../Library/StdDriver/src/hsusbd.c:489:46
	ldr	r6, [r1, #92]
	.loc	2 489 62 is_stmt 0              @ ../../../../Library/StdDriver/src/hsusbd.c:489:62
	ubfx	r6, r6, #4, #4
	.loc	2 489 78                        @ ../../../../Library/StdDriver/src/hsusbd.c:489:78
	cmp	r6, r0
	bne	.LBB3_27
.Ltmp80:
@ %bb.25:                               @   in Loop: Header=BB3_8 Depth=1
	@DEBUG_VALUE: i <- [DW_OP_plus_uconst 6, DW_OP_stack_value] $r2
	@DEBUG_VALUE: epNum <- $r0
	.loc	2 489 83                        @ ../../../../Library/StdDriver/src/hsusbd.c:489:83
	ldr	r6, [r3]
.Ltmp81:
	.loc	2 489 29                        @ ../../../../Library/StdDriver/src/hsusbd.c:489:29
	lsrs	r6, r2
	lsls	r6, r6, #25
	bmi	.LBB3_27
.Ltmp82:
@ %bb.26:                               @   in Loop: Header=BB3_8 Depth=1
	@DEBUG_VALUE: i <- [DW_OP_plus_uconst 6, DW_OP_stack_value] $r2
	@DEBUG_VALUE: epNum <- $r0
	.loc	2 491 69 is_stmt 1              @ ../../../../Library/StdDriver/src/hsusbd.c:491:69
	ldr	r6, [r1, #80]
	.loc	2 491 78 is_stmt 0              @ ../../../../Library/StdDriver/src/hsusbd.c:491:78
	and	r6, r6, #231
	.loc	2 491 88                        @ ../../../../Library/StdDriver/src/hsusbd.c:491:88
	adds	r6, #8
	.loc	2 491 52                        @ ../../../../Library/StdDriver/src/hsusbd.c:491:52
	str	r6, [r1, #80]
.Ltmp83:
	.loc	2 0 52                          @ :0:52
.Ltmp84:
	.p2align	2
.LBB3_27:                               @   in Loop: Header=BB3_8 Depth=1
	@DEBUG_VALUE: i <- [DW_OP_plus_uconst 6, DW_OP_stack_value] $r2
	@DEBUG_VALUE: epNum <- $r0
	@DEBUG_VALUE: i <- [DW_OP_plus_uconst 7, DW_OP_stack_value] $r2
	.loc	2 489 46 is_stmt 1              @ ../../../../Library/StdDriver/src/hsusbd.c:489:46
	ldr.w	r6, [r1, #132]
	.loc	2 489 62 is_stmt 0              @ ../../../../Library/StdDriver/src/hsusbd.c:489:62
	ubfx	r6, r6, #4, #4
	.loc	2 489 78                        @ ../../../../Library/StdDriver/src/hsusbd.c:489:78
	cmp	r6, r0
	bne	.LBB3_30
.Ltmp85:
@ %bb.28:                               @   in Loop: Header=BB3_8 Depth=1
	@DEBUG_VALUE: i <- [DW_OP_plus_uconst 7, DW_OP_stack_value] $r2
	@DEBUG_VALUE: epNum <- $r0
	.loc	2 489 83                        @ ../../../../Library/StdDriver/src/hsusbd.c:489:83
	ldr	r6, [r3]
.Ltmp86:
	.loc	2 489 29                        @ ../../../../Library/StdDriver/src/hsusbd.c:489:29
	lsrs	r6, r2
	lsls	r6, r6, #24
	bmi	.LBB3_30
.Ltmp87:
@ %bb.29:                               @   in Loop: Header=BB3_8 Depth=1
	@DEBUG_VALUE: i <- [DW_OP_plus_uconst 7, DW_OP_stack_value] $r2
	@DEBUG_VALUE: epNum <- $r0
	.loc	2 491 69 is_stmt 1              @ ../../../../Library/StdDriver/src/hsusbd.c:491:69
	ldr	r6, [r1, #120]
	.loc	2 491 78 is_stmt 0              @ ../../../../Library/StdDriver/src/hsusbd.c:491:78
	and	r6, r6, #231
	.loc	2 491 88                        @ ../../../../Library/StdDriver/src/hsusbd.c:491:88
	adds	r6, #8
	.loc	2 491 52                        @ ../../../../Library/StdDriver/src/hsusbd.c:491:52
	str	r6, [r1, #120]
.Ltmp88:
	.loc	2 0 52                          @ :0:52
.Ltmp89:
	.p2align	2
.LBB3_30:                               @   in Loop: Header=BB3_8 Depth=1
	@DEBUG_VALUE: i <- [DW_OP_plus_uconst 7, DW_OP_stack_value] $r2
	@DEBUG_VALUE: epNum <- $r0
	@DEBUG_VALUE: i <- [DW_OP_plus_uconst 8, DW_OP_stack_value] $r2
	.loc	2 489 46 is_stmt 1              @ ../../../../Library/StdDriver/src/hsusbd.c:489:46
	ldr.w	r6, [r1, #172]
	.loc	2 489 62 is_stmt 0              @ ../../../../Library/StdDriver/src/hsusbd.c:489:62
	ubfx	r6, r6, #4, #4
	.loc	2 489 78                        @ ../../../../Library/StdDriver/src/hsusbd.c:489:78
	cmp	r6, r0
	bne.w	.LBB3_7
.Ltmp90:
@ %bb.31:                               @   in Loop: Header=BB3_8 Depth=1
	@DEBUG_VALUE: i <- [DW_OP_plus_uconst 8, DW_OP_stack_value] $r2
	@DEBUG_VALUE: epNum <- $r0
	.loc	2 489 83                        @ ../../../../Library/StdDriver/src/hsusbd.c:489:83
	ldr	r6, [r3]
.Ltmp91:
	.loc	2 489 29                        @ ../../../../Library/StdDriver/src/hsusbd.c:489:29
	lsrs	r6, r2
	lsls	r6, r6, #23
	bmi.w	.LBB3_7
.Ltmp92:
@ %bb.32:                               @   in Loop: Header=BB3_8 Depth=1
	@DEBUG_VALUE: i <- [DW_OP_plus_uconst 8, DW_OP_stack_value] $r2
	@DEBUG_VALUE: epNum <- $r0
	.loc	2 491 69 is_stmt 1              @ ../../../../Library/StdDriver/src/hsusbd.c:491:69
	ldr.w	r6, [r1, #160]
	.loc	2 491 78 is_stmt 0              @ ../../../../Library/StdDriver/src/hsusbd.c:491:78
	and	r6, r6, #231
	.loc	2 491 88                        @ ../../../../Library/StdDriver/src/hsusbd.c:491:88
	adds	r6, #8
	.loc	2 491 52                        @ ../../../../Library/StdDriver/src/hsusbd.c:491:52
	str.w	r6, [r1, #160]
	b	.LBB3_7
.Ltmp93:
.LBB3_33:                               @   in Loop: Header=BB3_8 Depth=1
	@DEBUG_VALUE: i <- $r2
	@DEBUG_VALUE: epNum <- $r0
	.loc	2 491 69                        @ ../../../../Library/StdDriver/src/hsusbd.c:491:69
	ldr	r6, [r1, #-160]
	.loc	2 491 78                        @ ../../../../Library/StdDriver/src/hsusbd.c:491:78
	and	r6, r6, #231
	.loc	2 491 88                        @ ../../../../Library/StdDriver/src/hsusbd.c:491:88
	adds	r6, #8
	.loc	2 491 52                        @ ../../../../Library/StdDriver/src/hsusbd.c:491:52
	str	r6, [r1, #-160]
	b	.LBB3_9
.Ltmp94:
.LBB3_34:
	.loc	2 390 9 is_stmt 1               @ ../../../../Library/StdDriver/src/hsusbd.c:390:9
	ror.w	r2, r2, #1
	cmp	r2, #5
	bhi	.LBB3_53
@ %bb.35:
.LCPI3_1:
	tbb	[pc, r2]
@ %bb.36:
	.loc	2 0 9 is_stmt 0                 @ ../../../../Library/StdDriver/src/hsusbd.c:0:9
.LJTI3_0:
	.byte	(.LBB3_37-(.LCPI3_1+4))/2
	.byte	(.LBB3_53-(.LCPI3_1+4))/2
	.byte	(.LBB3_53-(.LCPI3_1+4))/2
	.byte	(.LBB3_65-(.LCPI3_1+4))/2
	.byte	(.LBB3_50-(.LCPI3_1+4))/2
	.byte	(.LBB3_51-(.LCPI3_1+4))/2
	.p2align	1
.LBB3_37:
	movw	r6, :lower16:g_hsusbd_buf
.Ltmp95:
	.loc	2 426 21 is_stmt 1              @ ../../../../Library/StdDriver/src/hsusbd.c:426:21
	cmp	r1, #130
	movt	r6, :upper16:g_hsusbd_buf
	beq.w	.LBB3_62
@ %bb.38:
	cmp	r1, #129
	beq.w	.LBB3_61
@ %bb.39:
	cmp	r1, #128
	bne.w	.LBB3_64
@ %bb.40:
.Ltmp96:
	@DEBUG_VALUE: u8Tmp <- 0
	.loc	2 432 26                        @ ../../../../Library/StdDriver/src/hsusbd.c:432:26
	movw	r0, :lower16:g_hsusbd_sInfo
	movt	r0, :upper16:g_hsusbd_sInfo
	ldr	r0, [r0]
	.loc	2 432 42 is_stmt 0              @ ../../../../Library/StdDriver/src/hsusbd.c:432:42
	ldr	r0, [r0, #4]
	.loc	2 432 26                        @ ../../../../Library/StdDriver/src/hsusbd.c:432:26
	ldrb	r1, [r0, #7]
.Ltmp97:
	.loc	2 432 25                        @ ../../../../Library/StdDriver/src/hsusbd.c:432:25
	ubfx	r0, r1, #6, #1
.Ltmp98:
	@DEBUG_VALUE: u8Tmp <- $r0
	.loc	2 437 25 is_stmt 1              @ ../../../../Library/StdDriver/src/hsusbd.c:437:25
	lsls	r1, r1, #26
	bpl	.LBB3_63
.Ltmp99:
@ %bb.41:
	@DEBUG_VALUE: u8Tmp <- $r0
	.loc	2 439 44                        @ ../../../../Library/StdDriver/src/hsusbd.c:439:44
	movw	r1, :lower16:g_hsusbd_RemoteWakeupEn
	movt	r1, :upper16:g_hsusbd_RemoteWakeupEn
	ldrb	r1, [r1]
	.loc	2 439 31 is_stmt 0              @ ../../../../Library/StdDriver/src/hsusbd.c:439:31
	orr.w	r0, r0, r1, lsl #1
.Ltmp100:
	@DEBUG_VALUE: u8Tmp <- $r0
	.loc	2 440 21 is_stmt 1              @ ../../../../Library/StdDriver/src/hsusbd.c:440:21
	b	.LBB3_63
.Ltmp101:
.LBB3_42:
	.loc	2 0 21 is_stmt 0                @ ../../../../Library/StdDriver/src/hsusbd.c:0:21
	movs	r0, #2
.Ltmp102:
	.loc	2 572 17 is_stmt 1              @ ../../../../Library/StdDriver/src/hsusbd.c:572:17
	str	r0, [r4, #-4]
.Ltmp103:
	.loc	2 577 1 epilogue_begin          @ ../../../../Library/StdDriver/src/hsusbd.c:577:1
	pop	{r4, r5, r6, pc}
.LBB3_43:
.Ltmp104:
	.loc	2 509 53                        @ ../../../../Library/StdDriver/src/hsusbd.c:509:53
	ldrb	r0, [r0, #2]
	.loc	2 509 34 is_stmt 0              @ ../../../../Library/StdDriver/src/hsusbd.c:509:34
	movw	r1, :lower16:g_hsusbd_UsbAddr
	movt	r1, :upper16:g_hsusbd_UsbAddr
	strb	r0, [r1]
	b	.LBB3_60
.Ltmp105:
.LBB3_44:
	.loc	2 530 30 is_stmt 1              @ ../../../../Library/StdDriver/src/hsusbd.c:530:30
	ldrh	r1, [r0, #2]
	.loc	2 530 37 is_stmt 0              @ ../../../../Library/StdDriver/src/hsusbd.c:530:37
	and	r2, r1, #3
.Ltmp106:
	.loc	2 530 21                        @ ../../../../Library/StdDriver/src/hsusbd.c:530:21
	cmp	r2, #3
	beq	.LBB3_55
@ %bb.45:
	cmp	r2, #2
	bne	.LBB3_56
@ %bb.46:
.Ltmp107:
	.loc	2 532 45 is_stmt 1              @ ../../../../Library/StdDriver/src/hsusbd.c:532:45
	movw	r2, :lower16:g_hsusbd_EnableTestMode
	movs	r3, #1
	movt	r2, :upper16:g_hsusbd_EnableTestMode
	.loc	2 533 63                        @ ../../../../Library/StdDriver/src/hsusbd.c:533:63
	ldrb	r0, [r0, #5]
	.loc	2 532 45                        @ ../../../../Library/StdDriver/src/hsusbd.c:532:45
	strb	r3, [r2]
	.loc	2 533 43                        @ ../../../../Library/StdDriver/src/hsusbd.c:533:43
	movw	r2, :lower16:g_hsusbd_TestSelector
	movt	r2, :upper16:g_hsusbd_TestSelector
	strb	r0, [r2]
.Ltmp108:
	.loc	2 536 21                        @ ../../../../Library/StdDriver/src/hsusbd.c:536:21
	b	.LBB3_56
.Ltmp109:
.LBB3_47:
	.loc	2 519 55                        @ ../../../../Library/StdDriver/src/hsusbd.c:519:55
	ldrb	r0, [r0, #2]
	.loc	2 519 36 is_stmt 0              @ ../../../../Library/StdDriver/src/hsusbd.c:519:36
	movw	r1, :lower16:g_hsusbd_UsbConfig
	movt	r1, :upper16:g_hsusbd_UsbConfig
	strb	r0, [r1]
	.loc	2 520 37 is_stmt 1              @ ../../../../Library/StdDriver/src/hsusbd.c:520:37
	movw	r0, :lower16:g_hsusbd_Configured
	movt	r0, :upper16:g_hsusbd_Configured
	movs	r1, #1
.Ltmp110:
	.loc	2 0 0 is_stmt 0                 @ ../../../../Library/StdDriver/src/hsusbd.c:0:0
	b	.LBB3_59
.LBB3_48:
.Ltmp111:
	.loc	2 557 21 is_stmt 1              @ ../../../../Library/StdDriver/src/hsusbd.c:557:21
	movw	r1, :lower16:g_hsusbd_pfnSetInterface
.Ltmp112:
	.loc	2 555 61                        @ ../../../../Library/StdDriver/src/hsusbd.c:555:61
	ldrh	r0, [r0, #2]
.Ltmp113:
	.loc	2 557 21                        @ ../../../../Library/StdDriver/src/hsusbd.c:557:21
	movt	r1, :upper16:g_hsusbd_pfnSetInterface
.Ltmp114:
	.loc	2 555 42                        @ ../../../../Library/StdDriver/src/hsusbd.c:555:42
	movw	r2, :lower16:g_hsusbd_UsbAltInterface
.Ltmp115:
	.loc	2 557 21                        @ ../../../../Library/StdDriver/src/hsusbd.c:557:21
	ldr	r1, [r1]
.Ltmp116:
	.loc	2 555 42                        @ ../../../../Library/StdDriver/src/hsusbd.c:555:42
	movt	r2, :upper16:g_hsusbd_UsbAltInterface
	strb	r0, [r2]
	.loc	2 557 21                        @ ../../../../Library/StdDriver/src/hsusbd.c:557:21
	cbz	r1, .LBB3_60
@ %bb.49:
	.loc	2 0 0 is_stmt 0                 @ ../../../../Library/StdDriver/src/hsusbd.c:0:0
	uxtb	r0, r0
.Ltmp117:
	.loc	2 559 21 is_stmt 1              @ ../../../../Library/StdDriver/src/hsusbd.c:559:21
	blx	r1
.Ltmp118:
	.loc	2 0 21 is_stmt 0                @ ../../../../Library/StdDriver/src/hsusbd.c:0:21
	b	.LBB3_60
.Ltmp119:
.LBB3_50:
	@DEBUG_VALUE: HSUSBD_PrepareCtrlIn:u32Size <- 1
	.loc	2 701 28 is_stmt 1              @ ../../../../Library/StdDriver/src/hsusbd.c:701:28
	movw	r0, :lower16:g_hsusbd_UsbConfig
	movt	r0, :upper16:g_hsusbd_UsbConfig
.Ltmp120:
	@DEBUG_VALUE: HSUSBD_PrepareCtrlIn:pu8Buf <- $r0
	.loc	2 0 28 is_stmt 0                @ ../../../../Library/StdDriver/src/hsusbd.c:0:28
	b	.LBB3_52
.Ltmp121:
.LBB3_51:
	@DEBUG_VALUE: HSUSBD_PrepareCtrlIn:u32Size <- 1
	.loc	2 701 28                        @ ../../../../Library/StdDriver/src/hsusbd.c:701:28
	movw	r0, :lower16:g_hsusbd_UsbAltInterface
	movt	r0, :upper16:g_hsusbd_UsbAltInterface
.Ltmp122:
	@DEBUG_VALUE: HSUSBD_PrepareCtrlIn:pu8Buf <- $r0
.LBB3_52:
	.loc	2 701 28                        @ ../../../../Library/StdDriver/src/hsusbd.c:701:28
	str	r0, [r4]
	movs	r0, #1
	.loc	2 702 25 is_stmt 1              @ ../../../../Library/StdDriver/src/hsusbd.c:702:25
	str	r0, [r5]
	b	.LBB3_66
.Ltmp123:
.LBB3_53:
	.loc	2 0 25 is_stmt 0                @ ../../../../Library/StdDriver/src/hsusbd.c:0:25
	movw	r0, #20528
	movs	r1, #2
	movt	r0, #16416
.Ltmp124:
	.loc	2 466 17 is_stmt 1              @ ../../../../Library/StdDriver/src/hsusbd.c:466:17
	str	r1, [r0, #-4]
.Ltmp125:
	.loc	2 577 1 epilogue_begin          @ ../../../../Library/StdDriver/src/hsusbd.c:577:1
	pop	{r4, r5, r6, pc}
.LBB3_54:
.Ltmp126:
	.loc	2 497 45                        @ ../../../../Library/StdDriver/src/hsusbd.c:497:45
	movw	r0, :lower16:g_hsusbd_RemoteWakeupEn
	movs	r1, #0
	b	.LBB3_58
.Ltmp127:
.LBB3_55:
	.loc	2 0 45 is_stmt 0                @ ../../../../Library/StdDriver/src/hsusbd.c:0:45
	movw	r0, #36864
	movt	r0, #16421
.Ltmp128:
	.loc	2 538 32 is_stmt 1              @ ../../../../Library/StdDriver/src/hsusbd.c:538:32
	ldr	r2, [r0]
	orr	r2, r2, #6
	str	r2, [r0]
.Ltmp129:
.LBB3_56:
	.loc	2 541 21                        @ ../../../../Library/StdDriver/src/hsusbd.c:541:21
	lsls	r0, r1, #31
	beq	.LBB3_60
@ %bb.57:
.Ltmp130:
	.loc	2 543 45                        @ ../../../../Library/StdDriver/src/hsusbd.c:543:45
	movw	r0, :lower16:g_hsusbd_RemoteWakeupEn
	movs	r1, #1
.Ltmp131:
.LBB3_58:
	.loc	2 0 0 is_stmt 0                 @ ../../../../Library/StdDriver/src/hsusbd.c:0:0
	movt	r0, :upper16:g_hsusbd_RemoteWakeupEn
.LBB3_59:
	strb	r1, [r0]
.LBB3_60:
	mov.w	r0, #1024
	movs	r1, #0
	str	r0, [r4, #4]
	str	r1, [r4, #-4]
	str	r0, [r4]
.Ltmp132:
	.loc	2 577 1 epilogue_begin is_stmt 1 @ ../../../../Library/StdDriver/src/hsusbd.c:577:1
	pop	{r4, r5, r6, pc}
.LBB3_61:
	.loc	2 0 1 is_stmt 0                 @ ../../../../Library/StdDriver/src/hsusbd.c:0:1
	movs	r0, #0
.Ltmp133:
	.loc	2 426 21 is_stmt 1              @ ../../../../Library/StdDriver/src/hsusbd.c:426:21
	b	.LBB3_63
.LBB3_62:
.Ltmp134:
	.loc	2 452 52                        @ ../../../../Library/StdDriver/src/hsusbd.c:452:52
	ldrh	r0, [r0, #4]
	.loc	2 452 34 is_stmt 0              @ ../../../../Library/StdDriver/src/hsusbd.c:452:34
	and	r0, r0, #15
.Ltmp135:
	@DEBUG_VALUE: ep <- $r0
	.loc	2 453 48 is_stmt 1              @ ../../../../Library/StdDriver/src/hsusbd.c:453:48
	bl	HSUSBD_GetStall
.Ltmp136:
	.loc	2 453 39 is_stmt 0              @ ../../../../Library/StdDriver/src/hsusbd.c:453:39
	cmp	r0, #0
	cset	r0, ne
.Ltmp137:
.LBB3_63:
	.loc	2 0 0                           @ ../../../../Library/StdDriver/src/hsusbd.c:0:0
	strb	r0, [r6]
.Ltmp138:
.LBB3_64:
	movs	r0, #0
.Ltmp139:
	.loc	2 701 28 is_stmt 1              @ ../../../../Library/StdDriver/src/hsusbd.c:701:28
	str	r6, [r4]
.Ltmp140:
	.loc	2 456 33                        @ ../../../../Library/StdDriver/src/hsusbd.c:456:33
	strb	r0, [r6, #1]
	@DEBUG_VALUE: HSUSBD_PrepareCtrlIn:u32Size <- 2
	@DEBUG_VALUE: HSUSBD_PrepareCtrlIn:pu8Buf <- $r6
	movs	r0, #2
.Ltmp141:
	.loc	2 702 25                        @ ../../../../Library/StdDriver/src/hsusbd.c:702:25
	str	r0, [r5]
	b	.LBB3_66
.Ltmp142:
.LBB3_65:
	.loc	2 404 22                        @ ../../../../Library/StdDriver/src/hsusbd.c:404:22
	bl	HSUSBD_GetDescriptor
.Ltmp143:
	.loc	2 404 21 is_stmt 0              @ ../../../../Library/StdDriver/src/hsusbd.c:404:21
	cmp	r0, #0
.Ltmp144:
	.loc	2 577 1 is_stmt 1               @ ../../../../Library/StdDriver/src/hsusbd.c:577:1
	it	ne
	.loc	2 577 1 epilogue_begin is_stmt 0 @ ../../../../Library/StdDriver/src/hsusbd.c:577:1
	popne	{r4, r5, r6, pc}
.LBB3_66:
	.loc	2 0 1                           @ ../../../../Library/StdDriver/src/hsusbd.c:0:1
	movw	r0, #20528
	movs	r1, #8
	movt	r0, #16416
.Ltmp145:
	str	r1, [r0, #4]
	str	r1, [r0]
.Ltmp146:
	.loc	2 577 1 epilogue_begin          @ ../../../../Library/StdDriver/src/hsusbd.c:577:1
	pop	{r4, r5, r6, pc}
.Ltmp147:
.Lfunc_end3:
	.size	HSUSBD_StandardRequest, .Lfunc_end3-HSUSBD_StandardRequest
	.cfi_endproc
	.cantunwind
	.fnend
                                        @ -- End function
	.section	.text.HSUSBD_GetDescriptor,"ax",%progbits
	.hidden	HSUSBD_GetDescriptor            @ -- Begin function HSUSBD_GetDescriptor
	.globl	HSUSBD_GetDescriptor
	.p2align	2
	.type	HSUSBD_GetDescriptor,%function
	.code	16                              @ @HSUSBD_GetDescriptor
	.thumb_func
HSUSBD_GetDescriptor:
.Lfunc_begin4:
	.loc	2 177 0 is_stmt 1               @ ../../../../Library/StdDriver/src/hsusbd.c:177:0
	.fnstart
	.cfi_startproc
@ %bb.0:
	.save	{r7, lr}
	push	{r7, lr}
	.cfi_def_cfa_offset 8
	.cfi_offset lr, -4
	.cfi_offset r7, -8
.Ltmp148:
	@DEBUG_VALUE: HSUSBD_GetDescriptor:val <- 0
	.loc	2 181 22 prologue_end           @ ../../../../Library/StdDriver/src/hsusbd.c:181:22
	movw	r2, :lower16:gUsbCmd
	mov.w	r0, #-1
	movt	r2, :upper16:gUsbCmd
	.loc	2 182 23                        @ ../../../../Library/StdDriver/src/hsusbd.c:182:23
	movw	r12, :lower16:g_hsusbd_CtrlZero
	.loc	2 184 22                        @ ../../../../Library/StdDriver/src/hsusbd.c:184:22
	ldrh	r1, [r2, #2]
	.loc	2 181 22                        @ ../../../../Library/StdDriver/src/hsusbd.c:181:22
	ldrh.w	lr, [r2, #6]
.Ltmp149:
	@DEBUG_VALUE: HSUSBD_GetDescriptor:u32Len <- $lr
	.loc	2 184 5                         @ ../../../../Library/StdDriver/src/hsusbd.c:184:5
	add.w	r3, r0, r1, lsr #8
	.loc	2 182 23                        @ ../../../../Library/StdDriver/src/hsusbd.c:182:23
	movt	r12, :upper16:g_hsusbd_CtrlZero
	movs	r0, #0
	.loc	2 184 5                         @ ../../../../Library/StdDriver/src/hsusbd.c:184:5
	cmp	r3, #33
	.loc	2 182 23                        @ ../../../../Library/StdDriver/src/hsusbd.c:182:23
	strb.w	r0, [r12]
	.loc	2 184 5                         @ ../../../../Library/StdDriver/src/hsusbd.c:184:5
	bhi.w	.LBB4_11
.Ltmp150:
@ %bb.1:
	@DEBUG_VALUE: HSUSBD_GetDescriptor:u32Len <- $lr
	@DEBUG_VALUE: HSUSBD_GetDescriptor:val <- 0
.LCPI4_0:
	tbb	[pc, r3]
.Ltmp151:
@ %bb.2:
	.loc	2 0 5 is_stmt 0                 @ ../../../../Library/StdDriver/src/hsusbd.c:0:5
.LJTI4_0:
	.byte	(.LBB4_3-(.LCPI4_0+4))/2
	.byte	(.LBB4_5-(.LCPI4_0+4))/2
	.byte	(.LBB4_9-(.LCPI4_0+4))/2
	.byte	(.LBB4_11-(.LCPI4_0+4))/2
	.byte	(.LBB4_11-(.LCPI4_0+4))/2
	.byte	(.LBB4_12-(.LCPI4_0+4))/2
	.byte	(.LBB4_14-(.LCPI4_0+4))/2
	.byte	(.LBB4_11-(.LCPI4_0+4))/2
	.byte	(.LBB4_11-(.LCPI4_0+4))/2
	.byte	(.LBB4_11-(.LCPI4_0+4))/2
	.byte	(.LBB4_11-(.LCPI4_0+4))/2
	.byte	(.LBB4_11-(.LCPI4_0+4))/2
	.byte	(.LBB4_11-(.LCPI4_0+4))/2
	.byte	(.LBB4_11-(.LCPI4_0+4))/2
	.byte	(.LBB4_11-(.LCPI4_0+4))/2
	.byte	(.LBB4_11-(.LCPI4_0+4))/2
	.byte	(.LBB4_11-(.LCPI4_0+4))/2
	.byte	(.LBB4_11-(.LCPI4_0+4))/2
	.byte	(.LBB4_11-(.LCPI4_0+4))/2
	.byte	(.LBB4_11-(.LCPI4_0+4))/2
	.byte	(.LBB4_11-(.LCPI4_0+4))/2
	.byte	(.LBB4_11-(.LCPI4_0+4))/2
	.byte	(.LBB4_11-(.LCPI4_0+4))/2
	.byte	(.LBB4_11-(.LCPI4_0+4))/2
	.byte	(.LBB4_11-(.LCPI4_0+4))/2
	.byte	(.LBB4_11-(.LCPI4_0+4))/2
	.byte	(.LBB4_11-(.LCPI4_0+4))/2
	.byte	(.LBB4_11-(.LCPI4_0+4))/2
	.byte	(.LBB4_11-(.LCPI4_0+4))/2
	.byte	(.LBB4_11-(.LCPI4_0+4))/2
	.byte	(.LBB4_11-(.LCPI4_0+4))/2
	.byte	(.LBB4_11-(.LCPI4_0+4))/2
	.byte	(.LBB4_4-(.LCPI4_0+4))/2
	.byte	(.LBB4_6-(.LCPI4_0+4))/2
	.p2align	1
.LBB4_3:
.Ltmp152:
	@DEBUG_VALUE: HSUSBD_GetDescriptor:u32Len <- $lr
	@DEBUG_VALUE: HSUSBD_GetDescriptor:val <- 0
	.loc	2 190 45 is_stmt 1              @ ../../../../Library/StdDriver/src/hsusbd.c:190:45
	movw	r0, :lower16:g_hsusbd_sInfo
	.loc	2 189 22                        @ ../../../../Library/StdDriver/src/hsusbd.c:189:22
	cmp.w	lr, #18
	.loc	2 190 45                        @ ../../../../Library/StdDriver/src/hsusbd.c:190:45
	movt	r0, :upper16:g_hsusbd_sInfo
	ldr	r0, [r0]
	.loc	2 190 61 is_stmt 0              @ ../../../../Library/StdDriver/src/hsusbd.c:190:61
	ldr	r0, [r0]
	.loc	2 189 22 is_stmt 1              @ ../../../../Library/StdDriver/src/hsusbd.c:189:22
	it	hs
	movhs.w	lr, #18
.Ltmp153:
	@DEBUG_VALUE: HSUSBD_PrepareCtrlIn:u32Size <- $lr
	@DEBUG_VALUE: HSUSBD_PrepareCtrlIn:pu8Buf <- $r0
	@DEBUG_VALUE: HSUSBD_GetDescriptor:u32Len <- $lr
	.loc	2 0 22 is_stmt 0                @ ../../../../Library/StdDriver/src/hsusbd.c:0:22
	b	.LBB4_13
.Ltmp154:
.LBB4_4:
	@DEBUG_VALUE: HSUSBD_GetDescriptor:u32Len <- $lr
	@DEBUG_VALUE: HSUSBD_GetDescriptor:val <- 0
	.loc	2 313 35 is_stmt 1              @ ../../../../Library/StdDriver/src/hsusbd.c:313:35
	movw	r0, :lower16:g_hsusbd_sInfo
	.loc	2 313 80 is_stmt 0              @ ../../../../Library/StdDriver/src/hsusbd.c:313:80
	ldrb	r2, [r2, #4]
	.loc	2 313 35                        @ ../../../../Library/StdDriver/src/hsusbd.c:313:35
	movt	r0, :upper16:g_hsusbd_sInfo
	ldr	r0, [r0]
	.loc	2 312 22 is_stmt 1              @ ../../../../Library/StdDriver/src/hsusbd.c:312:22
	cmp.w	lr, #9
	.loc	2 313 51                        @ ../../../../Library/StdDriver/src/hsusbd.c:313:51
	ldr	r1, [r0, #40]
	.loc	2 314 62                        @ ../../../../Library/StdDriver/src/hsusbd.c:314:62
	ldr	r0, [r0, #4]
	.loc	2 313 35                        @ ../../../../Library/StdDriver/src/hsusbd.c:313:35
	ldr.w	r1, [r1, r2, lsl #2]
.Ltmp155:
	@DEBUG_VALUE: u32ConfigDescOffset <- $r1
	.loc	2 312 22                        @ ../../../../Library/StdDriver/src/hsusbd.c:312:22
	it	hs
	movhs.w	lr, #9
.Ltmp156:
	@DEBUG_VALUE: HSUSBD_GetDescriptor:u32Len <- $lr
	.loc	2 314 46                        @ ../../../../Library/StdDriver/src/hsusbd.c:314:46
	add	r0, r1
.Ltmp157:
	@DEBUG_VALUE: HSUSBD_PrepareCtrlIn:pu8Buf <- $r0
	@DEBUG_VALUE: HSUSBD_PrepareCtrlIn:u32Size <- $lr
	.loc	2 701 28                        @ ../../../../Library/StdDriver/src/hsusbd.c:701:28
	b	.LBB4_13
.Ltmp158:
.LBB4_5:
	@DEBUG_VALUE: HSUSBD_GetDescriptor:u32Len <- $lr
	@DEBUG_VALUE: HSUSBD_GetDescriptor:val <- 0
	.loc	2 0 28 is_stmt 0                @ ../../../../Library/StdDriver/src/hsusbd.c:0:28
	movw	r0, #20504
.Ltmp159:
	movw	r1, :lower16:g_hsusbd_sInfo
	movt	r0, #16416
	.loc	2 199 26 is_stmt 1              @ ../../../../Library/StdDriver/src/hsusbd.c:199:26
	ldr	r0, [r0]
	.loc	2 0 0 is_stmt 0                 @ ../../../../Library/StdDriver/src/hsusbd.c:0:0
	movt	r1, :upper16:g_hsusbd_sInfo
	ldr	r1, [r1]
.Ltmp160:
	.loc	2 199 17                        @ ../../../../Library/StdDriver/src/hsusbd.c:199:17
	lsls	r0, r0, #29
.Ltmp161:
	.loc	2 201 47 is_stmt 1              @ ../../../../Library/StdDriver/src/hsusbd.c:201:47
	ite	mi
	ldrmi	r2, [r1, #4]
.Ltmp162:
	.loc	2 218 47                        @ ../../../../Library/StdDriver/src/hsusbd.c:218:47
	ldrpl	r2, [r1, #16]
.Ltmp163:
	@DEBUG_VALUE: u32TotalLen <- undef
	.loc	2 0 47 is_stmt 0                @ ../../../../Library/StdDriver/src/hsusbd.c:0:47
	b	.LBB4_15
.Ltmp164:
.LBB4_6:
	@DEBUG_VALUE: HSUSBD_GetDescriptor:u32Len <- $lr
	@DEBUG_VALUE: HSUSBD_GetDescriptor:val <- 0
	.loc	2 321 26 is_stmt 1              @ ../../../../Library/StdDriver/src/hsusbd.c:321:26
	movw	r0, :lower16:g_hsusbd_sInfo
	.loc	2 321 68 is_stmt 0              @ ../../../../Library/StdDriver/src/hsusbd.c:321:68
	ldrb	r2, [r2, #4]
	.loc	2 321 26                        @ ../../../../Library/StdDriver/src/hsusbd.c:321:26
	movt	r0, :upper16:g_hsusbd_sInfo
	ldr	r3, [r0]
	.loc	2 321 42                        @ ../../../../Library/StdDriver/src/hsusbd.c:321:42
	ldr	r0, [r3, #36]
	.loc	2 321 26                        @ ../../../../Library/StdDriver/src/hsusbd.c:321:26
	ldr.w	r1, [r0, r2, lsl #2]
.Ltmp165:
	.loc	2 321 17                        @ ../../../../Library/StdDriver/src/hsusbd.c:321:17
	cmp	r1, lr
	bhs	.LBB4_8
.Ltmp166:
@ %bb.7:
	@DEBUG_VALUE: HSUSBD_GetDescriptor:u32Len <- $lr
	@DEBUG_VALUE: HSUSBD_GetDescriptor:val <- 0
	@DEBUG_VALUE: HSUSBD_GetDescriptor:u32Len <- $r1
	.loc	2 325 31 is_stmt 1              @ ../../../../Library/StdDriver/src/hsusbd.c:325:31
	movw	r0, :lower16:g_hsusbd_CtrlMaxPktSize
	movt	r0, :upper16:g_hsusbd_CtrlMaxPktSize
	ldr.w	lr, [r0]
	.loc	2 325 29 is_stmt 0              @ ../../../../Library/StdDriver/src/hsusbd.c:325:29
	udiv	r0, r1, lr
	mls	r0, r0, lr, r1
	mov	lr, r1
.Ltmp167:
	@DEBUG_VALUE: HSUSBD_GetDescriptor:u32Len <- $lr
	.loc	2 325 21                        @ ../../../../Library/StdDriver/src/hsusbd.c:325:21
	cmp	r0, #0
	itt	eq
	moveq	r0, #1
.Ltmp168:
	.loc	2 327 39 is_stmt 1              @ ../../../../Library/StdDriver/src/hsusbd.c:327:39
	strbeq.w	r0, [r12]
.Ltmp169:
.LBB4_8:
	@DEBUG_VALUE: HSUSBD_GetDescriptor:u32Len <- $lr
	@DEBUG_VALUE: HSUSBD_GetDescriptor:val <- 0
	@DEBUG_VALUE: HSUSBD_GetDescriptor:u32Len <- $lr
	.loc	2 331 61                        @ ../../../../Library/StdDriver/src/hsusbd.c:331:61
	ldr	r0, [r3, #32]
	.loc	2 331 45 is_stmt 0              @ ../../../../Library/StdDriver/src/hsusbd.c:331:45
	ldr.w	r0, [r0, r2, lsl #2]
.Ltmp170:
	@DEBUG_VALUE: HSUSBD_PrepareCtrlIn:u32Size <- $lr
	@DEBUG_VALUE: HSUSBD_PrepareCtrlIn:pu8Buf <- $r0
	.loc	2 0 45                          @ ../../../../Library/StdDriver/src/hsusbd.c:0:45
	b	.LBB4_13
.Ltmp171:
.LBB4_9:
	@DEBUG_VALUE: HSUSBD_GetDescriptor:u32Len <- $lr
	@DEBUG_VALUE: HSUSBD_GetDescriptor:val <- 0
	.loc	2 338 33 is_stmt 1              @ ../../../../Library/StdDriver/src/hsusbd.c:338:33
	uxtb	r1, r1
.Ltmp172:
	.loc	2 338 17 is_stmt 0              @ ../../../../Library/StdDriver/src/hsusbd.c:338:17
	cmp	r1, #7
	bhi	.LBB4_11
.Ltmp173:
@ %bb.10:
	@DEBUG_VALUE: HSUSBD_GetDescriptor:u32Len <- $lr
	@DEBUG_VALUE: HSUSBD_GetDescriptor:val <- 0
	.loc	2 340 30 is_stmt 1              @ ../../../../Library/StdDriver/src/hsusbd.c:340:30
	movw	r0, :lower16:g_hsusbd_sInfo
	movt	r0, :upper16:g_hsusbd_sInfo
	ldr	r0, [r0]
	.loc	2 340 46 is_stmt 0              @ ../../../../Library/StdDriver/src/hsusbd.c:340:46
	ldr	r0, [r0, #8]
	.loc	2 340 30                        @ ../../../../Library/StdDriver/src/hsusbd.c:340:30
	ldr.w	r2, [r0, r1, lsl #2]
	ldrb	r3, [r2]
.Ltmp174:
	.loc	2 340 21                        @ ../../../../Library/StdDriver/src/hsusbd.c:340:21
	cmp	lr, r3
	bhi	.LBB4_16
	b	.LBB4_17
.Ltmp175:
.LBB4_11:
	@DEBUG_VALUE: HSUSBD_GetDescriptor:u32Len <- $lr
	@DEBUG_VALUE: HSUSBD_GetDescriptor:val <- 0
	.loc	2 0 21                          @ ../../../../Library/StdDriver/src/hsusbd.c:0:21
	movw	r0, #20504
	movs	r1, #2
	movt	r0, #16416
	str	r1, [r0, #20]
	movs	r0, #1
.Ltmp176:
	@DEBUG_VALUE: HSUSBD_GetDescriptor:val <- 1
	@DEBUG_VALUE: HSUSBD_GetDescriptor:val <- $r0
	.loc	2 368 5 epilogue_begin is_stmt 1 @ ../../../../Library/StdDriver/src/hsusbd.c:368:5
	pop	{r7, pc}
.Ltmp177:
.LBB4_12:
	@DEBUG_VALUE: HSUSBD_GetDescriptor:u32Len <- $lr
	@DEBUG_VALUE: HSUSBD_GetDescriptor:val <- 0
	.loc	2 261 45                        @ ../../../../Library/StdDriver/src/hsusbd.c:261:45
	movw	r0, :lower16:g_hsusbd_sInfo
	.loc	2 260 22                        @ ../../../../Library/StdDriver/src/hsusbd.c:260:22
	cmp.w	lr, #10
	.loc	2 261 45                        @ ../../../../Library/StdDriver/src/hsusbd.c:261:45
	movt	r0, :upper16:g_hsusbd_sInfo
	ldr	r0, [r0]
	.loc	2 261 61 is_stmt 0              @ ../../../../Library/StdDriver/src/hsusbd.c:261:61
	ldr	r0, [r0, #12]
	.loc	2 260 22 is_stmt 1              @ ../../../../Library/StdDriver/src/hsusbd.c:260:22
	it	hs
	movhs.w	lr, #10
.Ltmp178:
	@DEBUG_VALUE: HSUSBD_PrepareCtrlIn:u32Size <- $lr
	@DEBUG_VALUE: HSUSBD_PrepareCtrlIn:pu8Buf <- $r0
	@DEBUG_VALUE: HSUSBD_GetDescriptor:u32Len <- $lr
.LBB4_13:
	@DEBUG_VALUE: HSUSBD_GetDescriptor:u32Len <- $lr
	@DEBUG_VALUE: HSUSBD_GetDescriptor:val <- 0
	.loc	2 701 28                        @ ../../../../Library/StdDriver/src/hsusbd.c:701:28
	movw	r1, :lower16:g_hsusbd_CtrlInPointer
	movt	r1, :upper16:g_hsusbd_CtrlInPointer
	str	r0, [r1]
	.loc	2 702 25                        @ ../../../../Library/StdDriver/src/hsusbd.c:702:25
	b	.LBB4_18
.Ltmp179:
.LBB4_14:
	@DEBUG_VALUE: HSUSBD_GetDescriptor:u32Len <- $lr
	@DEBUG_VALUE: HSUSBD_GetDescriptor:val <- 0
	.loc	2 0 25 is_stmt 0                @ ../../../../Library/StdDriver/src/hsusbd.c:0:25
	movw	r0, #20504
.Ltmp180:
	movw	r1, :lower16:g_hsusbd_sInfo
	movt	r0, #16416
	.loc	2 270 26 is_stmt 1              @ ../../../../Library/StdDriver/src/hsusbd.c:270:26
	ldr	r0, [r0]
	.loc	2 0 0 is_stmt 0                 @ ../../../../Library/StdDriver/src/hsusbd.c:0:0
	movt	r1, :upper16:g_hsusbd_sInfo
	ldr	r1, [r1]
.Ltmp181:
	.loc	2 270 17                        @ ../../../../Library/StdDriver/src/hsusbd.c:270:17
	lsls	r0, r0, #29
.Ltmp182:
	.loc	2 289 47 is_stmt 1              @ ../../../../Library/StdDriver/src/hsusbd.c:289:47
	ite	pl
	ldrpl	r2, [r1, #24]
.Ltmp183:
	.loc	2 272 47                        @ ../../../../Library/StdDriver/src/hsusbd.c:272:47
	ldrmi	r2, [r1, #20]
.Ltmp184:
	@DEBUG_VALUE: u32TotalLen <- undef
.LBB4_15:
	@DEBUG_VALUE: HSUSBD_GetDescriptor:u32Len <- $lr
	@DEBUG_VALUE: HSUSBD_GetDescriptor:val <- 0
	.loc	2 0 0 is_stmt 0                 @ ../../../../Library/StdDriver/src/hsusbd.c:0:0
	ldrh	r3, [r2, #2]
	@DEBUG_VALUE: u32TotalLen <- $r3
	cmp	r3, lr
	bhs	.LBB4_17
.Ltmp185:
.LBB4_16:
	@DEBUG_VALUE: HSUSBD_GetDescriptor:u32Len <- $lr
	@DEBUG_VALUE: HSUSBD_GetDescriptor:val <- 0
	@DEBUG_VALUE: HSUSBD_GetDescriptor:u32Len <- $r3
	movw	r0, :lower16:g_hsusbd_CtrlMaxPktSize
	mov	lr, r3
	movt	r0, :upper16:g_hsusbd_CtrlMaxPktSize
	ldr	r0, [r0]
	udiv	r1, r3, r0
	mls	r0, r1, r0, r3
	cmp	r0, #0
	itt	eq
	moveq	r0, #1
	strbeq.w	r0, [r12]
.Ltmp186:
.LBB4_17:
	@DEBUG_VALUE: HSUSBD_GetDescriptor:val <- 0
	@DEBUG_VALUE: HSUSBD_GetDescriptor:u32Len <- $lr
	@DEBUG_VALUE: HSUSBD_PrepareCtrlIn:pu8Buf <- $r2
	@DEBUG_VALUE: HSUSBD_PrepareCtrlIn:u32Size <- $lr
	.loc	2 701 28 is_stmt 1              @ ../../../../Library/StdDriver/src/hsusbd.c:701:28
	movw	r0, :lower16:g_hsusbd_CtrlInPointer
	movt	r0, :upper16:g_hsusbd_CtrlInPointer
	str	r2, [r0]
.Ltmp187:
.LBB4_18:
	@DEBUG_VALUE: HSUSBD_GetDescriptor:u32Len <- $lr
	@DEBUG_VALUE: HSUSBD_GetDescriptor:val <- 0
	.loc	2 702 25                        @ ../../../../Library/StdDriver/src/hsusbd.c:702:25
	movw	r0, :lower16:g_hsusbd_CtrlInSize
	movt	r0, :upper16:g_hsusbd_CtrlInSize
	str.w	lr, [r0]
	movs	r0, #0
.Ltmp188:
	@DEBUG_VALUE: HSUSBD_GetDescriptor:val <- $r0
	.loc	2 368 5 epilogue_begin          @ ../../../../Library/StdDriver/src/hsusbd.c:368:5
	pop	{r7, pc}
.Ltmp189:
.Lfunc_end4:
	.size	HSUSBD_GetDescriptor, .Lfunc_end4-HSUSBD_GetDescriptor
	.cfi_endproc
	.cantunwind
	.fnend
                                        @ -- End function
	.section	.text.HSUSBD_PrepareCtrlIn,"ax",%progbits
	.hidden	HSUSBD_PrepareCtrlIn            @ -- Begin function HSUSBD_PrepareCtrlIn
	.globl	HSUSBD_PrepareCtrlIn
	.p2align	2
	.type	HSUSBD_PrepareCtrlIn,%function
	.code	16                              @ @HSUSBD_PrepareCtrlIn
	.thumb_func
HSUSBD_PrepareCtrlIn:
.Lfunc_begin5:
	.fnstart
	.cfi_startproc
@ %bb.0:
	@DEBUG_VALUE: HSUSBD_PrepareCtrlIn:pu8Buf <- $r0
	@DEBUG_VALUE: HSUSBD_PrepareCtrlIn:u32Size <- $r1
	.loc	2 701 28 prologue_end           @ ../../../../Library/StdDriver/src/hsusbd.c:701:28
	movw	r2, :lower16:g_hsusbd_CtrlInPointer
	movt	r2, :upper16:g_hsusbd_CtrlInPointer
	str	r0, [r2]
	.loc	2 702 25                        @ ../../../../Library/StdDriver/src/hsusbd.c:702:25
	movw	r0, :lower16:g_hsusbd_CtrlInSize
.Ltmp190:
	@DEBUG_VALUE: HSUSBD_PrepareCtrlIn:pu8Buf <- [DW_OP_LLVM_entry_value 1] $r0
	movt	r0, :upper16:g_hsusbd_CtrlInSize
	str	r1, [r0]
	.loc	2 703 1                         @ ../../../../Library/StdDriver/src/hsusbd.c:703:1
	bx	lr
.Ltmp191:
.Lfunc_end5:
	.size	HSUSBD_PrepareCtrlIn, .Lfunc_end5-HSUSBD_PrepareCtrlIn
	.cfi_endproc
	.cantunwind
	.fnend
                                        @ -- End function
	.section	.text.HSUSBD_GetStall,"ax",%progbits
	.p2align	2                               @ -- Begin function HSUSBD_GetStall
	.type	HSUSBD_GetStall,%function
	.code	16                              @ @HSUSBD_GetStall
	.thumb_func
HSUSBD_GetStall:
.Lfunc_begin6:
	.loc	1 376 0                         @ ../../../../Library/StdDriver/inc\hsusbd.h:376:0
	.fnstart
	.cfi_startproc
@ %bb.0:
	@DEBUG_VALUE: HSUSBD_GetStall:u32EpNum <- $r0
	movw	r1, #20580
	movt	r1, #16416
.Ltmp192:
	@DEBUG_VALUE: HSUSBD_GetStall:i <- 0
	@DEBUG_VALUE: HSUSBD_GetStall:val <- 0
	.loc	1 382 29 prologue_end           @ ../../../../Library/StdDriver/inc\hsusbd.h:382:29
	ldr	r2, [r1, #28]
	.loc	1 382 45 is_stmt 0              @ ../../../../Library/StdDriver/inc\hsusbd.h:382:45
	ubfx	r2, r2, #4, #4
.Ltmp193:
	@DEBUG_VALUE: HSUSBD_GetStall:i <- [DW_OP_plus_uconst 1, DW_OP_stack_value] 0
	.loc	1 382 13                        @ ../../../../Library/StdDriver/inc\hsusbd.h:382:13
	cmp	r2, r0
	beq.w	.LBB6_35
.Ltmp194:
@ %bb.1:
	@DEBUG_VALUE: HSUSBD_GetStall:i <- [DW_OP_plus_uconst 1, DW_OP_stack_value] 0
	@DEBUG_VALUE: HSUSBD_GetStall:val <- 0
	@DEBUG_VALUE: HSUSBD_GetStall:u32EpNum <- $r0
	@DEBUG_VALUE: HSUSBD_GetStall:i <- 1
	.loc	1 382 29                        @ ../../../../Library/StdDriver/inc\hsusbd.h:382:29
	ldr	r2, [r1, #68]
	.loc	1 382 45                        @ ../../../../Library/StdDriver/inc\hsusbd.h:382:45
	ubfx	r2, r2, #4, #4
.Ltmp195:
	@DEBUG_VALUE: HSUSBD_GetStall:i <- [DW_OP_plus_uconst 1, DW_OP_stack_value] 1
	.loc	1 382 13                        @ ../../../../Library/StdDriver/inc\hsusbd.h:382:13
	cmp	r2, r0
	bne	.LBB6_3
.Ltmp196:
@ %bb.2:
	@DEBUG_VALUE: HSUSBD_GetStall:i <- [DW_OP_plus_uconst 1, DW_OP_stack_value] 1
	@DEBUG_VALUE: HSUSBD_GetStall:val <- 0
	@DEBUG_VALUE: HSUSBD_GetStall:u32EpNum <- $r0
	.loc	1 382 0                         @ ../../../../Library/StdDriver/inc\hsusbd.h:382:0
	adds	r1, #40
	.loc	1 382 13                        @ ../../../../Library/StdDriver/inc\hsusbd.h:382:13
	b	.LBB6_35
.Ltmp197:
.LBB6_3:
	@DEBUG_VALUE: HSUSBD_GetStall:i <- [DW_OP_plus_uconst 1, DW_OP_stack_value] 1
	@DEBUG_VALUE: HSUSBD_GetStall:val <- 0
	@DEBUG_VALUE: HSUSBD_GetStall:u32EpNum <- $r0
	@DEBUG_VALUE: HSUSBD_GetStall:i <- 2
	.loc	1 382 29                        @ ../../../../Library/StdDriver/inc\hsusbd.h:382:29
	ldr	r2, [r1, #108]
	.loc	1 382 45                        @ ../../../../Library/StdDriver/inc\hsusbd.h:382:45
	ubfx	r2, r2, #4, #4
.Ltmp198:
	@DEBUG_VALUE: HSUSBD_GetStall:i <- [DW_OP_plus_uconst 1, DW_OP_stack_value] 2
	.loc	1 382 13                        @ ../../../../Library/StdDriver/inc\hsusbd.h:382:13
	cmp	r2, r0
	bne	.LBB6_5
.Ltmp199:
@ %bb.4:
	@DEBUG_VALUE: HSUSBD_GetStall:i <- [DW_OP_plus_uconst 1, DW_OP_stack_value] 2
	@DEBUG_VALUE: HSUSBD_GetStall:val <- 0
	@DEBUG_VALUE: HSUSBD_GetStall:u32EpNum <- $r0
	.loc	1 382 0                         @ ../../../../Library/StdDriver/inc\hsusbd.h:382:0
	adds	r1, #80
	.loc	1 382 13                        @ ../../../../Library/StdDriver/inc\hsusbd.h:382:13
	b	.LBB6_35
.Ltmp200:
.LBB6_5:
	@DEBUG_VALUE: HSUSBD_GetStall:i <- [DW_OP_plus_uconst 1, DW_OP_stack_value] 2
	@DEBUG_VALUE: HSUSBD_GetStall:val <- 0
	@DEBUG_VALUE: HSUSBD_GetStall:u32EpNum <- $r0
	@DEBUG_VALUE: HSUSBD_GetStall:i <- 3
	.loc	1 382 29                        @ ../../../../Library/StdDriver/inc\hsusbd.h:382:29
	ldr.w	r2, [r1, #148]
	.loc	1 382 45                        @ ../../../../Library/StdDriver/inc\hsusbd.h:382:45
	ubfx	r2, r2, #4, #4
.Ltmp201:
	@DEBUG_VALUE: HSUSBD_GetStall:i <- [DW_OP_plus_uconst 1, DW_OP_stack_value] 3
	.loc	1 382 13                        @ ../../../../Library/StdDriver/inc\hsusbd.h:382:13
	cmp	r2, r0
	bne	.LBB6_7
.Ltmp202:
@ %bb.6:
	@DEBUG_VALUE: HSUSBD_GetStall:i <- [DW_OP_plus_uconst 1, DW_OP_stack_value] 3
	@DEBUG_VALUE: HSUSBD_GetStall:val <- 0
	@DEBUG_VALUE: HSUSBD_GetStall:u32EpNum <- $r0
	.loc	1 382 0                         @ ../../../../Library/StdDriver/inc\hsusbd.h:382:0
	adds	r1, #120
	.loc	1 382 13                        @ ../../../../Library/StdDriver/inc\hsusbd.h:382:13
	b	.LBB6_35
.Ltmp203:
.LBB6_7:
	@DEBUG_VALUE: HSUSBD_GetStall:i <- [DW_OP_plus_uconst 1, DW_OP_stack_value] 3
	@DEBUG_VALUE: HSUSBD_GetStall:val <- 0
	@DEBUG_VALUE: HSUSBD_GetStall:u32EpNum <- $r0
	@DEBUG_VALUE: HSUSBD_GetStall:i <- 4
	.loc	1 382 29                        @ ../../../../Library/StdDriver/inc\hsusbd.h:382:29
	ldr.w	r2, [r1, #188]
	.loc	1 382 45                        @ ../../../../Library/StdDriver/inc\hsusbd.h:382:45
	ubfx	r2, r2, #4, #4
.Ltmp204:
	@DEBUG_VALUE: HSUSBD_GetStall:i <- [DW_OP_plus_uconst 1, DW_OP_stack_value] 4
	.loc	1 382 13                        @ ../../../../Library/StdDriver/inc\hsusbd.h:382:13
	cmp	r2, r0
	bne	.LBB6_9
.Ltmp205:
@ %bb.8:
	@DEBUG_VALUE: HSUSBD_GetStall:i <- [DW_OP_plus_uconst 1, DW_OP_stack_value] 4
	@DEBUG_VALUE: HSUSBD_GetStall:val <- 0
	@DEBUG_VALUE: HSUSBD_GetStall:u32EpNum <- $r0
	.loc	1 382 0                         @ ../../../../Library/StdDriver/inc\hsusbd.h:382:0
	adds	r1, #160
	.loc	1 382 13                        @ ../../../../Library/StdDriver/inc\hsusbd.h:382:13
	b	.LBB6_35
.Ltmp206:
.LBB6_9:
	@DEBUG_VALUE: HSUSBD_GetStall:i <- [DW_OP_plus_uconst 1, DW_OP_stack_value] 4
	@DEBUG_VALUE: HSUSBD_GetStall:val <- 0
	@DEBUG_VALUE: HSUSBD_GetStall:u32EpNum <- $r0
	@DEBUG_VALUE: HSUSBD_GetStall:i <- 5
	.loc	1 382 29                        @ ../../../../Library/StdDriver/inc\hsusbd.h:382:29
	ldr.w	r2, [r1, #228]
	.loc	1 382 45                        @ ../../../../Library/StdDriver/inc\hsusbd.h:382:45
	ubfx	r2, r2, #4, #4
.Ltmp207:
	@DEBUG_VALUE: HSUSBD_GetStall:i <- [DW_OP_plus_uconst 1, DW_OP_stack_value] 5
	.loc	1 382 13                        @ ../../../../Library/StdDriver/inc\hsusbd.h:382:13
	cmp	r2, r0
	bne	.LBB6_11
.Ltmp208:
@ %bb.10:
	@DEBUG_VALUE: HSUSBD_GetStall:i <- [DW_OP_plus_uconst 1, DW_OP_stack_value] 5
	@DEBUG_VALUE: HSUSBD_GetStall:val <- 0
	@DEBUG_VALUE: HSUSBD_GetStall:u32EpNum <- $r0
	.loc	1 382 0                         @ ../../../../Library/StdDriver/inc\hsusbd.h:382:0
	adds	r1, #200
	.loc	1 382 13                        @ ../../../../Library/StdDriver/inc\hsusbd.h:382:13
	b	.LBB6_35
.Ltmp209:
.LBB6_11:
	@DEBUG_VALUE: HSUSBD_GetStall:i <- [DW_OP_plus_uconst 1, DW_OP_stack_value] 5
	@DEBUG_VALUE: HSUSBD_GetStall:val <- 0
	@DEBUG_VALUE: HSUSBD_GetStall:u32EpNum <- $r0
	@DEBUG_VALUE: HSUSBD_GetStall:i <- 6
	.loc	1 382 29                        @ ../../../../Library/StdDriver/inc\hsusbd.h:382:29
	ldr.w	r2, [r1, #268]
	.loc	1 382 45                        @ ../../../../Library/StdDriver/inc\hsusbd.h:382:45
	ubfx	r2, r2, #4, #4
.Ltmp210:
	@DEBUG_VALUE: HSUSBD_GetStall:i <- [DW_OP_plus_uconst 1, DW_OP_stack_value] 6
	.loc	1 382 13                        @ ../../../../Library/StdDriver/inc\hsusbd.h:382:13
	cmp	r2, r0
	bne	.LBB6_13
.Ltmp211:
@ %bb.12:
	@DEBUG_VALUE: HSUSBD_GetStall:i <- [DW_OP_plus_uconst 1, DW_OP_stack_value] 6
	@DEBUG_VALUE: HSUSBD_GetStall:val <- 0
	@DEBUG_VALUE: HSUSBD_GetStall:u32EpNum <- $r0
	.loc	1 382 0                         @ ../../../../Library/StdDriver/inc\hsusbd.h:382:0
	adds	r1, #240
	.loc	1 382 13                        @ ../../../../Library/StdDriver/inc\hsusbd.h:382:13
	b	.LBB6_35
.Ltmp212:
.LBB6_13:
	@DEBUG_VALUE: HSUSBD_GetStall:i <- [DW_OP_plus_uconst 1, DW_OP_stack_value] 6
	@DEBUG_VALUE: HSUSBD_GetStall:val <- 0
	@DEBUG_VALUE: HSUSBD_GetStall:u32EpNum <- $r0
	@DEBUG_VALUE: HSUSBD_GetStall:i <- 7
	.loc	1 382 29                        @ ../../../../Library/StdDriver/inc\hsusbd.h:382:29
	ldr.w	r2, [r1, #308]
	.loc	1 382 45                        @ ../../../../Library/StdDriver/inc\hsusbd.h:382:45
	ubfx	r2, r2, #4, #4
.Ltmp213:
	@DEBUG_VALUE: HSUSBD_GetStall:i <- [DW_OP_plus_uconst 1, DW_OP_stack_value] 7
	.loc	1 382 13                        @ ../../../../Library/StdDriver/inc\hsusbd.h:382:13
	cmp	r2, r0
	bne	.LBB6_15
.Ltmp214:
@ %bb.14:
	@DEBUG_VALUE: HSUSBD_GetStall:i <- [DW_OP_plus_uconst 1, DW_OP_stack_value] 7
	@DEBUG_VALUE: HSUSBD_GetStall:val <- 0
	@DEBUG_VALUE: HSUSBD_GetStall:u32EpNum <- $r0
	.loc	1 382 0                         @ ../../../../Library/StdDriver/inc\hsusbd.h:382:0
	add.w	r1, r1, #280
	.loc	1 382 13                        @ ../../../../Library/StdDriver/inc\hsusbd.h:382:13
	b	.LBB6_35
.Ltmp215:
.LBB6_15:
	@DEBUG_VALUE: HSUSBD_GetStall:i <- [DW_OP_plus_uconst 1, DW_OP_stack_value] 7
	@DEBUG_VALUE: HSUSBD_GetStall:val <- 0
	@DEBUG_VALUE: HSUSBD_GetStall:u32EpNum <- $r0
	@DEBUG_VALUE: HSUSBD_GetStall:i <- 8
	.loc	1 382 29                        @ ../../../../Library/StdDriver/inc\hsusbd.h:382:29
	ldr.w	r2, [r1, #348]
	.loc	1 382 45                        @ ../../../../Library/StdDriver/inc\hsusbd.h:382:45
	ubfx	r2, r2, #4, #4
.Ltmp216:
	@DEBUG_VALUE: HSUSBD_GetStall:i <- [DW_OP_plus_uconst 1, DW_OP_stack_value] 8
	.loc	1 382 13                        @ ../../../../Library/StdDriver/inc\hsusbd.h:382:13
	cmp	r2, r0
	bne	.LBB6_17
.Ltmp217:
@ %bb.16:
	@DEBUG_VALUE: HSUSBD_GetStall:i <- [DW_OP_plus_uconst 1, DW_OP_stack_value] 8
	@DEBUG_VALUE: HSUSBD_GetStall:val <- 0
	@DEBUG_VALUE: HSUSBD_GetStall:u32EpNum <- $r0
	.loc	1 382 0                         @ ../../../../Library/StdDriver/inc\hsusbd.h:382:0
	add.w	r1, r1, #320
	.loc	1 382 13                        @ ../../../../Library/StdDriver/inc\hsusbd.h:382:13
	b	.LBB6_35
.Ltmp218:
.LBB6_17:
	@DEBUG_VALUE: HSUSBD_GetStall:i <- [DW_OP_plus_uconst 1, DW_OP_stack_value] 8
	@DEBUG_VALUE: HSUSBD_GetStall:val <- 0
	@DEBUG_VALUE: HSUSBD_GetStall:u32EpNum <- $r0
	@DEBUG_VALUE: HSUSBD_GetStall:i <- 9
	.loc	1 382 29                        @ ../../../../Library/StdDriver/inc\hsusbd.h:382:29
	ldr.w	r2, [r1, #388]
	.loc	1 382 45                        @ ../../../../Library/StdDriver/inc\hsusbd.h:382:45
	ubfx	r2, r2, #4, #4
.Ltmp219:
	@DEBUG_VALUE: HSUSBD_GetStall:i <- [DW_OP_plus_uconst 1, DW_OP_stack_value] 9
	.loc	1 382 13                        @ ../../../../Library/StdDriver/inc\hsusbd.h:382:13
	cmp	r2, r0
	bne	.LBB6_19
.Ltmp220:
@ %bb.18:
	@DEBUG_VALUE: HSUSBD_GetStall:i <- [DW_OP_plus_uconst 1, DW_OP_stack_value] 9
	@DEBUG_VALUE: HSUSBD_GetStall:val <- 0
	@DEBUG_VALUE: HSUSBD_GetStall:u32EpNum <- $r0
	.loc	1 382 0                         @ ../../../../Library/StdDriver/inc\hsusbd.h:382:0
	add.w	r1, r1, #360
	.loc	1 382 13                        @ ../../../../Library/StdDriver/inc\hsusbd.h:382:13
	b	.LBB6_35
.Ltmp221:
.LBB6_19:
	@DEBUG_VALUE: HSUSBD_GetStall:i <- [DW_OP_plus_uconst 1, DW_OP_stack_value] 9
	@DEBUG_VALUE: HSUSBD_GetStall:val <- 0
	@DEBUG_VALUE: HSUSBD_GetStall:u32EpNum <- $r0
	@DEBUG_VALUE: HSUSBD_GetStall:i <- 10
	.loc	1 382 29                        @ ../../../../Library/StdDriver/inc\hsusbd.h:382:29
	ldr.w	r2, [r1, #428]
	.loc	1 382 45                        @ ../../../../Library/StdDriver/inc\hsusbd.h:382:45
	ubfx	r2, r2, #4, #4
.Ltmp222:
	@DEBUG_VALUE: HSUSBD_GetStall:i <- [DW_OP_plus_uconst 1, DW_OP_stack_value] 10
	.loc	1 382 13                        @ ../../../../Library/StdDriver/inc\hsusbd.h:382:13
	cmp	r2, r0
	bne	.LBB6_21
.Ltmp223:
@ %bb.20:
	@DEBUG_VALUE: HSUSBD_GetStall:i <- [DW_OP_plus_uconst 1, DW_OP_stack_value] 10
	@DEBUG_VALUE: HSUSBD_GetStall:val <- 0
	@DEBUG_VALUE: HSUSBD_GetStall:u32EpNum <- $r0
	.loc	1 382 0                         @ ../../../../Library/StdDriver/inc\hsusbd.h:382:0
	add.w	r1, r1, #400
	.loc	1 382 13                        @ ../../../../Library/StdDriver/inc\hsusbd.h:382:13
	b	.LBB6_35
.Ltmp224:
.LBB6_21:
	@DEBUG_VALUE: HSUSBD_GetStall:i <- [DW_OP_plus_uconst 1, DW_OP_stack_value] 10
	@DEBUG_VALUE: HSUSBD_GetStall:val <- 0
	@DEBUG_VALUE: HSUSBD_GetStall:u32EpNum <- $r0
	@DEBUG_VALUE: HSUSBD_GetStall:i <- 11
	.loc	1 382 29                        @ ../../../../Library/StdDriver/inc\hsusbd.h:382:29
	ldr.w	r2, [r1, #468]
	.loc	1 382 45                        @ ../../../../Library/StdDriver/inc\hsusbd.h:382:45
	ubfx	r2, r2, #4, #4
.Ltmp225:
	@DEBUG_VALUE: HSUSBD_GetStall:i <- [DW_OP_plus_uconst 1, DW_OP_stack_value] 11
	.loc	1 382 13                        @ ../../../../Library/StdDriver/inc\hsusbd.h:382:13
	cmp	r2, r0
	bne	.LBB6_23
.Ltmp226:
@ %bb.22:
	@DEBUG_VALUE: HSUSBD_GetStall:i <- [DW_OP_plus_uconst 1, DW_OP_stack_value] 11
	@DEBUG_VALUE: HSUSBD_GetStall:val <- 0
	@DEBUG_VALUE: HSUSBD_GetStall:u32EpNum <- $r0
	.loc	1 382 0                         @ ../../../../Library/StdDriver/inc\hsusbd.h:382:0
	add.w	r1, r1, #440
	.loc	1 382 13                        @ ../../../../Library/StdDriver/inc\hsusbd.h:382:13
	b	.LBB6_35
.Ltmp227:
.LBB6_23:
	@DEBUG_VALUE: HSUSBD_GetStall:i <- [DW_OP_plus_uconst 1, DW_OP_stack_value] 11
	@DEBUG_VALUE: HSUSBD_GetStall:val <- 0
	@DEBUG_VALUE: HSUSBD_GetStall:u32EpNum <- $r0
	@DEBUG_VALUE: HSUSBD_GetStall:i <- 12
	.loc	1 382 29                        @ ../../../../Library/StdDriver/inc\hsusbd.h:382:29
	ldr.w	r2, [r1, #508]
	.loc	1 382 45                        @ ../../../../Library/StdDriver/inc\hsusbd.h:382:45
	ubfx	r2, r2, #4, #4
.Ltmp228:
	@DEBUG_VALUE: HSUSBD_GetStall:i <- [DW_OP_plus_uconst 1, DW_OP_stack_value] 12
	.loc	1 382 13                        @ ../../../../Library/StdDriver/inc\hsusbd.h:382:13
	cmp	r2, r0
	bne	.LBB6_25
.Ltmp229:
@ %bb.24:
	@DEBUG_VALUE: HSUSBD_GetStall:i <- [DW_OP_plus_uconst 1, DW_OP_stack_value] 12
	@DEBUG_VALUE: HSUSBD_GetStall:val <- 0
	@DEBUG_VALUE: HSUSBD_GetStall:u32EpNum <- $r0
	.loc	1 382 0                         @ ../../../../Library/StdDriver/inc\hsusbd.h:382:0
	add.w	r1, r1, #480
	.loc	1 382 13                        @ ../../../../Library/StdDriver/inc\hsusbd.h:382:13
	b	.LBB6_35
.Ltmp230:
.LBB6_25:
	@DEBUG_VALUE: HSUSBD_GetStall:i <- [DW_OP_plus_uconst 1, DW_OP_stack_value] 12
	@DEBUG_VALUE: HSUSBD_GetStall:val <- 0
	@DEBUG_VALUE: HSUSBD_GetStall:u32EpNum <- $r0
	@DEBUG_VALUE: HSUSBD_GetStall:i <- 13
	.loc	1 382 29                        @ ../../../../Library/StdDriver/inc\hsusbd.h:382:29
	ldr.w	r2, [r1, #548]
	.loc	1 382 45                        @ ../../../../Library/StdDriver/inc\hsusbd.h:382:45
	ubfx	r2, r2, #4, #4
.Ltmp231:
	@DEBUG_VALUE: HSUSBD_GetStall:i <- [DW_OP_plus_uconst 1, DW_OP_stack_value] 13
	.loc	1 382 13                        @ ../../../../Library/StdDriver/inc\hsusbd.h:382:13
	cmp	r2, r0
	bne	.LBB6_27
.Ltmp232:
@ %bb.26:
	@DEBUG_VALUE: HSUSBD_GetStall:i <- [DW_OP_plus_uconst 1, DW_OP_stack_value] 13
	@DEBUG_VALUE: HSUSBD_GetStall:val <- 0
	@DEBUG_VALUE: HSUSBD_GetStall:u32EpNum <- $r0
	.loc	1 382 0                         @ ../../../../Library/StdDriver/inc\hsusbd.h:382:0
	add.w	r1, r1, #520
	.loc	1 382 13                        @ ../../../../Library/StdDriver/inc\hsusbd.h:382:13
	b	.LBB6_35
.Ltmp233:
.LBB6_27:
	@DEBUG_VALUE: HSUSBD_GetStall:i <- [DW_OP_plus_uconst 1, DW_OP_stack_value] 13
	@DEBUG_VALUE: HSUSBD_GetStall:val <- 0
	@DEBUG_VALUE: HSUSBD_GetStall:u32EpNum <- $r0
	@DEBUG_VALUE: HSUSBD_GetStall:i <- 14
	.loc	1 382 29                        @ ../../../../Library/StdDriver/inc\hsusbd.h:382:29
	ldr.w	r2, [r1, #588]
	.loc	1 382 45                        @ ../../../../Library/StdDriver/inc\hsusbd.h:382:45
	ubfx	r2, r2, #4, #4
.Ltmp234:
	@DEBUG_VALUE: HSUSBD_GetStall:i <- [DW_OP_plus_uconst 1, DW_OP_stack_value] 14
	.loc	1 382 13                        @ ../../../../Library/StdDriver/inc\hsusbd.h:382:13
	cmp	r2, r0
	bne	.LBB6_29
.Ltmp235:
@ %bb.28:
	@DEBUG_VALUE: HSUSBD_GetStall:i <- [DW_OP_plus_uconst 1, DW_OP_stack_value] 14
	@DEBUG_VALUE: HSUSBD_GetStall:val <- 0
	@DEBUG_VALUE: HSUSBD_GetStall:u32EpNum <- $r0
	.loc	1 382 0                         @ ../../../../Library/StdDriver/inc\hsusbd.h:382:0
	add.w	r1, r1, #560
	.loc	1 382 13                        @ ../../../../Library/StdDriver/inc\hsusbd.h:382:13
	b	.LBB6_35
.Ltmp236:
.LBB6_29:
	@DEBUG_VALUE: HSUSBD_GetStall:i <- [DW_OP_plus_uconst 1, DW_OP_stack_value] 14
	@DEBUG_VALUE: HSUSBD_GetStall:val <- 0
	@DEBUG_VALUE: HSUSBD_GetStall:u32EpNum <- $r0
	@DEBUG_VALUE: HSUSBD_GetStall:i <- 15
	.loc	1 382 29                        @ ../../../../Library/StdDriver/inc\hsusbd.h:382:29
	ldr.w	r2, [r1, #628]
	.loc	1 382 45                        @ ../../../../Library/StdDriver/inc\hsusbd.h:382:45
	ubfx	r2, r2, #4, #4
.Ltmp237:
	@DEBUG_VALUE: HSUSBD_GetStall:i <- [DW_OP_plus_uconst 1, DW_OP_stack_value] 15
	.loc	1 382 13                        @ ../../../../Library/StdDriver/inc\hsusbd.h:382:13
	cmp	r2, r0
	bne	.LBB6_31
.Ltmp238:
@ %bb.30:
	@DEBUG_VALUE: HSUSBD_GetStall:i <- [DW_OP_plus_uconst 1, DW_OP_stack_value] 15
	@DEBUG_VALUE: HSUSBD_GetStall:val <- 0
	@DEBUG_VALUE: HSUSBD_GetStall:u32EpNum <- $r0
	.loc	1 382 0                         @ ../../../../Library/StdDriver/inc\hsusbd.h:382:0
	add.w	r1, r1, #600
	.loc	1 382 13                        @ ../../../../Library/StdDriver/inc\hsusbd.h:382:13
	b	.LBB6_35
.Ltmp239:
.LBB6_31:
	@DEBUG_VALUE: HSUSBD_GetStall:i <- [DW_OP_plus_uconst 1, DW_OP_stack_value] 15
	@DEBUG_VALUE: HSUSBD_GetStall:val <- 0
	@DEBUG_VALUE: HSUSBD_GetStall:u32EpNum <- $r0
	@DEBUG_VALUE: HSUSBD_GetStall:i <- 16
	.loc	1 382 29                        @ ../../../../Library/StdDriver/inc\hsusbd.h:382:29
	ldr.w	r2, [r1, #668]
	.loc	1 382 45                        @ ../../../../Library/StdDriver/inc\hsusbd.h:382:45
	ubfx	r2, r2, #4, #4
.Ltmp240:
	@DEBUG_VALUE: HSUSBD_GetStall:i <- [DW_OP_plus_uconst 1, DW_OP_stack_value] 16
	.loc	1 382 13                        @ ../../../../Library/StdDriver/inc\hsusbd.h:382:13
	cmp	r2, r0
	bne	.LBB6_33
.Ltmp241:
@ %bb.32:
	@DEBUG_VALUE: HSUSBD_GetStall:i <- [DW_OP_plus_uconst 1, DW_OP_stack_value] 16
	@DEBUG_VALUE: HSUSBD_GetStall:val <- 0
	@DEBUG_VALUE: HSUSBD_GetStall:u32EpNum <- $r0
	.loc	1 382 0                         @ ../../../../Library/StdDriver/inc\hsusbd.h:382:0
	add.w	r1, r1, #640
	.loc	1 382 13                        @ ../../../../Library/StdDriver/inc\hsusbd.h:382:13
	b	.LBB6_35
.Ltmp242:
.LBB6_33:
	@DEBUG_VALUE: HSUSBD_GetStall:i <- [DW_OP_plus_uconst 1, DW_OP_stack_value] 16
	@DEBUG_VALUE: HSUSBD_GetStall:val <- 0
	@DEBUG_VALUE: HSUSBD_GetStall:u32EpNum <- $r0
	@DEBUG_VALUE: HSUSBD_GetStall:i <- 17
	.loc	1 382 29                        @ ../../../../Library/StdDriver/inc\hsusbd.h:382:29
	ldr.w	r2, [r1, #708]
	.loc	1 382 45                        @ ../../../../Library/StdDriver/inc\hsusbd.h:382:45
	ubfx	r2, r2, #4, #4
.Ltmp243:
	@DEBUG_VALUE: HSUSBD_GetStall:i <- [DW_OP_plus_uconst 1, DW_OP_stack_value] 17
	.loc	1 382 13                        @ ../../../../Library/StdDriver/inc\hsusbd.h:382:13
	cmp	r2, r0
	itt	ne
	movne	r0, #0
.Ltmp244:
	@DEBUG_VALUE: HSUSBD_GetStall:u32EpNum <- [DW_OP_LLVM_entry_value 1] $r0
	@DEBUG_VALUE: HSUSBD_GetStall:val <- $r0
	.loc	1 389 5 is_stmt 1               @ ../../../../Library/StdDriver/inc\hsusbd.h:389:5
	bxne	lr
.Ltmp245:
.LBB6_34:
	@DEBUG_VALUE: HSUSBD_GetStall:val <- $r0
	@DEBUG_VALUE: HSUSBD_GetStall:u32EpNum <- [DW_OP_LLVM_entry_value 1] $r0
	@DEBUG_VALUE: HSUSBD_GetStall:i <- [DW_OP_plus_uconst 1, DW_OP_stack_value] 17
	.loc	1 0 5 is_stmt 0                 @ ../../../../Library/StdDriver/inc\hsusbd.h:0:5
	add.w	r1, r1, #680
.Ltmp246:
.LBB6_35:
	.loc	1 384 34 is_stmt 1              @ ../../../../Library/StdDriver/inc\hsusbd.h:384:34
	ldr	r0, [r1, #16]
	.loc	1 384 43 is_stmt 0              @ ../../../../Library/StdDriver/inc\hsusbd.h:384:43
	and	r0, r0, #16
.Ltmp247:
	@DEBUG_VALUE: HSUSBD_GetStall:val <- $r0
	@DEBUG_VALUE: HSUSBD_GetStall:val <- $r0
	.loc	1 389 5 is_stmt 1               @ ../../../../Library/StdDriver/inc\hsusbd.h:389:5
	bx	lr
.Ltmp248:
.Lfunc_end6:
	.size	HSUSBD_GetStall, .Lfunc_end6-HSUSBD_GetStall
	.cfi_endproc
	.cantunwind
	.fnend
                                        @ -- End function
	.section	.text.HSUSBD_UpdateDeviceState,"ax",%progbits
	.hidden	HSUSBD_UpdateDeviceState        @ -- Begin function HSUSBD_UpdateDeviceState
	.globl	HSUSBD_UpdateDeviceState
	.p2align	2
	.type	HSUSBD_UpdateDeviceState,%function
	.code	16                              @ @HSUSBD_UpdateDeviceState
	.thumb_func
HSUSBD_UpdateDeviceState:
.Lfunc_begin7:
	.loc	2 597 0                         @ ../../../../Library/StdDriver/src/hsusbd.c:597:0
	.fnstart
	.cfi_startproc
@ %bb.0:
	.save	{r7, lr}
	push	{r7, lr}
	.cfi_def_cfa_offset 8
	.cfi_offset lr, -4
	.cfi_offset r7, -8
	.pad	#4
	sub	sp, #4
	.cfi_def_cfa_offset 12
.Ltmp249:
	.loc	2 598 21 prologue_end           @ ../../../../Library/StdDriver/src/hsusbd.c:598:21
	movw	r1, :lower16:gUsbCmd
	movt	r1, :upper16:gUsbCmd
	ldrb	r0, [r1, #1]
	.loc	2 598 5 is_stmt 0               @ ../../../../Library/StdDriver/src/hsusbd.c:598:5
	subs	r0, #1
	cmp	r0, #8
	bhi.w	.LBB7_19
@ %bb.1:
.LCPI7_0:
	tbh	[pc, r0, lsl #1]
@ %bb.2:
	.loc	2 0 5                           @ ../../../../Library/StdDriver/src/hsusbd.c:0:5
.LJTI7_0:
	.short	(.LBB7_3-(.LCPI7_0+4))/2
	.short	(.LBB7_19-(.LCPI7_0+4))/2
	.short	(.LBB7_8-(.LCPI7_0+4))/2
	.short	(.LBB7_19-(.LCPI7_0+4))/2
	.short	(.LBB7_7-(.LCPI7_0+4))/2
	.short	(.LBB7_19-(.LCPI7_0+4))/2
	.short	(.LBB7_19-(.LCPI7_0+4))/2
	.short	(.LBB7_19-(.LCPI7_0+4))/2
	.short	(.LBB7_13-(.LCPI7_0+4))/2
	.p2align	1
.LBB7_3:
.Ltmp250:
	.loc	2 669 25 is_stmt 1              @ ../../../../Library/StdDriver/src/hsusbd.c:669:25
	ldrh	r0, [r1, #2]
.Ltmp251:
	.loc	2 669 17 is_stmt 0              @ ../../../../Library/StdDriver/src/hsusbd.c:669:17
	cmp	r0, #1
	beq.w	.LBB7_41
@ %bb.4:
	cmp	r0, #0
	bne.w	.LBB7_19
@ %bb.5:
	.loc	2 0 17                          @ ../../../../Library/StdDriver/src/hsusbd.c:0:17
	movw	r0, #20580
.Ltmp252:
	.loc	2 672 42 is_stmt 1              @ ../../../../Library/StdDriver/src/hsusbd.c:672:42
	ldrh	r1, [r1, #4]
	movt	r0, #16416
.Ltmp253:
	.loc	1 347 29                        @ ../../../../Library/StdDriver/inc\hsusbd.h:347:29
	ldr	r2, [r0, #28]
.Ltmp254:
	.loc	2 672 49                        @ ../../../../Library/StdDriver/src/hsusbd.c:672:49
	and	r1, r1, #15
.Ltmp255:
	@DEBUG_VALUE: HSUSBD_ClearStall:i <- 0
	@DEBUG_VALUE: HSUSBD_ClearStall:u32EpNum <- $r1
	@DEBUG_VALUE: idx <- $r1
	.loc	1 347 45                        @ ../../../../Library/StdDriver/inc\hsusbd.h:347:45
	ubfx	r2, r2, #4, #4
.Ltmp256:
	.loc	1 347 13 is_stmt 0              @ ../../../../Library/StdDriver/inc\hsusbd.h:347:13
	cmp	r2, r1
	itt	eq
	moveq	r2, #8
.Ltmp257:
	.loc	1 349 36 is_stmt 1              @ ../../../../Library/StdDriver/inc\hsusbd.h:349:36
	streq	r2, [r0, #16]
.Ltmp258:
	@DEBUG_VALUE: HSUSBD_ClearStall:i <- 1
	.loc	1 347 29                        @ ../../../../Library/StdDriver/inc\hsusbd.h:347:29
	ldr	r2, [r0, #68]
	.loc	1 347 45 is_stmt 0              @ ../../../../Library/StdDriver/inc\hsusbd.h:347:45
	ubfx	r2, r2, #4, #4
.Ltmp259:
	.loc	1 347 13                        @ ../../../../Library/StdDriver/inc\hsusbd.h:347:13
	cmp	r2, r1
	itt	eq
	moveq	r2, #8
.Ltmp260:
	.loc	1 349 36 is_stmt 1              @ ../../../../Library/StdDriver/inc\hsusbd.h:349:36
	streq	r2, [r0, #56]
.Ltmp261:
	@DEBUG_VALUE: HSUSBD_ClearStall:i <- 2
	.loc	1 347 29                        @ ../../../../Library/StdDriver/inc\hsusbd.h:347:29
	ldr	r2, [r0, #108]
	.loc	1 347 45 is_stmt 0              @ ../../../../Library/StdDriver/inc\hsusbd.h:347:45
	ubfx	r2, r2, #4, #4
.Ltmp262:
	.loc	1 347 13                        @ ../../../../Library/StdDriver/inc\hsusbd.h:347:13
	cmp	r2, r1
	itt	eq
	moveq	r2, #8
.Ltmp263:
	.loc	1 349 36 is_stmt 1              @ ../../../../Library/StdDriver/inc\hsusbd.h:349:36
	streq	r2, [r0, #96]
.Ltmp264:
	@DEBUG_VALUE: HSUSBD_ClearStall:i <- 3
	.loc	1 347 29                        @ ../../../../Library/StdDriver/inc\hsusbd.h:347:29
	ldr.w	r2, [r0, #148]
	.loc	1 347 45 is_stmt 0              @ ../../../../Library/StdDriver/inc\hsusbd.h:347:45
	ubfx	r2, r2, #4, #4
.Ltmp265:
	.loc	1 347 13                        @ ../../../../Library/StdDriver/inc\hsusbd.h:347:13
	cmp	r2, r1
	itt	eq
	moveq	r2, #8
.Ltmp266:
	.loc	1 349 36 is_stmt 1              @ ../../../../Library/StdDriver/inc\hsusbd.h:349:36
	streq.w	r2, [r0, #136]
.Ltmp267:
	@DEBUG_VALUE: HSUSBD_ClearStall:i <- 4
	.loc	1 347 29                        @ ../../../../Library/StdDriver/inc\hsusbd.h:347:29
	ldr.w	r2, [r0, #188]
	.loc	1 347 45 is_stmt 0              @ ../../../../Library/StdDriver/inc\hsusbd.h:347:45
	ubfx	r2, r2, #4, #4
.Ltmp268:
	.loc	1 347 13                        @ ../../../../Library/StdDriver/inc\hsusbd.h:347:13
	cmp	r2, r1
	itt	eq
	moveq	r2, #8
.Ltmp269:
	.loc	1 349 36 is_stmt 1              @ ../../../../Library/StdDriver/inc\hsusbd.h:349:36
	streq.w	r2, [r0, #176]
.Ltmp270:
	@DEBUG_VALUE: HSUSBD_ClearStall:i <- 5
	.loc	1 347 29                        @ ../../../../Library/StdDriver/inc\hsusbd.h:347:29
	ldr.w	r2, [r0, #228]
	.loc	1 347 45 is_stmt 0              @ ../../../../Library/StdDriver/inc\hsusbd.h:347:45
	ubfx	r2, r2, #4, #4
.Ltmp271:
	.loc	1 347 13                        @ ../../../../Library/StdDriver/inc\hsusbd.h:347:13
	cmp	r2, r1
	itt	eq
	moveq	r2, #8
.Ltmp272:
	.loc	1 349 36 is_stmt 1              @ ../../../../Library/StdDriver/inc\hsusbd.h:349:36
	streq.w	r2, [r0, #216]
.Ltmp273:
	@DEBUG_VALUE: HSUSBD_ClearStall:i <- 6
	.loc	1 347 29                        @ ../../../../Library/StdDriver/inc\hsusbd.h:347:29
	ldr.w	r2, [r0, #268]
	.loc	1 347 45 is_stmt 0              @ ../../../../Library/StdDriver/inc\hsusbd.h:347:45
	ubfx	r2, r2, #4, #4
.Ltmp274:
	.loc	1 347 13                        @ ../../../../Library/StdDriver/inc\hsusbd.h:347:13
	cmp	r2, r1
	itt	eq
	moveq	r2, #8
.Ltmp275:
	.loc	1 349 36 is_stmt 1              @ ../../../../Library/StdDriver/inc\hsusbd.h:349:36
	streq.w	r2, [r0, #256]
.Ltmp276:
	@DEBUG_VALUE: HSUSBD_ClearStall:i <- 7
	.loc	1 347 29                        @ ../../../../Library/StdDriver/inc\hsusbd.h:347:29
	ldr.w	r2, [r0, #308]
	.loc	1 347 45 is_stmt 0              @ ../../../../Library/StdDriver/inc\hsusbd.h:347:45
	ubfx	r2, r2, #4, #4
.Ltmp277:
	.loc	1 347 13                        @ ../../../../Library/StdDriver/inc\hsusbd.h:347:13
	cmp	r2, r1
	itt	eq
	moveq	r2, #8
.Ltmp278:
	.loc	1 349 36 is_stmt 1              @ ../../../../Library/StdDriver/inc\hsusbd.h:349:36
	streq.w	r2, [r0, #296]
.Ltmp279:
	@DEBUG_VALUE: HSUSBD_ClearStall:i <- 8
	.loc	1 347 29                        @ ../../../../Library/StdDriver/inc\hsusbd.h:347:29
	ldr.w	r2, [r0, #348]
	.loc	1 347 45 is_stmt 0              @ ../../../../Library/StdDriver/inc\hsusbd.h:347:45
	ubfx	r2, r2, #4, #4
.Ltmp280:
	.loc	1 347 13                        @ ../../../../Library/StdDriver/inc\hsusbd.h:347:13
	cmp	r2, r1
	itt	eq
	moveq	r2, #8
.Ltmp281:
	.loc	1 349 36 is_stmt 1              @ ../../../../Library/StdDriver/inc\hsusbd.h:349:36
	streq.w	r2, [r0, #336]
.Ltmp282:
	@DEBUG_VALUE: HSUSBD_ClearStall:i <- 9
	.loc	1 347 29                        @ ../../../../Library/StdDriver/inc\hsusbd.h:347:29
	ldr.w	r2, [r0, #388]
	.loc	1 347 45 is_stmt 0              @ ../../../../Library/StdDriver/inc\hsusbd.h:347:45
	ubfx	r2, r2, #4, #4
.Ltmp283:
	.loc	1 347 13                        @ ../../../../Library/StdDriver/inc\hsusbd.h:347:13
	cmp	r2, r1
	itt	eq
	moveq	r2, #8
.Ltmp284:
	.loc	1 349 36 is_stmt 1              @ ../../../../Library/StdDriver/inc\hsusbd.h:349:36
	streq.w	r2, [r0, #376]
.Ltmp285:
	@DEBUG_VALUE: HSUSBD_ClearStall:i <- 10
	.loc	1 347 29                        @ ../../../../Library/StdDriver/inc\hsusbd.h:347:29
	ldr.w	r2, [r0, #428]
	.loc	1 347 45 is_stmt 0              @ ../../../../Library/StdDriver/inc\hsusbd.h:347:45
	ubfx	r2, r2, #4, #4
.Ltmp286:
	.loc	1 347 13                        @ ../../../../Library/StdDriver/inc\hsusbd.h:347:13
	cmp	r2, r1
	itt	eq
	moveq	r2, #8
.Ltmp287:
	.loc	1 349 36 is_stmt 1              @ ../../../../Library/StdDriver/inc\hsusbd.h:349:36
	streq.w	r2, [r0, #416]
.Ltmp288:
	@DEBUG_VALUE: HSUSBD_ClearStall:i <- 11
	.loc	1 347 29                        @ ../../../../Library/StdDriver/inc\hsusbd.h:347:29
	ldr.w	r2, [r0, #468]
	.loc	1 347 45 is_stmt 0              @ ../../../../Library/StdDriver/inc\hsusbd.h:347:45
	ubfx	r2, r2, #4, #4
.Ltmp289:
	.loc	1 347 13                        @ ../../../../Library/StdDriver/inc\hsusbd.h:347:13
	cmp	r2, r1
	itt	eq
	moveq	r2, #8
.Ltmp290:
	.loc	1 349 36 is_stmt 1              @ ../../../../Library/StdDriver/inc\hsusbd.h:349:36
	streq.w	r2, [r0, #456]
.Ltmp291:
	@DEBUG_VALUE: HSUSBD_ClearStall:i <- 12
	.loc	1 347 29                        @ ../../../../Library/StdDriver/inc\hsusbd.h:347:29
	ldr.w	r2, [r0, #508]
	.loc	1 347 45 is_stmt 0              @ ../../../../Library/StdDriver/inc\hsusbd.h:347:45
	ubfx	r2, r2, #4, #4
.Ltmp292:
	.loc	1 347 13                        @ ../../../../Library/StdDriver/inc\hsusbd.h:347:13
	cmp	r2, r1
	itt	eq
	moveq	r2, #8
.Ltmp293:
	.loc	1 349 36 is_stmt 1              @ ../../../../Library/StdDriver/inc\hsusbd.h:349:36
	streq.w	r2, [r0, #496]
.Ltmp294:
	@DEBUG_VALUE: HSUSBD_ClearStall:i <- 13
	.loc	1 347 29                        @ ../../../../Library/StdDriver/inc\hsusbd.h:347:29
	ldr.w	r2, [r0, #548]
	.loc	1 347 45 is_stmt 0              @ ../../../../Library/StdDriver/inc\hsusbd.h:347:45
	ubfx	r2, r2, #4, #4
.Ltmp295:
	.loc	1 347 13                        @ ../../../../Library/StdDriver/inc\hsusbd.h:347:13
	cmp	r2, r1
	itt	eq
	moveq	r2, #8
.Ltmp296:
	.loc	1 349 36 is_stmt 1              @ ../../../../Library/StdDriver/inc\hsusbd.h:349:36
	streq.w	r2, [r0, #536]
.Ltmp297:
	@DEBUG_VALUE: HSUSBD_ClearStall:i <- 14
	.loc	1 347 29                        @ ../../../../Library/StdDriver/inc\hsusbd.h:347:29
	ldr.w	r2, [r0, #588]
	.loc	1 347 45 is_stmt 0              @ ../../../../Library/StdDriver/inc\hsusbd.h:347:45
	ubfx	r2, r2, #4, #4
.Ltmp298:
	.loc	1 347 13                        @ ../../../../Library/StdDriver/inc\hsusbd.h:347:13
	cmp	r2, r1
	itt	eq
	moveq	r2, #8
.Ltmp299:
	.loc	1 349 36 is_stmt 1              @ ../../../../Library/StdDriver/inc\hsusbd.h:349:36
	streq.w	r2, [r0, #576]
.Ltmp300:
	@DEBUG_VALUE: HSUSBD_ClearStall:i <- 15
	.loc	1 347 29                        @ ../../../../Library/StdDriver/inc\hsusbd.h:347:29
	ldr.w	r2, [r0, #628]
	.loc	1 347 45 is_stmt 0              @ ../../../../Library/StdDriver/inc\hsusbd.h:347:45
	ubfx	r2, r2, #4, #4
.Ltmp301:
	.loc	1 347 13                        @ ../../../../Library/StdDriver/inc\hsusbd.h:347:13
	cmp	r2, r1
	itt	eq
	moveq	r2, #8
.Ltmp302:
	.loc	1 349 36 is_stmt 1              @ ../../../../Library/StdDriver/inc\hsusbd.h:349:36
	streq.w	r2, [r0, #616]
.Ltmp303:
	@DEBUG_VALUE: HSUSBD_ClearStall:i <- 16
	.loc	1 347 29                        @ ../../../../Library/StdDriver/inc\hsusbd.h:347:29
	ldr.w	r2, [r0, #668]
	.loc	1 347 45 is_stmt 0              @ ../../../../Library/StdDriver/inc\hsusbd.h:347:45
	ubfx	r2, r2, #4, #4
.Ltmp304:
	.loc	1 347 13                        @ ../../../../Library/StdDriver/inc\hsusbd.h:347:13
	cmp	r2, r1
	itt	eq
	moveq	r2, #8
.Ltmp305:
	.loc	1 349 36 is_stmt 1              @ ../../../../Library/StdDriver/inc\hsusbd.h:349:36
	streq.w	r2, [r0, #656]
.Ltmp306:
	@DEBUG_VALUE: HSUSBD_ClearStall:i <- 17
	.loc	1 347 29                        @ ../../../../Library/StdDriver/inc\hsusbd.h:347:29
	ldr.w	r2, [r0, #708]
	.loc	1 347 45 is_stmt 0              @ ../../../../Library/StdDriver/inc\hsusbd.h:347:45
	ubfx	r2, r2, #4, #4
.Ltmp307:
	.loc	1 347 13                        @ ../../../../Library/StdDriver/inc\hsusbd.h:347:13
	cmp	r2, r1
	bne	.LBB7_19
.Ltmp308:
@ %bb.6:
	@DEBUG_VALUE: HSUSBD_ClearStall:i <- 17
	@DEBUG_VALUE: idx <- $r1
	@DEBUG_VALUE: HSUSBD_ClearStall:u32EpNum <- $r1
	.loc	1 0 13                          @ ../../../../Library/StdDriver/inc\hsusbd.h:0:13
	movs	r1, #8
.Ltmp309:
	.loc	1 349 36 is_stmt 1              @ ../../../../Library/StdDriver/inc\hsusbd.h:349:36
	str.w	r1, [r0, #696]
.Ltmp310:
	.loc	2 686 1 epilogue_begin          @ ../../../../Library/StdDriver/src/hsusbd.c:686:1
	add	sp, #4
	pop	{r7, pc}
.Ltmp311:
.LBB7_7:
	.loc	2 602 13                        @ ../../../../Library/StdDriver/src/hsusbd.c:602:13
	movw	r0, :lower16:g_hsusbd_UsbAddr
	movw	r1, #20580
	movt	r0, :upper16:g_hsusbd_UsbAddr
	ldrb	r0, [r0]
	movt	r1, #16416
	str	r0, [r1, #-68]
.Ltmp312:
	.loc	2 686 1 epilogue_begin          @ ../../../../Library/StdDriver/src/hsusbd.c:686:1
	add	sp, #4
	pop	{r7, pc}
.LBB7_8:
.Ltmp313:
	.loc	2 627 25                        @ ../../../../Library/StdDriver/src/hsusbd.c:627:25
	ldrh	r0, [r1, #2]
.Ltmp314:
	.loc	2 627 17 is_stmt 0              @ ../../../../Library/StdDriver/src/hsusbd.c:627:17
	cmp	r0, #0
	beq	.LBB7_20
@ %bb.9:
.Ltmp315:
	.loc	2 633 22 is_stmt 1              @ ../../../../Library/StdDriver/src/hsusbd.c:633:22
	movw	r1, :lower16:g_hsusbd_EnableTestMode
	movt	r1, :upper16:g_hsusbd_EnableTestMode
	ldrb	r2, [r1]
.Ltmp316:
	.loc	2 633 22 is_stmt 0              @ ../../../../Library/StdDriver/src/hsusbd.c:633:22
	cmp	r2, #1
	bne	.LBB7_11
@ %bb.10:
.Ltmp317:
	.loc	2 637 21 is_stmt 1              @ ../../../../Library/StdDriver/src/hsusbd.c:637:21
	movw	r2, :lower16:g_hsusbd_TestSelector
	mov.w	r12, #0
	movt	r2, :upper16:g_hsusbd_TestSelector
	ldrb	r2, [r2]
.Ltmp318:
	.loc	2 635 41                        @ ../../../../Library/StdDriver/src/hsusbd.c:635:41
	strb.w	r12, [r1]
	.loc	2 637 21                        @ ../../../../Library/StdDriver/src/hsusbd.c:637:21
	subs	r3, r2, #1
	cmp	r3, #4
	ittt	ls
	movwls	r1, #20580
	movtls	r1, #16416
.Ltmp319:
	.loc	2 0 0 is_stmt 0                 @ ../../../../Library/StdDriver/src/hsusbd.c:0:0
	strls	r2, [r1, #-64]
.Ltmp320:
.LBB7_11:
	.loc	2 659 17 is_stmt 1              @ ../../../../Library/StdDriver/src/hsusbd.c:659:17
	lsls	r0, r0, #31
	beq	.LBB7_19
@ %bb.12:
.Ltmp321:
	.loc	2 661 41                        @ ../../../../Library/StdDriver/src/hsusbd.c:661:41
	movw	r0, :lower16:g_hsusbd_RemoteWakeupEn
	movs	r1, #1
	b	.LBB7_42
.Ltmp322:
.LBB7_13:
	.loc	2 608 17                        @ ../../../../Library/StdDriver/src/hsusbd.c:608:17
	movw	r0, :lower16:g_hsusbd_UsbConfig
	movt	r0, :upper16:g_hsusbd_UsbConfig
	ldrb	r0, [r0]
.Ltmp323:
	.loc	2 608 17 is_stmt 0              @ ../../../../Library/StdDriver/src/hsusbd.c:608:17
	cbnz	r0, .LBB7_19
@ %bb.14:
	.loc	2 0 17                          @ ../../../../Library/StdDriver/src/hsusbd.c:0:17
	movs	r0, #0
.Ltmp324:
	.loc	2 613 24 is_stmt 1              @ ../../../../Library/StdDriver/src/hsusbd.c:613:24
	str	r0, [sp]
.Ltmp325:
	.loc	2 613 31 is_stmt 0              @ ../../../../Library/StdDriver/src/hsusbd.c:613:31
	ldr	r0, [sp]
.Ltmp326:
	.loc	2 613 17                        @ ../../../../Library/StdDriver/src/hsusbd.c:613:17
	cmp	r0, #17
	bhi	.LBB7_19
@ %bb.15:
	.loc	2 0 17                          @ ../../../../Library/StdDriver/src/hsusbd.c:0:17
	movw	r0, #20580
	movs	r1, #8
	movt	r0, #16416
	b	.LBB7_17
	.p2align	2
.LBB7_16:                               @   in Loop: Header=BB7_17 Depth=1
.Ltmp327:
	.loc	2 613 51                        @ ../../../../Library/StdDriver/src/hsusbd.c:613:51
	ldr	r2, [sp]
	adds	r2, #1
	str	r2, [sp]
	.loc	2 613 31                        @ ../../../../Library/StdDriver/src/hsusbd.c:613:31
	ldr	r2, [sp]
.Ltmp328:
	.loc	2 613 17                        @ ../../../../Library/StdDriver/src/hsusbd.c:613:17
	cmp	r2, #18
	bhs	.LBB7_19
.LBB7_17:                               @ =>This Inner Loop Header: Depth=1
.Ltmp329:
	.loc	2 615 37 is_stmt 1              @ ../../../../Library/StdDriver/src/hsusbd.c:615:37
	ldr	r2, [sp]
	.loc	2 615 40 is_stmt 0              @ ../../../../Library/StdDriver/src/hsusbd.c:615:40
	add.w	r2, r2, r2, lsl #2
	add.w	r2, r0, r2, lsl #3
	ldr	r2, [r2, #28]
.Ltmp330:
	.loc	2 615 25                        @ ../../../../Library/StdDriver/src/hsusbd.c:615:25
	lsls	r2, r2, #31
	beq	.LBB7_16
@ %bb.18:                               @   in Loop: Header=BB7_17 Depth=1
.Ltmp331:
	.loc	2 617 36 is_stmt 1              @ ../../../../Library/StdDriver/src/hsusbd.c:617:36
	ldr	r2, [sp]
	.loc	2 617 39 is_stmt 0              @ ../../../../Library/StdDriver/src/hsusbd.c:617:39
	add.w	r2, r2, r2, lsl #2
	add.w	r2, r0, r2, lsl #3
	.loc	2 617 48                        @ ../../../../Library/StdDriver/src/hsusbd.c:617:48
	str	r1, [r2, #16]
	b	.LBB7_16
.Ltmp332:
.LBB7_19:
	.loc	2 686 1 epilogue_begin is_stmt 1 @ ../../../../Library/StdDriver/src/hsusbd.c:686:1
	add	sp, #4
	pop	{r7, pc}
.LBB7_20:
.Ltmp333:
	.loc	2 630 42                        @ ../../../../Library/StdDriver/src/hsusbd.c:630:42
	ldrh	r1, [r1, #4]
	movw	r2, #20580
	movt	r2, #16416
	.loc	2 630 49 is_stmt 0              @ ../../../../Library/StdDriver/src/hsusbd.c:630:49
	ands	r1, r1, #15
.Ltmp334:
	@DEBUG_VALUE: HSUSBD_SetStall:u32EpNum <- undef
	@DEBUG_VALUE: idx <- undef
	.loc	1 306 9 is_stmt 1               @ ../../../../Library/StdDriver/inc\hsusbd.h:306:9
	beq.w	.LBB7_43
.Ltmp335:
@ %bb.21:
	.loc	1 0 9 is_stmt 0                 @ ../../../../Library/StdDriver/inc\hsusbd.h:0:9
	mov.w	lr, #2
	adds	r2, #176
.Ltmp336:
	.loc	1 312 9 is_stmt 1               @ ../../../../Library/StdDriver/inc\hsusbd.h:312:9
	mov	lr, lr
	b	.LBB7_23
	.loc	1 0 9 is_stmt 0                 @ :0:9
.Ltmp337:
	.p2align	2
.LBB7_22:                               @   in Loop: Header=BB7_23 Depth=1
.Ltmp338:
	@DEBUG_VALUE: HSUSBD_SetStall:i <- undef
	.loc	1 312 25                        @ ../../../../Library/StdDriver/inc\hsusbd.h:312:25
	add.w	r2, r2, #360
.Ltmp339:
	.loc	1 312 9                         @ ../../../../Library/StdDriver/inc\hsusbd.h:312:9
	subs.w	lr, lr, #1
	bne	.LBB7_23
	b	.LBB7_11
.Ltmp340:
.LBB7_23:                               @ =>This Inner Loop Header: Depth=1
	@DEBUG_VALUE: HSUSBD_SetStall:i <- undef
	.loc	1 314 33 is_stmt 1              @ ../../../../Library/StdDriver/inc\hsusbd.h:314:33
	ldr	r3, [r2, #-148]
	.loc	1 314 49 is_stmt 0              @ ../../../../Library/StdDriver/inc\hsusbd.h:314:49
	ubfx	r3, r3, #4, #4
.Ltmp341:
	.loc	1 314 17                        @ ../../../../Library/StdDriver/inc\hsusbd.h:314:17
	cmp	r3, r1
	bne	.LBB7_25
.Ltmp342:
@ %bb.24:                               @   in Loop: Header=BB7_23 Depth=1
	.loc	1 316 57 is_stmt 1              @ ../../../../Library/StdDriver/inc\hsusbd.h:316:57
	ldr	r3, [r2, #-160]
	.loc	1 316 66 is_stmt 0              @ ../../../../Library/StdDriver/inc\hsusbd.h:316:66
	and	r3, r3, #231
	.loc	1 316 76                        @ ../../../../Library/StdDriver/inc\hsusbd.h:316:76
	adds	r3, #16
	.loc	1 316 40                        @ ../../../../Library/StdDriver/inc\hsusbd.h:316:40
	str	r3, [r2, #-160]
.Ltmp343:
.LBB7_25:                               @   in Loop: Header=BB7_23 Depth=1
	@DEBUG_VALUE: HSUSBD_SetStall:i <- undef
	.loc	1 314 33 is_stmt 1              @ ../../../../Library/StdDriver/inc\hsusbd.h:314:33
	ldr	r3, [r2, #-108]
	.loc	1 314 49 is_stmt 0              @ ../../../../Library/StdDriver/inc\hsusbd.h:314:49
	ubfx	r3, r3, #4, #4
.Ltmp344:
	.loc	1 314 17                        @ ../../../../Library/StdDriver/inc\hsusbd.h:314:17
	cmp	r3, r1
	bne	.LBB7_27
.Ltmp345:
@ %bb.26:                               @   in Loop: Header=BB7_23 Depth=1
	.loc	1 316 57 is_stmt 1              @ ../../../../Library/StdDriver/inc\hsusbd.h:316:57
	ldr	r3, [r2, #-120]
	.loc	1 316 66 is_stmt 0              @ ../../../../Library/StdDriver/inc\hsusbd.h:316:66
	and	r3, r3, #231
	.loc	1 316 76                        @ ../../../../Library/StdDriver/inc\hsusbd.h:316:76
	adds	r3, #16
	.loc	1 316 40                        @ ../../../../Library/StdDriver/inc\hsusbd.h:316:40
	str	r3, [r2, #-120]
.Ltmp346:
.LBB7_27:                               @   in Loop: Header=BB7_23 Depth=1
	@DEBUG_VALUE: HSUSBD_SetStall:i <- undef
	.loc	1 314 33 is_stmt 1              @ ../../../../Library/StdDriver/inc\hsusbd.h:314:33
	ldr	r3, [r2, #-68]
	.loc	1 314 49 is_stmt 0              @ ../../../../Library/StdDriver/inc\hsusbd.h:314:49
	ubfx	r3, r3, #4, #4
.Ltmp347:
	.loc	1 314 17                        @ ../../../../Library/StdDriver/inc\hsusbd.h:314:17
	cmp	r3, r1
	bne	.LBB7_29
.Ltmp348:
@ %bb.28:                               @   in Loop: Header=BB7_23 Depth=1
	.loc	1 316 57 is_stmt 1              @ ../../../../Library/StdDriver/inc\hsusbd.h:316:57
	ldr	r3, [r2, #-80]
	.loc	1 316 66 is_stmt 0              @ ../../../../Library/StdDriver/inc\hsusbd.h:316:66
	and	r3, r3, #231
	.loc	1 316 76                        @ ../../../../Library/StdDriver/inc\hsusbd.h:316:76
	adds	r3, #16
	.loc	1 316 40                        @ ../../../../Library/StdDriver/inc\hsusbd.h:316:40
	str	r3, [r2, #-80]
.Ltmp349:
.LBB7_29:                               @   in Loop: Header=BB7_23 Depth=1
	@DEBUG_VALUE: HSUSBD_SetStall:i <- undef
	.loc	1 314 33 is_stmt 1              @ ../../../../Library/StdDriver/inc\hsusbd.h:314:33
	ldr	r3, [r2, #-28]
	.loc	1 314 49 is_stmt 0              @ ../../../../Library/StdDriver/inc\hsusbd.h:314:49
	ubfx	r3, r3, #4, #4
.Ltmp350:
	.loc	1 314 17                        @ ../../../../Library/StdDriver/inc\hsusbd.h:314:17
	cmp	r3, r1
	bne	.LBB7_31
.Ltmp351:
@ %bb.30:                               @   in Loop: Header=BB7_23 Depth=1
	.loc	1 316 57 is_stmt 1              @ ../../../../Library/StdDriver/inc\hsusbd.h:316:57
	ldr	r3, [r2, #-40]
	.loc	1 316 66 is_stmt 0              @ ../../../../Library/StdDriver/inc\hsusbd.h:316:66
	and	r3, r3, #231
	.loc	1 316 76                        @ ../../../../Library/StdDriver/inc\hsusbd.h:316:76
	adds	r3, #16
	.loc	1 316 40                        @ ../../../../Library/StdDriver/inc\hsusbd.h:316:40
	str	r3, [r2, #-40]
.Ltmp352:
.LBB7_31:                               @   in Loop: Header=BB7_23 Depth=1
	@DEBUG_VALUE: HSUSBD_SetStall:i <- undef
	.loc	1 314 33 is_stmt 1              @ ../../../../Library/StdDriver/inc\hsusbd.h:314:33
	ldr	r3, [r2, #12]
	.loc	1 314 49 is_stmt 0              @ ../../../../Library/StdDriver/inc\hsusbd.h:314:49
	ubfx	r3, r3, #4, #4
.Ltmp353:
	.loc	1 314 17                        @ ../../../../Library/StdDriver/inc\hsusbd.h:314:17
	cmp	r3, r1
	bne	.LBB7_33
.Ltmp354:
@ %bb.32:                               @   in Loop: Header=BB7_23 Depth=1
	.loc	1 316 57 is_stmt 1              @ ../../../../Library/StdDriver/inc\hsusbd.h:316:57
	ldr	r3, [r2]
	.loc	1 316 66 is_stmt 0              @ ../../../../Library/StdDriver/inc\hsusbd.h:316:66
	and	r3, r3, #231
	.loc	1 316 76                        @ ../../../../Library/StdDriver/inc\hsusbd.h:316:76
	adds	r3, #16
	.loc	1 316 40                        @ ../../../../Library/StdDriver/inc\hsusbd.h:316:40
	str	r3, [r2]
.Ltmp355:
.LBB7_33:                               @   in Loop: Header=BB7_23 Depth=1
	@DEBUG_VALUE: HSUSBD_SetStall:i <- undef
	.loc	1 314 33 is_stmt 1              @ ../../../../Library/StdDriver/inc\hsusbd.h:314:33
	ldr	r3, [r2, #52]
	.loc	1 314 49 is_stmt 0              @ ../../../../Library/StdDriver/inc\hsusbd.h:314:49
	ubfx	r3, r3, #4, #4
.Ltmp356:
	.loc	1 314 17                        @ ../../../../Library/StdDriver/inc\hsusbd.h:314:17
	cmp	r3, r1
	bne	.LBB7_35
.Ltmp357:
@ %bb.34:                               @   in Loop: Header=BB7_23 Depth=1
	.loc	1 316 57 is_stmt 1              @ ../../../../Library/StdDriver/inc\hsusbd.h:316:57
	ldr	r3, [r2, #40]
	.loc	1 316 66 is_stmt 0              @ ../../../../Library/StdDriver/inc\hsusbd.h:316:66
	and	r3, r3, #231
	.loc	1 316 76                        @ ../../../../Library/StdDriver/inc\hsusbd.h:316:76
	adds	r3, #16
	.loc	1 316 40                        @ ../../../../Library/StdDriver/inc\hsusbd.h:316:40
	str	r3, [r2, #40]
.Ltmp358:
.LBB7_35:                               @   in Loop: Header=BB7_23 Depth=1
	@DEBUG_VALUE: HSUSBD_SetStall:i <- undef
	.loc	1 314 33 is_stmt 1              @ ../../../../Library/StdDriver/inc\hsusbd.h:314:33
	ldr	r3, [r2, #92]
	.loc	1 314 49 is_stmt 0              @ ../../../../Library/StdDriver/inc\hsusbd.h:314:49
	ubfx	r3, r3, #4, #4
.Ltmp359:
	.loc	1 314 17                        @ ../../../../Library/StdDriver/inc\hsusbd.h:314:17
	cmp	r3, r1
	bne	.LBB7_37
.Ltmp360:
@ %bb.36:                               @   in Loop: Header=BB7_23 Depth=1
	.loc	1 316 57 is_stmt 1              @ ../../../../Library/StdDriver/inc\hsusbd.h:316:57
	ldr	r3, [r2, #80]
	.loc	1 316 66 is_stmt 0              @ ../../../../Library/StdDriver/inc\hsusbd.h:316:66
	and	r3, r3, #231
	.loc	1 316 76                        @ ../../../../Library/StdDriver/inc\hsusbd.h:316:76
	adds	r3, #16
	.loc	1 316 40                        @ ../../../../Library/StdDriver/inc\hsusbd.h:316:40
	str	r3, [r2, #80]
.Ltmp361:
.LBB7_37:                               @   in Loop: Header=BB7_23 Depth=1
	@DEBUG_VALUE: HSUSBD_SetStall:i <- undef
	.loc	1 314 33 is_stmt 1              @ ../../../../Library/StdDriver/inc\hsusbd.h:314:33
	ldr.w	r3, [r2, #132]
	.loc	1 314 49 is_stmt 0              @ ../../../../Library/StdDriver/inc\hsusbd.h:314:49
	ubfx	r3, r3, #4, #4
.Ltmp362:
	.loc	1 314 17                        @ ../../../../Library/StdDriver/inc\hsusbd.h:314:17
	cmp	r3, r1
	bne	.LBB7_39
.Ltmp363:
@ %bb.38:                               @   in Loop: Header=BB7_23 Depth=1
	.loc	1 316 57 is_stmt 1              @ ../../../../Library/StdDriver/inc\hsusbd.h:316:57
	ldr	r3, [r2, #120]
	.loc	1 316 66 is_stmt 0              @ ../../../../Library/StdDriver/inc\hsusbd.h:316:66
	and	r3, r3, #231
	.loc	1 316 76                        @ ../../../../Library/StdDriver/inc\hsusbd.h:316:76
	adds	r3, #16
	.loc	1 316 40                        @ ../../../../Library/StdDriver/inc\hsusbd.h:316:40
	str	r3, [r2, #120]
.Ltmp364:
.LBB7_39:                               @   in Loop: Header=BB7_23 Depth=1
	@DEBUG_VALUE: HSUSBD_SetStall:i <- undef
	.loc	1 314 33 is_stmt 1              @ ../../../../Library/StdDriver/inc\hsusbd.h:314:33
	ldr.w	r3, [r2, #172]
	.loc	1 314 49 is_stmt 0              @ ../../../../Library/StdDriver/inc\hsusbd.h:314:49
	ubfx	r3, r3, #4, #4
.Ltmp365:
	.loc	1 314 17                        @ ../../../../Library/StdDriver/inc\hsusbd.h:314:17
	cmp	r3, r1
	bne	.LBB7_22
.Ltmp366:
@ %bb.40:                               @   in Loop: Header=BB7_23 Depth=1
	.loc	1 316 57 is_stmt 1              @ ../../../../Library/StdDriver/inc\hsusbd.h:316:57
	ldr.w	r3, [r2, #160]
	.loc	1 316 66 is_stmt 0              @ ../../../../Library/StdDriver/inc\hsusbd.h:316:66
	and	r3, r3, #231
	.loc	1 316 76                        @ ../../../../Library/StdDriver/inc\hsusbd.h:316:76
	adds	r3, #16
	.loc	1 316 40                        @ ../../../../Library/StdDriver/inc\hsusbd.h:316:40
	str.w	r3, [r2, #160]
	b	.LBB7_22
.Ltmp367:
.LBB7_41:
	.loc	2 677 41 is_stmt 1              @ ../../../../Library/StdDriver/src/hsusbd.c:677:41
	movw	r0, :lower16:g_hsusbd_RemoteWakeupEn
	movs	r1, #0
.Ltmp368:
.LBB7_42:
	.loc	2 0 0 is_stmt 0                 @ ../../../../Library/StdDriver/src/hsusbd.c:0:0
	movt	r0, :upper16:g_hsusbd_RemoteWakeupEn
	strb	r1, [r0]
.Ltmp369:
	.loc	2 686 1 epilogue_begin is_stmt 1 @ ../../../../Library/StdDriver/src/hsusbd.c:686:1
	add	sp, #4
	pop	{r7, pc}
.LBB7_43:
	.loc	2 0 1 is_stmt 0                 @ ../../../../Library/StdDriver/src/hsusbd.c:0:1
	movs	r0, #2
.Ltmp370:
	.loc	1 308 9 is_stmt 1               @ ../../../../Library/StdDriver/inc\hsusbd.h:308:9
	str	r0, [r2, #-56]
.Ltmp371:
	.loc	2 686 1 epilogue_begin          @ ../../../../Library/StdDriver/src/hsusbd.c:686:1
	add	sp, #4
	pop	{r7, pc}
.Ltmp372:
.Lfunc_end7:
	.size	HSUSBD_UpdateDeviceState, .Lfunc_end7-HSUSBD_UpdateDeviceState
	.cfi_endproc
	.cantunwind
	.fnend
                                        @ -- End function
	.section	.text.HSUSBD_CtrlIn,"ax",%progbits
	.hidden	HSUSBD_CtrlIn                   @ -- Begin function HSUSBD_CtrlIn
	.globl	HSUSBD_CtrlIn
	.p2align	2
	.type	HSUSBD_CtrlIn,%function
	.code	16                              @ @HSUSBD_CtrlIn
	.thumb_func
HSUSBD_CtrlIn:
.Lfunc_begin8:
	.loc	2 717 0                         @ ../../../../Library/StdDriver/src/hsusbd.c:717:0
	.fnstart
	.cfi_startproc
@ %bb.0:
	.save	{r4, r5, r6, lr}
	push	{r4, r5, r6, lr}
	.cfi_def_cfa_offset 16
	.cfi_offset lr, -4
	.cfi_offset r6, -8
	.cfi_offset r5, -12
	.cfi_offset r4, -16
.Ltmp373:
	.loc	2 721 9 prologue_end            @ ../../../../Library/StdDriver/src/hsusbd.c:721:9
	movw	r12, :lower16:g_hsusbd_CtrlInSize
	.loc	2 721 32 is_stmt 0              @ ../../../../Library/StdDriver/src/hsusbd.c:721:32
	movw	r6, :lower16:g_hsusbd_CtrlMaxPktSize
	.loc	2 721 9                         @ ../../../../Library/StdDriver/src/hsusbd.c:721:9
	movt	r12, :upper16:g_hsusbd_CtrlInSize
	movw	r1, #20520
	.loc	2 721 32                        @ ../../../../Library/StdDriver/src/hsusbd.c:721:32
	movt	r6, :upper16:g_hsusbd_CtrlMaxPktSize
	.loc	2 721 9                         @ ../../../../Library/StdDriver/src/hsusbd.c:721:9
	ldr.w	r3, [r12]
	.loc	2 721 32                        @ ../../../../Library/StdDriver/src/hsusbd.c:721:32
	ldr	r4, [r6]
	movt	r1, #16416
.Ltmp374:
	.loc	2 721 9                         @ ../../../../Library/StdDriver/src/hsusbd.c:721:9
	cmp	r3, r4
	bhs	.LBB8_4
@ %bb.1:
.Ltmp375:
	@DEBUG_VALUE: HSUSBD_CtrlIn:i <- 0
	.loc	2 740 9 is_stmt 1               @ ../../../../Library/StdDriver/src/hsusbd.c:740:9
	cmp	r3, #0
	mov.w	r2, #0
	beq	.LBB8_14
.Ltmp376:
@ %bb.2:
	@DEBUG_VALUE: HSUSBD_CtrlIn:i <- 0
	cmp	r3, #4
	and	r0, r3, #3
	bhs	.LBB8_15
.Ltmp377:
@ %bb.3:
	@DEBUG_VALUE: HSUSBD_CtrlIn:i <- 0
	.loc	2 0 9 is_stmt 0                 @ ../../../../Library/StdDriver/src/hsusbd.c:0:9
	movs	r3, #0
	b	.LBB8_17
.Ltmp378:
.LBB8_4:
	@DEBUG_VALUE: HSUSBD_CtrlIn:i <- 0
	.loc	2 724 39 is_stmt 1              @ ../../../../Library/StdDriver/src/hsusbd.c:724:39
	lsrs	r5, r4, #2
.Ltmp379:
	@DEBUG_VALUE: HSUSBD_CtrlIn:cnt <- [DW_OP_constu 2, DW_OP_shr, DW_OP_stack_value] undef
	.loc	2 726 9                         @ ../../../../Library/StdDriver/src/hsusbd.c:726:9
	beq	.LBB8_13
.Ltmp380:
@ %bb.5:
	@DEBUG_VALUE: HSUSBD_CtrlIn:i <- 0
	@DEBUG_VALUE: HSUSBD_CtrlIn:cnt <- $r5
	.loc	2 728 43                        @ ../../../../Library/StdDriver/src/hsusbd.c:728:43
	movw	r3, :lower16:g_hsusbd_CtrlInPointer
.Ltmp381:
	.loc	2 726 9                         @ ../../../../Library/StdDriver/src/hsusbd.c:726:9
	subs	r2, r5, #1
.Ltmp382:
	.loc	2 728 43                        @ ../../../../Library/StdDriver/src/hsusbd.c:728:43
	movt	r3, :upper16:g_hsusbd_CtrlInPointer
	ldr	r0, [r3]
.Ltmp383:
	.loc	2 726 9                         @ ../../../../Library/StdDriver/src/hsusbd.c:726:9
	cmp	r2, #3
	and	r5, r5, #3
.Ltmp384:
	blo	.LBB8_8
.Ltmp385:
@ %bb.6:
	@DEBUG_VALUE: HSUSBD_CtrlIn:i <- 0
	.loc	2 0 9 is_stmt 0                 @ ../../../../Library/StdDriver/src/hsusbd.c:0:9
	mvn	r2, #3
	and.w	r2, r2, r4, lsr #2
	movs	r4, #1
	subs	r2, #4
	.loc	2 726 9                         @ ../../../../Library/StdDriver/src/hsusbd.c:726:9
	add.w	lr, r4, r2, lsr #2
.Ltmp386:
	.loc	2 0 9                           @ :0:9
.Ltmp387:
	.p2align	2
.LBB8_7:                                @ =>This Inner Loop Header: Depth=1
	@DEBUG_VALUE: HSUSBD_CtrlIn:i <- undef
	.loc	2 728 30 is_stmt 1              @ ../../../../Library/StdDriver/src/hsusbd.c:728:30
	ldr	r0, [r0]
	.loc	2 728 28 is_stmt 0              @ ../../../../Library/StdDriver/src/hsusbd.c:728:28
	str	r0, [r1]
	.loc	2 729 50 is_stmt 1              @ ../../../../Library/StdDriver/src/hsusbd.c:729:50
	ldr	r0, [r3]
	.loc	2 728 30                        @ ../../../../Library/StdDriver/src/hsusbd.c:728:30
	ldr	r2, [r0, #4]!
	.loc	2 729 36                        @ ../../../../Library/StdDriver/src/hsusbd.c:729:36
	str	r0, [r3]
	.loc	2 728 28                        @ ../../../../Library/StdDriver/src/hsusbd.c:728:28
	str	r2, [r1]
	.loc	2 729 50                        @ ../../../../Library/StdDriver/src/hsusbd.c:729:50
	ldr	r0, [r3]
	.loc	2 728 30                        @ ../../../../Library/StdDriver/src/hsusbd.c:728:30
	ldr	r2, [r0, #4]!
	.loc	2 729 36                        @ ../../../../Library/StdDriver/src/hsusbd.c:729:36
	str	r0, [r3]
	.loc	2 728 28                        @ ../../../../Library/StdDriver/src/hsusbd.c:728:28
	str	r2, [r1]
	.loc	2 729 50                        @ ../../../../Library/StdDriver/src/hsusbd.c:729:50
	ldr	r0, [r3]
	.loc	2 728 30                        @ ../../../../Library/StdDriver/src/hsusbd.c:728:30
	ldr	r2, [r0, #4]!
	.loc	2 729 36                        @ ../../../../Library/StdDriver/src/hsusbd.c:729:36
	str	r0, [r3]
	.loc	2 728 28                        @ ../../../../Library/StdDriver/src/hsusbd.c:728:28
	str	r2, [r1]
	.loc	2 729 50                        @ ../../../../Library/StdDriver/src/hsusbd.c:729:50
	ldr	r0, [r3]
	.loc	2 729 73 is_stmt 0              @ ../../../../Library/StdDriver/src/hsusbd.c:729:73
	adds	r0, #4
	.loc	2 729 36                        @ ../../../../Library/StdDriver/src/hsusbd.c:729:36
	str	r0, [r3]
.Ltmp388:
	.loc	2 726 9 is_stmt 1               @ ../../../../Library/StdDriver/src/hsusbd.c:726:9
	le	lr, .LBB8_7
.Ltmp389:
.LBB8_8:
	cbz	r5, .LBB8_12
@ %bb.9:
.Ltmp390:
	@DEBUG_VALUE: HSUSBD_CtrlIn:i <- undef
	.loc	2 728 30                        @ ../../../../Library/StdDriver/src/hsusbd.c:728:30
	ldr	r0, [r0]
.Ltmp391:
	.loc	2 726 9                         @ ../../../../Library/StdDriver/src/hsusbd.c:726:9
	cmp	r5, #1
.Ltmp392:
	.loc	2 728 28                        @ ../../../../Library/StdDriver/src/hsusbd.c:728:28
	str	r0, [r1]
	.loc	2 729 50                        @ ../../../../Library/StdDriver/src/hsusbd.c:729:50
	ldr	r0, [r3]
	.loc	2 729 73 is_stmt 0              @ ../../../../Library/StdDriver/src/hsusbd.c:729:73
	add.w	r0, r0, #4
	.loc	2 729 36                        @ ../../../../Library/StdDriver/src/hsusbd.c:729:36
	str	r0, [r3]
.Ltmp393:
	.loc	2 726 9 is_stmt 1               @ ../../../../Library/StdDriver/src/hsusbd.c:726:9
	beq	.LBB8_12
.Ltmp394:
@ %bb.10:
	@DEBUG_VALUE: HSUSBD_CtrlIn:i <- undef
	.loc	2 728 30                        @ ../../../../Library/StdDriver/src/hsusbd.c:728:30
	ldr	r0, [r0]
.Ltmp395:
	.loc	2 726 9                         @ ../../../../Library/StdDriver/src/hsusbd.c:726:9
	cmp	r5, #2
.Ltmp396:
	.loc	2 728 28                        @ ../../../../Library/StdDriver/src/hsusbd.c:728:28
	str	r0, [r1]
	.loc	2 729 50                        @ ../../../../Library/StdDriver/src/hsusbd.c:729:50
	ldr	r0, [r3]
	.loc	2 729 73 is_stmt 0              @ ../../../../Library/StdDriver/src/hsusbd.c:729:73
	add.w	r0, r0, #4
	.loc	2 729 36                        @ ../../../../Library/StdDriver/src/hsusbd.c:729:36
	str	r0, [r3]
.Ltmp397:
	.loc	2 726 9 is_stmt 1               @ ../../../../Library/StdDriver/src/hsusbd.c:726:9
	beq	.LBB8_12
.Ltmp398:
@ %bb.11:
	@DEBUG_VALUE: HSUSBD_CtrlIn:i <- undef
	.loc	2 728 30                        @ ../../../../Library/StdDriver/src/hsusbd.c:728:30
	ldr	r0, [r0]
	.loc	2 728 28 is_stmt 0              @ ../../../../Library/StdDriver/src/hsusbd.c:728:28
	str	r0, [r1]
	.loc	2 729 50 is_stmt 1              @ ../../../../Library/StdDriver/src/hsusbd.c:729:50
	ldr	r0, [r3]
	.loc	2 729 73 is_stmt 0              @ ../../../../Library/StdDriver/src/hsusbd.c:729:73
	adds	r0, #4
	.loc	2 729 36                        @ ../../../../Library/StdDriver/src/hsusbd.c:729:36
	str	r0, [r3]
.Ltmp399:
.LBB8_12:
	.loc	2 732 9 is_stmt 1               @ ../../../../Library/StdDriver/src/hsusbd.c:732:9
	ldr	r4, [r6]
.LBB8_13:
	str	r4, [r1, #16]
	.loc	2 733 32                        @ ../../../../Library/StdDriver/src/hsusbd.c:733:32
	ldr	r0, [r6]
	.loc	2 733 29 is_stmt 0              @ ../../../../Library/StdDriver/src/hsusbd.c:733:29
	ldr.w	r1, [r12]
	subs	r2, r1, r0
.Ltmp400:
	.loc	2 0 0                           @ ../../../../Library/StdDriver/src/hsusbd.c:0:0
	str.w	r2, [r12]
.Ltmp401:
	.loc	2 750 1 epilogue_begin is_stmt 1 @ ../../../../Library/StdDriver/src/hsusbd.c:750:1
	pop	{r4, r5, r6, pc}
.LBB8_14:
.Ltmp402:
	@DEBUG_VALUE: HSUSBD_CtrlIn:i <- 0
	.loc	2 0 1 is_stmt 0                 @ ../../../../Library/StdDriver/src/hsusbd.c:0:1
	movs	r0, #0
.Ltmp403:
	.loc	2 740 9 is_stmt 1               @ ../../../../Library/StdDriver/src/hsusbd.c:740:9
	b	.LBB8_22
.Ltmp404:
.LBB8_15:
	@DEBUG_VALUE: HSUSBD_CtrlIn:i <- 0
	.loc	2 0 9 is_stmt 0                 @ ../../../../Library/StdDriver/src/hsusbd.c:0:9
	bic	r3, r3, #3
	movs	r5, #1
	subs	r3, #4
	movw	r4, :lower16:g_hsusbd_CtrlInPointer
	.loc	2 740 9                         @ ../../../../Library/StdDriver/src/hsusbd.c:740:9
	add.w	lr, r5, r3, lsr #2
	movs	r3, #0
	movt	r4, :upper16:g_hsusbd_CtrlInPointer
.Ltmp405:
	.loc	2 0 9                           @ :0:9
.Ltmp406:
	.p2align	2
.LBB8_16:                               @ =>This Inner Loop Header: Depth=1
	@DEBUG_VALUE: HSUSBD_CtrlIn:i <- $r3
	.loc	2 742 36 is_stmt 1              @ ../../../../Library/StdDriver/src/hsusbd.c:742:36
	ldr	r5, [r4]
	.loc	2 742 23 is_stmt 0              @ ../../../../Library/StdDriver/src/hsusbd.c:742:23
	ldrb	r5, [r5, r3]
.Ltmp407:
	@DEBUG_VALUE: HSUSBD_CtrlIn:u8Value <- $r5
	.loc	2 743 13 is_stmt 1              @ ../../../../Library/StdDriver/src/hsusbd.c:743:13
	strb	r5, [r1]
.Ltmp408:
	@DEBUG_VALUE: HSUSBD_CtrlIn:i <- [DW_OP_constu 1, DW_OP_or, DW_OP_stack_value] $r3
	.loc	2 742 36                        @ ../../../../Library/StdDriver/src/hsusbd.c:742:36
	ldr	r5, [r4]
.Ltmp409:
	.loc	2 742 23 is_stmt 0              @ ../../../../Library/StdDriver/src/hsusbd.c:742:23
	add	r5, r3
	ldrb	r5, [r5, #1]
.Ltmp410:
	@DEBUG_VALUE: HSUSBD_CtrlIn:u8Value <- $r5
	.loc	2 743 13 is_stmt 1              @ ../../../../Library/StdDriver/src/hsusbd.c:743:13
	strb	r5, [r1]
.Ltmp411:
	@DEBUG_VALUE: HSUSBD_CtrlIn:i <- [DW_OP_constu 2, DW_OP_or, DW_OP_stack_value] $r3
	.loc	2 742 36                        @ ../../../../Library/StdDriver/src/hsusbd.c:742:36
	ldr	r5, [r4]
.Ltmp412:
	.loc	2 742 23 is_stmt 0              @ ../../../../Library/StdDriver/src/hsusbd.c:742:23
	add	r5, r3
	ldrb	r5, [r5, #2]
.Ltmp413:
	@DEBUG_VALUE: HSUSBD_CtrlIn:u8Value <- $r5
	.loc	2 743 13 is_stmt 1              @ ../../../../Library/StdDriver/src/hsusbd.c:743:13
	strb	r5, [r1]
.Ltmp414:
	@DEBUG_VALUE: HSUSBD_CtrlIn:i <- [DW_OP_constu 3, DW_OP_or, DW_OP_stack_value] $r3
	.loc	2 742 36                        @ ../../../../Library/StdDriver/src/hsusbd.c:742:36
	ldr	r5, [r4]
.Ltmp415:
	.loc	2 742 23 is_stmt 0              @ ../../../../Library/StdDriver/src/hsusbd.c:742:23
	add	r5, r3
.Ltmp416:
	.loc	2 740 33 is_stmt 1              @ ../../../../Library/StdDriver/src/hsusbd.c:740:33
	adds	r3, #4
.Ltmp417:
	@DEBUG_VALUE: HSUSBD_CtrlIn:i <- $r3
	.loc	2 742 23                        @ ../../../../Library/StdDriver/src/hsusbd.c:742:23
	ldrb	r5, [r5, #3]
.Ltmp418:
	@DEBUG_VALUE: HSUSBD_CtrlIn:u8Value <- $r5
	.loc	2 743 13                        @ ../../../../Library/StdDriver/src/hsusbd.c:743:13
	strb	r5, [r1]
.Ltmp419:
	.loc	2 740 9                         @ ../../../../Library/StdDriver/src/hsusbd.c:740:9
	le	lr, .LBB8_16
.Ltmp420:
.LBB8_17:
	.loc	2 0 9 is_stmt 0                 @ ../../../../Library/StdDriver/src/hsusbd.c:0:9
	cbz	r0, .LBB8_21
@ %bb.18:
.Ltmp421:
	@DEBUG_VALUE: HSUSBD_CtrlIn:i <- $r3
	.loc	2 742 36 is_stmt 1              @ ../../../../Library/StdDriver/src/hsusbd.c:742:36
	movw	r5, :lower16:g_hsusbd_CtrlInPointer
.Ltmp422:
	.loc	2 740 9                         @ ../../../../Library/StdDriver/src/hsusbd.c:740:9
	cmp	r0, #1
.Ltmp423:
	.loc	2 742 36                        @ ../../../../Library/StdDriver/src/hsusbd.c:742:36
	movt	r5, :upper16:g_hsusbd_CtrlInPointer
	ldr	r6, [r5]
	.loc	2 742 23 is_stmt 0              @ ../../../../Library/StdDriver/src/hsusbd.c:742:23
	ldrb	r6, [r6, r3]
.Ltmp424:
	@DEBUG_VALUE: HSUSBD_CtrlIn:u8Value <- $r6
	.loc	2 743 13 is_stmt 1              @ ../../../../Library/StdDriver/src/hsusbd.c:743:13
	strb	r6, [r1]
.Ltmp425:
	@DEBUG_VALUE: HSUSBD_CtrlIn:i <- [DW_OP_plus_uconst 1, DW_OP_stack_value] $r3
	.loc	2 0 13 is_stmt 0                @ ../../../../Library/StdDriver/src/hsusbd.c:0:13
	beq	.LBB8_21
.Ltmp426:
@ %bb.19:
	@DEBUG_VALUE: HSUSBD_CtrlIn:i <- [DW_OP_plus_uconst 1, DW_OP_stack_value] $r3
	@DEBUG_VALUE: HSUSBD_CtrlIn:u8Value <- $r6
	@DEBUG_VALUE: HSUSBD_CtrlIn:i <- [DW_OP_plus_uconst 1, DW_OP_stack_value] $r3
	.loc	2 742 36 is_stmt 1              @ ../../../../Library/StdDriver/src/hsusbd.c:742:36
	ldr	r6, [r5]
.Ltmp427:
	.loc	2 740 9                         @ ../../../../Library/StdDriver/src/hsusbd.c:740:9
	cmp	r0, #2
.Ltmp428:
	.loc	2 742 59                        @ ../../../../Library/StdDriver/src/hsusbd.c:742:59
	add	r6, r3
	.loc	2 742 23 is_stmt 0              @ ../../../../Library/StdDriver/src/hsusbd.c:742:23
	ldrb	r6, [r6, #1]
.Ltmp429:
	@DEBUG_VALUE: HSUSBD_CtrlIn:u8Value <- $r6
	.loc	2 743 13 is_stmt 1              @ ../../../../Library/StdDriver/src/hsusbd.c:743:13
	strb	r6, [r1]
.Ltmp430:
	@DEBUG_VALUE: HSUSBD_CtrlIn:i <- [DW_OP_plus_uconst 2, DW_OP_stack_value] $r3
	.loc	2 0 13 is_stmt 0                @ ../../../../Library/StdDriver/src/hsusbd.c:0:13
	beq	.LBB8_21
.Ltmp431:
@ %bb.20:
	@DEBUG_VALUE: HSUSBD_CtrlIn:i <- [DW_OP_plus_uconst 2, DW_OP_stack_value] $r3
	@DEBUG_VALUE: HSUSBD_CtrlIn:u8Value <- $r6
	@DEBUG_VALUE: HSUSBD_CtrlIn:i <- [DW_OP_plus_uconst 2, DW_OP_stack_value] $r3
	.loc	2 742 36 is_stmt 1              @ ../../../../Library/StdDriver/src/hsusbd.c:742:36
	ldr	r0, [r5]
	.loc	2 742 59 is_stmt 0              @ ../../../../Library/StdDriver/src/hsusbd.c:742:59
	add	r0, r3
	.loc	2 742 23                        @ ../../../../Library/StdDriver/src/hsusbd.c:742:23
	ldrb	r0, [r0, #2]
.Ltmp432:
	@DEBUG_VALUE: HSUSBD_CtrlIn:u8Value <- $r0
	.loc	2 743 13 is_stmt 1              @ ../../../../Library/StdDriver/src/hsusbd.c:743:13
	strb	r0, [r1]
.Ltmp433:
	@DEBUG_VALUE: HSUSBD_CtrlIn:i <- [DW_OP_plus_uconst 3, DW_OP_stack_value] undef
.LBB8_21:
	.loc	2 746 9                         @ ../../../../Library/StdDriver/src/hsusbd.c:746:9
	ldr.w	r0, [r12]
.LBB8_22:
	str	r0, [r1, #16]
	.loc	2 747 32                        @ ../../../../Library/StdDriver/src/hsusbd.c:747:32
	movw	r0, :lower16:g_hsusbd_CtrlInPointer
	movt	r0, :upper16:g_hsusbd_CtrlInPointer
	str	r2, [r0]
.Ltmp434:
	.loc	2 0 0 is_stmt 0                 @ ../../../../Library/StdDriver/src/hsusbd.c:0:0
	str.w	r2, [r12]
.Ltmp435:
	.loc	2 750 1 epilogue_begin is_stmt 1 @ ../../../../Library/StdDriver/src/hsusbd.c:750:1
	pop	{r4, r5, r6, pc}
.Ltmp436:
.Lfunc_end8:
	.size	HSUSBD_CtrlIn, .Lfunc_end8-HSUSBD_CtrlIn
	.cfi_endproc
	.cantunwind
	.fnend
                                        @ -- End function
	.section	.text.HSUSBD_CtrlOut,"ax",%progbits
	.hidden	HSUSBD_CtrlOut                  @ -- Begin function HSUSBD_CtrlOut
	.globl	HSUSBD_CtrlOut
	.p2align	2
	.type	HSUSBD_CtrlOut,%function
	.code	16                              @ @HSUSBD_CtrlOut
	.thumb_func
HSUSBD_CtrlOut:
.Lfunc_begin9:
	.loc	2 764 0                         @ ../../../../Library/StdDriver/src/hsusbd.c:764:0
	.fnstart
	.cfi_startproc
@ %bb.0:
	@DEBUG_VALUE: HSUSBD_CtrlOut:pu8Buf <- $r0
	@DEBUG_VALUE: HSUSBD_CtrlOut:u32Size <- $r1
	.save	{r4, lr}
	push	{r4, lr}
	.cfi_def_cfa_offset 8
	.cfi_offset lr, -4
	.cfi_offset r4, -8
.Ltmp437:
	.loc	2 766 30 prologue_end           @ ../../../../Library/StdDriver/src/hsusbd.c:766:30
	movw	r2, :lower16:SystemCoreClock
	movw	r4, #20520
	movt	r2, :upper16:SystemCoreClock
	ldr	r3, [r2]
.Ltmp438:
	@DEBUG_VALUE: HSUSBD_CtrlOut:u32TimeOutCnt <- $r3
	.loc	2 0 30 is_stmt 0                @ ../../../../Library/StdDriver/src/hsusbd.c:0:30
	movt	r4, #16416
.Ltmp439:
.LBB9_1:                                @ =>This Inner Loop Header: Depth=1
	@DEBUG_VALUE: HSUSBD_CtrlOut:u32TimeOutCnt <- $r3
	@DEBUG_VALUE: HSUSBD_CtrlOut:u32Size <- $r1
	@DEBUG_VALUE: HSUSBD_CtrlOut:pu8Buf <- $r0
	@DEBUG_VALUE: HSUSBD_CtrlOut:u32TimeOutCnt <- $r3
	.loc	2 770 22 is_stmt 1              @ ../../../../Library/StdDriver/src/hsusbd.c:770:22
	ldr	r2, [r4, #12]
.Ltmp440:
	.loc	2 770 13 is_stmt 0              @ ../../../../Library/StdDriver/src/hsusbd.c:770:13
	lsls	r2, r2, #25
	bmi	.LBB9_10
.Ltmp441:
@ %bb.2:                                @   in Loop: Header=BB9_1 Depth=1
	@DEBUG_VALUE: HSUSBD_CtrlOut:u32TimeOutCnt <- $r3
	@DEBUG_VALUE: HSUSBD_CtrlOut:u32Size <- $r1
	@DEBUG_VALUE: HSUSBD_CtrlOut:pu8Buf <- $r0
	@DEBUG_VALUE: HSUSBD_CtrlOut:u32TimeOutCnt <- [DW_OP_constu 1, DW_OP_minus, DW_OP_stack_value] $r3
	.loc	2 781 13 is_stmt 1              @ ../../../../Library/StdDriver/src/hsusbd.c:781:13
	cmp	r3, #1
	beq	.LBB9_9
.Ltmp442:
@ %bb.3:                                @   in Loop: Header=BB9_1 Depth=1
	@DEBUG_VALUE: HSUSBD_CtrlOut:u32TimeOutCnt <- [DW_OP_constu 1, DW_OP_minus, DW_OP_stack_value] $r3
	@DEBUG_VALUE: HSUSBD_CtrlOut:u32Size <- $r1
	@DEBUG_VALUE: HSUSBD_CtrlOut:pu8Buf <- $r0
	@DEBUG_VALUE: HSUSBD_CtrlOut:u32TimeOutCnt <- [DW_OP_constu 1, DW_OP_minus, DW_OP_stack_value] $r3
	.loc	2 770 22                        @ ../../../../Library/StdDriver/src/hsusbd.c:770:22
	ldr	r2, [r4, #12]
.Ltmp443:
	.loc	2 770 13 is_stmt 0              @ ../../../../Library/StdDriver/src/hsusbd.c:770:13
	lsls	r2, r2, #25
	bmi	.LBB9_10
.Ltmp444:
@ %bb.4:                                @   in Loop: Header=BB9_1 Depth=1
	@DEBUG_VALUE: HSUSBD_CtrlOut:u32TimeOutCnt <- [DW_OP_constu 1, DW_OP_minus, DW_OP_stack_value] $r3
	@DEBUG_VALUE: HSUSBD_CtrlOut:u32Size <- $r1
	@DEBUG_VALUE: HSUSBD_CtrlOut:pu8Buf <- $r0
	@DEBUG_VALUE: HSUSBD_CtrlOut:u32TimeOutCnt <- [DW_OP_constu 2, DW_OP_minus, DW_OP_stack_value] $r3
	.loc	2 781 13 is_stmt 1              @ ../../../../Library/StdDriver/src/hsusbd.c:781:13
	cmp	r3, #2
	beq	.LBB9_9
.Ltmp445:
@ %bb.5:                                @   in Loop: Header=BB9_1 Depth=1
	@DEBUG_VALUE: HSUSBD_CtrlOut:u32TimeOutCnt <- [DW_OP_constu 2, DW_OP_minus, DW_OP_stack_value] $r3
	@DEBUG_VALUE: HSUSBD_CtrlOut:u32Size <- $r1
	@DEBUG_VALUE: HSUSBD_CtrlOut:pu8Buf <- $r0
	@DEBUG_VALUE: HSUSBD_CtrlOut:u32TimeOutCnt <- [DW_OP_constu 2, DW_OP_minus, DW_OP_stack_value] $r3
	.loc	2 770 22                        @ ../../../../Library/StdDriver/src/hsusbd.c:770:22
	ldr	r2, [r4, #12]
.Ltmp446:
	.loc	2 770 13 is_stmt 0              @ ../../../../Library/StdDriver/src/hsusbd.c:770:13
	lsls	r2, r2, #25
	bmi	.LBB9_10
.Ltmp447:
@ %bb.6:                                @   in Loop: Header=BB9_1 Depth=1
	@DEBUG_VALUE: HSUSBD_CtrlOut:u32TimeOutCnt <- [DW_OP_constu 2, DW_OP_minus, DW_OP_stack_value] $r3
	@DEBUG_VALUE: HSUSBD_CtrlOut:u32Size <- $r1
	@DEBUG_VALUE: HSUSBD_CtrlOut:pu8Buf <- $r0
	@DEBUG_VALUE: HSUSBD_CtrlOut:u32TimeOutCnt <- [DW_OP_constu 3, DW_OP_minus, DW_OP_stack_value] $r3
	.loc	2 781 13 is_stmt 1              @ ../../../../Library/StdDriver/src/hsusbd.c:781:13
	cmp	r3, #3
	beq	.LBB9_9
.Ltmp448:
@ %bb.7:                                @   in Loop: Header=BB9_1 Depth=1
	@DEBUG_VALUE: HSUSBD_CtrlOut:u32TimeOutCnt <- [DW_OP_constu 3, DW_OP_minus, DW_OP_stack_value] $r3
	@DEBUG_VALUE: HSUSBD_CtrlOut:u32Size <- $r1
	@DEBUG_VALUE: HSUSBD_CtrlOut:pu8Buf <- $r0
	@DEBUG_VALUE: HSUSBD_CtrlOut:u32TimeOutCnt <- [DW_OP_constu 3, DW_OP_minus, DW_OP_stack_value] $r3
	.loc	2 770 22                        @ ../../../../Library/StdDriver/src/hsusbd.c:770:22
	ldr	r2, [r4, #12]
.Ltmp449:
	.loc	2 770 13 is_stmt 0              @ ../../../../Library/StdDriver/src/hsusbd.c:770:13
	lsls	r2, r2, #25
	bmi	.LBB9_10
.Ltmp450:
@ %bb.8:                                @   in Loop: Header=BB9_1 Depth=1
	@DEBUG_VALUE: HSUSBD_CtrlOut:u32TimeOutCnt <- [DW_OP_constu 3, DW_OP_minus, DW_OP_stack_value] $r3
	@DEBUG_VALUE: HSUSBD_CtrlOut:u32Size <- $r1
	@DEBUG_VALUE: HSUSBD_CtrlOut:pu8Buf <- $r0
	.loc	2 781 13 is_stmt 1              @ ../../../../Library/StdDriver/src/hsusbd.c:781:13
	subs	r3, #4
.Ltmp451:
	@DEBUG_VALUE: HSUSBD_CtrlOut:u32TimeOutCnt <- $r3
	.loc	2 781 13 is_stmt 0              @ ../../../../Library/StdDriver/src/hsusbd.c:781:13
	bne	.LBB9_1
.Ltmp452:
.LBB9_9:
	@DEBUG_VALUE: HSUSBD_CtrlOut:u32Size <- $r1
	@DEBUG_VALUE: HSUSBD_CtrlOut:pu8Buf <- $r0
	.loc	2 0 13                          @ ../../../../Library/StdDriver/src/hsusbd.c:0:13
	mvn	r0, #1
.Ltmp453:
	@DEBUG_VALUE: HSUSBD_CtrlOut:pu8Buf <- [DW_OP_LLVM_entry_value 1] $r0
	.loc	2 785 1 epilogue_begin is_stmt 1 @ ../../../../Library/StdDriver/src/hsusbd.c:785:1
	pop	{r4, pc}
.Ltmp454:
.LBB9_10:
	@DEBUG_VALUE: HSUSBD_CtrlOut:u32Size <- $r1
	@DEBUG_VALUE: HSUSBD_CtrlOut:pu8Buf <- $r0
	@DEBUG_VALUE: HSUSBD_CtrlOut:i <- 0
	.loc	2 772 13                        @ ../../../../Library/StdDriver/src/hsusbd.c:772:13
	cbz	r1, .LBB9_18
.Ltmp455:
@ %bb.11:
	@DEBUG_VALUE: HSUSBD_CtrlOut:i <- 0
	@DEBUG_VALUE: HSUSBD_CtrlOut:u32Size <- $r1
	@DEBUG_VALUE: HSUSBD_CtrlOut:pu8Buf <- $r0
	cmp	r1, #4
	and	r12, r1, #3
	bhs	.LBB9_13
.Ltmp456:
@ %bb.12:
	@DEBUG_VALUE: HSUSBD_CtrlOut:i <- 0
	@DEBUG_VALUE: HSUSBD_CtrlOut:u32Size <- $r1
	@DEBUG_VALUE: HSUSBD_CtrlOut:pu8Buf <- $r0
	.loc	2 0 13 is_stmt 0                @ ../../../../Library/StdDriver/src/hsusbd.c:0:13
	movs	r1, #0
.Ltmp457:
	@DEBUG_VALUE: HSUSBD_CtrlOut:u32Size <- [DW_OP_LLVM_entry_value 1] $r1
	b	.LBB9_15
.Ltmp458:
.LBB9_13:
	@DEBUG_VALUE: HSUSBD_CtrlOut:i <- 0
	@DEBUG_VALUE: HSUSBD_CtrlOut:u32Size <- $r1
	@DEBUG_VALUE: HSUSBD_CtrlOut:pu8Buf <- $r0
	bic	r1, r1, #3
.Ltmp459:
	@DEBUG_VALUE: HSUSBD_CtrlOut:u32Size <- [DW_OP_LLVM_entry_value 1] $r1
	movs	r2, #1
	subs	r1, #4
	.loc	2 772 13                        @ ../../../../Library/StdDriver/src/hsusbd.c:772:13
	adds	r3, r0, #3
	add.w	lr, r2, r1, lsr #2
	movs	r1, #0
.Ltmp460:
	.loc	2 0 13                          @ :0:13
.Ltmp461:
	.p2align	2
.LBB9_14:                               @ =>This Inner Loop Header: Depth=1
	@DEBUG_VALUE: HSUSBD_CtrlOut:u32Size <- [DW_OP_LLVM_entry_value 1] $r1
	@DEBUG_VALUE: HSUSBD_CtrlOut:pu8Buf <- $r0
	@DEBUG_VALUE: HSUSBD_CtrlOut:i <- $r1
	.loc	2 774 29 is_stmt 1              @ ../../../../Library/StdDriver/src/hsusbd.c:774:29
	ldrb	r2, [r4]
.Ltmp462:
	.loc	2 772 41                        @ ../../../../Library/StdDriver/src/hsusbd.c:772:41
	adds	r1, #4
.Ltmp463:
	@DEBUG_VALUE: HSUSBD_CtrlOut:i <- $r1
	.loc	2 774 27                        @ ../../../../Library/StdDriver/src/hsusbd.c:774:27
	strb	r2, [r3, #-3]
.Ltmp464:
	@DEBUG_VALUE: HSUSBD_CtrlOut:i <- [DW_OP_constu 1, DW_OP_or, DW_OP_stack_value] $r1
	.loc	2 774 29 is_stmt 0              @ ../../../../Library/StdDriver/src/hsusbd.c:774:29
	ldrb	r2, [r4]
	.loc	2 774 27                        @ ../../../../Library/StdDriver/src/hsusbd.c:774:27
	strb	r2, [r3, #-2]
.Ltmp465:
	@DEBUG_VALUE: HSUSBD_CtrlOut:i <- [DW_OP_constu 2, DW_OP_or, DW_OP_stack_value] $r1
	.loc	2 774 29                        @ ../../../../Library/StdDriver/src/hsusbd.c:774:29
	ldrb	r2, [r4]
	.loc	2 774 27                        @ ../../../../Library/StdDriver/src/hsusbd.c:774:27
	strb	r2, [r3, #-1]
.Ltmp466:
	@DEBUG_VALUE: HSUSBD_CtrlOut:i <- [DW_OP_constu 3, DW_OP_or, DW_OP_stack_value] $r1
	.loc	2 774 29                        @ ../../../../Library/StdDriver/src/hsusbd.c:774:29
	ldrb	r2, [r4]
	.loc	2 774 27                        @ ../../../../Library/StdDriver/src/hsusbd.c:774:27
	strb	r2, [r3], #4
.Ltmp467:
	.loc	2 772 13 is_stmt 1              @ ../../../../Library/StdDriver/src/hsusbd.c:772:13
	le	lr, .LBB9_14
.Ltmp468:
.LBB9_15:
	@DEBUG_VALUE: HSUSBD_CtrlOut:u32Size <- [DW_OP_LLVM_entry_value 1] $r1
	@DEBUG_VALUE: HSUSBD_CtrlOut:pu8Buf <- $r0
	cmp.w	r12, #0
	beq	.LBB9_18
.Ltmp469:
@ %bb.16:
	@DEBUG_VALUE: HSUSBD_CtrlOut:u32Size <- [DW_OP_LLVM_entry_value 1] $r1
	@DEBUG_VALUE: HSUSBD_CtrlOut:pu8Buf <- $r0
	@DEBUG_VALUE: HSUSBD_CtrlOut:i <- $r1
	.loc	2 774 29                        @ ../../../../Library/StdDriver/src/hsusbd.c:774:29
	ldrb	r2, [r4]
.Ltmp470:
	.loc	2 772 13                        @ ../../../../Library/StdDriver/src/hsusbd.c:772:13
	cmp.w	r12, #1
.Ltmp471:
	.loc	2 774 27                        @ ../../../../Library/StdDriver/src/hsusbd.c:774:27
	strb	r2, [r0, r1]
.Ltmp472:
	@DEBUG_VALUE: HSUSBD_CtrlOut:i <- [DW_OP_plus_uconst 1, DW_OP_stack_value] $r1
	.loc	2 0 27 is_stmt 0                @ ../../../../Library/StdDriver/src/hsusbd.c:0:27
	beq	.LBB9_18
.Ltmp473:
@ %bb.17:
	@DEBUG_VALUE: HSUSBD_CtrlOut:i <- [DW_OP_plus_uconst 1, DW_OP_stack_value] $r1
	@DEBUG_VALUE: HSUSBD_CtrlOut:u32Size <- [DW_OP_LLVM_entry_value 1] $r1
	@DEBUG_VALUE: HSUSBD_CtrlOut:pu8Buf <- $r0
	@DEBUG_VALUE: HSUSBD_CtrlOut:i <- [DW_OP_plus_uconst 1, DW_OP_stack_value] $r1
	.loc	2 774 29                        @ ../../../../Library/StdDriver/src/hsusbd.c:774:29
	ldrb	r2, [r4]
	.loc	2 774 17                        @ ../../../../Library/StdDriver/src/hsusbd.c:774:17
	add	r0, r1
.Ltmp474:
	@DEBUG_VALUE: HSUSBD_CtrlOut:pu8Buf <- [DW_OP_LLVM_entry_value 1] $r0
	.loc	2 774 27                        @ ../../../../Library/StdDriver/src/hsusbd.c:774:27
	strb	r2, [r0, #1]
.Ltmp475:
	@DEBUG_VALUE: HSUSBD_CtrlOut:i <- [DW_OP_plus_uconst 2, DW_OP_stack_value] undef
	@DEBUG_VALUE: HSUSBD_CtrlOut:i <- [DW_OP_plus_uconst 2, DW_OP_stack_value] undef
	.loc	2 772 13 is_stmt 1              @ ../../../../Library/StdDriver/src/hsusbd.c:772:13
	cmp.w	r12, #2
.Ltmp476:
	.loc	2 774 29                        @ ../../../../Library/StdDriver/src/hsusbd.c:774:29
	itt	ne
	ldrbne	r1, [r4]
	.loc	2 774 27 is_stmt 0              @ ../../../../Library/StdDriver/src/hsusbd.c:774:27
	strbne	r1, [r0, #2]
.Ltmp477:
	@DEBUG_VALUE: HSUSBD_CtrlOut:i <- [DW_OP_plus_uconst 3, DW_OP_stack_value] undef
.LBB9_18:
	.loc	2 0 27                          @ ../../../../Library/StdDriver/src/hsusbd.c:0:27
	movs	r0, #64
	.loc	2 777 31 is_stmt 1              @ ../../../../Library/StdDriver/src/hsusbd.c:777:31
	str	r0, [r4, #12]
	movs	r0, #0
.Ltmp478:
	.loc	2 785 1 epilogue_begin          @ ../../../../Library/StdDriver/src/hsusbd.c:785:1
	pop	{r4, pc}
.Ltmp479:
.Lfunc_end9:
	.size	HSUSBD_CtrlOut, .Lfunc_end9-HSUSBD_CtrlOut
	.cfi_endproc
	.cantunwind
	.fnend
                                        @ -- End function
	.section	.text.HSUSBD_SwReset,"ax",%progbits
	.hidden	HSUSBD_SwReset                  @ -- Begin function HSUSBD_SwReset
	.globl	HSUSBD_SwReset
	.p2align	2
	.type	HSUSBD_SwReset,%function
	.code	16                              @ @HSUSBD_SwReset
	.thumb_func
HSUSBD_SwReset:
.Lfunc_begin10:
	.fnstart
	.cfi_startproc
@ %bb.0:
	.loc	2 799 22 prologue_end           @ ../../../../Library/StdDriver/src/hsusbd.c:799:22
	movw	r0, :lower16:g_hsusbd_UsbAddr
	movs	r1, #0
	movt	r0, :upper16:g_hsusbd_UsbAddr
	strb	r1, [r0]
	.loc	2 800 22                        @ ../../../../Library/StdDriver/src/hsusbd.c:800:22
	movw	r0, :lower16:g_hsusbd_DmaDone
	movt	r0, :upper16:g_hsusbd_DmaDone
	str	r1, [r0]
	.loc	2 801 26                        @ ../../../../Library/StdDriver/src/hsusbd.c:801:26
	movw	r0, :lower16:g_hsusbd_ShortPacket
	movt	r0, :upper16:g_hsusbd_ShortPacket
	strb	r1, [r0]
	.loc	2 802 25                        @ ../../../../Library/StdDriver/src/hsusbd.c:802:25
	movw	r0, :lower16:g_hsusbd_Configured
	movt	r0, :upper16:g_hsusbd_Configured
	strb	r1, [r0]
	movw	r0, #20512
	movt	r0, #16416
	.loc	2 805 5                         @ ../../../../Library/StdDriver/src/hsusbd.c:805:5
	str	r1, [r0]
	.loc	2 806 1                         @ ../../../../Library/StdDriver/src/hsusbd.c:806:1
	bx	lr
.Ltmp480:
.Lfunc_end10:
	.size	HSUSBD_SwReset, .Lfunc_end10-HSUSBD_SwReset
	.cfi_endproc
	.cantunwind
	.fnend
                                        @ -- End function
	.section	.text.HSUSBD_SetVendorRequest,"ax",%progbits
	.hidden	HSUSBD_SetVendorRequest         @ -- Begin function HSUSBD_SetVendorRequest
	.globl	HSUSBD_SetVendorRequest
	.p2align	2
	.type	HSUSBD_SetVendorRequest,%function
	.code	16                              @ @HSUSBD_SetVendorRequest
	.thumb_func
HSUSBD_SetVendorRequest:
.Lfunc_begin11:
	.fnstart
	.cfi_startproc
@ %bb.0:
	@DEBUG_VALUE: HSUSBD_SetVendorRequest:pfnVendorReq <- $r0
	.loc	2 819 31 prologue_end           @ ../../../../Library/StdDriver/src/hsusbd.c:819:31
	movw	r1, :lower16:g_hsusbd_pfnVendorRequest
	movt	r1, :upper16:g_hsusbd_pfnVendorRequest
	str	r0, [r1]
	.loc	2 820 1                         @ ../../../../Library/StdDriver/src/hsusbd.c:820:1
	bx	lr
.Ltmp481:
.Lfunc_end11:
	.size	HSUSBD_SetVendorRequest, .Lfunc_end11-HSUSBD_SetVendorRequest
	.cfi_endproc
	.cantunwind
	.fnend
                                        @ -- End function
	.hidden	g_hsusbd_pfnVendorRequest       @ @g_hsusbd_pfnVendorRequest
	.type	g_hsusbd_pfnVendorRequest,%object
	.section	.bss.g_hsusbd_pfnVendorRequest,"aw",%nobits
	.globl	g_hsusbd_pfnVendorRequest
	.p2align	2, 0x0
g_hsusbd_pfnVendorRequest:
	.long	0
	.size	g_hsusbd_pfnVendorRequest, 4

	.hidden	g_hsusbd_pfnClassRequest        @ @g_hsusbd_pfnClassRequest
	.type	g_hsusbd_pfnClassRequest,%object
	.section	.bss.g_hsusbd_pfnClassRequest,"aw",%nobits
	.globl	g_hsusbd_pfnClassRequest
	.p2align	2, 0x0
g_hsusbd_pfnClassRequest:
	.long	0
	.size	g_hsusbd_pfnClassRequest, 4

	.hidden	g_hsusbd_pfnSetInterface        @ @g_hsusbd_pfnSetInterface
	.type	g_hsusbd_pfnSetInterface,%object
	.section	.bss.g_hsusbd_pfnSetInterface,"aw",%nobits
	.globl	g_hsusbd_pfnSetInterface
	.p2align	2, 0x0
g_hsusbd_pfnSetInterface:
	.long	0
	.size	g_hsusbd_pfnSetInterface, 4

	.hidden	g_u32HsEpStallLock              @ @g_u32HsEpStallLock
	.type	g_u32HsEpStallLock,%object
	.section	.bss.g_u32HsEpStallLock,"aw",%nobits
	.globl	g_u32HsEpStallLock
	.p2align	2, 0x0
g_u32HsEpStallLock:
	.long	0                               @ 0x0
	.size	g_u32HsEpStallLock, 4

	.hidden	g_u8GetDesDevice                @ @g_u8GetDesDevice
	.type	g_u8GetDesDevice,%object
	.section	.bss.g_u8GetDesDevice,"aw",%nobits
	.globl	g_u8GetDesDevice
g_u8GetDesDevice:
	.byte	0                               @ 0x0
	.size	g_u8GetDesDevice, 1

	.hidden	g_hsusbd_RemoteWakeupEn         @ @g_hsusbd_RemoteWakeupEn
	.type	g_hsusbd_RemoteWakeupEn,%object
	.section	.bss.g_hsusbd_RemoteWakeupEn,"aw",%nobits
	.globl	g_hsusbd_RemoteWakeupEn
g_hsusbd_RemoteWakeupEn:
	.byte	0                               @ 0x0
	.size	g_hsusbd_RemoteWakeupEn, 1

	.hidden	g_hsusbd_Configured             @ @g_hsusbd_Configured
	.type	g_hsusbd_Configured,%object
	.section	.bss.g_hsusbd_Configured,"aw",%nobits
	.globl	g_hsusbd_Configured
g_hsusbd_Configured:
	.byte	0                               @ 0x0
	.size	g_hsusbd_Configured, 1

	.hidden	g_hsusbd_CtrlZero               @ @g_hsusbd_CtrlZero
	.type	g_hsusbd_CtrlZero,%object
	.section	.bss.g_hsusbd_CtrlZero,"aw",%nobits
	.globl	g_hsusbd_CtrlZero
g_hsusbd_CtrlZero:
	.byte	0                               @ 0x0
	.size	g_hsusbd_CtrlZero, 1

	.hidden	g_hsusbd_UsbAddr                @ @g_hsusbd_UsbAddr
	.type	g_hsusbd_UsbAddr,%object
	.section	.bss.g_hsusbd_UsbAddr,"aw",%nobits
	.globl	g_hsusbd_UsbAddr
g_hsusbd_UsbAddr:
	.byte	0                               @ 0x0
	.size	g_hsusbd_UsbAddr, 1

	.hidden	g_hsusbd_ShortPacket            @ @g_hsusbd_ShortPacket
	.type	g_hsusbd_ShortPacket,%object
	.section	.bss.g_hsusbd_ShortPacket,"aw",%nobits
	.globl	g_hsusbd_ShortPacket
g_hsusbd_ShortPacket:
	.byte	0                               @ 0x0
	.size	g_hsusbd_ShortPacket, 1

	.hidden	g_hsusbd_DmaDone                @ @g_hsusbd_DmaDone
	.type	g_hsusbd_DmaDone,%object
	.section	.bss.g_hsusbd_DmaDone,"aw",%nobits
	.globl	g_hsusbd_DmaDone
	.p2align	2, 0x0
g_hsusbd_DmaDone:
	.long	0                               @ 0x0
	.size	g_hsusbd_DmaDone, 4

	.hidden	g_hsusbd_CtrlInSize             @ @g_hsusbd_CtrlInSize
	.type	g_hsusbd_CtrlInSize,%object
	.section	.bss.g_hsusbd_CtrlInSize,"aw",%nobits
	.globl	g_hsusbd_CtrlInSize
	.p2align	2, 0x0
g_hsusbd_CtrlInSize:
	.long	0                               @ 0x0
	.size	g_hsusbd_CtrlInSize, 4

	.hidden	g_hsusbd_sInfo                  @ @g_hsusbd_sInfo
	.type	g_hsusbd_sInfo,%object
	.section	.bss.g_hsusbd_sInfo,"aw",%nobits
	.globl	g_hsusbd_sInfo
	.p2align	2, 0x0
g_hsusbd_sInfo:
	.long	0
	.size	g_hsusbd_sInfo, 4

	.type	g_hsusbd_CtrlMaxPktSize,%object @ @g_hsusbd_CtrlMaxPktSize
	.section	.data.g_hsusbd_CtrlMaxPktSize,"aw",%progbits
	.p2align	2, 0x0
g_hsusbd_CtrlMaxPktSize:
	.long	64                              @ 0x40
	.size	g_hsusbd_CtrlMaxPktSize, 4

	.hidden	gUsbCmd                         @ @gUsbCmd
	.type	gUsbCmd,%object
	.section	.bss.gUsbCmd,"aw",%nobits
	.globl	gUsbCmd
	.p2align	1, 0x0
gUsbCmd:
	.zero	8
	.size	gUsbCmd, 8

	.type	g_hsusbd_CtrlInPointer,%object  @ @g_hsusbd_CtrlInPointer
	.section	.bss.g_hsusbd_CtrlInPointer,"aw",%nobits
	.p2align	2, 0x0
g_hsusbd_CtrlInPointer:
	.long	0
	.size	g_hsusbd_CtrlInPointer, 4

	.type	g_hsusbd_UsbConfig,%object      @ @g_hsusbd_UsbConfig
	.section	.bss.g_hsusbd_UsbConfig,"aw",%nobits
g_hsusbd_UsbConfig:
	.byte	0                               @ 0x0
	.size	g_hsusbd_UsbConfig, 1

	.type	g_hsusbd_UsbAltInterface,%object @ @g_hsusbd_UsbAltInterface
	.section	.bss.g_hsusbd_UsbAltInterface,"aw",%nobits
g_hsusbd_UsbAltInterface:
	.byte	0                               @ 0x0
	.size	g_hsusbd_UsbAltInterface, 1

	.type	g_hsusbd_buf,%object            @ @g_hsusbd_buf
	.section	.bss.g_hsusbd_buf,"aw",%nobits
g_hsusbd_buf:
	.zero	12
	.size	g_hsusbd_buf, 12

	.type	g_hsusbd_EnableTestMode,%object @ @g_hsusbd_EnableTestMode
	.section	.bss.g_hsusbd_EnableTestMode,"aw",%nobits
g_hsusbd_EnableTestMode:
	.byte	0                               @ 0x0
	.size	g_hsusbd_EnableTestMode, 1

	.type	g_hsusbd_TestSelector,%object   @ @g_hsusbd_TestSelector
	.section	.bss.g_hsusbd_TestSelector,"aw",%nobits
g_hsusbd_TestSelector:
	.byte	0                               @ 0x0
	.size	g_hsusbd_TestSelector, 1

	.section	".note.GNU-stack","",%progbits
	.eabi_attribute	30, 1	@ Tag_ABI_optimization_goals
	.ARM_attribute	16, 1	@ Tag_AV_eba