	.text
	.syntax unified
	.eabi_attribute	67, "2.09"	@ Tag_conformance
	.cpu	cortex-m55
	.eabi_attribute	6, 21	@ Tag_CPU_arch
	.eabi_attribute	7, 77	@ Tag_CPU_arch_profile
	.eabi_attribute	8, 0	@ Tag_ARM_ISA_use
	.eabi_attribute	9, 3	@ Tag_THUMB_ISA_use
	.fpu	fpv5-d16
	.arch_extension	mve.fp
	.eabi_attribute	36, 1	@ Tag_FP_HP_extension
	.eabi_attribute	48, 2	@ Tag_MVE_arch
	.eabi_attribute	46, 1	@ Tag_DSP_extension
	.eabi_attribute	34, 1	@ Tag_CPU_unaligned_access
	.eabi_attribute	17, 1	@ Tag_ABI_PCS_GOT_use
	.eabi_attribute	20, 2	@ Tag_ABI_FP_denormal
	.eabi_attribute	21, 0	@ Tag_ABI_FP_exceptions
	.eabi_attribute	23, 1	@ Tag_ABI_FP_number_model
	.eabi_attribute	24, 1	@ Tag_ABI_align_needed
	.eabi_attribute	25, 1	@ Tag_ABI_align_preserved
	.eabi_attribute	28, 1	@ Tag_ABI_VFP_args
	.eabi_attribute	38, 1	@ Tag_ABI_FP_16bit_format
	.eabi_attribute	18, 2	@ Tag_ABI_PCS_wchar_t
	.eabi_attribute	26, 1	@ Tag_ABI_enum_size
	.eabi_attribute	14, 0	@ Tag_ABI_PCS_R9_use
	.file	"hyperram_code.c"
	.file	1 "C:\\Users\\jimmy\\Desktop\\Nuvoton\\Nuvoton-Team\\repos\\m55m1-ElevatorCounting-YOLOv8n\\KEIL" "../Device/HyperRAM/hyperram_code.c"
	.file	2 "C:\\Users\\jimmy" "AppData\\Local\\Keil_v5\\ARM\\ARMCLANG\\bin\\..\\include\\stdint.h"
	.file	3 "C:\\Users\\jimmy\\Desktop\\Nuvoton\\Nuvoton-Team\\repos\\m55m1-ElevatorCounting-YOLOv8n\\KEIL" "../../../../Library/Device/Nuvoton/M55M1/Include\\spim_reg.h"
	.file	4 "C:\\Users\\jimmy\\Desktop\\Nuvoton\\Nuvoton-Team\\repos\\m55m1-ElevatorCounting-YOLOv8n\\KEIL" "../../../../Library/Device/Nuvoton/M55M1/Include\\sys_reg.h"
	.file	5 "C:\\Users\\jimmy\\Desktop\\Nuvoton\\Nuvoton-Team\\repos\\m55m1-ElevatorCounting-YOLOv8n\\KEIL" "../../../../Library/Device/Nuvoton/M55M1/Include\\gpio_reg.h"
	.file	6 "C:\\Users\\jimmy\\Desktop\\Nuvoton\\Nuvoton-Team\\repos\\m55m1-ElevatorCounting-YOLOv8n\\KEIL" "../../../../Library/Device/Nuvoton/M55M1/Include\\ccap_reg.h"
	.file	7 "C:\\Users\\jimmy\\Desktop\\Nuvoton\\Nuvoton-Team\\repos\\m55m1-ElevatorCounting-YOLOv8n\\KEIL" "../../../../Library/CMSIS/Core/Include\\core_cm55.h"
	.section	.text.SPIM_Hyper_DefaultConfig,"ax",%progbits
	.hidden	SPIM_Hyper_DefaultConfig        @ -- Begin function SPIM_Hyper_DefaultConfig
	.globl	SPIM_Hyper_DefaultConfig
	.p2align	2
	.type	SPIM_Hyper_DefaultConfig,%function
	.code	16                              @ @SPIM_Hyper_DefaultConfig
	.thumb_func
SPIM_Hyper_DefaultConfig:
.Lfunc_begin0:
	.loc	1 38 0                          @ ../Device/HyperRAM/hyperram_code.c:38:0
	.fnstart
	.cfi_sections .debug_frame
	.cfi_startproc
@ %bb.0:
	@DEBUG_VALUE: SPIM_Hyper_DefaultConfig:spim <- $r0
	@DEBUG_VALUE: SPIM_Hyper_DefaultConfig:u32CSM <- $r1
	@DEBUG_VALUE: SPIM_Hyper_DefaultConfig:u32AcctRD <- $r2
	@DEBUG_VALUE: SPIM_Hyper_DefaultConfig:u32AcctWR <- $r3
	.save	{r4, r5, r6, r7, lr}
	push	{r4, r5, r6, r7, lr}
	.cfi_def_cfa_offset 20
	.cfi_offset lr, -4
	.cfi_offset r7, -8
	.cfi_offset r6, -12
	.cfi_offset r5, -16
	.cfi_offset r4, -20
	.pad	#4
	sub	sp, #4
	.cfi_def_cfa_offset 24
	mov	r4, r3
.Ltmp0:
	@DEBUG_VALUE: SPIM_Hyper_DefaultConfig:u32AcctWR <- $r4
	@DEBUG_VALUE: SPIM_Hyper_DefaultConfig:u32AcctWR <- $r4
	mov	r6, r2
.Ltmp1:
	@DEBUG_VALUE: SPIM_Hyper_DefaultConfig:u32AcctRD <- $r6
	@DEBUG_VALUE: SPIM_Hyper_DefaultConfig:u32AcctRD <- $r6
	mov	r7, r1
.Ltmp2:
	@DEBUG_VALUE: SPIM_Hyper_DefaultConfig:u32CSM <- $r7
	@DEBUG_VALUE: SPIM_Hyper_DefaultConfig:u32CSM <- $r7
	mov	r5, r0
.Ltmp3:
	@DEBUG_VALUE: SPIM_Hyper_DefaultConfig:spim <- $r5
	@DEBUG_VALUE: SPIM_Hyper_DefaultConfig:spim <- $r5
	.loc	1 39 29 prologue_end            @ ../Device/HyperRAM/hyperram_code.c:39:29
	bl	CLK_GetSCLKFreq
.Ltmp4:
	.loc	1 0 29 is_stmt 0                @ ../Device/HyperRAM/hyperram_code.c:0:29
	movw	r1, #56963
	movw	r2, #65482
	movt	r1, #17179
	.loc	1 39 47                         @ ../Device/HyperRAM/hyperram_code.c:39:47
	umull	r0, r1, r0, r1
	vldr	s2, .LCPI0_0
	lsrs	r0, r1, #18
.Ltmp5:
	@DEBUG_VALUE: SPIM_Hyper_DefaultConfig:u32CoreFreq <- $r0
	.loc	1 40 41 is_stmt 1               @ ../Device/HyperRAM/hyperram_code.c:40:41
	vmov	s0, r0
.Ltmp6:
	@DEBUG_VALUE: SPIM_Hyper_DefaultConfig:u32CoreFreq <- $s0
	.loc	1 41 23                         @ ../Device/HyperRAM/hyperram_code.c:41:23
	ldr	r0, [r5, #4]
.Ltmp7:
	@DEBUG_VALUE: SPIM_Hyper_DefaultConfig:u32DIV <- [DW_OP_constu 16, DW_OP_shr, DW_OP_stack_value] $r0
	.loc	1 40 41                         @ ../Device/HyperRAM/hyperram_code.c:40:41
	vcvt.f32.u32	s0, s0
.Ltmp8:
	.loc	1 42 28                         @ ../Device/HyperRAM/hyperram_code.c:42:28
	ldr	r1, [r5]
	.loc	1 40 39                         @ ../Device/HyperRAM/hyperram_code.c:40:39
	vdiv.f32	s0, s2, s0
.Ltmp9:
	@DEBUG_VALUE: SPIM_Hyper_DefaultConfig:fFreq <- $s0
	.loc	1 43 39                         @ ../Device/HyperRAM/hyperram_code.c:43:39
	vmov	s2, r7
.Ltmp10:
	@DEBUG_VALUE: SPIM_Hyper_DefaultConfig:u32CSM <- $s2
	.loc	1 0 39 is_stmt 0                @ ../Device/HyperRAM/hyperram_code.c:0:39
	movt	r2, #15
	.loc	1 43 39                         @ ../Device/HyperRAM/hyperram_code.c:43:39
	vcvt.f32.u32	s2, s2
.Ltmp11:
	.loc	1 43 65                         @ ../Device/HyperRAM/hyperram_code.c:43:65
	add.w	r3, r2, #38
	.loc	1 42 28 is_stmt 1               @ ../Device/HyperRAM/hyperram_code.c:42:28
	bfi	r2, r1, #0, #1
	bfi	r2, r1, #5, #1
.Ltmp12:
	@DEBUG_VALUE: SPIM_Hyper_DefaultConfig:u32CipherEn <- undef
	.loc	1 46 5                          @ ../Device/HyperRAM/hyperram_code.c:46:5
	ldr.w	r1, [r5, #132]
.Ltmp13:
	.loc	1 43 65                         @ ../Device/HyperRAM/hyperram_code.c:43:65
	and.w	r0, r3, r0, lsr #12
.Ltmp14:
	.loc	1 46 5                          @ ../Device/HyperRAM/hyperram_code.c:46:5
	bic	r1, r1, #3
	str.w	r1, [r5, #132]
.Ltmp15:
	@DEBUG_VALUE: u32CSH <- 3
	.loc	1 49 5                          @ ../Device/HyperRAM/hyperram_code.c:49:5
	ldr.w	r1, [r5, #132]
	orr	r1, r1, #48
	str.w	r1, [r5, #132]
.Ltmp16:
	@DEBUG_VALUE: u32CSHI <- 4
	.loc	1 52 5                          @ ../Device/HyperRAM/hyperram_code.c:52:5
	ldr.w	r1, [r5, #132]
.Ltmp17:
	.loc	1 43 46                         @ ../Device/HyperRAM/hyperram_code.c:43:46
	vdiv.f32	s0, s2, s0
.Ltmp18:
	.loc	1 43 28 is_stmt 0               @ ../Device/HyperRAM/hyperram_code.c:43:28
	vcvt.u32.f32	s0, s0
	vmov	r3, s0
	.loc	1 43 56                         @ ../Device/HyperRAM/hyperram_code.c:43:56
	subs	r0, r3, r0
	movs	r3, #4
.Ltmp19:
	.loc	1 52 5 is_stmt 1                @ ../Device/HyperRAM/hyperram_code.c:52:5
	bfi	r1, r3, #8, #4
	str.w	r1, [r5, #132]
.Ltmp20:
	.loc	1 55 5                          @ ../Device/HyperRAM/hyperram_code.c:55:5
	ldr.w	r1, [r5, #132]
	.loc	1 43 75                         @ ../Device/HyperRAM/hyperram_code.c:43:75
	add	r0, r2
	@DEBUG_VALUE: _u32CSST <- 0
	.loc	1 55 5                          @ ../Device/HyperRAM/hyperram_code.c:55:5
	bfc	r1, #12, #20
	orr.w	r0, r1, r0, lsl #12
	sub.w	r0, r0, #4096
	str.w	r0, [r5, #132]
	.loc	1 58 5                          @ ../Device/HyperRAM/hyperram_code.c:58:5
	ldr.w	r0, [r5, #136]
	orr	r0, r0, #16711680
	str.w	r0, [r5, #136]
	.loc	1 61 5                          @ ../Device/HyperRAM/hyperram_code.c:61:5
	ldr.w	r0, [r5, #136]
	bic	r0, r0, #520093696
	orr.w	r0, r0, r6, lsl #24
	str.w	r0, [r5, #136]
	.loc	1 64 5                          @ ../Device/HyperRAM/hyperram_code.c:64:5
	ldr.w	r0, [r5, #136]
	bic	r0, r0, #7936
	orr.w	r0, r0, r4, lsl #8
	str.w	r0, [r5, #136]
	.loc	1 65 1 epilogue_begin           @ ../Device/HyperRAM/hyperram_code.c:65:1
	add	sp, #4
	pop	{r4, r5, r6, r7, pc}
.Ltmp21:
	.loc	1 0 1 is_stmt 0                 @ :0:1
.Ltmp22:
	.p2align	2
@ %bb.1:
.LCPI0_0:
	.long	0x447a0000                      @ float 1000
.Lfunc_end0:
	.size	SPIM_Hyper_DefaultConfig, .Lfunc_end0-SPIM_Hyper_DefaultConfig
	.cfi_endproc
	.cantunwind
	.fnend
                                        @ -- End function
	.section	.text.HyperRAM_Erase,"ax",%progbits
	.hidden	HyperRAM_Erase                  @ -- Begin function HyperRAM_Erase
	.globl	HyperRAM_Erase
	.p2align	2
	.type	HyperRAM_Erase,%function
	.code	16                              @ @HyperRAM_Erase
	.thumb_func
HyperRAM_Erase:
.Lfunc_begin1:
	.loc	1 75 0 is_stmt 1                @ ../Device/HyperRAM/hyperram_code.c:75:0
	.fnstart
	.cfi_startproc
@ %bb.0:
	@DEBUG_VALUE: HyperRAM_Erase:spim <- $r0
	@DEBUG_VALUE: HyperRAM_Erase:u32StartAddr <- $r1
	@DEBUG_VALUE: HyperRAM_Erase:u32EraseSize <- $r2
	.save	{r4, r5, r6, r7, r8, r9, lr}
	push.w	{r4, r5, r6, r7, r8, r9, lr}
	.cfi_def_cfa_offset 28
	.cfi_offset lr, -4
	.cfi_offset r9, -8
	.cfi_offset r8, -12
	.cfi_offset r7, -16
	.cfi_offset r6, -20
	.cfi_offset r5, -24
	.cfi_offset r4, -28
	.pad	#4
	sub	sp, #4
	.cfi_def_cfa_offset 32
	mov	r8, r2
.Ltmp23:
	@DEBUG_VALUE: HyperRAM_Erase:u32EraseSize <- $r8
	mov	r9, r1
.Ltmp24:
	@DEBUG_VALUE: HyperRAM_Erase:u32StartAddr <- $r9
	@DEBUG_VALUE: HyperRAM_Erase:u32StartAddr <- $r9
	mov	r4, r0
.Ltmp25:
	@DEBUG_VALUE: HyperRAM_Erase:spim <- $r4
	@DEBUG_VALUE: HyperRAM_Erase:u32i <- 0
	@DEBUG_VALUE: HyperRAM_Erase:spim <- $r4
	bic	r5, r2, #1
	movs	r6, #0
.Ltmp26:
	.loc	1 0 0 is_stmt 0                 @ :0:0
.Ltmp27:
	.p2align	2
.LBB1_1:                                @ =>This Inner Loop Header: Depth=1
	@DEBUG_VALUE: HyperRAM_Erase:spim <- $r4
	@DEBUG_VALUE: HyperRAM_Erase:u32StartAddr <- $r9
	@DEBUG_VALUE: HyperRAM_Erase:u32EraseSize <- $r8
	@DEBUG_VALUE: HyperRAM_Erase:u32i <- $r6
	.loc	1 82 9 prologue_end is_stmt 1   @ ../Device/HyperRAM/hyperram_code.c:82:9
	add.w	r7, r9, r6
	mov	r0, r4
	mov	r1, r7
	movs	r2, #0
	bl	SPIM_HYPER_Write2Byte
.Ltmp28:
	.loc	1 83 19                         @ ../Device/HyperRAM/hyperram_code.c:83:19
	mov	r0, r4
	mov	r1, r7
	bl	SPIM_HYPER_Read1Word
.Ltmp29:
	@DEBUG_VALUE: HyperRAM_Erase:u16Data <- $r0
	@DEBUG_VALUE: HyperRAM_Erase:u32i <- [DW_OP_plus_uconst 2, DW_OP_stack_value] $r6
	.loc	1 85 13                         @ ../Device/HyperRAM/hyperram_code.c:85:13
	cbnz	r0, .LBB1_7
.Ltmp30:
@ %bb.2:                                @   in Loop: Header=BB1_1 Depth=1
	@DEBUG_VALUE: HyperRAM_Erase:u32i <- [DW_OP_plus_uconst 2, DW_OP_stack_value] $r6
	@DEBUG_VALUE: HyperRAM_Erase:u16Data <- $r0
	@DEBUG_VALUE: HyperRAM_Erase:spim <- $r4
	@DEBUG_VALUE: HyperRAM_Erase:u32StartAddr <- $r9
	@DEBUG_VALUE: HyperRAM_Erase:u32EraseSize <- $r8
	.loc	1 80 65                         @ ../Device/HyperRAM/hyperram_code.c:80:65
	adds	r6, #2
.Ltmp31:
	@DEBUG_VALUE: HyperRAM_Erase:u32i <- $r6
	.loc	1 80 5 is_stmt 0                @ ../Device/HyperRAM/hyperram_code.c:80:5
	cmp	r6, r5
	bls	.LBB1_1
.Ltmp32:
@ %bb.3:
	@DEBUG_VALUE: HyperRAM_Erase:u16Data <- $r0
	@DEBUG_VALUE: HyperRAM_Erase:u32i <- $r6
	@DEBUG_VALUE: HyperRAM_Erase:spim <- $r4
	@DEBUG_VALUE: HyperRAM_Erase:u32StartAddr <- $r9
	@DEBUG_VALUE: HyperRAM_Erase:u32EraseSize <- $r8
	.loc	1 95 9 is_stmt 1                @ ../Device/HyperRAM/hyperram_code.c:95:9
	lsls.w	r0, r8, #31
.Ltmp33:
	beq	.LBB1_9
.Ltmp34:
@ %bb.4:
	@DEBUG_VALUE: HyperRAM_Erase:u32i <- $r6
	@DEBUG_VALUE: HyperRAM_Erase:spim <- $r4
	@DEBUG_VALUE: HyperRAM_Erase:u32StartAddr <- $r9
	@DEBUG_VALUE: HyperRAM_Erase:u32EraseSize <- $r8
	.loc	1 97 67                         @ ../Device/HyperRAM/hyperram_code.c:97:67
	add.w	r6, r8, r9
.Ltmp35:
	.loc	1 97 9 is_stmt 0                @ ../Device/HyperRAM/hyperram_code.c:97:9
	mov	r0, r4
	.loc	1 97 51                         @ ../Device/HyperRAM/hyperram_code.c:97:51
	subs	r5, r6, #1
	.loc	1 97 9                          @ ../Device/HyperRAM/hyperram_code.c:97:9
	movs	r2, #0
	mov	r1, r5
	bl	SPIM_HYPER_Write1Byte
.Ltmp36:
	.loc	1 98 19 is_stmt 1               @ ../Device/HyperRAM/hyperram_code.c:98:19
	mov	r0, r4
	mov	r1, r6
	bl	SPIM_HYPER_Read1Word
.Ltmp37:
	mov	r2, r0
.Ltmp38:
	@DEBUG_VALUE: HyperRAM_Erase:u16Data <- $r2
	.loc	1 100 13                        @ ../Device/HyperRAM/hyperram_code.c:100:13
	lsls	r0, r0, #24
	beq	.LBB1_9
.Ltmp39:
@ %bb.5:
	@DEBUG_VALUE: HyperRAM_Erase:u16Data <- $r2
	@DEBUG_VALUE: HyperRAM_Erase:spim <- $r4
	@DEBUG_VALUE: HyperRAM_Erase:u32StartAddr <- $r9
	@DEBUG_VALUE: HyperRAM_Erase:u32EraseSize <- $r8
	.loc	1 102 13                        @ ../Device/HyperRAM/hyperram_code.c:102:13
	movw	r0, :lower16:.L.str.1
	mov	r1, r5
	movt	r0, :upper16:.L.str.1
	bl	__2printf
.Ltmp40:
	.loc	1 0 13 is_stmt 0                @ :0:13
.Ltmp41:
	.p2align	2
.LBB1_6:                                @ =>This Inner Loop Header: Depth=1
	@DEBUG_VALUE: HyperRAM_Erase:spim <- $r4
	@DEBUG_VALUE: HyperRAM_Erase:u32StartAddr <- $r9
	@DEBUG_VALUE: HyperRAM_Erase:u32EraseSize <- $r8
	.loc	1 106 13 is_stmt 1              @ ../Device/HyperRAM/hyperram_code.c:106:13
	b	.LBB1_6
.Ltmp42:
.LBB1_7:
	@DEBUG_VALUE: HyperRAM_Erase:u32i <- [DW_OP_plus_uconst 2, DW_OP_stack_value] $r6
	@DEBUG_VALUE: HyperRAM_Erase:u16Data <- $r0
	@DEBUG_VALUE: HyperRAM_Erase:spim <- $r4
	@DEBUG_VALUE: HyperRAM_Erase:u32StartAddr <- $r9
	@DEBUG_VALUE: HyperRAM_Erase:u32EraseSize <- $r8
	.loc	1 0 0 is_stmt 0                 @ ../Device/HyperRAM/hyperram_code.c:0:0
	mov	r2, r0
.Ltmp43:
	@DEBUG_VALUE: HyperRAM_Erase:u16Data <- $r2
	.loc	1 87 13 is_stmt 1               @ ../Device/HyperRAM/hyperram_code.c:87:13
	movw	r0, :lower16:.L.str
	movt	r0, :upper16:.L.str
	mov	r1, r7
	bl	__2printf
.Ltmp44:
	.loc	1 0 13 is_stmt 0                @ :0:13
.Ltmp45:
	.p2align	2
.LBB1_8:                                @ =>This Inner Loop Header: Depth=1
	@DEBUG_VALUE: HyperRAM_Erase:u32i <- [DW_OP_plus_uconst 2, DW_OP_stack_value] $r6
	@DEBUG_VALUE: HyperRAM_Erase:spim <- $r4
	@DEBUG_VALUE: HyperRAM_Erase:u32StartAddr <- $r9
	@DEBUG_VALUE: HyperRAM_Erase:u32EraseSize <- $r8
	.loc	1 91 13 is_stmt 1               @ ../Device/HyperRAM/hyperram_code.c:91:13
	b	.LBB1_8
.Ltmp46:
.LBB1_9:
	@DEBUG_VALUE: HyperRAM_Erase:spim <- $r4
	@DEBUG_VALUE: HyperRAM_Erase:u32StartAddr <- $r9
	@DEBUG_VALUE: HyperRAM_Erase:u32EraseSize <- $r8
	.loc	1 109 1 epilogue_begin          @ ../Device/HyperRAM/hyperram_code.c:109:1
	add	sp, #4
	pop.w	{r4, r5, r6, r7, r8, r9, pc}
.Ltmp47:
.Lfunc_end1:
	.size	HyperRAM_Erase, .Lfunc_end1-HyperRAM_Erase
	.cfi_endproc
	.cantunwind
	.fnend
                                        @ -- End function
	.section	.text.isConsecutive,"ax",%progbits
	.hidden	isConsecutive                   @ -- Begin function isConsecutive
	.globl	isConsecutive
	.p2align	2
	.type	isConsecutive,%function
	.code	16                              @ @isConsecutive
	.thumb_func
isConsecutive:
.Lfunc_begin2:
	.loc	1 119 0                         @ ../Device/HyperRAM/hyperram_code.c:119:0
	.fnstart
	.cfi_startproc
@ %bb.0:
	@DEBUG_VALUE: isConsecutive:au8Src <- $r0
	@DEBUG_VALUE: isConsecutive:size <- $r1
	.save	{r4, r5, r6, r7, r8, r9, r10, r11, lr}
	push.w	{r4, r5, r6, r7, r8, r9, r10, r11, lr}
	.cfi_def_cfa_offset 36
	.cfi_offset lr, -4
	.cfi_offset r11, -8
	.cfi_offset r10, -12
	.cfi_offset r9, -16
	.cfi_offset r8, -20
	.cfi_offset r7, -24
	.cfi_offset r6, -28
	.cfi_offset r5, -32
	.cfi_offset r4, -36
	.pad	#4
	sub	sp, #4
	.cfi_def_cfa_offset 40
.Ltmp48:
	.loc	1 127 5 prologue_end            @ ../Device/HyperRAM/hyperram_code.c:127:5
	cmp	r1, #2
.Ltmp49:
	@DEBUG_VALUE: isConsecutive:u32j <- 1
	@DEBUG_VALUE: isConsecutive:u32i <- 1
	@DEBUG_VALUE: isConsecutive:u8MaxRang <- 0
	@DEBUG_VALUE: isConsecutive:u8StartIdx <- 0
	@DEBUG_VALUE: isConsecutive:u8Find <- 0
	blo	.LBB2_3
.Ltmp50:
@ %bb.1:
	@DEBUG_VALUE: isConsecutive:u8Find <- 0
	@DEBUG_VALUE: isConsecutive:u8StartIdx <- 0
	@DEBUG_VALUE: isConsecutive:u8MaxRang <- 0
	@DEBUG_VALUE: isConsecutive:u32i <- 1
	@DEBUG_VALUE: isConsecutive:u32j <- 1
	@DEBUG_VALUE: isConsecutive:size <- $r1
	@DEBUG_VALUE: isConsecutive:au8Src <- $r0
	.loc	1 0 0 is_stmt 0                 @ ../Device/HyperRAM/hyperram_code.c:0:0
	ldrb.w	r8, [r0]
.Ltmp51:
	.loc	1 127 5                         @ ../Device/HyperRAM/hyperram_code.c:127:5
	subs	r2, r1, #2
.Ltmp52:
	.loc	1 0 0                           @ ../Device/HyperRAM/hyperram_code.c:0:0
	ldrb.w	r9, [r0, #1]
.Ltmp53:
	.loc	1 127 5                         @ ../Device/HyperRAM/hyperram_code.c:127:5
	subs	r1, #1
.Ltmp54:
	@DEBUG_VALUE: isConsecutive:size <- [DW_OP_LLVM_entry_value 1] $r1
	cmp	r2, #3
	mov.w	r5, #1
	and	r7, r1, #3
	bhs	.LBB2_4
.Ltmp55:
@ %bb.2:
	@DEBUG_VALUE: isConsecutive:size <- [DW_OP_LLVM_entry_value 1] $r1
	@DEBUG_VALUE: isConsecutive:u8Find <- 0
	@DEBUG_VALUE: isConsecutive:u8StartIdx <- 0
	@DEBUG_VALUE: isConsecutive:u8MaxRang <- 0
	@DEBUG_VALUE: isConsecutive:u32i <- 1
	@DEBUG_VALUE: isConsecutive:u32j <- 1
	@DEBUG_VALUE: isConsecutive:au8Src <- $r0
	.loc	1 0 5                           @ ../Device/HyperRAM/hyperram_code.c:0:5
	mov.w	r12, #0
	mov.w	lr, #1
	movs	r4, #0
	mov.w	r10, #0
.Ltmp56:
	.loc	1 130 25 is_stmt 1              @ ../Device/HyperRAM/hyperram_code.c:130:25
	cmp	r7, #0
	bne	.LBB2_7
	b	.LBB2_10
.Ltmp57:
.LBB2_3:
	@DEBUG_VALUE: isConsecutive:u8Find <- 0
	@DEBUG_VALUE: isConsecutive:u8StartIdx <- 0
	@DEBUG_VALUE: isConsecutive:u8MaxRang <- 0
	@DEBUG_VALUE: isConsecutive:u32i <- 1
	@DEBUG_VALUE: isConsecutive:u32j <- 1
	@DEBUG_VALUE: isConsecutive:size <- $r1
	@DEBUG_VALUE: isConsecutive:au8Src <- $r0
	.loc	1 0 25 is_stmt 0                @ ../Device/HyperRAM/hyperram_code.c:0:25
	movs	r1, #0
.Ltmp58:
	@DEBUG_VALUE: isConsecutive:size <- [DW_OP_LLVM_entry_value 1] $r1
	b	.LBB2_12
.Ltmp59:
.LBB2_4:
	@DEBUG_VALUE: isConsecutive:size <- [DW_OP_LLVM_entry_value 1] $r1
	@DEBUG_VALUE: isConsecutive:u8Find <- 0
	@DEBUG_VALUE: isConsecutive:u8StartIdx <- 0
	@DEBUG_VALUE: isConsecutive:u8MaxRang <- 0
	@DEBUG_VALUE: isConsecutive:u32i <- 1
	@DEBUG_VALUE: isConsecutive:u32j <- 1
	@DEBUG_VALUE: isConsecutive:au8Src <- $r0
	.loc	1 127 5 is_stmt 1               @ ../Device/HyperRAM/hyperram_code.c:127:5
	bic	r1, r1, #3
	adds	r6, r0, #2
	subs	r1, #4
	str	r7, [sp]                        @ 4-byte Spill
	add.w	lr, r5, r1, lsr #2
	mov.w	r12, #0
	movs	r4, #0
	mov.w	r10, #0
	mov.w	r11, #0
.Ltmp60:
	.loc	1 0 5 is_stmt 0                 @ :0:5
.Ltmp61:
	.p2align	2
.LBB2_5:                                @ =>This Inner Loop Header: Depth=1
	@DEBUG_VALUE: isConsecutive:size <- [DW_OP_LLVM_entry_value 1] $r1
	@DEBUG_VALUE: isConsecutive:au8Src <- $r0
	@DEBUG_VALUE: isConsecutive:u8Find <- $r12
	@DEBUG_VALUE: isConsecutive:u8StartIdx <- $r10
	@DEBUG_VALUE: isConsecutive:u8MaxRang <- $r4
	@DEBUG_VALUE: isConsecutive:u32i <- [DW_OP_LLVM_arg 0, DW_OP_consts 2, DW_OP_LLVM_arg 1, DW_OP_plus, DW_OP_minus, DW_OP_consts 4, DW_OP_div, DW_OP_consts 4, DW_OP_mul, DW_OP_consts 1, DW_OP_plus, DW_OP_stack_value] $r6, $r0
	@DEBUG_VALUE: isConsecutive:u32j <- $r5
	ldrb	r1, [r6, #-2]
.Ltmp62:
	.loc	1 142 21 is_stmt 1              @ ../Device/HyperRAM/hyperram_code.c:142:21
	uxtb	r2, r4
.Ltmp63:
	.loc	1 0 0 is_stmt 0                 @ ../Device/HyperRAM/hyperram_code.c:0:0
	ldrb	r3, [r6, #-1]
	.loc	1 130 25 is_stmt 1              @ ../Device/HyperRAM/hyperram_code.c:130:25
	cmp	r9, r8
	.loc	1 131 66                        @ ../Device/HyperRAM/hyperram_code.c:131:66
	ite	ls
	subls	r1, #1
	.loc	1 130 61                        @ ../Device/HyperRAM/hyperram_code.c:130:61
	addhi	r1, #1
.Ltmp64:
	.loc	1 130 0 is_stmt 0               @ ../Device/HyperRAM/hyperram_code.c:130:0
	cmp	r1, r3
	itt	ne
	addne.w	r12, r11, #1
.Ltmp65:
	.loc	1 0 0                           @ ../Device/HyperRAM/hyperram_code.c:0:0
	movne	r5, #0
.Ltmp66:
	@DEBUG_VALUE: isConsecutive:u32j <- 0
	@DEBUG_VALUE: isConsecutive:u8Find <- undef
	@DEBUG_VALUE: isConsecutive:u8Find <- $r12
	@DEBUG_VALUE: isConsecutive:u32j <- $r5
	.loc	1 139 13 is_stmt 1              @ ../Device/HyperRAM/hyperram_code.c:139:13
	adds	r1, r5, #1
.Ltmp67:
	@DEBUG_VALUE: isConsecutive:u32j <- $r1
	.loc	1 142 13                        @ ../Device/HyperRAM/hyperram_code.c:142:13
	cmp	r1, r2
	csinc	r7, r4, r5, lo
.Ltmp68:
	@DEBUG_VALUE: isConsecutive:u32i <- [DW_OP_LLVM_arg 0, DW_OP_consts 2, DW_OP_LLVM_arg 1, DW_OP_plus, DW_OP_minus, DW_OP_consts 4, DW_OP_div, DW_OP_consts 4, DW_OP_mul, DW_OP_consts 2, DW_OP_plus, DW_OP_stack_value] $r6, $r0
	@DEBUG_VALUE: isConsecutive:u8MaxRang <- $r7
	.loc	1 0 0 is_stmt 0                 @ ../Device/HyperRAM/hyperram_code.c:0:0
	ldrb	r4, [r6]
.Ltmp69:
	.loc	1 142 13                        @ ../Device/HyperRAM/hyperram_code.c:142:13
	csel	r2, r10, r12, lo
.Ltmp70:
	@DEBUG_VALUE: isConsecutive:u8StartIdx <- $r2
	.loc	1 130 25 is_stmt 1              @ ../Device/HyperRAM/hyperram_code.c:130:25
	cmp	r9, r8
	.loc	1 130 61 is_stmt 0              @ ../Device/HyperRAM/hyperram_code.c:130:61
	ite	hi
	addhi	r3, #1
	.loc	1 131 66 is_stmt 1              @ ../Device/HyperRAM/hyperram_code.c:131:66
	subls	r3, #1
.Ltmp71:
	.loc	1 130 0                         @ ../Device/HyperRAM/hyperram_code.c:130:0
	cmp	r3, r4
	itt	ne
	addne.w	r12, r11, #2
.Ltmp72:
	.loc	1 0 0 is_stmt 0                 @ ../Device/HyperRAM/hyperram_code.c:0:0
	movne	r1, #0
.Ltmp73:
	@DEBUG_VALUE: isConsecutive:u32j <- 0
	@DEBUG_VALUE: isConsecutive:u8Find <- undef
	@DEBUG_VALUE: isConsecutive:u8Find <- $r12
	@DEBUG_VALUE: isConsecutive:u32j <- $r1
	.loc	1 139 13 is_stmt 1              @ ../Device/HyperRAM/hyperram_code.c:139:13
	adds	r5, r1, #1
.Ltmp74:
	@DEBUG_VALUE: isConsecutive:u32j <- $r5
	.loc	1 142 21                        @ ../Device/HyperRAM/hyperram_code.c:142:21
	uxtb	r3, r7
.Ltmp75:
	.loc	1 142 13 is_stmt 0              @ ../Device/HyperRAM/hyperram_code.c:142:13
	cmp	r5, r3
	csel	r10, r2, r12, lo
.Ltmp76:
	@DEBUG_VALUE: isConsecutive:u8StartIdx <- $r10
	.loc	1 0 0                           @ ../Device/HyperRAM/hyperram_code.c:0:0
	ldrb	r2, [r6, #1]
.Ltmp77:
	.loc	1 142 13                        @ ../Device/HyperRAM/hyperram_code.c:142:13
	csinc	r7, r7, r1, lo
.Ltmp78:
	@DEBUG_VALUE: isConsecutive:u32i <- [DW_OP_LLVM_arg 0, DW_OP_consts 2, DW_OP_LLVM_arg 1, DW_OP_plus, DW_OP_minus, DW_OP_consts 4, DW_OP_div, DW_OP_consts 4, DW_OP_mul, DW_OP_consts 3, DW_OP_plus, DW_OP_stack_value] $r6, $r0
	@DEBUG_VALUE: isConsecutive:u8MaxRang <- $r7
	.loc	1 130 25 is_stmt 1              @ ../Device/HyperRAM/hyperram_code.c:130:25
	cmp	r9, r8
	.loc	1 130 61 is_stmt 0              @ ../Device/HyperRAM/hyperram_code.c:130:61
	ite	hi
	addhi	r1, r4, #1
	.loc	1 131 66 is_stmt 1              @ ../Device/HyperRAM/hyperram_code.c:131:66
	subls	r1, r4, #1
.Ltmp79:
	.loc	1 130 0                         @ ../Device/HyperRAM/hyperram_code.c:130:0
	cmp	r1, r2
	itt	ne
	addne.w	r12, r11, #3
.Ltmp80:
	.loc	1 0 0 is_stmt 0                 @ ../Device/HyperRAM/hyperram_code.c:0:0
	movne	r5, #0
.Ltmp81:
	@DEBUG_VALUE: isConsecutive:u32j <- 0
	@DEBUG_VALUE: isConsecutive:u8Find <- undef
	@DEBUG_VALUE: isConsecutive:u8Find <- $r12
	@DEBUG_VALUE: isConsecutive:u32j <- $r5
	.loc	1 139 13 is_stmt 1              @ ../Device/HyperRAM/hyperram_code.c:139:13
	adds	r3, r5, #1
.Ltmp82:
	@DEBUG_VALUE: isConsecutive:u32j <- $r3
	.loc	1 142 21                        @ ../Device/HyperRAM/hyperram_code.c:142:21
	uxtb	r1, r7
.Ltmp83:
	.loc	1 142 13 is_stmt 0              @ ../Device/HyperRAM/hyperram_code.c:142:13
	cmp	r3, r1
.Ltmp84:
	.loc	1 0 0                           @ ../Device/HyperRAM/hyperram_code.c:0:0
	add.w	r11, r11, #4
.Ltmp85:
	.loc	1 142 13                        @ ../Device/HyperRAM/hyperram_code.c:142:13
	csinc	r4, r7, r5, lo
.Ltmp86:
	@DEBUG_VALUE: isConsecutive:u32i <- [DW_OP_LLVM_arg 0, DW_OP_consts 2, DW_OP_LLVM_arg 1, DW_OP_plus, DW_OP_minus, DW_OP_consts 4, DW_OP_div, DW_OP_consts 4, DW_OP_mul, DW_OP_consts 4, DW_OP_plus, DW_OP_stack_value] $r6, $r0
	@DEBUG_VALUE: isConsecutive:u8MaxRang <- $r4
	.loc	1 0 0                           @ ../Device/HyperRAM/hyperram_code.c:0:0
	ldrb	r5, [r6, #2]
.Ltmp87:
	.loc	1 127 5 is_stmt 1               @ ../Device/HyperRAM/hyperram_code.c:127:5
	add.w	r6, r6, #4
.Ltmp88:
	.loc	1 142 13                        @ ../Device/HyperRAM/hyperram_code.c:142:13
	csel	r1, r10, r12, lo
.Ltmp89:
	@DEBUG_VALUE: isConsecutive:u8StartIdx <- $r1
	.loc	1 130 25                        @ ../Device/HyperRAM/hyperram_code.c:130:25
	cmp	r9, r8
	.loc	1 130 61 is_stmt 0              @ ../Device/HyperRAM/hyperram_code.c:130:61
	ite	hi
	addhi	r2, #1
	.loc	1 131 66 is_stmt 1              @ ../Device/HyperRAM/hyperram_code.c:131:66
	subls	r2, #1
.Ltmp90:
	.loc	1 130 0                         @ ../Device/HyperRAM/hyperram_code.c:130:0
	cmp	r2, r5
	itt	ne
	movne	r3, #0
.Ltmp91:
	@DEBUG_VALUE: isConsecutive:u32j <- 0
	@DEBUG_VALUE: isConsecutive:u8Find <- undef
	.loc	1 0 0 is_stmt 0                 @ ../Device/HyperRAM/hyperram_code.c:0:0
	movne	r12, r11
.Ltmp92:
	@DEBUG_VALUE: isConsecutive:u8Find <- $r12
	@DEBUG_VALUE: isConsecutive:u32j <- $r3
	.loc	1 139 13 is_stmt 1              @ ../Device/HyperRAM/hyperram_code.c:139:13
	adds	r5, r3, #1
.Ltmp93:
	@DEBUG_VALUE: isConsecutive:u32j <- $r5
	.loc	1 142 21                        @ ../Device/HyperRAM/hyperram_code.c:142:21
	uxtb	r2, r4
.Ltmp94:
	.loc	1 142 13 is_stmt 0              @ ../Device/HyperRAM/hyperram_code.c:142:13
	cmp	r5, r2
	csel	r10, r1, r12, lo
.Ltmp95:
	@DEBUG_VALUE: isConsecutive:u8StartIdx <- $r10
	csinc	r4, r4, r3, lo
.Ltmp96:
	@DEBUG_VALUE: isConsecutive:u32i <- [DW_OP_LLVM_arg 0, DW_OP_consts 2, DW_OP_LLVM_arg 1, DW_OP_plus, DW_OP_minus, DW_OP_consts 4, DW_OP_div, DW_OP_consts 4, DW_OP_mul, DW_OP_consts 5, DW_OP_plus, DW_OP_stack_value] $r6, $r0
	@DEBUG_VALUE: isConsecutive:u8MaxRang <- $r4
	.loc	1 127 5 is_stmt 1               @ ../Device/HyperRAM/hyperram_code.c:127:5
	le	lr, .LBB2_5
.Ltmp97:
@ %bb.6:
	@DEBUG_VALUE: isConsecutive:u32i <- [DW_OP_LLVM_arg 0, DW_OP_consts 2, DW_OP_LLVM_arg 1, DW_OP_plus, DW_OP_minus, DW_OP_consts 4, DW_OP_div, DW_OP_consts 4, DW_OP_mul, DW_OP_consts 5, DW_OP_plus, DW_OP_stack_value] $r6, $r0
	@DEBUG_VALUE: isConsecutive:u32j <- $r5
	@DEBUG_VALUE: isConsecutive:u8MaxRang <- $r4
	@DEBUG_VALUE: isConsecutive:u8StartIdx <- $r10
	@DEBUG_VALUE: isConsecutive:u8Find <- $r12
	@DEBUG_VALUE: isConsecutive:size <- [DW_OP_LLVM_entry_value 1] $r1
	@DEBUG_VALUE: isConsecutive:au8Src <- $r0
	.loc	1 0 5 is_stmt 0                 @ ../Device/HyperRAM/hyperram_code.c:0:5
	ldr	r7, [sp]                        @ 4-byte Reload
.Ltmp98:
	.loc	1 130 25 is_stmt 1              @ ../Device/HyperRAM/hyperram_code.c:130:25
	add.w	lr, r11, #1
	cmp	r7, #0
	beq	.LBB2_10
.Ltmp99:
.LBB2_7:
	@DEBUG_VALUE: isConsecutive:size <- [DW_OP_LLVM_entry_value 1] $r1
	@DEBUG_VALUE: isConsecutive:au8Src <- $r0
	@DEBUG_VALUE: isConsecutive:u8Find <- $r12
	@DEBUG_VALUE: isConsecutive:u8StartIdx <- $r10
	@DEBUG_VALUE: isConsecutive:u8MaxRang <- $r4
	@DEBUG_VALUE: isConsecutive:u32i <- $lr
	@DEBUG_VALUE: isConsecutive:u32j <- $r5
	.loc	1 0 0 is_stmt 0                 @ ../Device/HyperRAM/hyperram_code.c:0:0
	add.w	r2, r0, lr
	ldrb.w	r1, [r0, lr]
	ldrb	r2, [r2, #-1]
	.loc	1 130 25                        @ ../Device/HyperRAM/hyperram_code.c:130:25
	cmp	r9, r8
	.loc	1 130 61                        @ ../Device/HyperRAM/hyperram_code.c:130:61
	ite	hi
	addhi	r2, #1
	.loc	1 131 66 is_stmt 1              @ ../Device/HyperRAM/hyperram_code.c:131:66
	subls	r2, #1
.Ltmp100:
	.loc	1 130 0                         @ ../Device/HyperRAM/hyperram_code.c:130:0
	cmp	r2, r1
	itt	ne
	movne	r5, #0
.Ltmp101:
	@DEBUG_VALUE: isConsecutive:u32j <- 0
	@DEBUG_VALUE: isConsecutive:u8Find <- undef
	.loc	1 0 0 is_stmt 0                 @ ../Device/HyperRAM/hyperram_code.c:0:0
	movne	r12, lr
.Ltmp102:
	@DEBUG_VALUE: isConsecutive:u8Find <- $r12
	@DEBUG_VALUE: isConsecutive:u32j <- $r5
	.loc	1 139 13 is_stmt 1              @ ../Device/HyperRAM/hyperram_code.c:139:13
	adds	r3, r5, #1
.Ltmp103:
	@DEBUG_VALUE: isConsecutive:u32j <- $r3
	.loc	1 142 21                        @ ../Device/HyperRAM/hyperram_code.c:142:21
	uxtb	r1, r4
.Ltmp104:
	.loc	1 142 13 is_stmt 0              @ ../Device/HyperRAM/hyperram_code.c:142:13
	cmp	r3, r1
	csel	r10, r10, r12, lo
.Ltmp105:
	@DEBUG_VALUE: isConsecutive:u8StartIdx <- $r10
	csinc	r4, r4, r5, lo
.Ltmp106:
	@DEBUG_VALUE: isConsecutive:u32i <- undef
	@DEBUG_VALUE: isConsecutive:u8MaxRang <- $r4
	.loc	1 127 5 is_stmt 1               @ ../Device/HyperRAM/hyperram_code.c:127:5
	cmp	r7, #1
	beq	.LBB2_10
.Ltmp107:
@ %bb.8:
	@DEBUG_VALUE: isConsecutive:u32j <- $r3
	@DEBUG_VALUE: isConsecutive:u8MaxRang <- $r4
	@DEBUG_VALUE: isConsecutive:u8StartIdx <- $r10
	@DEBUG_VALUE: isConsecutive:u8Find <- $r12
	@DEBUG_VALUE: isConsecutive:size <- [DW_OP_LLVM_entry_value 1] $r1
	@DEBUG_VALUE: isConsecutive:au8Src <- $r0
	.loc	1 0 0 is_stmt 0                 @ ../Device/HyperRAM/hyperram_code.c:0:0
	add.w	r1, lr, #1
	@DEBUG_VALUE: isConsecutive:u32j <- $r3
.Ltmp108:
	@DEBUG_VALUE: isConsecutive:u32i <- $r1
	@DEBUG_VALUE: isConsecutive:u8MaxRang <- $r4
	@DEBUG_VALUE: isConsecutive:u8StartIdx <- $r10
	@DEBUG_VALUE: isConsecutive:u8Find <- $r12
	ldrb.w	r6, [r0, lr]
	ldrb	r2, [r0, r1]
	.loc	1 130 25 is_stmt 1              @ ../Device/HyperRAM/hyperram_code.c:130:25
	cmp	r9, r8
	.loc	1 130 61 is_stmt 0              @ ../Device/HyperRAM/hyperram_code.c:130:61
	ite	hi
	addhi	r6, #1
	.loc	1 131 66 is_stmt 1              @ ../Device/HyperRAM/hyperram_code.c:131:66
	subls	r6, #1
.Ltmp109:
	.loc	1 130 0                         @ ../Device/HyperRAM/hyperram_code.c:130:0
	cmp	r6, r2
	itt	ne
	movne	r3, #0
.Ltmp110:
	@DEBUG_VALUE: isConsecutive:u32j <- 0
	@DEBUG_VALUE: isConsecutive:u8Find <- undef
	.loc	1 0 0 is_stmt 0                 @ ../Device/HyperRAM/hyperram_code.c:0:0
	movne	r12, r1
.Ltmp111:
	@DEBUG_VALUE: isConsecutive:u8Find <- $r12
	@DEBUG_VALUE: isConsecutive:u32j <- $r3
	.loc	1 139 13 is_stmt 1              @ ../Device/HyperRAM/hyperram_code.c:139:13
	adds	r6, r3, #1
.Ltmp112:
	@DEBUG_VALUE: isConsecutive:u32j <- $r6
	.loc	1 142 21                        @ ../Device/HyperRAM/hyperram_code.c:142:21
	uxtb	r1, r4
.Ltmp113:
	.loc	1 142 13 is_stmt 0              @ ../Device/HyperRAM/hyperram_code.c:142:13
	cmp	r6, r1
	csel	r10, r10, r12, lo
.Ltmp114:
	@DEBUG_VALUE: isConsecutive:u8StartIdx <- $r10
	csinc	r4, r4, r3, lo
.Ltmp115:
	@DEBUG_VALUE: isConsecutive:u32i <- undef
	@DEBUG_VALUE: isConsecutive:u8MaxRang <- $r4
	.loc	1 127 5 is_stmt 1               @ ../Device/HyperRAM/hyperram_code.c:127:5
	cmp	r7, #2
	beq	.LBB2_10
.Ltmp116:
@ %bb.9:
	@DEBUG_VALUE: isConsecutive:u32j <- $r6
	@DEBUG_VALUE: isConsecutive:u8MaxRang <- $r4
	@DEBUG_VALUE: isConsecutive:u8StartIdx <- $r10
	@DEBUG_VALUE: isConsecutive:u8Find <- $r12
	@DEBUG_VALUE: isConsecutive:size <- [DW_OP_LLVM_entry_value 1] $r1
	@DEBUG_VALUE: isConsecutive:au8Src <- $r0
	.loc	1 0 0 is_stmt 0                 @ ../Device/HyperRAM/hyperram_code.c:0:0
	add.w	r1, lr, #2
	@DEBUG_VALUE: isConsecutive:u32j <- $r6
.Ltmp117:
	@DEBUG_VALUE: isConsecutive:u32i <- $r1
	@DEBUG_VALUE: isConsecutive:u8MaxRang <- $r4
	@DEBUG_VALUE: isConsecutive:u8StartIdx <- $r10
	@DEBUG_VALUE: isConsecutive:u8Find <- $r12
	.loc	1 130 25 is_stmt 1              @ ../Device/HyperRAM/hyperram_code.c:130:25
	cmp	r9, r8
	.loc	1 0 0 is_stmt 0                 @ ../Device/HyperRAM/hyperram_code.c:0:0
	add.w	r3, r0, r1
	ldrb	r2, [r0, r1]
	ldrb	r3, [r3, #-1]
	.loc	1 130 61                        @ ../Device/HyperRAM/hyperram_code.c:130:61
	ite	hi
	addhi	r3, #1
	.loc	1 131 66 is_stmt 1              @ ../Device/HyperRAM/hyperram_code.c:131:66
	subls	r3, #1
.Ltmp118:
	.loc	1 130 0                         @ ../Device/HyperRAM/hyperram_code.c:130:0
	cmp	r3, r2
	itt	ne
	movne	r6, #0
.Ltmp119:
	@DEBUG_VALUE: isConsecutive:u32j <- 0
	@DEBUG_VALUE: isConsecutive:u8Find <- undef
	.loc	1 0 0 is_stmt 0                 @ ../Device/HyperRAM/hyperram_code.c:0:0
	movne	r12, r1
.Ltmp120:
	@DEBUG_VALUE: isConsecutive:u8Find <- $r12
	@DEBUG_VALUE: isConsecutive:u32j <- $r6
	.loc	1 139 13 is_stmt 1              @ ../Device/HyperRAM/hyperram_code.c:139:13
	adds	r1, r6, #1
.Ltmp121:
	@DEBUG_VALUE: isConsecutive:u32j <- $r1
	.loc	1 142 21                        @ ../Device/HyperRAM/hyperram_code.c:142:21
	uxtb	r2, r4
.Ltmp122:
	.loc	1 142 13 is_stmt 0              @ ../Device/HyperRAM/hyperram_code.c:142:13
	cmp	r1, r2
	csel	r10, r10, r12, lo
.Ltmp123:
	@DEBUG_VALUE: isConsecutive:u8StartIdx <- $r10
	csinc	r4, r4, r6, lo
.Ltmp124:
	@DEBUG_VALUE: isConsecutive:u32i <- [DW_OP_plus_uconst 3, DW_OP_stack_value] undef
	@DEBUG_VALUE: isConsecutive:u8MaxRang <- $r4
.LBB2_10:
	@DEBUG_VALUE: isConsecutive:size <- [DW_OP_LLVM_entry_value 1] $r1
	@DEBUG_VALUE: isConsecutive:au8Src <- $r0
	.loc	1 149 23 is_stmt 1              @ ../Device/HyperRAM/hyperram_code.c:149:23
	uxtb	r2, r4
	.loc	1 151 12                        @ ../Device/HyperRAM/hyperram_code.c:151:12
	uxtb.w	r1, r10
	.loc	1 149 12                        @ ../Device/HyperRAM/hyperram_code.c:149:12
	cmp	r2, #2
	blo	.LBB2_12
.Ltmp125:
@ %bb.11:
	@DEBUG_VALUE: isConsecutive:size <- [DW_OP_LLVM_entry_value 1] $r1
	@DEBUG_VALUE: isConsecutive:au8Src <- $r0
	.loc	1 150 12                        @ ../Device/HyperRAM/hyperram_code.c:150:12
	add.w	r0, r0, r2, lsr #1
.Ltmp126:
	@DEBUG_VALUE: isConsecutive:au8Src <- [DW_OP_LLVM_entry_value 1] $r0
	.loc	1 150 64 is_stmt 0              @ ../Device/HyperRAM/hyperram_code.c:150:64
	and	r2, r4, #1
	.loc	1 150 12                        @ ../Device/HyperRAM/hyperram_code.c:150:12
	add	r0, r1
	ldrb	r0, [r0, r2]
	.loc	1 150 86                        @ ../Device/HyperRAM/hyperram_code.c:150:86
	subs	r0, #1
	b	.LBB2_13
.Ltmp127:
.LBB2_12:
	@DEBUG_VALUE: isConsecutive:size <- [DW_OP_LLVM_entry_value 1] $r1
	@DEBUG_VALUE: isConsecutive:au8Src <- $r0
	.loc	1 151 12 is_stmt 1              @ ../Device/HyperRAM/hyperram_code.c:151:12
	ldrb	r0, [r0, r1]
.Ltmp128:
	@DEBUG_VALUE: isConsecutive:au8Src <- [DW_OP_LLVM_entry_value 1] $r0
.LBB2_13:
	@DEBUG_VALUE: isConsecutive:au8Src <- [DW_OP_LLVM_entry_value 1] $r0
	@DEBUG_VALUE: isConsecutive:size <- [DW_OP_LLVM_entry_value 1] $r1
	.loc	1 149 5                         @ ../Device/HyperRAM/hyperram_code.c:149:5
	uxtb	r0, r0
	.loc	1 149 5 epilogue_begin is_stmt 0 @ ../Device/HyperRAM/hyperram_code.c:149:5
	add	sp, #4
	pop.w	{r4, r5, r6, r7, r8, r9, r10, r11, pc}
.Ltmp129:
.Lfunc_end2:
	.size	isConsecutive, .Lfunc_end2-isConsecutive
	.cfi_endproc
	.cantunwind
	.fnend
                                        @ -- End function
	.section	.text.HyperRAM_TrimDLLDelayNumber,"ax",%progbits
	.hidden	HyperRAM_TrimDLLDelayNumber     @ -- Begin function HyperRAM_TrimDLLDelayNumber
	.globl	HyperRAM_TrimDLLDelayNumber
	.p2align	4
	.type	HyperRAM_TrimDLLDelayNumber,%function
	.code	16                              @ @HyperRAM_TrimDLLDelayNumber
	.thumb_func
HyperRAM_TrimDLLDelayNumber:
.Lfunc_begin3:
	.loc	1 155 0 is_stmt 1               @ ../Device/HyperRAM/hyperram_code.c:155:0
	.fnstart
	.cfi_startproc
@ %bb.0:
	@DEBUG_VALUE: HyperRAM_TrimDLLDelayNumber:spim <- $r0
	.save	{r4, r5, r6, r7, r8, r9, r10, r11, lr}
	push.w	{r4, r5, r6, r7, r8, r9, r10, r11, lr}
	.cfi_def_cfa_offset 36
	.cfi_offset lr, -4
	.cfi_offset r11, -8
	.cfi_offset r10, -12
	.cfi_offset r9, -16
	.cfi_offset r8, -20
	.cfi_offset r7, -24
	.cfi_offset r6, -28
	.cfi_offset r5, -32
	.cfi_offset r4, -36
	.pad	#4
	sub	sp, #4
	.cfi_def_cfa_offset 40
	.vsave	{d8, d9, d10, d11, d12, d13, d14, d15}
	vpush	{d8, d9, d10, d11, d12, d13, d14, d15}
	.cfi_def_cfa_offset 104
	.cfi_offset d15, -48
	.cfi_offset d14, -56
	.cfi_offset d13, -64
	.cfi_offset d12, -72
	.cfi_offset d11, -80
	.cfi_offset d10, -88
	.cfi_offset d9, -96
	.cfi_offset d8, -104
	.pad	#560
	sub.w	sp, sp, #560
	.cfi_def_cfa_offset 664
.Ltmp130:
	.loc	1 156 9 prologue_end            @ ../Device/HyperRAM/hyperram_code.c:156:9
	cmp	r0, #0
	str	r0, [sp, #140]                  @ 4-byte Spill
.Ltmp131:
	@DEBUG_VALUE: HyperRAM_TrimDLLDelayNumber:spim <- [DW_OP_plus_uconst 140] [$sp+0]
	@DEBUG_VALUE: HyperRAM_TrimDLLDelayNumber:spim <- [DW_OP_plus_uconst 140] [$sp+0]
	beq.w	.LBB3_29
.Ltmp132:
@ %bb.1:
	@DEBUG_VALUE: HyperRAM_TrimDLLDelayNumber:spim <- [DW_OP_plus_uconst 140] [$sp+0]
	@DEBUG_VALUE: HyperRAM_TrimDLLDelayNumber:u8RdDelay <- 0
	.loc	1 0 9 is_stmt 0                 @ ../Device/HyperRAM/hyperram_code.c:0:9
	movs	r0, #0
	add.w	r8, sp, #272
	.loc	1 162 13 is_stmt 1              @ ../Device/HyperRAM/hyperram_code.c:162:13
	strd	r0, r0, [sp, #552]
	strd	r0, r0, [sp, #544]
	strd	r0, r0, [sp, #536]
	strd	r0, r0, [sp, #528]
.Ltmp133:
	@DEBUG_VALUE: HyperRAM_TrimDLLDelayNumber:u32ReTrimMaxCnt <- 6
	@DEBUG_VALUE: HyperRAM_TrimDLLDelayNumber:u32ReTrimCnt <- 0
	@DEBUG_VALUE: HyperRAM_TrimDLLDelayNumber:u32SrcAddr <- 0
	@DEBUG_VALUE: HyperRAM_TrimDLLDelayNumber:u32k <- 0
	@DEBUG_VALUE: HyperRAM_TrimDLLDelayNumber:u32j <- 0
	@DEBUG_VALUE: HyperRAM_TrimDLLDelayNumber:u32i <- 0
	@DEBUG_VALUE: HyperRAM_TrimDLLDelayNumber:u32Val <- 0
	@DEBUG_VALUE: HyperRAM_TrimDLLDelayNumber:u32LoopAddr <- 0
	@DEBUG_VALUE: HyperRAM_TrimDLLDelayNumber:u32PatternSize <- 128
	.loc	1 173 14                        @ ../Device/HyperRAM/hyperram_code.c:173:14
	mov	r0, r8
	mov.w	r1, #256
	bl	__aeabi_memclr8
.Ltmp134:
	.loc	1 0 14 is_stmt 0                @ ../Device/HyperRAM/hyperram_code.c:0:14
	add	r0, sp, #144
	.loc	1 174 14 is_stmt 1              @ ../Device/HyperRAM/hyperram_code.c:174:14
	movs	r1, #128
	bl	__aeabi_memclr8
.Ltmp135:
	.loc	1 0 14 is_stmt 0                @ ../Device/HyperRAM/hyperram_code.c:0:14
	adr.w	r0, .LCPI3_0
.Ltmp136:
	@DEBUG_VALUE: HyperRAM_TrimDLLDelayNumber:u32DMMAddr <- -2113929216
	@DEBUG_VALUE: HyperRAM_TrimDLLDelayNumber:pu8VerfiyBuf <- [DW_OP_plus_uconst 144, DW_OP_stack_value] $sp
	@DEBUG_VALUE: HyperRAM_TrimDLLDelayNumber:pu8TrimPattern <- [DW_OP_plus_uconst 272, DW_OP_stack_value] $sp
	mov	r1, r8
	vldrw.u32	q0, [r0]
	vmov.i32	q2, #0xf
	vstrw.32	q2, [sp, #40]                   @ 16-byte Spill
	vmov.i32	q2, #0x1
	adr.w	r0, .LCPI3_1
	vldrw.u32	q1, [r0]
	movs	r0, #16
	adr.w	r2, .LCPI3_2
.Ltmp137:
	.loc	1 180 5 is_stmt 1               @ ../Device/HyperRAM/hyperram_code.c:180:5
	dls	lr, r0
	adr.w	r3, .LCPI3_3
	vstrw.32	q2, [sp, #24]                   @ 16-byte Spill
	vmov.i8	q2, #0xff
	vldrw.u32	q4, [r2]
	vldrw.u32	q6, [r3]
	vstrw.32	q2, [sp, #8]                    @ 16-byte Spill
.Ltmp138:
	.loc	1 0 5 is_stmt 0                 @ :0:5
.Ltmp139:
	.p2align	2
.LBB3_2:                                @ =>This Inner Loop Header: Depth=1
	@DEBUG_VALUE: HyperRAM_TrimDLLDelayNumber:pu8TrimPattern <- [DW_OP_plus_uconst 272, DW_OP_stack_value] $sp
	@DEBUG_VALUE: HyperRAM_TrimDLLDelayNumber:pu8VerfiyBuf <- [DW_OP_plus_uconst 144, DW_OP_stack_value] $sp
	@DEBUG_VALUE: HyperRAM_TrimDLLDelayNumber:u32DMMAddr <- -2113929216
	@DEBUG_VALUE: HyperRAM_TrimDLLDelayNumber:u32PatternSize <- 128
	@DEBUG_VALUE: HyperRAM_TrimDLLDelayNumber:u32LoopAddr <- 0
	@DEBUG_VALUE: HyperRAM_TrimDLLDelayNumber:u32Val <- 0
	@DEBUG_VALUE: HyperRAM_TrimDLLDelayNumber:u32i <- 0
	@DEBUG_VALUE: HyperRAM_TrimDLLDelayNumber:u32j <- 0
	@DEBUG_VALUE: HyperRAM_TrimDLLDelayNumber:u32k <- 0
	@DEBUG_VALUE: HyperRAM_TrimDLLDelayNumber:u32SrcAddr <- 0
	@DEBUG_VALUE: HyperRAM_TrimDLLDelayNumber:u32ReTrimCnt <- 0
	@DEBUG_VALUE: HyperRAM_TrimDLLDelayNumber:u32ReTrimMaxCnt <- 6
	@DEBUG_VALUE: HyperRAM_TrimDLLDelayNumber:u8RdDelay <- 0
	@DEBUG_VALUE: HyperRAM_TrimDLLDelayNumber:spim <- [DW_OP_plus_uconst 140] [$sp+0]
	vldrw.u32	q5, [sp, #40]           @ 16-byte Reload
.Ltmp140:
	.loc	1 182 24 is_stmt 1              @ ../Device/HyperRAM/hyperram_code.c:182:24
	vand	q2, q0, q5
	.loc	1 182 40 is_stmt 0              @ ../Device/HyperRAM/hyperram_code.c:182:40
	vshr.u32	q3, q0, #4
	.loc	1 182 32                        @ ../Device/HyperRAM/hyperram_code.c:182:32
	veor	q2, q2, q3
	vstrw.32	q2, [sp, #104]                  @ 16-byte Spill
	.loc	1 182 24                        @ ../Device/HyperRAM/hyperram_code.c:182:24
	vand	q2, q1, q5
	.loc	1 182 40                        @ ../Device/HyperRAM/hyperram_code.c:182:40
	vshr.u32	q3, q1, #4
	.loc	1 182 32                        @ ../Device/HyperRAM/hyperram_code.c:182:32
	veor	q3, q2, q3
	.loc	1 182 24                        @ ../Device/HyperRAM/hyperram_code.c:182:24
	vand	q2, q6, q5
	.loc	1 182 40                        @ ../Device/HyperRAM/hyperram_code.c:182:40
	vshr.u32	q7, q6, #4
	.loc	1 182 32                        @ ../Device/HyperRAM/hyperram_code.c:182:32
	veor	q2, q2, q7
	.loc	1 182 24                        @ ../Device/HyperRAM/hyperram_code.c:182:24
	vand	q7, q4, q5
	.loc	1 182 40                        @ ../Device/HyperRAM/hyperram_code.c:182:40
	vshr.u32	q5, q4, #4
	.loc	1 182 32                        @ ../Device/HyperRAM/hyperram_code.c:182:32
	veor	q5, q7, q5
	.loc	1 182 54                        @ ../Device/HyperRAM/hyperram_code.c:182:54
	vshr.u32	q7, q4, #3
	.loc	1 182 46                        @ ../Device/HyperRAM/hyperram_code.c:182:46
	veor	q5, q5, q7
	vstrw.32	q5, [sp, #120]                  @ 16-byte Spill
	.loc	1 182 54                        @ ../Device/HyperRAM/hyperram_code.c:182:54
	vshr.u32	q5, q6, #3
	.loc	1 182 46                        @ ../Device/HyperRAM/hyperram_code.c:182:46
	vldrw.u32	q7, [sp, #104]          @ 16-byte Reload
	veor	q2, q2, q5
	.loc	1 182 54                        @ ../Device/HyperRAM/hyperram_code.c:182:54
	vshr.u32	q5, q1, #3
	.loc	1 182 46                        @ ../Device/HyperRAM/hyperram_code.c:182:46
	veor	q3, q3, q5
	.loc	1 182 54                        @ ../Device/HyperRAM/hyperram_code.c:182:54
	vshr.u32	q5, q0, #3
	.loc	1 182 46                        @ ../Device/HyperRAM/hyperram_code.c:182:46
	veor	q5, q7, q5
	.loc	1 189 58 is_stmt 1              @ ../Device/HyperRAM/hyperram_code.c:189:58
	vshl.i32	q7, q0, #3
	.loc	1 189 32 is_stmt 0              @ ../Device/HyperRAM/hyperram_code.c:189:32
	veor	q5, q5, q7
	vstrw.32	q5, [sp, #88]                   @ 16-byte Spill
	.loc	1 189 58                        @ ../Device/HyperRAM/hyperram_code.c:189:58
	vshl.i32	q7, q1, #3
	.loc	1 189 32                        @ ../Device/HyperRAM/hyperram_code.c:189:32
	vldrw.u32	q5, [sp, #120]          @ 16-byte Reload
	veor	q7, q3, q7
	.loc	1 189 58                        @ ../Device/HyperRAM/hyperram_code.c:189:58
	vshl.i32	q3, q6, #3
	.loc	1 189 32                        @ ../Device/HyperRAM/hyperram_code.c:189:32
	veor	q2, q2, q3
	.loc	1 189 58                        @ ../Device/HyperRAM/hyperram_code.c:189:58
	vshl.i32	q3, q4, #3
	.loc	1 189 32                        @ ../Device/HyperRAM/hyperram_code.c:189:32
	veor	q3, q5, q3
	.loc	1 189 72                        @ ../Device/HyperRAM/hyperram_code.c:189:72
	vshr.u32	q5, q4, #2
	.loc	1 189 32                        @ ../Device/HyperRAM/hyperram_code.c:189:32
	veor	q3, q3, q5
	vstrw.32	q3, [sp, #104]                  @ 16-byte Spill
	.loc	1 189 72                        @ ../Device/HyperRAM/hyperram_code.c:189:72
	vshr.u32	q5, q6, #2
	.loc	1 189 32                        @ ../Device/HyperRAM/hyperram_code.c:189:32
	vldrw.u32	q3, [sp, #88]           @ 16-byte Reload
	veor	q2, q2, q5
	vstrw.32	q2, [sp, #72]                   @ 16-byte Spill
	.loc	1 189 72                        @ ../Device/HyperRAM/hyperram_code.c:189:72
	vshr.u32	q2, q1, #2
	.loc	1 189 32                        @ ../Device/HyperRAM/hyperram_code.c:189:32
	veor	q2, q7, q2
	vstrw.32	q2, [sp, #56]                   @ 16-byte Spill
	.loc	1 189 72                        @ ../Device/HyperRAM/hyperram_code.c:189:72
	vshr.u32	q2, q0, #2
	vmov	q5, q1
	vmov	q1, q0
	vldrw.u32	q0, [sp, #24]           @ 16-byte Reload
	.loc	1 189 32                        @ ../Device/HyperRAM/hyperram_code.c:189:32
	veor	q7, q3, q2
	.loc	1 184 13 is_stmt 1              @ ../Device/HyperRAM/hyperram_code.c:184:13
	vand	q3, q1, q0
	vmov	q2, q4
	vldrw.u32	q4, [sp, #8]            @ 16-byte Reload
	.loc	1 189 32                        @ ../Device/HyperRAM/hyperram_code.c:189:32
	vadd.i32	q3, q3, q4
	veor	q3, q7, q3
	vstrw.32	q3, [sp, #120]                  @ 16-byte Spill
	.loc	1 184 13                        @ ../Device/HyperRAM/hyperram_code.c:184:13
	vand	q3, q5, q0
	.loc	1 189 32                        @ ../Device/HyperRAM/hyperram_code.c:189:32
	vldrw.u32	q7, [sp, #56]           @ 16-byte Reload
	vadd.i32	q3, q3, q4
	veor	q3, q7, q3
	vstrw.32	q3, [sp, #88]                   @ 16-byte Spill
	.loc	1 184 13                        @ ../Device/HyperRAM/hyperram_code.c:184:13
	vand	q7, q6, q0
	.loc	1 189 32                        @ ../Device/HyperRAM/hyperram_code.c:189:32
	vldrw.u32	q3, [sp, #72]           @ 16-byte Reload
	vadd.i32	q7, q7, q4
	veor	q3, q3, q7
	.loc	1 184 13                        @ ../Device/HyperRAM/hyperram_code.c:184:13
	vand	q7, q2, q0
	.loc	1 189 32                        @ ../Device/HyperRAM/hyperram_code.c:189:32
	vadd.i32	q7, q7, q4
	vmov	q4, q2
	vldrw.u32	q2, [sp, #104]          @ 16-byte Reload
	veor	q7, q2, q7
	.loc	1 189 30 is_stmt 0              @ ../Device/HyperRAM/hyperram_code.c:189:30
	vstrb.32	q7, [r1, #4]
	vmov	q0, q1
	vstrb.32	q3, [r1], #16
	vadd.i32	q6, q6, r0
	vldrw.u32	q2, [sp, #88]           @ 16-byte Reload
	vadd.i32	q4, q4, r0
	vstrb.32	q2, [r1, #-8]
	vadd.i32	q1, q5, r0
	vldrw.u32	q2, [sp, #120]          @ 16-byte Reload
	vadd.i32	q0, q0, r0
	vstrb.32	q2, [r1, #-4]
.Ltmp141:
	.loc	1 180 56 is_stmt 1              @ ../Device/HyperRAM/hyperram_code.c:180:56
	le	lr, .LBB3_2
.Ltmp142:
@ %bb.3:
	@DEBUG_VALUE: HyperRAM_TrimDLLDelayNumber:pu8TrimPattern <- [DW_OP_plus_uconst 272, DW_OP_stack_value] $sp
	@DEBUG_VALUE: HyperRAM_TrimDLLDelayNumber:pu8VerfiyBuf <- [DW_OP_plus_uconst 144, DW_OP_stack_value] $sp
	@DEBUG_VALUE: HyperRAM_TrimDLLDelayNumber:u32DMMAddr <- -2113929216
	@DEBUG_VALUE: HyperRAM_TrimDLLDelayNumber:u32PatternSize <- 128
	@DEBUG_VALUE: HyperRAM_TrimDLLDelayNumber:u32LoopAddr <- 0
	@DEBUG_VALUE: HyperRAM_TrimDLLDelayNumber:u32Val <- 0
	@DEBUG_VALUE: HyperRAM_TrimDLLDelayNumber:u32i <- 0
	@DEBUG_VALUE: HyperRAM_TrimDLLDelayNumber:u32j <- 0
	@DEBUG_VALUE: HyperRAM_TrimDLLDelayNumber:u32k <- 0
	@DEBUG_VALUE: HyperRAM_TrimDLLDelayNumber:u32SrcAddr <- 0
	@DEBUG_VALUE: HyperRAM_TrimDLLDelayNumber:u32ReTrimCnt <- 0
	@DEBUG_VALUE: HyperRAM_TrimDLLDelayNumber:u32ReTrimMaxCnt <- 6
	@DEBUG_VALUE: HyperRAM_TrimDLLDelayNumber:u8RdDelay <- 0
	@DEBUG_VALUE: HyperRAM_TrimDLLDelayNumber:spim <- [DW_OP_plus_uconst 140] [$sp+0]
	.loc	1 192 5                         @ ../Device/HyperRAM/hyperram_code.c:192:5
	ldr	r0, [sp, #140]                  @ 4-byte Reload
	movw	r5, #61276
	mov	r2, r8
	movs	r1, #0
	mov.w	r3, #256
	movt	r5, #57344
	movs	r7, #0
	bl	SPIM_HYPER_DMAWrite
.Ltmp143:
	@DEBUG_VALUE: HyperRAM_TrimDLLDelayNumber:u32ReTrimCnt <- 0
	@DEBUG_VALUE: HyperRAM_TrimDLLDelayNumber:u32i <- undef
	.loc	1 0 5 is_stmt 0                 @ ../Device/HyperRAM/hyperram_code.c:0:5
	b	.LBB3_5
.Ltmp144:
	.p2align	2
.LBB3_4:                                @   in Loop: Header=BB3_5 Depth=1
	@DEBUG_VALUE: HyperRAM_TrimDLLDelayNumber:u32k <- $r9
	@DEBUG_VALUE: HyperRAM_TrimDLLDelayNumber:u32PatternSize <- [DW_OP_plus_uconst 120] [$sp+0]
	@DEBUG_VALUE: HyperRAM_TrimDLLDelayNumber:u8RdDelay <- $r4
	@DEBUG_VALUE: HyperRAM_TrimDLLDelayNumber:u32ReTrimCnt <- $r7
	@DEBUG_VALUE: HyperRAM_TrimDLLDelayNumber:pu8TrimPattern <- [DW_OP_plus_uconst 272, DW_OP_stack_value] $sp
	@DEBUG_VALUE: HyperRAM_TrimDLLDelayNumber:pu8VerfiyBuf <- [DW_OP_plus_uconst 144, DW_OP_stack_value] $sp
	@DEBUG_VALUE: HyperRAM_TrimDLLDelayNumber:u32DMMAddr <- -2113929216
	@DEBUG_VALUE: HyperRAM_TrimDLLDelayNumber:u32Val <- 0
	@DEBUG_VALUE: HyperRAM_TrimDLLDelayNumber:u32j <- 0
	@DEBUG_VALUE: HyperRAM_TrimDLLDelayNumber:u32SrcAddr <- 0
	@DEBUG_VALUE: HyperRAM_TrimDLLDelayNumber:u32ReTrimMaxCnt <- 6
	@DEBUG_VALUE: HyperRAM_TrimDLLDelayNumber:spim <- [DW_OP_plus_uconst 140] [$sp+0]
	.loc	1 194 72 is_stmt 1              @ ../Device/HyperRAM/hyperram_code.c:194:72
	adds	r7, #1
.Ltmp145:
	@DEBUG_VALUE: HyperRAM_TrimDLLDelayNumber:u32ReTrimCnt <- $r7
	@DEBUG_VALUE: HyperRAM_TrimDLLDelayNumber:u32i <- undef
	.loc	1 194 5 is_stmt 0               @ ../Device/HyperRAM/hyperram_code.c:194:5
	cmp	r7, #6
	beq.w	.LBB3_13
.Ltmp146:
.LBB3_5:                                @ =>This Loop Header: Depth=1
                                        @     Child Loop BB3_7 Depth 2
                                        @       Child Loop BB3_8 Depth 3
	@DEBUG_VALUE: HyperRAM_TrimDLLDelayNumber:pu8TrimPattern <- [DW_OP_plus_uconst 272, DW_OP_stack_value] $sp
	@DEBUG_VALUE: HyperRAM_TrimDLLDelayNumber:pu8VerfiyBuf <- [DW_OP_plus_uconst 144, DW_OP_stack_value] $sp
	@DEBUG_VALUE: HyperRAM_TrimDLLDelayNumber:u32DMMAddr <- -2113929216
	@DEBUG_VALUE: HyperRAM_TrimDLLDelayNumber:u32Val <- 0
	@DEBUG_VALUE: HyperRAM_TrimDLLDelayNumber:u32j <- 0
	@DEBUG_VALUE: HyperRAM_TrimDLLDelayNumber:u32SrcAddr <- 0
	@DEBUG_VALUE: HyperRAM_TrimDLLDelayNumber:u32ReTrimMaxCnt <- 6
	@DEBUG_VALUE: HyperRAM_TrimDLLDelayNumber:spim <- [DW_OP_plus_uconst 140] [$sp+0]
	@DEBUG_VALUE: HyperRAM_TrimDLLDelayNumber:u8RdDelay <- 0
	@DEBUG_VALUE: HyperRAM_TrimDLLDelayNumber:u32i <- undef
	@DEBUG_VALUE: HyperRAM_TrimDLLDelayNumber:u32ReTrimCnt <- $r7
	.loc	1 0 5                           @ ../Device/HyperRAM/hyperram_code.c:0:5
	subs.w	r11, r7, #1
	mov.w	r0, #8
	it	ne
	movne.w	r11, #-2113929216
	cmp	r7, #2
	it	hi
	movhi	r0, #16
	str	r0, [sp, #8]                    @ 4-byte Spill
	orr	r0, r11, #64
	movs	r4, #0
	str	r0, [sp, #104]                  @ 4-byte Spill
	orr	r0, r11, #96
	str	r0, [sp, #88]                   @ 4-byte Spill
	orr	r0, r11, #128
	str	r0, [sp, #72]                   @ 4-byte Spill
	orr	r0, r11, #160
	str	r0, [sp, #56]                   @ 4-byte Spill
	orr	r0, r11, #192
	orr	r10, r11, #32
	str	r0, [sp, #40]                   @ 4-byte Spill
	orr	r0, r11, #224
	str	r0, [sp, #24]                   @ 4-byte Spill
	b	.LBB3_7
.Ltmp147:
	.p2align	2
.LBB3_6:                                @   in Loop: Header=BB3_7 Depth=2
	@DEBUG_VALUE: HyperRAM_TrimDLLDelayNumber:u32k <- $r9
	@DEBUG_VALUE: HyperRAM_TrimDLLDelayNumber:u32LoopAddr <- $r4
	@DEBUG_VALUE: HyperRAM_TrimDLLDelayNumber:u32PatternSize <- [DW_OP_plus_uconst 120] [$sp+0]
	@DEBUG_VALUE: HyperRAM_TrimDLLDelayNumber:u8RdDelay <- [DW_OP_plus_uconst 4] [$sp+0]
	@DEBUG_VALUE: HyperRAM_TrimDLLDelayNumber:u32ReTrimCnt <- $r7
	@DEBUG_VALUE: HyperRAM_TrimDLLDelayNumber:pu8TrimPattern <- [DW_OP_plus_uconst 272, DW_OP_stack_value] $sp
	@DEBUG_VALUE: HyperRAM_TrimDLLDelayNumber:pu8VerfiyBuf <- [DW_OP_plus_uconst 144, DW_OP_stack_value] $sp
	@DEBUG_VALUE: HyperRAM_TrimDLLDelayNumber:u32DMMAddr <- -2113929216
	@DEBUG_VALUE: HyperRAM_TrimDLLDelayNumber:u32Val <- 0
	@DEBUG_VALUE: HyperRAM_TrimDLLDelayNumber:u32j <- 0
	@DEBUG_VALUE: HyperRAM_TrimDLLDelayNumber:u32SrcAddr <- 0
	@DEBUG_VALUE: HyperRAM_TrimDLLDelayNumber:u32ReTrimMaxCnt <- 6
	@DEBUG_VALUE: HyperRAM_TrimDLLDelayNumber:spim <- [DW_OP_plus_uconst 140] [$sp+0]
	@DEBUG_VALUE: HyperRAM_TrimDLLDelayNumber:u32i <- undef
	ldr	r4, [sp, #4]                    @ 4-byte Reload
.Ltmp148:
	add	r2, sp, #528
.Ltmp149:
	.loc	1 240 37 is_stmt 1              @ ../Device/HyperRAM/hyperram_code.c:240:37
	cmp	r0, #0
	ldrb	r1, [r2, r4]
	cinc	r0, r1, eq
	strb	r0, [r2, r4]
.Ltmp150:
	.loc	1 196 74                        @ ../Device/HyperRAM/hyperram_code.c:196:74
	adds	r4, #1
.Ltmp151:
	@DEBUG_VALUE: HyperRAM_TrimDLLDelayNumber:u8RdDelay <- $r4
	.loc	1 196 9 is_stmt 0               @ ../Device/HyperRAM/hyperram_code.c:196:9
	cmp	r4, #32
	beq	.LBB3_4
.Ltmp152:
.LBB3_7:                                @   Parent Loop BB3_5 Depth=1
                                        @ =>  This Loop Header: Depth=2
                                        @       Child Loop BB3_8 Depth 3
	@DEBUG_VALUE: HyperRAM_TrimDLLDelayNumber:u32ReTrimCnt <- $r7
	@DEBUG_VALUE: HyperRAM_TrimDLLDelayNumber:pu8TrimPattern <- [DW_OP_plus_uconst 272, DW_OP_stack_value] $sp
	@DEBUG_VALUE: HyperRAM_TrimDLLDelayNumber:pu8VerfiyBuf <- [DW_OP_plus_uconst 144, DW_OP_stack_value] $sp
	@DEBUG_VALUE: HyperRAM_TrimDLLDelayNumber:u32DMMAddr <- -2113929216
	@DEBUG_VALUE: HyperRAM_TrimDLLDelayNumber:u32Val <- 0
	@DEBUG_VALUE: HyperRAM_TrimDLLDelayNumber:u32j <- 0
	@DEBUG_VALUE: HyperRAM_TrimDLLDelayNumber:u32SrcAddr <- 0
	@DEBUG_VALUE: HyperRAM_TrimDLLDelayNumber:u32ReTrimMaxCnt <- 6
	@DEBUG_VALUE: HyperRAM_TrimDLLDelayNumber:spim <- [DW_OP_plus_uconst 140] [$sp+0]
	@DEBUG_VALUE: HyperRAM_TrimDLLDelayNumber:u8RdDelay <- $r4
	.loc	1 199 13 is_stmt 1              @ ../Device/HyperRAM/hyperram_code.c:199:13
	ldr	r0, [sp, #140]                  @ 4-byte Reload
	mov	r1, r4
	bl	SPIM_HYPER_SetDLLDelayNum
.Ltmp153:
	.loc	1 0 13 is_stmt 0                @ ../Device/HyperRAM/hyperram_code.c:0:13
	add	r6, sp, #144
	.loc	1 201 13 is_stmt 1              @ ../Device/HyperRAM/hyperram_code.c:201:13
	movs	r1, #128
	mov	r0, r6
	bl	__aeabi_memclr8
.Ltmp154:
	.loc	1 205 17                        @ ../Device/HyperRAM/hyperram_code.c:205:17
	cmp	r4, #0
	mov.w	r0, #128
	str	r4, [sp, #4]                    @ 4-byte Spill
.Ltmp155:
	@DEBUG_VALUE: HyperRAM_TrimDLLDelayNumber:u8RdDelay <- [DW_OP_plus_uconst 4] [$sp+0]
	@DEBUG_VALUE: HyperRAM_TrimDLLDelayNumber:u8RdDelay <- [DW_OP_plus_uconst 4] [$sp+0]
	@DEBUG_VALUE: HyperRAM_TrimDLLDelayNumber:u8RdDelay <- [DW_OP_plus_uconst 4] [$sp+0]
	it	eq
	moveq	r0, #120
	cmp	r7, #1
	mov.w	r1, #128
	csel	r0, r0, r1, hi
.Ltmp156:
	@DEBUG_VALUE: HyperRAM_TrimDLLDelayNumber:u32PatternSize <- $r0
	.loc	1 0 17 is_stmt 0                @ ../Device/HyperRAM/hyperram_code.c:0:17
	movs	r4, #0
.Ltmp157:
	@DEBUG_VALUE: HyperRAM_TrimDLLDelayNumber:u32k <- 0
	@DEBUG_VALUE: HyperRAM_TrimDLLDelayNumber:u32i <- undef
	@DEBUG_VALUE: HyperRAM_TrimDLLDelayNumber:u32LoopAddr <- 0
	mov.w	r9, #0
	str	r0, [sp, #120]                  @ 4-byte Spill
.Ltmp158:
	@DEBUG_VALUE: HyperRAM_TrimDLLDelayNumber:u32PatternSize <- [DW_OP_plus_uconst 120] [$sp+0]
	@DEBUG_VALUE: HyperRAM_TrimDLLDelayNumber:u32PatternSize <- [DW_OP_plus_uconst 120] [$sp+0]
	@DEBUG_VALUE: HyperRAM_TrimDLLDelayNumber:u32PatternSize <- [DW_OP_plus_uconst 120] [$sp+0]
	.p2align	2
.LBB3_8:                                @   Parent Loop BB3_5 Depth=1
                                        @     Parent Loop BB3_7 Depth=2
                                        @ =>    This Inner Loop Header: Depth=3
	@DEBUG_VALUE: HyperRAM_TrimDLLDelayNumber:u32PatternSize <- [DW_OP_plus_uconst 120] [$sp+0]
	@DEBUG_VALUE: HyperRAM_TrimDLLDelayNumber:u8RdDelay <- [DW_OP_plus_uconst 4] [$sp+0]
	@DEBUG_VALUE: HyperRAM_TrimDLLDelayNumber:u32ReTrimCnt <- $r7
	@DEBUG_VALUE: HyperRAM_TrimDLLDelayNumber:pu8TrimPattern <- [DW_OP_plus_uconst 272, DW_OP_stack_value] $sp
	@DEBUG_VALUE: HyperRAM_TrimDLLDelayNumber:pu8VerfiyBuf <- [DW_OP_plus_uconst 144, DW_OP_stack_value] $sp
	@DEBUG_VALUE: HyperRAM_TrimDLLDelayNumber:u32DMMAddr <- -2113929216
	@DEBUG_VALUE: HyperRAM_TrimDLLDelayNumber:u32Val <- 0
	@DEBUG_VALUE: HyperRAM_TrimDLLDelayNumber:u32j <- 0
	@DEBUG_VALUE: HyperRAM_TrimDLLDelayNumber:u32SrcAddr <- 0
	@DEBUG_VALUE: HyperRAM_TrimDLLDelayNumber:u32ReTrimMaxCnt <- 6
	@DEBUG_VALUE: HyperRAM_TrimDLLDelayNumber:spim <- [DW_OP_plus_uconst 140] [$sp+0]
	@DEBUG_VALUE: HyperRAM_TrimDLLDelayNumber:u32LoopAddr <- $r4
	@DEBUG_VALUE: HyperRAM_TrimDLLDelayNumber:u32k <- $r9
	@DEBUG_VALUE: SCB_InvalidateDCache_by_Addr:addr <- $r11
	@DEBUG_VALUE: SCB_InvalidateDCache_by_Addr:dsize <- 256
	@DEBUG_VALUE: op_size <- 256
	@DEBUG_VALUE: op_addr <- $r11
	.file	8 "C:\\Users\\jimmy\\Desktop\\Nuvoton\\Nuvoton-Team\\repos\\m55m1-ElevatorCounting-YOLOv8n\\KEIL" "../../../../Library/CMSIS/Core/Include\\m-profile/armv7m_cachel1.h"
	.loc	8 363 7 is_stmt 1               @ ../../../../Library/CMSIS/Core/Include\m-profile/armv7m_cachel1.h:363:7
	dsb	sy
.Ltmp159:
	.loc	8 366 22                        @ ../../../../Library/CMSIS/Core/Include\m-profile/armv7m_cachel1.h:366:22
	str.w	r11, [r5]
.Ltmp160:
	@DEBUG_VALUE: op_addr <- $r10
	@DEBUG_VALUE: op_size <- 224
	str.w	r10, [r5]
.Ltmp161:
	@DEBUG_VALUE: op_addr <- [DW_OP_plus_uconst 104] [$sp+0]
	@DEBUG_VALUE: op_size <- 192
	ldr	r0, [sp, #104]                  @ 4-byte Reload
.Ltmp162:
	@DEBUG_VALUE: op_addr <- $r0
	.loc	1 218 21                        @ ../Device/HyperRAM/hyperram_code.c:218:21
	cmp	r7, #1
.Ltmp163:
	.loc	8 366 22                        @ ../../../../Library/CMSIS/Core/Include\m-profile/armv7m_cachel1.h:366:22
	str	r0, [r5]
.Ltmp164:
	@DEBUG_VALUE: op_addr <- [DW_OP_plus_uconst 88] [$sp+0]
	@DEBUG_VALUE: op_size <- 160
	ldr	r0, [sp, #88]                   @ 4-byte Reload
.Ltmp165:
	@DEBUG_VALUE: op_addr <- $r0
	str	r0, [r5]
.Ltmp166:
	@DEBUG_VALUE: op_addr <- [DW_OP_plus_uconst 72] [$sp+0]
	@DEBUG_VALUE: op_size <- 128
	ldr	r0, [sp, #72]                   @ 4-byte Reload
.Ltmp167:
	@DEBUG_VALUE: op_addr <- $r0
	str	r0, [r5]
.Ltmp168:
	@DEBUG_VALUE: op_addr <- [DW_OP_plus_uconst 56] [$sp+0]
	@DEBUG_VALUE: op_size <- 96
	ldr	r0, [sp, #56]                   @ 4-byte Reload
.Ltmp169:
	@DEBUG_VALUE: op_addr <- $r0
	str	r0, [r5]
.Ltmp170:
	@DEBUG_VALUE: op_addr <- [DW_OP_plus_uconst 40] [$sp+0]
	@DEBUG_VALUE: op_size <- 64
	ldr	r0, [sp, #40]                   @ 4-byte Reload
.Ltmp171:
	@DEBUG_VALUE: op_addr <- $r0
	str	r0, [r5]
.Ltmp172:
	@DEBUG_VALUE: op_addr <- [DW_OP_plus_uconst 24] [$sp+0]
	@DEBUG_VALUE: op_size <- 32
	ldr	r0, [sp, #24]                   @ 4-byte Reload
.Ltmp173:
	@DEBUG_VALUE: op_addr <- $r0
	str	r0, [r5]
.Ltmp174:
	@DEBUG_VALUE: op_addr <- [DW_OP_plus_uconst 256, DW_OP_stack_value] $r11
	@DEBUG_VALUE: op_size <- 0
	.loc	8 371 7                         @ ../../../../Library/CMSIS/Core/Include\m-profile/armv7m_cachel1.h:371:7
	dsb	sy
	.loc	8 372 7                         @ ../../../../Library/CMSIS/Core/Include\m-profile/armv7m_cachel1.h:372:7
	isb	sy
.Ltmp175:
	.loc	1 218 21                        @ ../Device/HyperRAM/hyperram_code.c:218:21
	bne	.LBB3_10
.Ltmp176:
@ %bb.9:                                @   in Loop: Header=BB3_8 Depth=3
	@DEBUG_VALUE: HyperRAM_TrimDLLDelayNumber:u32k <- $r9
	@DEBUG_VALUE: HyperRAM_TrimDLLDelayNumber:u32LoopAddr <- $r4
	@DEBUG_VALUE: HyperRAM_TrimDLLDelayNumber:u32PatternSize <- [DW_OP_plus_uconst 120] [$sp+0]
	@DEBUG_VALUE: HyperRAM_TrimDLLDelayNumber:u8RdDelay <- [DW_OP_plus_uconst 4] [$sp+0]
	@DEBUG_VALUE: HyperRAM_TrimDLLDelayNumber:u32ReTrimCnt <- $r7
	@DEBUG_VALUE: HyperRAM_TrimDLLDelayNumber:pu8TrimPattern <- [DW_OP_plus_uconst 272, DW_OP_stack_value] $sp
	@DEBUG_VALUE: HyperRAM_TrimDLLDelayNumber:pu8VerfiyBuf <- [DW_OP_plus_uconst 144, DW_OP_stack_value] $sp
	@DEBUG_VALUE: HyperRAM_TrimDLLDelayNumber:u32DMMAddr <- -2113929216
	@DEBUG_VALUE: HyperRAM_TrimDLLDelayNumber:u32Val <- 0
	@DEBUG_VALUE: HyperRAM_TrimDLLDelayNumber:u32j <- 0
	@DEBUG_VALUE: HyperRAM_TrimDLLDelayNumber:u32SrcAddr <- 0
	@DEBUG_VALUE: HyperRAM_TrimDLLDelayNumber:u32ReTrimMaxCnt <- 6
	@DEBUG_VALUE: HyperRAM_TrimDLLDelayNumber:spim <- [DW_OP_plus_uconst 140] [$sp+0]
	.loc	1 220 21                        @ ../Device/HyperRAM/hyperram_code.c:220:21
	ldr	r0, [sp, #140]                  @ 4-byte Reload
	mov	r1, r4
	mov	r2, r6
	movs	r3, #8
	bl	SPIM_HYPER_DMARead
.Ltmp177:
	.loc	1 221 17                        @ ../Device/HyperRAM/hyperram_code.c:221:17
	b	.LBB3_11
.Ltmp178:
	.loc	1 0 17 is_stmt 0                @ :0:17
.Ltmp179:
	.p2align	2
.LBB3_10:                               @   in Loop: Header=BB3_8 Depth=3
	@DEBUG_VALUE: HyperRAM_TrimDLLDelayNumber:u32k <- $r9
	@DEBUG_VALUE: HyperRAM_TrimDLLDelayNumber:u32LoopAddr <- $r4
	@DEBUG_VALUE: HyperRAM_TrimDLLDelayNumber:u32PatternSize <- [DW_OP_plus_uconst 120] [$sp+0]
	@DEBUG_VALUE: HyperRAM_TrimDLLDelayNumber:u8RdDelay <- [DW_OP_plus_uconst 4] [$sp+0]
	@DEBUG_VALUE: HyperRAM_TrimDLLDelayNumber:u32ReTrimCnt <- $r7
	@DEBUG_VALUE: HyperRAM_TrimDLLDelayNumber:pu8TrimPattern <- [DW_OP_plus_uconst 272, DW_OP_stack_value] $sp
	@DEBUG_VALUE: HyperRAM_TrimDLLDelayNumber:pu8VerfiyBuf <- [DW_OP_plus_uconst 144, DW_OP_stack_value] $sp
	@DEBUG_VALUE: HyperRAM_TrimDLLDelayNumber:u32DMMAddr <- -2113929216
	@DEBUG_VALUE: HyperRAM_TrimDLLDelayNumber:u32Val <- 0
	@DEBUG_VALUE: HyperRAM_TrimDLLDelayNumber:u32j <- 0
	@DEBUG_VALUE: HyperRAM_TrimDLLDelayNumber:u32SrcAddr <- 0
	@DEBUG_VALUE: HyperRAM_TrimDLLDelayNumber:u32ReTrimMaxCnt <- 6
	@DEBUG_VALUE: HyperRAM_TrimDLLDelayNumber:spim <- [DW_OP_plus_uconst 140] [$sp+0]
	mov	r5, r10
	mov	r10, r11
	mov	r11, r8
	ldr.w	r8, [sp, #140]                  @ 4-byte Reload
.Ltmp180:
	.loc	1 224 21 is_stmt 1              @ ../Device/HyperRAM/hyperram_code.c:224:21
	mov	r0, r8
	bl	SPIM_HYPER_EnterDirectMapMode
.Ltmp181:
	.loc	1 227 66                        @ ../Device/HyperRAM/hyperram_code.c:227:66
	add.w	r0, r4, #-2113929216
	.loc	1 227 65 is_stmt 0              @ ../Device/HyperRAM/hyperram_code.c:227:65
	ldrd	r0, r1, [r0]
	.loc	1 227 63                        @ ../Device/HyperRAM/hyperram_code.c:227:63
	strd	r0, r1, [r6]
	.loc	1 229 21 is_stmt 1              @ ../Device/HyperRAM/hyperram_code.c:229:21
	mov	r0, r8
	mov	r8, r11
	mov	r11, r10
	mov	r10, r5
	movw	r5, #61276
	movt	r5, #57344
	bl	SPIM_HYPER_ExitDirectMapMode
.Ltmp182:
.LBB3_11:                               @   in Loop: Header=BB3_8 Depth=3
	@DEBUG_VALUE: HyperRAM_TrimDLLDelayNumber:u32k <- $r9
	@DEBUG_VALUE: HyperRAM_TrimDLLDelayNumber:u32LoopAddr <- $r4
	@DEBUG_VALUE: HyperRAM_TrimDLLDelayNumber:u32PatternSize <- [DW_OP_plus_uconst 120] [$sp+0]
	@DEBUG_VALUE: HyperRAM_TrimDLLDelayNumber:u8RdDelay <- [DW_OP_plus_uconst 4] [$sp+0]
	@DEBUG_VALUE: HyperRAM_TrimDLLDelayNumber:u32ReTrimCnt <- $r7
	@DEBUG_VALUE: HyperRAM_TrimDLLDelayNumber:pu8TrimPattern <- [DW_OP_plus_uconst 272, DW_OP_stack_value] $sp
	@DEBUG_VALUE: HyperRAM_TrimDLLDelayNumber:pu8VerfiyBuf <- [DW_OP_plus_uconst 144, DW_OP_stack_value] $sp
	@DEBUG_VALUE: HyperRAM_TrimDLLDelayNumber:u32DMMAddr <- -2113929216
	@DEBUG_VALUE: HyperRAM_TrimDLLDelayNumber:u32Val <- 0
	@DEBUG_VALUE: HyperRAM_TrimDLLDelayNumber:u32j <- 0
	@DEBUG_VALUE: HyperRAM_TrimDLLDelayNumber:u32SrcAddr <- 0
	@DEBUG_VALUE: HyperRAM_TrimDLLDelayNumber:u32ReTrimMaxCnt <- 6
	@DEBUG_VALUE: HyperRAM_TrimDLLDelayNumber:spim <- [DW_OP_plus_uconst 140] [$sp+0]
	.loc	1 232 37                        @ ../Device/HyperRAM/hyperram_code.c:232:37
	add.w	r0, r8, r4
	.loc	1 232 29 is_stmt 0              @ ../Device/HyperRAM/hyperram_code.c:232:29
	mov	r1, r6
	movs	r2, #8
	bl	memcmp
.Ltmp183:
	@DEBUG_VALUE: HyperRAM_TrimDLLDelayNumber:u32i <- $r0
	.loc	1 232 21                        @ ../Device/HyperRAM/hyperram_code.c:232:21
	cmp	r0, #0
	bne	.LBB3_6
.Ltmp184:
@ %bb.12:                               @   in Loop: Header=BB3_8 Depth=3
	@DEBUG_VALUE: HyperRAM_TrimDLLDelayNumber:u32i <- $r0
	@DEBUG_VALUE: HyperRAM_TrimDLLDelayNumber:u32k <- $r9
	@DEBUG_VALUE: HyperRAM_TrimDLLDelayNumber:u32LoopAddr <- $r4
	@DEBUG_VALUE: HyperRAM_TrimDLLDelayNumber:u32PatternSize <- [DW_OP_plus_uconst 120] [$sp+0]
	@DEBUG_VALUE: HyperRAM_TrimDLLDelayNumber:u8RdDelay <- [DW_OP_plus_uconst 4] [$sp+0]
	@DEBUG_VALUE: HyperRAM_TrimDLLDelayNumber:u32ReTrimCnt <- $r7
	@DEBUG_VALUE: HyperRAM_TrimDLLDelayNumber:pu8TrimPattern <- [DW_OP_plus_uconst 272, DW_OP_stack_value] $sp
	@DEBUG_VALUE: HyperRAM_TrimDLLDelayNumber:pu8VerfiyBuf <- [DW_OP_plus_uconst 144, DW_OP_stack_value] $sp
	@DEBUG_VALUE: HyperRAM_TrimDLLDelayNumber:u32DMMAddr <- -2113929216
	@DEBUG_VALUE: HyperRAM_TrimDLLDelayNumber:u32Val <- 0
	@DEBUG_VALUE: HyperRAM_TrimDLLDelayNumber:u32j <- 0
	@DEBUG_VALUE: HyperRAM_TrimDLLDelayNumber:u32SrcAddr <- 0
	@DEBUG_VALUE: HyperRAM_TrimDLLDelayNumber:u32ReTrimMaxCnt <- 6
	@DEBUG_VALUE: HyperRAM_TrimDLLDelayNumber:spim <- [DW_OP_plus_uconst 140] [$sp+0]
	.loc	1 212 13 is_stmt 1              @ ../Device/HyperRAM/hyperram_code.c:212:13
	ldr	r1, [sp, #120]                  @ 4-byte Reload
.Ltmp185:
	.loc	1 212 56 is_stmt 0              @ ../Device/HyperRAM/hyperram_code.c:212:56
	add.w	r9, r9, #8
.Ltmp186:
	@DEBUG_VALUE: HyperRAM_TrimDLLDelayNumber:u32k <- $r9
	@DEBUG_VALUE: HyperRAM_TrimDLLDelayNumber:u32i <- 0
	.loc	1 212 33                        @ ../Device/HyperRAM/hyperram_code.c:212:33
	adds	r6, #8
.Ltmp187:
	.loc	1 212 13                        @ ../Device/HyperRAM/hyperram_code.c:212:13
	cmp	r9, r1
.Ltmp188:
	.loc	1 237 29 is_stmt 1              @ ../Device/HyperRAM/hyperram_code.c:237:29
	ldr	r1, [sp, #8]                    @ 4-byte Reload
	add	r4, r1
.Ltmp189:
	@DEBUG_VALUE: HyperRAM_TrimDLLDelayNumber:u32LoopAddr <- $r4
	.loc	1 212 13                        @ ../Device/HyperRAM/hyperram_code.c:212:13
	blo	.LBB3_8
	b	.LBB3_6
.Ltmp190:
.LBB3_13:
	@DEBUG_VALUE: HyperRAM_TrimDLLDelayNumber:u32k <- $r9
	@DEBUG_VALUE: HyperRAM_TrimDLLDelayNumber:u32PatternSize <- [DW_OP_plus_uconst 120] [$sp+0]
	@DEBUG_VALUE: HyperRAM_TrimDLLDelayNumber:u8RdDelay <- $r4
	@DEBUG_VALUE: HyperRAM_TrimDLLDelayNumber:u32ReTrimCnt <- $r7
	@DEBUG_VALUE: HyperRAM_TrimDLLDelayNumber:pu8TrimPattern <- [DW_OP_plus_uconst 272, DW_OP_stack_value] $sp
	@DEBUG_VALUE: HyperRAM_TrimDLLDelayNumber:pu8VerfiyBuf <- [DW_OP_plus_uconst 144, DW_OP_stack_value] $sp
	@DEBUG_VALUE: HyperRAM_TrimDLLDelayNumber:u32DMMAddr <- -2113929216
	@DEBUG_VALUE: HyperRAM_TrimDLLDelayNumber:u32Val <- 0
	@DEBUG_VALUE: HyperRAM_TrimDLLDelayNumber:u32j <- 0
	@DEBUG_VALUE: HyperRAM_TrimDLLDelayNumber:u32SrcAddr <- 0
	@DEBUG_VALUE: HyperRAM_TrimDLLDelayNumber:u32ReTrimMaxCnt <- 6
	@DEBUG_VALUE: HyperRAM_TrimDLLDelayNumber:spim <- [DW_OP_plus_uconst 140] [$sp+0]
	.loc	1 0 13 is_stmt 0                @ ../Device/HyperRAM/hyperram_code.c:0:13
	mov.w	lr, #2
.Ltmp191:
	.loc	1 246 5 is_stmt 1               @ ../Device/HyperRAM/hyperram_code.c:246:5
	add	r0, sp, #528
	adds	r0, #7
	movs	r2, #0
	movs	r1, #15
.Ltmp192:
	.loc	1 0 5 is_stmt 0                 @ :0:5
.Ltmp193:
	.p2align	2
.LBB3_14:                               @ =>This Inner Loop Header: Depth=1
	@DEBUG_VALUE: HyperRAM_TrimDLLDelayNumber:u32k <- $r9
	@DEBUG_VALUE: HyperRAM_TrimDLLDelayNumber:u32PatternSize <- [DW_OP_plus_uconst 120] [$sp+0]
	@DEBUG_VALUE: HyperRAM_TrimDLLDelayNumber:u8RdDelay <- $r4
	@DEBUG_VALUE: HyperRAM_TrimDLLDelayNumber:pu8TrimPattern <- [DW_OP_plus_uconst 272, DW_OP_stack_value] $sp
	@DEBUG_VALUE: HyperRAM_TrimDLLDelayNumber:pu8VerfiyBuf <- [DW_OP_plus_uconst 144, DW_OP_stack_value] $sp
	@DEBUG_VALUE: HyperRAM_TrimDLLDelayNumber:u32DMMAddr <- -2113929216
	@DEBUG_VALUE: HyperRAM_TrimDLLDelayNumber:u32Val <- 0
	@DEBUG_VALUE: HyperRAM_TrimDLLDelayNumber:u32SrcAddr <- 0
	@DEBUG_VALUE: HyperRAM_TrimDLLDelayNumber:u32ReTrimMaxCnt <- 6
	@DEBUG_VALUE: HyperRAM_TrimDLLDelayNumber:spim <- [DW_OP_plus_uconst 140] [$sp+0]
	@DEBUG_VALUE: HyperRAM_TrimDLLDelayNumber:u32i <- [DW_OP_constu 15, DW_OP_minus, DW_OP_stack_value] $r1
	@DEBUG_VALUE: HyperRAM_TrimDLLDelayNumber:u32j <- $r2
	.loc	1 248 13 is_stmt 1              @ ../Device/HyperRAM/hyperram_code.c:248:13
	ldrb	r3, [r0, #-7]
.Ltmp194:
	.loc	1 248 13 is_stmt 0              @ ../Device/HyperRAM/hyperram_code.c:248:13
	cmp	r3, #6
.Ltmp195:
	.loc	1 0 0                           @ ../Device/HyperRAM/hyperram_code.c:0:0
	itttt	eq
	subeq.w	r3, r1, #15
.Ltmp196:
	.loc	1 250 34 is_stmt 1              @ ../Device/HyperRAM/hyperram_code.c:250:34
	addeq.w	r7, sp, #528
	strbeq	r3, [r7, r2]
	.loc	1 250 30 is_stmt 0              @ ../Device/HyperRAM/hyperram_code.c:250:30
	addeq	r2, #1
.Ltmp197:
	@DEBUG_VALUE: HyperRAM_TrimDLLDelayNumber:u32j <- $r2
	@DEBUG_VALUE: HyperRAM_TrimDLLDelayNumber:u32i <- [DW_OP_constu 14, DW_OP_minus, DW_OP_stack_value] $r1
	@DEBUG_VALUE: HyperRAM_TrimDLLDelayNumber:u32j <- $r2
	.loc	1 248 13 is_stmt 1              @ ../Device/HyperRAM/hyperram_code.c:248:13
	ldrb	r3, [r0, #-6]
.Ltmp198:
	.loc	1 248 13 is_stmt 0              @ ../Device/HyperRAM/hyperram_code.c:248:13
	cmp	r3, #6
.Ltmp199:
	.loc	1 0 0                           @ ../Device/HyperRAM/hyperram_code.c:0:0
	itttt	eq
	subeq.w	r3, r1, #14
.Ltmp200:
	.loc	1 250 34 is_stmt 1              @ ../Device/HyperRAM/hyperram_code.c:250:34
	addeq.w	r7, sp, #528
	strbeq	r3, [r7, r2]
	.loc	1 250 30 is_stmt 0              @ ../Device/HyperRAM/hyperram_code.c:250:30
	addeq	r2, #1
.Ltmp201:
	@DEBUG_VALUE: HyperRAM_TrimDLLDelayNumber:u32j <- $r2
	@DEBUG_VALUE: HyperRAM_TrimDLLDelayNumber:u32i <- [DW_OP_constu 13, DW_OP_minus, DW_OP_stack_value] $r1
	@DEBUG_VALUE: HyperRAM_TrimDLLDelayNumber:u32j <- $r2
	.loc	1 248 13 is_stmt 1              @ ../Device/HyperRAM/hyperram_code.c:248:13
	ldrb	r3, [r0, #-5]
.Ltmp202:
	.loc	1 248 13 is_stmt 0              @ ../Device/HyperRAM/hyperram_code.c:248:13
	cmp	r3, #6
.Ltmp203:
	.loc	1 0 0                           @ ../Device/HyperRAM/hyperram_code.c:0:0
	itttt	eq
	subeq.w	r3, r1, #13
.Ltmp204:
	.loc	1 250 34 is_stmt 1              @ ../Device/HyperRAM/hyperram_code.c:250:34
	addeq.w	r7, sp, #528
	strbeq	r3, [r7, r2]
	.loc	1 250 30 is_stmt 0              @ ../Device/HyperRAM/hyperram_code.c:250:30
	addeq	r2, #1
.Ltmp205:
	@DEBUG_VALUE: HyperRAM_TrimDLLDelayNumber:u32j <- $r2
	@DEBUG_VALUE: HyperRAM_TrimDLLDelayNumber:u32i <- [DW_OP_constu 12, DW_OP_minus, DW_OP_stack_value] $r1
	@DEBUG_VALUE: HyperRAM_TrimDLLDelayNumber:u32j <- $r2
	.loc	1 248 13 is_stmt 1              @ ../Device/HyperRAM/hyperram_code.c:248:13
	ldrb	r3, [r0, #-4]
.Ltmp206:
	.loc	1 248 13 is_stmt 0              @ ../Device/HyperRAM/hyperram_code.c:248:13
	cmp	r3, #6
.Ltmp207:
	.loc	1 0 0                           @ ../Device/HyperRAM/hyperram_code.c:0:0
	itttt	eq
	subeq.w	r3, r1, #12
.Ltmp208:
	.loc	1 250 34 is_stmt 1              @ ../Device/HyperRAM/hyperram_code.c:250:34
	addeq.w	r7, sp, #528
	strbeq	r3, [r7, r2]
	.loc	1 250 30 is_stmt 0              @ ../Device/HyperRAM/hyperram_code.c:250:30
	addeq	r2, #1
.Ltmp209:
	@DEBUG_VALUE: HyperRAM_TrimDLLDelayNumber:u32j <- $r2
	@DEBUG_VALUE: HyperRAM_TrimDLLDelayNumber:u32i <- [DW_OP_constu 11, DW_OP_minus, DW_OP_stack_value] $r1
	@DEBUG_VALUE: HyperRAM_TrimDLLDelayNumber:u32j <- $r2
	.loc	1 248 13 is_stmt 1              @ ../Device/HyperRAM/hyperram_code.c:248:13
	ldrb	r3, [r0, #-3]
.Ltmp210:
	.loc	1 248 13 is_stmt 0              @ ../Device/HyperRAM/hyperram_code.c:248:13
	cmp	r3, #6
.Ltmp211:
	.loc	1 0 0                           @ ../Device/HyperRAM/hyperram_code.c:0:0
	itttt	eq
	subeq.w	r3, r1, #11
.Ltmp212:
	.loc	1 250 34 is_stmt 1              @ ../Device/HyperRAM/hyperram_code.c:250:34
	addeq.w	r7, sp, #528
	strbeq	r3, [r7, r2]
	.loc	1 250 30 is_stmt 0              @ ../Device/HyperRAM/hyperram_code.c:250:30
	addeq	r2, #1
.Ltmp213:
	@DEBUG_VALUE: HyperRAM_TrimDLLDelayNumber:u32j <- $r2
	@DEBUG_VALUE: HyperRAM_TrimDLLDelayNumber:u32i <- [DW_OP_constu 10, DW_OP_minus, DW_OP_stack_value] $r1
	@DEBUG_VALUE: HyperRAM_TrimDLLDelayNumber:u32j <- $r2
	.loc	1 248 13 is_stmt 1              @ ../Device/HyperRAM/hyperram_code.c:248:13
	ldrb	r3, [r0, #-2]
.Ltmp214:
	.loc	1 248 13 is_stmt 0              @ ../Device/HyperRAM/hyperram_code.c:248:13
	cmp	r3, #6
.Ltmp215:
	.loc	1 0 0                           @ ../Device/HyperRAM/hyperram_code.c:0:0
	itttt	eq
	subeq.w	r3, r1, #10
.Ltmp216:
	.loc	1 250 34 is_stmt 1              @ ../Device/HyperRAM/hyperram_code.c:250:34
	addeq.w	r7, sp, #528
	strbeq	r3, [r7, r2]
	.loc	1 250 30 is_stmt 0              @ ../Device/HyperRAM/hyperram_code.c:250:30
	addeq	r2, #1
.Ltmp217:
	@DEBUG_VALUE: HyperRAM_TrimDLLDelayNumber:u32j <- $r2
	@DEBUG_VALUE: HyperRAM_TrimDLLDelayNumber:u32i <- [DW_OP_constu 9, DW_OP_minus, DW_OP_stack_value] $r1
	@DEBUG_VALUE: HyperRAM_TrimDLLDelayNumber:u32j <- $r2
	.loc	1 248 13 is_stmt 1              @ ../Device/HyperRAM/hyperram_code.c:248:13
	ldrb	r3, [r0, #-1]
.Ltmp218:
	.loc	1 248 13 is_stmt 0              @ ../Device/HyperRAM/hyperram_code.c:248:13
	cmp	r3, #6
.Ltmp219:
	.loc	1 0 0                           @ ../Device/HyperRAM/hyperram_code.c:0:0
	itttt	eq
	subeq.w	r3, r1, #9
.Ltmp220:
	.loc	1 250 34 is_stmt 1              @ ../Device/HyperRAM/hyperram_code.c:250:34
	addeq.w	r7, sp, #528
	strbeq	r3, [r7, r2]
	.loc	1 250 30 is_stmt 0              @ ../Device/HyperRAM/hyperram_code.c:250:30
	addeq	r2, #1
.Ltmp221:
	@DEBUG_VALUE: HyperRAM_TrimDLLDelayNumber:u32j <- $r2
	@DEBUG_VALUE: HyperRAM_TrimDLLDelayNumber:u32i <- [DW_OP_constu 8, DW_OP_minus, DW_OP_stack_value] $r1
	@DEBUG_VALUE: HyperRAM_TrimDLLDelayNumber:u32j <- $r2
	.loc	1 248 13 is_stmt 1              @ ../Device/HyperRAM/hyperram_code.c:248:13
	ldrb	r3, [r0]
.Ltmp222:
	.loc	1 248 13 is_stmt 0              @ ../Device/HyperRAM/hyperram_code.c:248:13
	cmp	r3, #6
.Ltmp223:
	.loc	1 0 0                           @ ../Device/HyperRAM/hyperram_code.c:0:0
	itttt	eq
	subeq.w	r3, r1, #8
.Ltmp224:
	.loc	1 250 34 is_stmt 1              @ ../Device/HyperRAM/hyperram_code.c:250:34
	addeq.w	r7, sp, #528
	strbeq	r3, [r7, r2]
	.loc	1 250 30 is_stmt 0              @ ../Device/HyperRAM/hyperram_code.c:250:30
	addeq	r2, #1
.Ltmp225:
	@DEBUG_VALUE: HyperRAM_TrimDLLDelayNumber:u32j <- $r2
	@DEBUG_VALUE: HyperRAM_TrimDLLDelayNumber:u32i <- [DW_OP_constu 7, DW_OP_minus, DW_OP_stack_value] $r1
	@DEBUG_VALUE: HyperRAM_TrimDLLDelayNumber:u32j <- $r2
	.loc	1 248 13 is_stmt 1              @ ../Device/HyperRAM/hyperram_code.c:248:13
	ldrb	r3, [r0, #1]
.Ltmp226:
	.loc	1 248 13 is_stmt 0              @ ../Device/HyperRAM/hyperram_code.c:248:13
	cmp	r3, #6
.Ltmp227:
	.loc	1 0 0                           @ ../Device/HyperRAM/hyperram_code.c:0:0
	itttt	eq
	subeq	r3, r1, #7
.Ltmp228:
	.loc	1 250 34 is_stmt 1              @ ../Device/HyperRAM/hyperram_code.c:250:34
	addeq.w	r7, sp, #528
	strbeq	r3, [r7, r2]
	.loc	1 250 30 is_stmt 0              @ ../Device/HyperRAM/hyperram_code.c:250:30
	addeq	r2, #1
.Ltmp229:
	@DEBUG_VALUE: HyperRAM_TrimDLLDelayNumber:u32j <- $r2
	@DEBUG_VALUE: HyperRAM_TrimDLLDelayNumber:u32i <- [DW_OP_constu 6, DW_OP_minus, DW_OP_stack_value] $r1
	@DEBUG_VALUE: HyperRAM_TrimDLLDelayNumber:u32j <- $r2
	.loc	1 248 13 is_stmt 1              @ ../Device/HyperRAM/hyperram_code.c:248:13
	ldrb	r3, [r0, #2]
.Ltmp230:
	.loc	1 248 13 is_stmt 0              @ ../Device/HyperRAM/hyperram_code.c:248:13
	cmp	r3, #6
.Ltmp231:
	.loc	1 0 0                           @ ../Device/HyperRAM/hyperram_code.c:0:0
	itttt	eq
	subeq	r3, r1, #6
.Ltmp232:
	.loc	1 250 34 is_stmt 1              @ ../Device/HyperRAM/hyperram_code.c:250:34
	addeq.w	r7, sp, #528
	strbeq	r3, [r7, r2]
	.loc	1 250 30 is_stmt 0              @ ../Device/HyperRAM/hyperram_code.c:250:30
	addeq	r2, #1
.Ltmp233:
	@DEBUG_VALUE: HyperRAM_TrimDLLDelayNumber:u32j <- $r2
	@DEBUG_VALUE: HyperRAM_TrimDLLDelayNumber:u32i <- [DW_OP_constu 5, DW_OP_minus, DW_OP_stack_value] $r1
	@DEBUG_VALUE: HyperRAM_TrimDLLDelayNumber:u32j <- $r2
	.loc	1 248 13 is_stmt 1              @ ../Device/HyperRAM/hyperram_code.c:248:13
	ldrb	r3, [r0, #3]
.Ltmp234:
	.loc	1 248 13 is_stmt 0              @ ../Device/HyperRAM/hyperram_code.c:248:13
	cmp	r3, #6
.Ltmp235:
	.loc	1 0 0                           @ ../Device/HyperRAM/hyperram_code.c:0:0
	itttt	eq
	subeq	r3, r1, #5
.Ltmp236:
	.loc	1 250 34 is_stmt 1              @ ../Device/HyperRAM/hyperram_code.c:250:34
	addeq.w	r7, sp, #528
	strbeq	r3, [r7, r2]
	.loc	1 250 30 is_stmt 0              @ ../Device/HyperRAM/hyperram_code.c:250:30
	addeq	r2, #1
.Ltmp237:
	@DEBUG_VALUE: HyperRAM_TrimDLLDelayNumber:u32j <- $r2
	@DEBUG_VALUE: HyperRAM_TrimDLLDelayNumber:u32i <- [DW_OP_constu 4, DW_OP_minus, DW_OP_stack_value] $r1
	@DEBUG_VALUE: HyperRAM_TrimDLLDelayNumber:u32j <- $r2
	.loc	1 248 13 is_stmt 1              @ ../Device/HyperRAM/hyperram_code.c:248:13
	ldrb	r3, [r0, #4]
.Ltmp238:
	.loc	1 248 13 is_stmt 0              @ ../Device/HyperRAM/hyperram_code.c:248:13
	cmp	r3, #6
.Ltmp239:
	.loc	1 0 0                           @ ../Device/HyperRAM/hyperram_code.c:0:0
	itttt	eq
	subeq	r3, r1, #4
.Ltmp240:
	.loc	1 250 34 is_stmt 1              @ ../Device/HyperRAM/hyperram_code.c:250:34
	addeq.w	r7, sp, #528
	strbeq	r3, [r7, r2]
	.loc	1 250 30 is_stmt 0              @ ../Device/HyperRAM/hyperram_code.c:250:30
	addeq	r2, #1
.Ltmp241:
	@DEBUG_VALUE: HyperRAM_TrimDLLDelayNumber:u32j <- $r2
	@DEBUG_VALUE: HyperRAM_TrimDLLDelayNumber:u32i <- [DW_OP_constu 3, DW_OP_minus, DW_OP_stack_value] $r1
	@DEBUG_VALUE: HyperRAM_TrimDLLDelayNumber:u32j <- $r2
	.loc	1 248 13 is_stmt 1              @ ../Device/HyperRAM/hyperram_code.c:248:13
	ldrb	r3, [r0, #5]
.Ltmp242:
	.loc	1 248 13 is_stmt 0              @ ../Device/HyperRAM/hyperram_code.c:248:13
	cmp	r3, #6
.Ltmp243:
	.loc	1 0 0                           @ ../Device/HyperRAM/hyperram_code.c:0:0
	itttt	eq
	subeq	r3, r1, #3
.Ltmp244:
	.loc	1 250 34 is_stmt 1              @ ../Device/HyperRAM/hyperram_code.c:250:34
	addeq.w	r7, sp, #528
	strbeq	r3, [r7, r2]
	.loc	1 250 30 is_stmt 0              @ ../Device/HyperRAM/hyperram_code.c:250:30
	addeq	r2, #1
.Ltmp245:
	@DEBUG_VALUE: HyperRAM_TrimDLLDelayNumber:u32j <- $r2
	@DEBUG_VALUE: HyperRAM_TrimDLLDelayNumber:u32i <- [DW_OP_constu 2, DW_OP_minus, DW_OP_stack_value] $r1
	@DEBUG_VALUE: HyperRAM_TrimDLLDelayNumber:u32j <- $r2
	.loc	1 248 13 is_stmt 1              @ ../Device/HyperRAM/hyperram_code.c:248:13
	ldrb	r3, [r0, #6]
.Ltmp246:
	.loc	1 248 13 is_stmt 0              @ ../Device/HyperRAM/hyperram_code.c:248:13
	cmp	r3, #6
.Ltmp247:
	.loc	1 0 0                           @ ../Device/HyperRAM/hyperram_code.c:0:0
	itttt	eq
	subeq	r3, r1, #2
.Ltmp248:
	.loc	1 250 34 is_stmt 1              @ ../Device/HyperRAM/hyperram_code.c:250:34
	addeq.w	r7, sp, #528
	strbeq	r3, [r7, r2]
	.loc	1 250 30 is_stmt 0              @ ../Device/HyperRAM/hyperram_code.c:250:30
	addeq	r2, #1
.Ltmp249:
	@DEBUG_VALUE: HyperRAM_TrimDLLDelayNumber:u32j <- $r2
	@DEBUG_VALUE: HyperRAM_TrimDLLDelayNumber:u32i <- [DW_OP_constu 1, DW_OP_minus, DW_OP_stack_value] $r1
	@DEBUG_VALUE: HyperRAM_TrimDLLDelayNumber:u32j <- $r2
	.loc	1 248 13 is_stmt 1              @ ../Device/HyperRAM/hyperram_code.c:248:13
	ldrb	r3, [r0, #7]
.Ltmp250:
	.loc	1 248 13 is_stmt 0              @ ../Device/HyperRAM/hyperram_code.c:248:13
	cmp	r3, #6
.Ltmp251:
	.loc	1 0 0                           @ ../Device/HyperRAM/hyperram_code.c:0:0
	itttt	eq
	subeq	r3, r1, #1
.Ltmp252:
	.loc	1 250 34 is_stmt 1              @ ../Device/HyperRAM/hyperram_code.c:250:34
	addeq.w	r7, sp, #528
	strbeq	r3, [r7, r2]
	.loc	1 250 30 is_stmt 0              @ ../Device/HyperRAM/hyperram_code.c:250:30
	addeq	r2, #1
.Ltmp253:
	@DEBUG_VALUE: HyperRAM_TrimDLLDelayNumber:u32j <- $r2
	@DEBUG_VALUE: HyperRAM_TrimDLLDelayNumber:u32i <- $r1
	@DEBUG_VALUE: HyperRAM_TrimDLLDelayNumber:u32j <- $r2
	.loc	1 248 13 is_stmt 1              @ ../Device/HyperRAM/hyperram_code.c:248:13
	ldrb	r3, [r0, #8]
.Ltmp254:
	.loc	1 246 25                        @ ../Device/HyperRAM/hyperram_code.c:246:25
	adds	r0, #16
.Ltmp255:
	.loc	1 248 13                        @ ../Device/HyperRAM/hyperram_code.c:248:13
	cmp	r3, #6
.Ltmp256:
	.loc	1 250 34                        @ ../Device/HyperRAM/hyperram_code.c:250:34
	ittt	eq
	addeq.w	r3, sp, #528
	strbeq	r1, [r3, r2]
	.loc	1 250 30 is_stmt 0              @ ../Device/HyperRAM/hyperram_code.c:250:30
	addeq	r2, #1
.Ltmp257:
	@DEBUG_VALUE: HyperRAM_TrimDLLDelayNumber:u32j <- $r2
	@DEBUG_VALUE: HyperRAM_TrimDLLDelayNumber:u32i <- [DW_OP_plus_uconst 1, DW_OP_stack_value] $r1
	@DEBUG_VALUE: HyperRAM_TrimDLLDelayNumber:u32j <- $r2
	.loc	1 246 25 is_stmt 1              @ ../Device/HyperRAM/hyperram_code.c:246:25
	adds	r1, #16
.Ltmp258:
	.loc	1 246 5 is_stmt 0               @ ../Device/HyperRAM/hyperram_code.c:246:5
	le	lr, .LBB3_14
.Ltmp259:
@ %bb.15:
	@DEBUG_VALUE: HyperRAM_TrimDLLDelayNumber:u32j <- $r2
	@DEBUG_VALUE: HyperRAM_TrimDLLDelayNumber:u32k <- $r9
	@DEBUG_VALUE: HyperRAM_TrimDLLDelayNumber:u32PatternSize <- [DW_OP_plus_uconst 120] [$sp+0]
	@DEBUG_VALUE: HyperRAM_TrimDLLDelayNumber:u8RdDelay <- $r4
	@DEBUG_VALUE: HyperRAM_TrimDLLDelayNumber:pu8TrimPattern <- [DW_OP_plus_uconst 272, DW_OP_stack_value] $sp
	@DEBUG_VALUE: HyperRAM_TrimDLLDelayNumber:pu8VerfiyBuf <- [DW_OP_plus_uconst 144, DW_OP_stack_value] $sp
	@DEBUG_VALUE: HyperRAM_TrimDLLDelayNumber:u32DMMAddr <- -2113929216
	@DEBUG_VALUE: HyperRAM_TrimDLLDelayNumber:u32Val <- 0
	@DEBUG_VALUE: HyperRAM_TrimDLLDelayNumber:u32SrcAddr <- 0
	@DEBUG_VALUE: HyperRAM_TrimDLLDelayNumber:u32ReTrimMaxCnt <- 6
	@DEBUG_VALUE: HyperRAM_TrimDLLDelayNumber:spim <- [DW_OP_plus_uconst 140] [$sp+0]
	.loc	1 254 17 is_stmt 1              @ ../Device/HyperRAM/hyperram_code.c:254:17
	cmp	r2, #1
	bhi	.LBB3_17
.Ltmp260:
@ %bb.16:
	@DEBUG_VALUE: HyperRAM_TrimDLLDelayNumber:u32j <- $r2
	@DEBUG_VALUE: HyperRAM_TrimDLLDelayNumber:u32k <- $r9
	@DEBUG_VALUE: HyperRAM_TrimDLLDelayNumber:u32PatternSize <- [DW_OP_plus_uconst 120] [$sp+0]
	@DEBUG_VALUE: HyperRAM_TrimDLLDelayNumber:u8RdDelay <- $r4
	@DEBUG_VALUE: HyperRAM_TrimDLLDelayNumber:pu8TrimPattern <- [DW_OP_plus_uconst 272, DW_OP_stack_value] $sp
	@DEBUG_VALUE: HyperRAM_TrimDLLDelayNumber:pu8VerfiyBuf <- [DW_OP_plus_uconst 144, DW_OP_stack_value] $sp
	@DEBUG_VALUE: HyperRAM_TrimDLLDelayNumber:u32DMMAddr <- -2113929216
	@DEBUG_VALUE: HyperRAM_TrimDLLDelayNumber:u32Val <- 0
	@DEBUG_VALUE: HyperRAM_TrimDLLDelayNumber:u32SrcAddr <- 0
	@DEBUG_VALUE: HyperRAM_TrimDLLDelayNumber:u32ReTrimMaxCnt <- 6
	@DEBUG_VALUE: HyperRAM_TrimDLLDelayNumber:spim <- [DW_OP_plus_uconst 140] [$sp+0]
	.loc	1 254 30 is_stmt 0              @ ../Device/HyperRAM/hyperram_code.c:254:30
	ldrb.w	r0, [sp, #528]
	.loc	1 254 17                        @ ../Device/HyperRAM/hyperram_code.c:254:17
	b	.LBB3_28
.Ltmp261:
.LBB3_17:
	@DEBUG_VALUE: HyperRAM_TrimDLLDelayNumber:u32j <- $r2
	@DEBUG_VALUE: HyperRAM_TrimDLLDelayNumber:u32k <- $r9
	@DEBUG_VALUE: HyperRAM_TrimDLLDelayNumber:u32PatternSize <- [DW_OP_plus_uconst 120] [$sp+0]
	@DEBUG_VALUE: HyperRAM_TrimDLLDelayNumber:u8RdDelay <- $r4
	@DEBUG_VALUE: HyperRAM_TrimDLLDelayNumber:pu8TrimPattern <- [DW_OP_plus_uconst 272, DW_OP_stack_value] $sp
	@DEBUG_VALUE: HyperRAM_TrimDLLDelayNumber:pu8VerfiyBuf <- [DW_OP_plus_uconst 144, DW_OP_stack_value] $sp
	@DEBUG_VALUE: HyperRAM_TrimDLLDelayNumber:u32DMMAddr <- -2113929216
	@DEBUG_VALUE: HyperRAM_TrimDLLDelayNumber:u32Val <- 0
	@DEBUG_VALUE: HyperRAM_TrimDLLDelayNumber:u32SrcAddr <- 0
	@DEBUG_VALUE: HyperRAM_TrimDLLDelayNumber:u32ReTrimMaxCnt <- 6
	@DEBUG_VALUE: HyperRAM_TrimDLLDelayNumber:spim <- [DW_OP_plus_uconst 140] [$sp+0]
	@DEBUG_VALUE: isConsecutive:au8Src <- [DW_OP_plus_uconst 528, DW_OP_stack_value] $sp
	@DEBUG_VALUE: isConsecutive:size <- $r2
	@DEBUG_VALUE: isConsecutive:u8Find <- 0
	@DEBUG_VALUE: isConsecutive:u8StartIdx <- 0
	@DEBUG_VALUE: isConsecutive:u8MaxRang <- 0
	@DEBUG_VALUE: isConsecutive:u32i <- 0
	@DEBUG_VALUE: isConsecutive:u32j <- 1
	.loc	1 124 35 is_stmt 1              @ ../Device/HyperRAM/hyperram_code.c:124:35
	ldrb.w	r8, [sp, #528]
.Ltmp262:
	.loc	1 127 5                         @ ../Device/HyperRAM/hyperram_code.c:127:5
	subs	r1, r2, #2
.Ltmp263:
	.loc	1 124 23                        @ ../Device/HyperRAM/hyperram_code.c:124:23
	ldrb.w	r9, [sp, #529]
.Ltmp264:
	@DEBUG_VALUE: isConsecutive:increasing <- undef
	@DEBUG_VALUE: isConsecutive:u32i <- 1
	.loc	1 127 5                         @ ../Device/HyperRAM/hyperram_code.c:127:5
	subs	r0, r2, #1
	cmp	r1, #3
	mov.w	r2, #1
.Ltmp265:
	and	r12, r0, #3
	bhs	.LBB3_19
.Ltmp266:
@ %bb.18:
	@DEBUG_VALUE: isConsecutive:u32i <- 1
	@DEBUG_VALUE: isConsecutive:u32j <- 1
	@DEBUG_VALUE: isConsecutive:u8MaxRang <- 0
	@DEBUG_VALUE: isConsecutive:u8StartIdx <- 0
	@DEBUG_VALUE: isConsecutive:u8Find <- 0
	@DEBUG_VALUE: isConsecutive:au8Src <- [DW_OP_plus_uconst 528, DW_OP_stack_value] $sp
	@DEBUG_VALUE: HyperRAM_TrimDLLDelayNumber:u32PatternSize <- [DW_OP_plus_uconst 120] [$sp+0]
	@DEBUG_VALUE: HyperRAM_TrimDLLDelayNumber:u8RdDelay <- $r4
	@DEBUG_VALUE: HyperRAM_TrimDLLDelayNumber:pu8TrimPattern <- [DW_OP_plus_uconst 272, DW_OP_stack_value] $sp
	@DEBUG_VALUE: HyperRAM_TrimDLLDelayNumber:pu8VerfiyBuf <- [DW_OP_plus_uconst 144, DW_OP_stack_value] $sp
	@DEBUG_VALUE: HyperRAM_TrimDLLDelayNumber:u32DMMAddr <- -2113929216
	@DEBUG_VALUE: HyperRAM_TrimDLLDelayNumber:u32Val <- 0
	@DEBUG_VALUE: HyperRAM_TrimDLLDelayNumber:u32SrcAddr <- 0
	@DEBUG_VALUE: HyperRAM_TrimDLLDelayNumber:u32ReTrimMaxCnt <- 6
	@DEBUG_VALUE: HyperRAM_TrimDLLDelayNumber:spim <- [DW_OP_plus_uconst 140] [$sp+0]
	.loc	1 0 5 is_stmt 0                 @ ../Device/HyperRAM/hyperram_code.c:0:5
	mov.w	r10, #0
	movs	r3, #1
	movs	r7, #0
	movs	r6, #0
.Ltmp267:
	.loc	1 130 25 is_stmt 1              @ ../Device/HyperRAM/hyperram_code.c:130:25
	cmp.w	r12, #0
	bne	.LBB3_22
	b	.LBB3_25
.Ltmp268:
.LBB3_19:
	@DEBUG_VALUE: isConsecutive:u32i <- 1
	@DEBUG_VALUE: isConsecutive:u32j <- 1
	@DEBUG_VALUE: isConsecutive:u8MaxRang <- 0
	@DEBUG_VALUE: isConsecutive:u8StartIdx <- 0
	@DEBUG_VALUE: isConsecutive:u8Find <- 0
	@DEBUG_VALUE: isConsecutive:au8Src <- [DW_OP_plus_uconst 528, DW_OP_stack_value] $sp
	@DEBUG_VALUE: HyperRAM_TrimDLLDelayNumber:u32PatternSize <- [DW_OP_plus_uconst 120] [$sp+0]
	@DEBUG_VALUE: HyperRAM_TrimDLLDelayNumber:u8RdDelay <- $r4
	@DEBUG_VALUE: HyperRAM_TrimDLLDelayNumber:pu8TrimPattern <- [DW_OP_plus_uconst 272, DW_OP_stack_value] $sp
	@DEBUG_VALUE: HyperRAM_TrimDLLDelayNumber:pu8VerfiyBuf <- [DW_OP_plus_uconst 144, DW_OP_stack_value] $sp
	@DEBUG_VALUE: HyperRAM_TrimDLLDelayNumber:u32DMMAddr <- -2113929216
	@DEBUG_VALUE: HyperRAM_TrimDLLDelayNumber:u32Val <- 0
	@DEBUG_VALUE: HyperRAM_TrimDLLDelayNumber:u32SrcAddr <- 0
	@DEBUG_VALUE: HyperRAM_TrimDLLDelayNumber:u32ReTrimMaxCnt <- 6
	@DEBUG_VALUE: HyperRAM_TrimDLLDelayNumber:spim <- [DW_OP_plus_uconst 140] [$sp+0]
	.loc	1 127 5                         @ ../Device/HyperRAM/hyperram_code.c:127:5
	bic	r0, r0, #3
	mov.w	r10, #0
	subs	r0, #4
	movs	r7, #0
	add.w	lr, r2, r0, lsr #2
	add	r0, sp, #528
	movs	r6, #0
	adds	r5, r0, #2
	mov.w	r11, #0
.Ltmp269:
	.loc	1 0 5 is_stmt 0                 @ :0:5
.Ltmp270:
	.p2align	2
.LBB3_20:                               @ =>This Inner Loop Header: Depth=1
	@DEBUG_VALUE: isConsecutive:au8Src <- [DW_OP_plus_uconst 528, DW_OP_stack_value] $sp
	@DEBUG_VALUE: HyperRAM_TrimDLLDelayNumber:u32PatternSize <- [DW_OP_plus_uconst 120] [$sp+0]
	@DEBUG_VALUE: HyperRAM_TrimDLLDelayNumber:pu8TrimPattern <- [DW_OP_plus_uconst 272, DW_OP_stack_value] $sp
	@DEBUG_VALUE: HyperRAM_TrimDLLDelayNumber:pu8VerfiyBuf <- [DW_OP_plus_uconst 144, DW_OP_stack_value] $sp
	@DEBUG_VALUE: HyperRAM_TrimDLLDelayNumber:u32DMMAddr <- -2113929216
	@DEBUG_VALUE: HyperRAM_TrimDLLDelayNumber:u32Val <- 0
	@DEBUG_VALUE: HyperRAM_TrimDLLDelayNumber:u32SrcAddr <- 0
	@DEBUG_VALUE: HyperRAM_TrimDLLDelayNumber:u32ReTrimMaxCnt <- 6
	@DEBUG_VALUE: HyperRAM_TrimDLLDelayNumber:spim <- [DW_OP_plus_uconst 140] [$sp+0]
	@DEBUG_VALUE: isConsecutive:u8Find <- $r10
	@DEBUG_VALUE: isConsecutive:u8StartIdx <- $r6
	@DEBUG_VALUE: isConsecutive:u8MaxRang <- $r7
	@DEBUG_VALUE: isConsecutive:u32i <- [DW_OP_LLVM_arg 0, DW_OP_consts 2, DW_OP_LLVM_arg 1, DW_OP_plus_uconst 528, DW_OP_plus, DW_OP_minus, DW_OP_consts 4, DW_OP_div, DW_OP_consts 4, DW_OP_mul, DW_OP_consts 1, DW_OP_plus, DW_OP_stack_value] $r5, $sp
	@DEBUG_VALUE: isConsecutive:u32j <- $r2
	ldrb	r1, [r5, #-2]
.Ltmp271:
	.loc	1 142 21 is_stmt 1              @ ../Device/HyperRAM/hyperram_code.c:142:21
	uxtb	r3, r7
.Ltmp272:
	.loc	1 0 0 is_stmt 0                 @ ../Device/HyperRAM/hyperram_code.c:0:0
	ldrb	r0, [r5, #-1]
	.loc	1 130 25 is_stmt 1              @ ../Device/HyperRAM/hyperram_code.c:130:25
	cmp	r9, r8
	.loc	1 131 66                        @ ../Device/HyperRAM/hyperram_code.c:131:66
	ite	ls
	subls	r1, #1
	.loc	1 130 61                        @ ../Device/HyperRAM/hyperram_code.c:130:61
	addhi	r1, #1
.Ltmp273:
	.loc	1 130 0 is_stmt 0               @ ../Device/HyperRAM/hyperram_code.c:130:0
	cmp	r1, r0
	itt	ne
	addne.w	r10, r11, #1
.Ltmp274:
	.loc	1 0 0                           @ ../Device/HyperRAM/hyperram_code.c:0:0
	movne	r2, #0
.Ltmp275:
	@DEBUG_VALUE: isConsecutive:u32j <- 0
	@DEBUG_VALUE: isConsecutive:u8Find <- undef
	@DEBUG_VALUE: isConsecutive:u8Find <- $r10
	@DEBUG_VALUE: isConsecutive:u32j <- $r2
	.loc	1 139 13 is_stmt 1              @ ../Device/HyperRAM/hyperram_code.c:139:13
	adds	r1, r2, #1
.Ltmp276:
	@DEBUG_VALUE: isConsecutive:u32j <- $r1
	.loc	1 142 13                        @ ../Device/HyperRAM/hyperram_code.c:142:13
	cmp	r1, r3
	csel	r4, r6, r10, lo
.Ltmp277:
	@DEBUG_VALUE: isConsecutive:u8StartIdx <- $r4
	.loc	1 0 0 is_stmt 0                 @ ../Device/HyperRAM/hyperram_code.c:0:0
	ldrb	r6, [r5]
.Ltmp278:
	.loc	1 142 13                        @ ../Device/HyperRAM/hyperram_code.c:142:13
	csinc	r2, r7, r2, lo
.Ltmp279:
	@DEBUG_VALUE: isConsecutive:u32i <- [DW_OP_LLVM_arg 0, DW_OP_consts 2, DW_OP_LLVM_arg 1, DW_OP_plus_uconst 528, DW_OP_plus, DW_OP_minus, DW_OP_consts 4, DW_OP_div, DW_OP_consts 4, DW_OP_mul, DW_OP_consts 2, DW_OP_plus, DW_OP_stack_value] $r5, $sp
	@DEBUG_VALUE: isConsecutive:u8MaxRang <- $r2
	.loc	1 130 25 is_stmt 1              @ ../Device/HyperRAM/hyperram_code.c:130:25
	cmp	r9, r8
	.loc	1 130 61 is_stmt 0              @ ../Device/HyperRAM/hyperram_code.c:130:61
	ite	hi
	addhi	r0, #1
	.loc	1 131 66 is_stmt 1              @ ../Device/HyperRAM/hyperram_code.c:131:66
	subls	r0, #1
.Ltmp280:
	.loc	1 130 0                         @ ../Device/HyperRAM/hyperram_code.c:130:0
	cmp	r0, r6
	itt	ne
	addne.w	r10, r11, #2
.Ltmp281:
	.loc	1 0 0 is_stmt 0                 @ ../Device/HyperRAM/hyperram_code.c:0:0
	movne	r1, #0
.Ltmp282:
	@DEBUG_VALUE: isConsecutive:u32j <- 0
	@DEBUG_VALUE: isConsecutive:u8Find <- undef
	@DEBUG_VALUE: isConsecutive:u8Find <- $r10
	@DEBUG_VALUE: isConsecutive:u32j <- $r1
	.loc	1 139 13 is_stmt 1              @ ../Device/HyperRAM/hyperram_code.c:139:13
	adds	r7, r1, #1
.Ltmp283:
	@DEBUG_VALUE: isConsecutive:u32j <- $r7
	.loc	1 142 21                        @ ../Device/HyperRAM/hyperram_code.c:142:21
	uxtb	r0, r2
.Ltmp284:
	.loc	1 142 13 is_stmt 0              @ ../Device/HyperRAM/hyperram_code.c:142:13
	cmp	r7, r0
	csinc	r3, r2, r1, lo
.Ltmp285:
	@DEBUG_VALUE: isConsecutive:u32i <- [DW_OP_LLVM_arg 0, DW_OP_consts 2, DW_OP_LLVM_arg 1, DW_OP_plus_uconst 528, DW_OP_plus, DW_OP_minus, DW_OP_consts 4, DW_OP_div, DW_OP_consts 4, DW_OP_mul, DW_OP_consts 3, DW_OP_plus, DW_OP_stack_value] $r5, $sp
	@DEBUG_VALUE: isConsecutive:u8MaxRang <- $r3
	.loc	1 0 0                           @ ../Device/HyperRAM/hyperram_code.c:0:0
	ldrb	r2, [r5, #1]
.Ltmp286:
	.loc	1 142 21                        @ ../Device/HyperRAM/hyperram_code.c:142:21
	uxtb	r1, r3
.Ltmp287:
	.loc	1 142 13                        @ ../Device/HyperRAM/hyperram_code.c:142:13
	csel	r4, r4, r10, lo
.Ltmp288:
	@DEBUG_VALUE: isConsecutive:u8StartIdx <- $r4
	.loc	1 130 25 is_stmt 1              @ ../Device/HyperRAM/hyperram_code.c:130:25
	cmp	r9, r8
	.loc	1 130 61 is_stmt 0              @ ../Device/HyperRAM/hyperram_code.c:130:61
	ite	hi
	addhi	r0, r6, #1
	.loc	1 131 66 is_stmt 1              @ ../Device/HyperRAM/hyperram_code.c:131:66
	subls	r0, r6, #1
.Ltmp289:
	.loc	1 130 0                         @ ../Device/HyperRAM/hyperram_code.c:130:0
	cmp	r0, r2
	itt	ne
	addne.w	r10, r11, #3
.Ltmp290:
	.loc	1 0 0 is_stmt 0                 @ ../Device/HyperRAM/hyperram_code.c:0:0
	movne	r7, #0
.Ltmp291:
	@DEBUG_VALUE: isConsecutive:u32j <- 0
	@DEBUG_VALUE: isConsecutive:u8Find <- undef
	@DEBUG_VALUE: isConsecutive:u8Find <- $r10
	@DEBUG_VALUE: isConsecutive:u32j <- $r7
	.loc	1 139 13 is_stmt 1              @ ../Device/HyperRAM/hyperram_code.c:139:13
	adds	r0, r7, #1
.Ltmp292:
	@DEBUG_VALUE: isConsecutive:u32j <- $r0
	.loc	1 0 0 is_stmt 0                 @ ../Device/HyperRAM/hyperram_code.c:0:0
	add.w	r11, r11, #4
.Ltmp293:
	.loc	1 142 13 is_stmt 1              @ ../Device/HyperRAM/hyperram_code.c:142:13
	cmp	r0, r1
	csinc	r7, r3, r7, lo
.Ltmp294:
	@DEBUG_VALUE: isConsecutive:u32i <- [DW_OP_LLVM_arg 0, DW_OP_consts 2, DW_OP_LLVM_arg 1, DW_OP_plus_uconst 528, DW_OP_plus, DW_OP_minus, DW_OP_consts 4, DW_OP_div, DW_OP_consts 4, DW_OP_mul, DW_OP_consts 4, DW_OP_plus, DW_OP_stack_value] $r5, $sp
	@DEBUG_VALUE: isConsecutive:u8MaxRang <- $r7
	.loc	1 0 0 is_stmt 0                 @ ../Device/HyperRAM/hyperram_code.c:0:0
	ldrb	r3, [r5, #2]
.Ltmp295:
	.loc	1 127 5 is_stmt 1               @ ../Device/HyperRAM/hyperram_code.c:127:5
	add.w	r5, r5, #4
.Ltmp296:
	.loc	1 142 13                        @ ../Device/HyperRAM/hyperram_code.c:142:13
	csel	r1, r4, r10, lo
.Ltmp297:
	@DEBUG_VALUE: isConsecutive:u8StartIdx <- $r1
	.loc	1 130 25                        @ ../Device/HyperRAM/hyperram_code.c:130:25
	cmp	r9, r8
	.loc	1 130 61 is_stmt 0              @ ../Device/HyperRAM/hyperram_code.c:130:61
	ite	hi
	addhi	r2, #1
	.loc	1 131 66 is_stmt 1              @ ../Device/HyperRAM/hyperram_code.c:131:66
	subls	r2, #1
.Ltmp298:
	.loc	1 130 0                         @ ../Device/HyperRAM/hyperram_code.c:130:0
	cmp	r2, r3
	itt	ne
	movne	r0, #0
.Ltmp299:
	@DEBUG_VALUE: isConsecutive:u32j <- 0
	@DEBUG_VALUE: isConsecutive:u8Find <- undef
	.loc	1 0 0 is_stmt 0                 @ ../Device/HyperRAM/hyperram_code.c:0:0
	movne	r10, r11
.Ltmp300:
	@DEBUG_VALUE: isConsecutive:u8Find <- $r10
	@DEBUG_VALUE: isConsecutive:u32j <- $r0
	.loc	1 139 13 is_stmt 1              @ ../Device/HyperRAM/hyperram_code.c:139:13
	adds	r2, r0, #1
.Ltmp301:
	@DEBUG_VALUE: isConsecutive:u32j <- $r2
	.loc	1 142 21                        @ ../Device/HyperRAM/hyperram_code.c:142:21
	uxtb	r3, r7
.Ltmp302:
	.loc	1 142 13 is_stmt 0              @ ../Device/HyperRAM/hyperram_code.c:142:13
	cmp	r2, r3
	csel	r6, r1, r10, lo
.Ltmp303:
	@DEBUG_VALUE: isConsecutive:u8StartIdx <- $r6
	csinc	r7, r7, r0, lo
.Ltmp304:
	@DEBUG_VALUE: isConsecutive:u32i <- [DW_OP_LLVM_arg 0, DW_OP_consts 2, DW_OP_LLVM_arg 1, DW_OP_plus_uconst 528, DW_OP_plus, DW_OP_minus, DW_OP_consts 4, DW_OP_div, DW_OP_consts 4, DW_OP_mul, DW_OP_consts 5, DW_OP_plus, DW_OP_stack_value] $r5, $sp
	@DEBUG_VALUE: isConsecutive:u8MaxRang <- $r7
	.loc	1 127 5 is_stmt 1               @ ../Device/HyperRAM/hyperram_code.c:127:5
	le	lr, .LBB3_20
.Ltmp305:
@ %bb.21:
	@DEBUG_VALUE: isConsecutive:u32i <- [DW_OP_LLVM_arg 0, DW_OP_consts 2, DW_OP_LLVM_arg 1, DW_OP_plus_uconst 528, DW_OP_plus, DW_OP_minus, DW_OP_consts 4, DW_OP_div, DW_OP_consts 4, DW_OP_mul, DW_OP_consts 5, DW_OP_plus, DW_OP_stack_value] $r5, $sp
	@DEBUG_VALUE: isConsecutive:u32j <- $r2
	@DEBUG_VALUE: isConsecutive:u8MaxRang <- $r7
	@DEBUG_VALUE: isConsecutive:u8StartIdx <- $r6
	@DEBUG_VALUE: isConsecutive:u8Find <- $r10
	@DEBUG_VALUE: isConsecutive:au8Src <- [DW_OP_plus_uconst 528, DW_OP_stack_value] $sp
	@DEBUG_VALUE: HyperRAM_TrimDLLDelayNumber:u32PatternSize <- [DW_OP_plus_uconst 120] [$sp+0]
	@DEBUG_VALUE: HyperRAM_TrimDLLDelayNumber:pu8TrimPattern <- [DW_OP_plus_uconst 272, DW_OP_stack_value] $sp
	@DEBUG_VALUE: HyperRAM_TrimDLLDelayNumber:pu8VerfiyBuf <- [DW_OP_plus_uconst 144, DW_OP_stack_value] $sp
	@DEBUG_VALUE: HyperRAM_TrimDLLDelayNumber:u32DMMAddr <- -2113929216
	@DEBUG_VALUE: HyperRAM_TrimDLLDelayNumber:u32Val <- 0
	@DEBUG_VALUE: HyperRAM_TrimDLLDelayNumber:u32SrcAddr <- 0
	@DEBUG_VALUE: HyperRAM_TrimDLLDelayNumber:u32ReTrimMaxCnt <- 6
	@DEBUG_VALUE: HyperRAM_TrimDLLDelayNumber:spim <- [DW_OP_plus_uconst 140] [$sp+0]
	.loc	1 130 25                        @ ../Device/HyperRAM/hyperram_code.c:130:25
	add.w	r3, r11, #1
	cmp.w	r12, #0
	beq	.LBB3_25
.Ltmp306:
.LBB3_22:
	@DEBUG_VALUE: isConsecutive:au8Src <- [DW_OP_plus_uconst 528, DW_OP_stack_value] $sp
	@DEBUG_VALUE: HyperRAM_TrimDLLDelayNumber:u32PatternSize <- [DW_OP_plus_uconst 120] [$sp+0]
	@DEBUG_VALUE: HyperRAM_TrimDLLDelayNumber:pu8TrimPattern <- [DW_OP_plus_uconst 272, DW_OP_stack_value] $sp
	@DEBUG_VALUE: HyperRAM_TrimDLLDelayNumber:pu8VerfiyBuf <- [DW_OP_plus_uconst 144, DW_OP_stack_value] $sp
	@DEBUG_VALUE: HyperRAM_TrimDLLDelayNumber:u32DMMAddr <- -2113929216
	@DEBUG_VALUE: HyperRAM_TrimDLLDelayNumber:u32Val <- 0
	@DEBUG_VALUE: HyperRAM_TrimDLLDelayNumber:u32SrcAddr <- 0
	@DEBUG_VALUE: HyperRAM_TrimDLLDelayNumber:u32ReTrimMaxCnt <- 6
	@DEBUG_VALUE: HyperRAM_TrimDLLDelayNumber:spim <- [DW_OP_plus_uconst 140] [$sp+0]
	@DEBUG_VALUE: isConsecutive:u8Find <- $r10
	@DEBUG_VALUE: isConsecutive:u8StartIdx <- $r6
	@DEBUG_VALUE: isConsecutive:u8MaxRang <- $r7
	@DEBUG_VALUE: isConsecutive:u32i <- $r3
	@DEBUG_VALUE: isConsecutive:u32j <- $r2
	.loc	1 0 25 is_stmt 0                @ ../Device/HyperRAM/hyperram_code.c:0:25
	add	r0, sp, #528
	.loc	1 130 25                        @ ../Device/HyperRAM/hyperram_code.c:130:25
	cmp	r9, r8
	.loc	1 0 0                           @ ../Device/HyperRAM/hyperram_code.c:0:0
	add.w	r1, r0, r3
	ldrb	r0, [r0, r3]
	ldrb	r1, [r1, #-1]
	.loc	1 130 61                        @ ../Device/HyperRAM/hyperram_code.c:130:61
	ite	hi
	addhi	r1, #1
	.loc	1 131 66 is_stmt 1              @ ../Device/HyperRAM/hyperram_code.c:131:66
	subls	r1, #1
.Ltmp307:
	.loc	1 130 0                         @ ../Device/HyperRAM/hyperram_code.c:130:0
	cmp	r1, r0
	itt	ne
	movne	r2, #0
.Ltmp308:
	@DEBUG_VALUE: isConsecutive:u32j <- 0
	@DEBUG_VALUE: isConsecutive:u8Find <- undef
	.loc	1 0 0 is_stmt 0                 @ ../Device/HyperRAM/hyperram_code.c:0:0
	movne	r10, r3
.Ltmp309:
	@DEBUG_VALUE: isConsecutive:u8Find <- $r10
	@DEBUG_VALUE: isConsecutive:u32j <- $r2
	.loc	1 139 13 is_stmt 1              @ ../Device/HyperRAM/hyperram_code.c:139:13
	adds	r0, r2, #1
.Ltmp310:
	@DEBUG_VALUE: isConsecutive:u32j <- $r0
	.loc	1 142 21                        @ ../Device/HyperRAM/hyperram_code.c:142:21
	uxtb	r1, r7
.Ltmp311:
	.loc	1 142 13 is_stmt 0              @ ../Device/HyperRAM/hyperram_code.c:142:13
	cmp	r0, r1
	csel	r6, r6, r10, lo
.Ltmp312:
	@DEBUG_VALUE: isConsecutive:u8StartIdx <- $r6
	csinc	r7, r7, r2, lo
.Ltmp313:
	@DEBUG_VALUE: isConsecutive:u32i <- undef
	@DEBUG_VALUE: isConsecutive:u8MaxRang <- $r7
	.loc	1 127 5 is_stmt 1               @ ../Device/HyperRAM/hyperram_code.c:127:5
	cmp.w	r12, #1
	beq	.LBB3_25
.Ltmp314:
@ %bb.23:
	@DEBUG_VALUE: isConsecutive:u32j <- $r0
	@DEBUG_VALUE: isConsecutive:u8MaxRang <- $r7
	@DEBUG_VALUE: isConsecutive:u8StartIdx <- $r6
	@DEBUG_VALUE: isConsecutive:u8Find <- $r10
	@DEBUG_VALUE: isConsecutive:au8Src <- [DW_OP_plus_uconst 528, DW_OP_stack_value] $sp
	@DEBUG_VALUE: HyperRAM_TrimDLLDelayNumber:u32PatternSize <- [DW_OP_plus_uconst 120] [$sp+0]
	@DEBUG_VALUE: HyperRAM_TrimDLLDelayNumber:pu8TrimPattern <- [DW_OP_plus_uconst 272, DW_OP_stack_value] $sp
	@DEBUG_VALUE: HyperRAM_TrimDLLDelayNumber:pu8VerfiyBuf <- [DW_OP_plus_uconst 144, DW_OP_stack_value] $sp
	@DEBUG_VALUE: HyperRAM_TrimDLLDelayNumber:u32DMMAddr <- -2113929216
	@DEBUG_VALUE: HyperRAM_TrimDLLDelayNumber:u32Val <- 0
	@DEBUG_VALUE: HyperRAM_TrimDLLDelayNumber:u32SrcAddr <- 0
	@DEBUG_VALUE: HyperRAM_TrimDLLDelayNumber:u32ReTrimMaxCnt <- 6
	@DEBUG_VALUE: HyperRAM_TrimDLLDelayNumber:spim <- [DW_OP_plus_uconst 140] [$sp+0]
	.loc	1 0 0 is_stmt 0                 @ ../Device/HyperRAM/hyperram_code.c:0:0
	adds	r1, r3, #1
	@DEBUG_VALUE: isConsecutive:u32j <- $r0
.Ltmp315:
	@DEBUG_VALUE: isConsecutive:u32i <- $r1
	@DEBUG_VALUE: isConsecutive:u8MaxRang <- $r7
	@DEBUG_VALUE: isConsecutive:u8StartIdx <- $r6
	@DEBUG_VALUE: isConsecutive:u8Find <- $r10
	add	r5, sp, #528
.Ltmp316:
	ldrb	r2, [r5, r1]
	ldrb	r5, [r5, r3]
	.loc	1 130 25 is_stmt 1              @ ../Device/HyperRAM/hyperram_code.c:130:25
	cmp	r9, r8
	.loc	1 130 61 is_stmt 0              @ ../Device/HyperRAM/hyperram_code.c:130:61
	ite	hi
	addhi	r5, #1
	.loc	1 131 66 is_stmt 1              @ ../Device/HyperRAM/hyperram_code.c:131:66
	subls	r5, #1
.Ltmp317:
	.loc	1 130 0                         @ ../Device/HyperRAM/hyperram_code.c:130:0
	cmp	r5, r2
	itt	ne
	movne	r0, #0
.Ltmp318:
	@DEBUG_VALUE: isConsecutive:u32j <- 0
	@DEBUG_VALUE: isConsecutive:u8Find <- undef
	.loc	1 0 0 is_stmt 0                 @ ../Device/HyperRAM/hyperram_code.c:0:0
	movne	r10, r1
.Ltmp319:
	@DEBUG_VALUE: isConsecutive:u32i <- $r10
	@DEBUG_VALUE: isConsecutive:u8Find <- $r10
	@DEBUG_VALUE: isConsecutive:u32j <- $r0
	.loc	1 139 13 is_stmt 1              @ ../Device/HyperRAM/hyperram_code.c:139:13
	adds	r2, r0, #1
.Ltmp320:
	@DEBUG_VALUE: isConsecutive:u32j <- $r2
	.loc	1 142 21                        @ ../Device/HyperRAM/hyperram_code.c:142:21
	uxtb	r1, r7
.Ltmp321:
	.loc	1 142 13 is_stmt 0              @ ../Device/HyperRAM/hyperram_code.c:142:13
	cmp	r2, r1
	csel	r6, r6, r10, lo
.Ltmp322:
	@DEBUG_VALUE: isConsecutive:u8StartIdx <- $r6
	csinc	r7, r7, r0, lo
.Ltmp323:
	@DEBUG_VALUE: isConsecutive:u32i <- undef
	@DEBUG_VALUE: isConsecutive:u8MaxRang <- $r7
	.loc	1 127 5 is_stmt 1               @ ../Device/HyperRAM/hyperram_code.c:127:5
	cmp.w	r12, #2
	beq	.LBB3_25
.Ltmp324:
@ %bb.24:
	@DEBUG_VALUE: isConsecutive:u32j <- $r2
	@DEBUG_VALUE: isConsecutive:u8MaxRang <- $r7
	@DEBUG_VALUE: isConsecutive:u8StartIdx <- $r6
	@DEBUG_VALUE: isConsecutive:u8Find <- $r10
	@DEBUG_VALUE: isConsecutive:au8Src <- [DW_OP_plus_uconst 528, DW_OP_stack_value] $sp
	@DEBUG_VALUE: HyperRAM_TrimDLLDelayNumber:u32PatternSize <- [DW_OP_plus_uconst 120] [$sp+0]
	@DEBUG_VALUE: HyperRAM_TrimDLLDelayNumber:pu8TrimPattern <- [DW_OP_plus_uconst 272, DW_OP_stack_value] $sp
	@DEBUG_VALUE: HyperRAM_TrimDLLDelayNumber:pu8VerfiyBuf <- [DW_OP_plus_uconst 144, DW_OP_stack_value] $sp
	@DEBUG_VALUE: HyperRAM_TrimDLLDelayNumber:u32DMMAddr <- -2113929216
	@DEBUG_VALUE: HyperRAM_TrimDLLDelayNumber:u32Val <- 0
	@DEBUG_VALUE: HyperRAM_TrimDLLDelayNumber:u32SrcAddr <- 0
	@DEBUG_VALUE: HyperRAM_TrimDLLDelayNumber:u32ReTrimMaxCnt <- 6
	@DEBUG_VALUE: HyperRAM_TrimDLLDelayNumber:spim <- [DW_OP_plus_uconst 140] [$sp+0]
	.loc	1 0 0 is_stmt 0                 @ ../Device/HyperRAM/hyperram_code.c:0:0
	adds	r0, r3, #2
	@DEBUG_VALUE: isConsecutive:u32j <- $r2
.Ltmp325:
	@DEBUG_VALUE: isConsecutive:u32i <- $r0
	@DEBUG_VALUE: isConsecutive:u8MaxRang <- $r7
	@DEBUG_VALUE: isConsecutive:u8StartIdx <- $r6
	@DEBUG_VALUE: isConsecutive:u8Find <- $r10
	add	r1, sp, #528
.Ltmp326:
	adds	r3, r1, r0
	ldrb	r1, [r1, r0]
	ldrb	r3, [r3, #-1]
	.loc	1 130 25 is_stmt 1              @ ../Device/HyperRAM/hyperram_code.c:130:25
	cmp	r9, r8
	.loc	1 130 61 is_stmt 0              @ ../Device/HyperRAM/hyperram_code.c:130:61
	ite	hi
	addhi	r3, #1
	.loc	1 131 66 is_stmt 1              @ ../Device/HyperRAM/hyperram_code.c:131:66
	subls	r3, #1
.Ltmp327:
	.loc	1 130 0                         @ ../Device/HyperRAM/hyperram_code.c:130:0
	cmp	r3, r1
	itt	ne
	movne	r2, #0
.Ltmp328:
	@DEBUG_VALUE: isConsecutive:u32j <- 0
	@DEBUG_VALUE: isConsecutive:u8Find <- undef
	.loc	1 0 0 is_stmt 0                 @ ../Device/HyperRAM/hyperram_code.c:0:0
	movne	r10, r0
.Ltmp329:
	@DEBUG_VALUE: isConsecutive:u32i <- $r10
	@DEBUG_VALUE: isConsecutive:u8Find <- $r10
	@DEBUG_VALUE: isConsecutive:u32j <- $r2
	.loc	1 139 13 is_stmt 1              @ ../Device/HyperRAM/hyperram_code.c:139:13
	adds	r0, r2, #1
.Ltmp330:
	@DEBUG_VALUE: isConsecutive:u32j <- $r0
	.loc	1 142 21                        @ ../Device/HyperRAM/hyperram_code.c:142:21
	uxtb	r1, r7
.Ltmp331:
	.loc	1 142 13 is_stmt 0              @ ../Device/HyperRAM/hyperram_code.c:142:13
	cmp	r0, r1
	csel	r6, r6, r10, lo
.Ltmp332:
	@DEBUG_VALUE: isConsecutive:u8StartIdx <- $r6
	csinc	r7, r7, r2, lo
.Ltmp333:
	@DEBUG_VALUE: isConsecutive:u32i <- [DW_OP_plus_uconst 3, DW_OP_stack_value] undef
	@DEBUG_VALUE: isConsecutive:u8MaxRang <- $r7
.LBB3_25:
	@DEBUG_VALUE: isConsecutive:au8Src <- [DW_OP_plus_uconst 528, DW_OP_stack_value] $sp
	@DEBUG_VALUE: HyperRAM_TrimDLLDelayNumber:u32PatternSize <- [DW_OP_plus_uconst 120] [$sp+0]
	@DEBUG_VALUE: HyperRAM_TrimDLLDelayNumber:pu8TrimPattern <- [DW_OP_plus_uconst 272, DW_OP_stack_value] $sp
	@DEBUG_VALUE: HyperRAM_TrimDLLDelayNumber:pu8VerfiyBuf <- [DW_OP_plus_uconst 144, DW_OP_stack_value] $sp
	@DEBUG_VALUE: HyperRAM_TrimDLLDelayNumber:u32DMMAddr <- -2113929216
	@DEBUG_VALUE: HyperRAM_TrimDLLDelayNumber:u32Val <- 0
	@DEBUG_VALUE: HyperRAM_TrimDLLDelayNumber:u32SrcAddr <- 0
	@DEBUG_VALUE: HyperRAM_TrimDLLDelayNumber:u32ReTrimMaxCnt <- 6
	@DEBUG_VALUE: HyperRAM_TrimDLLDelayNumber:spim <- [DW_OP_plus_uconst 140] [$sp+0]
	.loc	1 149 23 is_stmt 1              @ ../Device/HyperRAM/hyperram_code.c:149:23
	uxtb	r1, r7
	.loc	1 151 12                        @ ../Device/HyperRAM/hyperram_code.c:151:12
	uxtb	r0, r6
	.loc	1 149 12                        @ ../Device/HyperRAM/hyperram_code.c:149:12
	cmp	r1, #2
	blo	.LBB3_27
.Ltmp334:
@ %bb.26:
	@DEBUG_VALUE: isConsecutive:au8Src <- [DW_OP_plus_uconst 528, DW_OP_stack_value] $sp
	@DEBUG_VALUE: HyperRAM_TrimDLLDelayNumber:u32PatternSize <- [DW_OP_plus_uconst 120] [$sp+0]
	@DEBUG_VALUE: HyperRAM_TrimDLLDelayNumber:pu8TrimPattern <- [DW_OP_plus_uconst 272, DW_OP_stack_value] $sp
	@DEBUG_VALUE: HyperRAM_TrimDLLDelayNumber:pu8VerfiyBuf <- [DW_OP_plus_uconst 144, DW_OP_stack_value] $sp
	@DEBUG_VALUE: HyperRAM_TrimDLLDelayNumber:u32DMMAddr <- -2113929216
	@DEBUG_VALUE: HyperRAM_TrimDLLDelayNumber:u32Val <- 0
	@DEBUG_VALUE: HyperRAM_TrimDLLDelayNumber:u32SrcAddr <- 0
	@DEBUG_VALUE: HyperRAM_TrimDLLDelayNumber:u32ReTrimMaxCnt <- 6
	@DEBUG_VALUE: HyperRAM_TrimDLLDelayNumber:spim <- [DW_OP_plus_uconst 140] [$sp+0]
	.loc	1 150 12                        @ ../Device/HyperRAM/hyperram_code.c:150:12
	add	r2, sp, #528
	add.w	r1, r2, r1, lsr #1
	.loc	1 150 64 is_stmt 0              @ ../Device/HyperRAM/hyperram_code.c:150:64
	and	r2, r7, #1
	.loc	1 150 12                        @ ../Device/HyperRAM/hyperram_code.c:150:12
	add	r0, r1
	ldrb	r0, [r0, r2]
	.loc	1 150 86                        @ ../Device/HyperRAM/hyperram_code.c:150:86
	subs	r0, #1
	.loc	1 149 12 is_stmt 1              @ ../Device/HyperRAM/hyperram_code.c:149:12
	b	.LBB3_28
.Ltmp335:
.LBB3_27:
	@DEBUG_VALUE: isConsecutive:au8Src <- [DW_OP_plus_uconst 528, DW_OP_stack_value] $sp
	@DEBUG_VALUE: HyperRAM_TrimDLLDelayNumber:u32PatternSize <- [DW_OP_plus_uconst 120] [$sp+0]
	@DEBUG_VALUE: HyperRAM_TrimDLLDelayNumber:pu8TrimPattern <- [DW_OP_plus_uconst 272, DW_OP_stack_value] $sp
	@DEBUG_VALUE: HyperRAM_TrimDLLDelayNumber:pu8VerfiyBuf <- [DW_OP_plus_uconst 144, DW_OP_stack_value] $sp
	@DEBUG_VALUE: HyperRAM_TrimDLLDelayNumber:u32DMMAddr <- -2113929216
	@DEBUG_VALUE: HyperRAM_TrimDLLDelayNumber:u32Val <- 0
	@DEBUG_VALUE: HyperRAM_TrimDLLDelayNumber:u32SrcAddr <- 0
	@DEBUG_VALUE: HyperRAM_TrimDLLDelayNumber:u32ReTrimMaxCnt <- 6
	@DEBUG_VALUE: HyperRAM_TrimDLLDelayNumber:spim <- [DW_OP_plus_uconst 140] [$sp+0]
	.loc	1 151 12                        @ ../Device/HyperRAM/hyperram_code.c:151:12
	add	r1, sp, #528
	ldrb	r0, [r1, r0]
.Ltmp336:
.LBB3_28:
	@DEBUG_VALUE: HyperRAM_TrimDLLDelayNumber:u32PatternSize <- [DW_OP_plus_uconst 120] [$sp+0]
	@DEBUG_VALUE: HyperRAM_TrimDLLDelayNumber:pu8TrimPattern <- [DW_OP_plus_uconst 272, DW_OP_stack_value] $sp
	@DEBUG_VALUE: HyperRAM_TrimDLLDelayNumber:pu8VerfiyBuf <- [DW_OP_plus_uconst 144, DW_OP_stack_value] $sp
	@DEBUG_VALUE: HyperRAM_TrimDLLDelayNumber:u32DMMAddr <- -2113929216
	@DEBUG_VALUE: HyperRAM_TrimDLLDelayNumber:u32Val <- 0
	@DEBUG_VALUE: HyperRAM_TrimDLLDelayNumber:u32SrcAddr <- 0
	@DEBUG_VALUE: HyperRAM_TrimDLLDelayNumber:u32ReTrimMaxCnt <- 6
	@DEBUG_VALUE: HyperRAM_TrimDLLDelayNumber:spim <- [DW_OP_plus_uconst 140] [$sp+0]
	@DEBUG_VALUE: HyperRAM_TrimDLLDelayNumber:u8RdDelay <- $r0
	.loc	1 256 42                        @ ../Device/HyperRAM/hyperram_code.c:256:42
	uxtb	r4, r0
	.loc	1 256 5 is_stmt 0               @ ../Device/HyperRAM/hyperram_code.c:256:5
	adr	r0, .LCPI3_4
.Ltmp337:
	mov	r1, r4
	bl	__2printf
.Ltmp338:
	.loc	1 258 5 is_stmt 1               @ ../Device/HyperRAM/hyperram_code.c:258:5
	ldr	r0, [sp, #140]                  @ 4-byte Reload
	mov	r1, r4
	bl	SPIM_HYPER_SetDLLDelayNum
.Ltmp339:
.LBB3_29:
	@DEBUG_VALUE: HyperRAM_TrimDLLDelayNumber:spim <- [DW_OP_plus_uconst 140] [$sp+0]
	.loc	1 259 1 epilogue_begin          @ ../Device/HyperRAM/hyperram_code.c:259:1
	add.w	sp, sp, #560
	vpop	{d8, d9, d10, d11, d12, d13, d14, d15}
	add	sp, #4
	pop.w	{r4, r5, r6, r7, r8, r9, r10, r11, pc}
.Ltmp340:
	.loc	1 0 1 is_stmt 0                 @ :0:1
.Ltmp341:
	.p2align	4
@ %bb.30:
.LCPI3_0:
	.long	12                              @ 0xc
	.long	13                              @ 0xd
	.long	14                              @ 0xe
	.long	15                              @ 0xf
.LCPI3_1:
	.long	8                               @ 0x8
	.long	9                               @ 0x9
	.long	10                              @ 0xa
	.long	11                              @ 0xb
.LCPI3_2:
	.long	4                               @ 0x4
	.long	5                               @ 0x5
	.long	6                               @ 0x6
	.long	7                               @ 0x7
.LCPI3_3:
	.long	0                               @ 0x0
	.long	1                               @ 0x1
	.long	2                               @ 0x2
	.long	3                               @ 0x3
.LCPI3_4:
.L.str.2:
	.asciz	"Set DLL Delay Num : %d\r\n\000\000\000"
.Lfunc_end3:
	.size	HyperRAM_TrimDLLDelayNumber, .Lfunc_end3-HyperRAM_TrimDLLDelayNumber
	.cfi_endproc
	.cantunwind
	.fnend
                                        @ -- End function
	.section	.text.HyperRAM_Init,"ax",%progbits
	.hidden	HyperRAM_Init                   @ -- Begin function HyperRAM_Init
	.globl	HyperRAM_Init
	.p2align	2
	.type	HyperRAM_Init,%function
	.code	16                              @ @HyperRAM_Init
	.thumb_func
HyperRAM_Init:
.Lfunc_begin4:
	.loc	1 262 0 is_stmt 1               @ ../Device/HyperRAM/hyperram_code.c:262:0
	.fnstart
	.cfi_startproc
@ %bb.0:
	@DEBUG_VALUE: HyperRAM_Init:spim <- $r0
	.save	{r4, r5, r6, r7, lr}
	push	{r4, r5, r6, r7, lr}
	.cfi_def_cfa_offset 20
	.cfi_offset lr, -4
	.cfi_offset r7, -8
	.cfi_offset r6, -12
	.cfi_offset r5, -16
	.cfi_offset r4, -20
	.pad	#4
	sub	sp, #4
	.cfi_def_cfa_offset 24
.Ltmp342:
	.file	9 "C:\\Users\\jimmy\\Desktop\\Nuvoton\\Nuvoton-Team\\repos\\m55m1-ElevatorCounting-YOLOv8n\\KEIL" "../../../../Library/StdDriver/inc\\sys.h"
	.loc	9 4257 32 prologue_end          @ ../../../../Library/StdDriver/inc\sys.h:4257:32
	movw	r7, :lower16:SystemCoreClock
	mov	r4, r0
.Ltmp343:
	@DEBUG_VALUE: HyperRAM_Init:spim <- $r4
	@DEBUG_VALUE: HyperRAM_Init:spim <- $r4
	movt	r7, :upper16:SystemCoreClock
	movw	r6, #256
	ldr	r0, [r7]
.Ltmp344:
	@DEBUG_VALUE: SYS_UnlockReg:u32TimeOutCount <- $r0
	.loc	9 0 32 is_stmt 0                @ ../../../../Library/StdDriver/inc\sys.h:0:32
	movs	r1, #89
	movt	r6, #16384
	movs	r2, #22
	movs	r3, #136
.Ltmp345:
.LBB4_1:                                @ =>This Inner Loop Header: Depth=1
	@DEBUG_VALUE: SYS_UnlockReg:u32TimeOutCount <- $r0
	@DEBUG_VALUE: HyperRAM_Init:spim <- $r4
	@DEBUG_VALUE: SYS_UnlockReg:u32TimeOutCount <- $r0
	.loc	9 4265 13 is_stmt 1             @ ../../../../Library/StdDriver/inc\sys.h:4265:13
	cmp	r0, #1
	.loc	9 4261 22                       @ ../../../../Library/StdDriver/inc\sys.h:4261:22
	str	r1, [r6]
	.loc	9 4262 22                       @ ../../../../Library/StdDriver/inc\sys.h:4262:22
	str	r2, [r6]
	.loc	9 4263 22                       @ ../../../../Library/StdDriver/inc\sys.h:4263:22
	str	r3, [r6]
.Ltmp346:
	@DEBUG_VALUE: SYS_UnlockReg:u32TimeOutCount <- [DW_OP_constu 1, DW_OP_minus, DW_OP_stack_value] $r0
	.loc	9 4265 13                       @ ../../../../Library/StdDriver/inc\sys.h:4265:13
	beq	.LBB4_9
.Ltmp347:
@ %bb.2:                                @   in Loop: Header=BB4_1 Depth=1
	@DEBUG_VALUE: SYS_UnlockReg:u32TimeOutCount <- [DW_OP_constu 1, DW_OP_minus, DW_OP_stack_value] $r0
	@DEBUG_VALUE: HyperRAM_Init:spim <- $r4
	.loc	9 4266 19                       @ ../../../../Library/StdDriver/inc\sys.h:4266:19
	ldr	r5, [r6]
.Ltmp348:
	.loc	9 4266 5 is_stmt 0              @ ../../../../Library/StdDriver/inc\sys.h:4266:5
	cbnz	r5, .LBB4_9
.Ltmp349:
@ %bb.3:                                @   in Loop: Header=BB4_1 Depth=1
	@DEBUG_VALUE: SYS_UnlockReg:u32TimeOutCount <- [DW_OP_constu 1, DW_OP_minus, DW_OP_stack_value] $r0
	@DEBUG_VALUE: HyperRAM_Init:spim <- $r4
	@DEBUG_VALUE: SYS_UnlockReg:u32TimeOutCount <- [DW_OP_constu 1, DW_OP_minus, DW_OP_stack_value] $r0
	.loc	9 4265 13 is_stmt 1             @ ../../../../Library/StdDriver/inc\sys.h:4265:13
	cmp	r0, #2
	.loc	9 4261 22                       @ ../../../../Library/StdDriver/inc\sys.h:4261:22
	str	r1, [r6]
	.loc	9 4262 22                       @ ../../../../Library/StdDriver/inc\sys.h:4262:22
	str	r2, [r6]
	.loc	9 4263 22                       @ ../../../../Library/StdDriver/inc\sys.h:4263:22
	str	r3, [r6]
.Ltmp350:
	@DEBUG_VALUE: SYS_UnlockReg:u32TimeOutCount <- [DW_OP_constu 2, DW_OP_minus, DW_OP_stack_value] $r0
	.loc	9 4265 13                       @ ../../../../Library/StdDriver/inc\sys.h:4265:13
	beq	.LBB4_9
.Ltmp351:
@ %bb.4:                                @   in Loop: Header=BB4_1 Depth=1
	@DEBUG_VALUE: SYS_UnlockReg:u32TimeOutCount <- [DW_OP_constu 2, DW_OP_minus, DW_OP_stack_value] $r0
	@DEBUG_VALUE: HyperRAM_Init:spim <- $r4
	.loc	9 4266 19                       @ ../../../../Library/StdDriver/inc\sys.h:4266:19
	ldr	r5, [r6]
.Ltmp352:
	.loc	9 4266 5 is_stmt 0              @ ../../../../Library/StdDriver/inc\sys.h:4266:5
	cbnz	r5, .LBB4_9
.Ltmp353:
@ %bb.5:                                @   in Loop: Header=BB4_1 Depth=1
	@DEBUG_VALUE: SYS_UnlockReg:u32TimeOutCount <- [DW_OP_constu 2, DW_OP_minus, DW_OP_stack_value] $r0
	@DEBUG_VALUE: HyperRAM_Init:spim <- $r4
	@DEBUG_VALUE: SYS_UnlockReg:u32TimeOutCount <- [DW_OP_constu 2, DW_OP_minus, DW_OP_stack_value] $r0
	.loc	9 4265 13 is_stmt 1             @ ../../../../Library/StdDriver/inc\sys.h:4265:13
	cmp	r0, #3
	.loc	9 4261 22                       @ ../../../../Library/StdDriver/inc\sys.h:4261:22
	str	r1, [r6]
	.loc	9 4262 22                       @ ../../../../Library/StdDriver/inc\sys.h:4262:22
	str	r2, [r6]
	.loc	9 4263 22                       @ ../../../../Library/StdDriver/inc\sys.h:4263:22
	str	r3, [r6]
.Ltmp354:
	@DEBUG_VALUE: SYS_UnlockReg:u32TimeOutCount <- [DW_OP_constu 3, DW_OP_minus, DW_OP_stack_value] $r0
	.loc	9 4265 13                       @ ../../../../Library/StdDriver/inc\sys.h:4265:13
	beq	.LBB4_9
.Ltmp355:
@ %bb.6:                                @   in Loop: Header=BB4_1 Depth=1
	@DEBUG_VALUE: SYS_UnlockReg:u32TimeOutCount <- [DW_OP_constu 3, DW_OP_minus, DW_OP_stack_value] $r0
	@DEBUG_VALUE: HyperRAM_Init:spim <- $r4
	.loc	9 4266 19                       @ ../../../../Library/StdDriver/inc\sys.h:4266:19
	ldr	r5, [r6]
.Ltmp356:
	.loc	9 4266 5 is_stmt 0              @ ../../../../Library/StdDriver/inc\sys.h:4266:5
	cbnz	r5, .LBB4_9
.Ltmp357:
@ %bb.7:                                @   in Loop: Header=BB4_1 Depth=1
	@DEBUG_VALUE: SYS_UnlockReg:u32TimeOutCount <- [DW_OP_constu 3, DW_OP_minus, DW_OP_stack_value] $r0
	@DEBUG_VALUE: HyperRAM_Init:spim <- $r4
	@DEBUG_VALUE: SYS_UnlockReg:u32TimeOutCount <- [DW_OP_constu 3, DW_OP_minus, DW_OP_stack_value] $r0
	.loc	9 4265 13 is_stmt 1             @ ../../../../Library/StdDriver/inc\sys.h:4265:13
	subs	r0, #4
.Ltmp358:
	@DEBUG_VALUE: SYS_UnlockReg:u32TimeOutCount <- $r0
	.loc	9 4261 22                       @ ../../../../Library/StdDriver/inc\sys.h:4261:22
	str	r1, [r6]
	.loc	9 4262 22                       @ ../../../../Library/StdDriver/inc\sys.h:4262:22
	str	r2, [r6]
	.loc	9 4263 22                       @ ../../../../Library/StdDriver/inc\sys.h:4263:22
	str	r3, [r6]
	.loc	9 4265 13                       @ ../../../../Library/StdDriver/inc\sys.h:4265:13
	beq	.LBB4_9
.Ltmp359:
@ %bb.8:                                @   in Loop: Header=BB4_1 Depth=1
	@DEBUG_VALUE: SYS_UnlockReg:u32TimeOutCount <- $r0
	@DEBUG_VALUE: HyperRAM_Init:spim <- $r4
	.loc	9 4266 19                       @ ../../../../Library/StdDriver/inc\sys.h:4266:19
	ldr	r5, [r6]
.Ltmp360:
	.loc	9 4266 5 is_stmt 0              @ ../../../../Library/StdDriver/inc\sys.h:4266:5
	cbnz	r5, .LBB4_9
	le	.LBB4_1
.Ltmp361:
.LBB4_9:
	@DEBUG_VALUE: HyperRAM_Init:spim <- $r4
	.loc	1 269 5 is_stmt 1               @ ../Device/HyperRAM/hyperram_code.c:269:5
	movs	r0, #0
	mov.w	r1, #1540096
	movs	r5, #0
	bl	CLK_EnableModuleClock
.Ltmp362:
	.loc	1 275 5                         @ ../Device/HyperRAM/hyperram_code.c:275:5
	mov	r0, r4
	movs	r1, #1
	movs	r2, #1
.Ltmp363:
	.loc	9 4278 18                       @ ../../../../Library/StdDriver/inc\sys.h:4278:18
	str	r5, [r6]
.Ltmp364:
	.loc	1 275 5                         @ ../Device/HyperRAM/hyperram_code.c:275:5
	bl	SPIM_HYPER_Init
.Ltmp365:
	@DEBUG_VALUE: SPIM_HYPER_WAIT_DMMDONE:spim <- $r4
	@DEBUG_VALUE: SPIM_HYPER_WAIT_DMMDONE:i32TimeOutCount <- [DW_OP_deref] $sp
	@DEBUG_VALUE: SPIM_HYPER_DISABLE_CIPHER:spim <- $r4
	.file	10 "C:\\Users\\jimmy\\Desktop\\Nuvoton\\Nuvoton-Team\\repos\\m55m1-ElevatorCounting-YOLOv8n\\KEIL" "../../../../Library/StdDriver/inc\\spim_hyper.h"
	.loc	10 642 49                       @ ../../../../Library/StdDriver/inc\spim_hyper.h:642:49
	ldr	r0, [r7]
	.loc	10 642 22 is_stmt 0             @ ../../../../Library/StdDriver/inc\spim_hyper.h:642:22
	str	r0, [sp]
	.loc	10 644 5 is_stmt 1              @ ../../../../Library/StdDriver/inc\spim_hyper.h:644:5
	ldr	r1, [r4, #68]
	orr	r1, r1, #134217728
	str	r1, [r4, #68]
.Ltmp366:
.LBB4_10:                               @ =>This Inner Loop Header: Depth=1
	@DEBUG_VALUE: SPIM_HYPER_DISABLE_CIPHER:spim <- $r4
	@DEBUG_VALUE: SPIM_HYPER_WAIT_DMMDONE:i32TimeOutCount <- [DW_OP_deref] $sp
	@DEBUG_VALUE: SPIM_HYPER_WAIT_DMMDONE:spim <- $r4
	@DEBUG_VALUE: HyperRAM_Init:spim <- $r4
	.loc	10 646 12                       @ ../../../../Library/StdDriver/inc\spim_hyper.h:646:12
	ldr	r1, [r4, #68]
	.loc	10 646 5 is_stmt 0              @ ../../../../Library/StdDriver/inc\spim_hyper.h:646:5
	lsls	r1, r1, #4
	bpl	.LBB4_18
.Ltmp367:
@ %bb.11:                               @   in Loop: Header=BB4_10 Depth=1
	@DEBUG_VALUE: SPIM_HYPER_DISABLE_CIPHER:spim <- $r4
	@DEBUG_VALUE: SPIM_HYPER_WAIT_DMMDONE:i32TimeOutCount <- [DW_OP_deref] $sp
	@DEBUG_VALUE: SPIM_HYPER_WAIT_DMMDONE:spim <- $r4
	@DEBUG_VALUE: HyperRAM_Init:spim <- $r4
	.loc	10 648 13 is_stmt 1             @ ../../../../Library/StdDriver/inc\spim_hyper.h:648:13
	ldr	r1, [sp]
	subs	r2, r1, #1
.Ltmp368:
	.loc	10 648 13 is_stmt 0             @ ../../../../Library/StdDriver/inc\spim_hyper.h:648:13
	cmp	r1, #2
.Ltmp369:
	@DEBUG_VALUE: SPIM_HYPER_WAIT_DMMDONE:i32TimeOutCount <- [DW_OP_constu 1, DW_OP_minus, DW_OP_stack_value] undef
	.loc	10 648 13                       @ ../../../../Library/StdDriver/inc\spim_hyper.h:648:13
	str	r2, [sp]
.Ltmp370:
	.loc	10 648 13                       @ ../../../../Library/StdDriver/inc\spim_hyper.h:648:13
	blt	.LBB4_18
.Ltmp371:
@ %bb.12:                               @   in Loop: Header=BB4_10 Depth=1
	@DEBUG_VALUE: SPIM_HYPER_DISABLE_CIPHER:spim <- $r4
	@DEBUG_VALUE: SPIM_HYPER_WAIT_DMMDONE:spim <- $r4
	@DEBUG_VALUE: HyperRAM_Init:spim <- $r4
	.loc	10 646 12 is_stmt 1             @ ../../../../Library/StdDriver/inc\spim_hyper.h:646:12
	ldr	r1, [r4, #68]
	.loc	10 646 5 is_stmt 0              @ ../../../../Library/StdDriver/inc\spim_hyper.h:646:5
	lsls	r1, r1, #4
	bpl	.LBB4_18
.Ltmp372:
@ %bb.13:                               @   in Loop: Header=BB4_10 Depth=1
	@DEBUG_VALUE: SPIM_HYPER_DISABLE_CIPHER:spim <- $r4
	@DEBUG_VALUE: SPIM_HYPER_WAIT_DMMDONE:spim <- $r4
	@DEBUG_VALUE: HyperRAM_Init:spim <- $r4
	.loc	10 648 13 is_stmt 1             @ ../../../../Library/StdDriver/inc\spim_hyper.h:648:13
	ldr	r1, [sp]
	subs	r2, r1, #1
.Ltmp373:
	.loc	10 648 13 is_stmt 0             @ ../../../../Library/StdDriver/inc\spim_hyper.h:648:13
	cmp	r1, #2
.Ltmp374:
	@DEBUG_VALUE: SPIM_HYPER_WAIT_DMMDONE:i32TimeOutCount <- [DW_OP_constu 1, DW_OP_minus, DW_OP_stack_value] undef
	.loc	10 648 13                       @ ../../../../Library/StdDriver/inc\spim_hyper.h:648:13
	str	r2, [sp]
.Ltmp375:
	.loc	10 648 13                       @ ../../../../Library/StdDriver/inc\spim_hyper.h:648:13
	blt	.LBB4_18
.Ltmp376:
@ %bb.14:                               @   in Loop: Header=BB4_10 Depth=1
	@DEBUG_VALUE: SPIM_HYPER_DISABLE_CIPHER:spim <- $r4
	@DEBUG_VALUE: SPIM_HYPER_WAIT_DMMDONE:spim <- $r4
	@DEBUG_VALUE: HyperRAM_Init:spim <- $r4
	.loc	10 646 12 is_stmt 1             @ ../../../../Library/StdDriver/inc\spim_hyper.h:646:12
	ldr	r1, [r4, #68]
	.loc	10 646 5 is_stmt 0              @ ../../../../Library/StdDriver/inc\spim_hyper.h:646:5
	lsls	r1, r1, #4
	bpl	.LBB4_18
.Ltmp377:
@ %bb.15:                               @   in Loop: Header=BB4_10 Depth=1
	@DEBUG_VALUE: SPIM_HYPER_DISABLE_CIPHER:spim <- $r4
	@DEBUG_VALUE: SPIM_HYPER_WAIT_DMMDONE:spim <- $r4
	@DEBUG_VALUE: HyperRAM_Init:spim <- $r4
	.loc	10 648 13 is_stmt 1             @ ../../../../Library/StdDriver/inc\spim_hyper.h:648:13
	ldr	r1, [sp]
	subs	r2, r1, #1
.Ltmp378:
	.loc	10 648 13 is_stmt 0             @ ../../../../Library/StdDriver/inc\spim_hyper.h:648:13
	cmp	r1, #2
.Ltmp379:
	@DEBUG_VALUE: SPIM_HYPER_WAIT_DMMDONE:i32TimeOutCount <- [DW_OP_constu 1, DW_OP_minus, DW_OP_stack_value] undef
	.loc	10 648 13                       @ ../../../../Library/StdDriver/inc\spim_hyper.h:648:13
	str	r2, [sp]
.Ltmp380:
	.loc	10 648 13                       @ ../../../../Library/StdDriver/inc\spim_hyper.h:648:13
	blt	.LBB4_18
.Ltmp381:
@ %bb.16:                               @   in Loop: Header=BB4_10 Depth=1
	@DEBUG_VALUE: SPIM_HYPER_DISABLE_CIPHER:spim <- $r4
	@DEBUG_VALUE: SPIM_HYPER_WAIT_DMMDONE:spim <- $r4
	@DEBUG_VALUE: HyperRAM_Init:spim <- $r4
	.loc	10 646 12 is_stmt 1             @ ../../../../Library/StdDriver/inc\spim_hyper.h:646:12
	ldr	r1, [r4, #68]
	.loc	10 646 5 is_stmt 0              @ ../../../../Library/StdDriver/inc\spim_hyper.h:646:5
	lsls	r1, r1, #4
	bpl	.LBB4_18
.Ltmp382:
@ %bb.17:                               @   in Loop: Header=BB4_10 Depth=1
	@DEBUG_VALUE: SPIM_HYPER_DISABLE_CIPHER:spim <- $r4
	@DEBUG_VALUE: SPIM_HYPER_WAIT_DMMDONE:spim <- $r4
	@DEBUG_VALUE: HyperRAM_Init:spim <- $r4
	.loc	10 648 13 is_stmt 1             @ ../../../../Library/StdDriver/inc\spim_hyper.h:648:13
	ldr	r1, [sp]
	subs	r1, #1
	str	r1, [sp]
.Ltmp383:
	@DEBUG_VALUE: SPIM_HYPER_WAIT_DMMDONE:i32TimeOutCount <- [DW_OP_deref] $sp
	.loc	10 648 13 is_stmt 0             @ ../../../../Library/StdDriver/inc\spim_hyper.h:648:13
	bgt	.LBB4_10
.Ltmp384:
.LBB4_18:
	@DEBUG_VALUE: SPIM_HYPER_DISABLE_CIPHER:spim <- $r4
	@DEBUG_VALUE: SPIM_HYPER_WAIT_DMMDONE:spim <- $r4
	@DEBUG_VALUE: HyperRAM_Init:spim <- $r4
	.loc	10 654 21 is_stmt 1             @ ../../../../Library/StdDriver/inc\spim_hyper.h:654:21
	str	r0, [sp]
.Ltmp385:
	@DEBUG_VALUE: SPIM_HYPER_WAIT_DMMDONE:i32TimeOutCount <- [DW_OP_deref] $sp
.LBB4_19:                               @ =>This Inner Loop Header: Depth=1
	@DEBUG_VALUE: SPIM_HYPER_DISABLE_CIPHER:spim <- $r4
	@DEBUG_VALUE: SPIM_HYPER_WAIT_DMMDONE:i32TimeOutCount <- [DW_OP_deref] $sp
	@DEBUG_VALUE: SPIM_HYPER_WAIT_DMMDONE:spim <- $r4
	@DEBUG_VALUE: HyperRAM_Init:spim <- $r4
	.loc	10 657 12                       @ ../../../../Library/StdDriver/inc\spim_hyper.h:657:12
	ldr	r0, [r4, #68]
	.loc	10 657 5 is_stmt 0              @ ../../../../Library/StdDriver/inc\spim_hyper.h:657:5
	cmp	r0, #0
	bmi	.LBB4_27
.Ltmp386:
@ %bb.20:                               @   in Loop: Header=BB4_19 Depth=1
	@DEBUG_VALUE: SPIM_HYPER_DISABLE_CIPHER:spim <- $r4
	@DEBUG_VALUE: SPIM_HYPER_WAIT_DMMDONE:i32TimeOutCount <- [DW_OP_deref] $sp
	@DEBUG_VALUE: SPIM_HYPER_WAIT_DMMDONE:spim <- $r4
	@DEBUG_VALUE: HyperRAM_Init:spim <- $r4
	.loc	10 659 13 is_stmt 1             @ ../../../../Library/StdDriver/inc\spim_hyper.h:659:13
	ldr	r0, [sp]
	subs	r1, r0, #1
.Ltmp387:
	.loc	10 659 13 is_stmt 0             @ ../../../../Library/StdDriver/inc\spim_hyper.h:659:13
	cmp	r0, #2
.Ltmp388:
	@DEBUG_VALUE: SPIM_HYPER_WAIT_DMMDONE:i32TimeOutCount <- [DW_OP_constu 1, DW_OP_minus, DW_OP_stack_value] undef
	.loc	10 659 13                       @ ../../../../Library/StdDriver/inc\spim_hyper.h:659:13
	str	r1, [sp]
.Ltmp389:
	.loc	10 659 13                       @ ../../../../Library/StdDriver/inc\spim_hyper.h:659:13
	blt	.LBB4_27
.Ltmp390:
@ %bb.21:                               @   in Loop: Header=BB4_19 Depth=1
	@DEBUG_VALUE: SPIM_HYPER_DISABLE_CIPHER:spim <- $r4
	@DEBUG_VALUE: SPIM_HYPER_WAIT_DMMDONE:spim <- $r4
	@DEBUG_VALUE: HyperRAM_Init:spim <- $r4
	.loc	10 657 12 is_stmt 1             @ ../../../../Library/StdDriver/inc\spim_hyper.h:657:12
	ldr	r0, [r4, #68]
	.loc	10 657 5 is_stmt 0              @ ../../../../Library/StdDriver/inc\spim_hyper.h:657:5
	cmp	r0, #0
	bmi	.LBB4_27
.Ltmp391:
@ %bb.22:                               @   in Loop: Header=BB4_19 Depth=1
	@DEBUG_VALUE: SPIM_HYPER_DISABLE_CIPHER:spim <- $r4
	@DEBUG_VALUE: SPIM_HYPER_WAIT_DMMDONE:spim <- $r4
	@DEBUG_VALUE: HyperRAM_Init:spim <- $r4
	.loc	10 659 13 is_stmt 1             @ ../../../../Library/StdDriver/inc\spim_hyper.h:659:13
	ldr	r0, [sp]
	subs	r1, r0, #1
.Ltmp392:
	.loc	10 659 13 is_stmt 0             @ ../../../../Library/StdDriver/inc\spim_hyper.h:659:13
	cmp	r0, #2
.Ltmp393:
	@DEBUG_VALUE: SPIM_HYPER_WAIT_DMMDONE:i32TimeOutCount <- [DW_OP_constu 1, DW_OP_minus, DW_OP_stack_value] undef
	.loc	10 659 13                       @ ../../../../Library/StdDriver/inc\spim_hyper.h:659:13
	str	r1, [sp]
.Ltmp394:
	.loc	10 659 13                       @ ../../../../Library/StdDriver/inc\spim_hyper.h:659:13
	blt	.LBB4_27
.Ltmp395:
@ %bb.23:                               @   in Loop: Header=BB4_19 Depth=1
	@DEBUG_VALUE: SPIM_HYPER_DISABLE_CIPHER:spim <- $r4
	@DEBUG_VALUE: SPIM_HYPER_WAIT_DMMDONE:spim <- $r4
	@DEBUG_VALUE: HyperRAM_Init:spim <- $r4
	.loc	10 657 12 is_stmt 1             @ ../../../../Library/StdDriver/inc\spim_hyper.h:657:12
	ldr	r0, [r4, #68]
	.loc	10 657 5 is_stmt 0              @ ../../../../Library/StdDriver/inc\spim_hyper.h:657:5
	cmp	r0, #0
	bmi	.LBB4_27
.Ltmp396:
@ %bb.24:                               @   in Loop: Header=BB4_19 Depth=1
	@DEBUG_VALUE: SPIM_HYPER_DISABLE_CIPHER:spim <- $r4
	@DEBUG_VALUE: SPIM_HYPER_WAIT_DMMDONE:spim <- $r4
	@DEBUG_VALUE: HyperRAM_Init:spim <- $r4
	.loc	10 659 13 is_stmt 1             @ ../../../../Library/StdDriver/inc\spim_hyper.h:659:13
	ldr	r0, [sp]
	subs	r1, r0, #1
.Ltmp397:
	.loc	10 659 13 is_stmt 0             @ ../../../../Library/StdDriver/inc\spim_hyper.h:659:13
	cmp	r0, #2
.Ltmp398:
	@DEBUG_VALUE: SPIM_HYPER_WAIT_DMMDONE:i32TimeOutCount <- [DW_OP_constu 1, DW_OP_minus, DW_OP_stack_value] undef
	.loc	10 659 13                       @ ../../../../Library/StdDriver/inc\spim_hyper.h:659:13
	str	r1, [sp]
.Ltmp399:
	.loc	10 659 13                       @ ../../../../Library/StdDriver/inc\spim_hyper.h:659:13
	blt	.LBB4_27
.Ltmp400:
@ %bb.25:                               @   in Loop: Header=BB4_19 Depth=1
	@DEBUG_VALUE: SPIM_HYPER_DISABLE_CIPHER:spim <- $r4
	@DEBUG_VALUE: SPIM_HYPER_WAIT_DMMDONE:spim <- $r4
	@DEBUG_VALUE: HyperRAM_Init:spim <- $r4
	.loc	10 657 12 is_stmt 1             @ ../../../../Library/StdDriver/inc\spim_hyper.h:657:12
	ldr	r0, [r4, #68]
	.loc	10 657 5 is_stmt 0              @ ../../../../Library/StdDriver/inc\spim_hyper.h:657:5
	cmp	r0, #0
	bmi	.LBB4_27
.Ltmp401:
@ %bb.26:                               @   in Loop: Header=BB4_19 Depth=1
	@DEBUG_VALUE: SPIM_HYPER_DISABLE_CIPHER:spim <- $r4
	@DEBUG_VALUE: SPIM_HYPER_WAIT_DMMDONE:spim <- $r4
	@DEBUG_VALUE: HyperRAM_Init:spim <- $r4
	.loc	10 659 13 is_stmt 1             @ ../../../../Library/StdDriver/inc\spim_hyper.h:659:13
	ldr	r0, [sp]
	subs	r0, #1
	str	r0, [sp]
.Ltmp402:
	@DEBUG_VALUE: SPIM_HYPER_WAIT_DMMDONE:i32TimeOutCount <- [DW_OP_deref] $sp
	.loc	10 659 13 is_stmt 0             @ ../../../../Library/StdDriver/inc\spim_hyper.h:659:13
	bgt	.LBB4_19
.Ltmp403:
.LBB4_27:
	@DEBUG_VALUE: SPIM_HYPER_DISABLE_CIPHER:spim <- $r4
	@DEBUG_VALUE: HyperRAM_Init:spim <- $r4
	.loc	10 677 16 is_stmt 1             @ ../../../../Library/StdDriver/inc\spim_hyper.h:677:16
	ldr	r0, [r4]
	orr	r0, r0, #1
	str	r0, [r4]
.Ltmp404:
	@DEBUG_VALUE: SPIM_Hyper_DefaultConfig:u32AcctWR <- 7
	@DEBUG_VALUE: SPIM_Hyper_DefaultConfig:u32AcctRD <- 7
	@DEBUG_VALUE: SPIM_Hyper_DefaultConfig:u32CSM <- 4000
	@DEBUG_VALUE: SPIM_Hyper_DefaultConfig:spim <- $r4
	.loc	1 39 29                         @ ../Device/HyperRAM/hyperram_code.c:39:29
	bl	CLK_GetSCLKFreq
.Ltmp405:
	.loc	1 0 29 is_stmt 0                @ ../Device/HyperRAM/hyperram_code.c:0:29
	movw	r1, #56963
	movw	r2, #65482
	movt	r1, #17179
	.loc	1 39 47                         @ ../Device/HyperRAM/hyperram_code.c:39:47
	umull	r0, r1, r0, r1
	vldr	s2, .LCPI4_0
	lsrs	r0, r1, #18
.Ltmp406:
	@DEBUG_VALUE: SPIM_Hyper_DefaultConfig:u32CoreFreq <- $r0
	.loc	1 40 41 is_stmt 1               @ ../Device/HyperRAM/hyperram_code.c:40:41
	vmov	s0, r0
.Ltmp407:
	@DEBUG_VALUE: SPIM_Hyper_DefaultConfig:u32CoreFreq <- $s0
	.loc	1 41 23                         @ ../Device/HyperRAM/hyperram_code.c:41:23
	ldr	r0, [r4, #4]
.Ltmp408:
	@DEBUG_VALUE: SPIM_Hyper_DefaultConfig:u32DIV <- [DW_OP_constu 16, DW_OP_shr, DW_OP_stack_value] $r0
	.loc	1 40 41                         @ ../Device/HyperRAM/hyperram_code.c:40:41
	vcvt.f32.u32	s0, s0
.Ltmp409:
	.loc	1 42 28                         @ ../Device/HyperRAM/hyperram_code.c:42:28
	ldr	r1, [r4]
	.loc	1 40 39                         @ ../Device/HyperRAM/hyperram_code.c:40:39
	vdiv.f32	s0, s2, s0
.Ltmp410:
	@DEBUG_VALUE: SPIM_Hyper_DefaultConfig:fFreq <- $s0
	.loc	1 0 39 is_stmt 0                @ ../Device/HyperRAM/hyperram_code.c:0:39
	vldr	s2, .LCPI4_1
.Ltmp411:
	@DEBUG_VALUE: SPIM_Hyper_DefaultConfig:u32CipherEn <- undef
	movt	r2, #15
	.loc	1 43 65 is_stmt 1               @ ../Device/HyperRAM/hyperram_code.c:43:65
	add.w	r3, r2, #38
	.loc	1 42 28                         @ ../Device/HyperRAM/hyperram_code.c:42:28
	bfi	r2, r1, #0, #1
	bfi	r2, r1, #5, #1
.Ltmp412:
	.loc	1 46 5                          @ ../Device/HyperRAM/hyperram_code.c:46:5
	ldr.w	r1, [r4, #132]
.Ltmp413:
	.loc	1 43 65                         @ ../Device/HyperRAM/hyperram_code.c:43:65
	and.w	r0, r3, r0, lsr #12
.Ltmp414:
	.loc	1 46 5                          @ ../Device/HyperRAM/hyperram_code.c:46:5
	bic	r1, r1, #3
	str.w	r1, [r4, #132]
.Ltmp415:
	@DEBUG_VALUE: u32CSH <- 3
	.loc	1 49 5                          @ ../Device/HyperRAM/hyperram_code.c:49:5
	ldr.w	r1, [r4, #132]
	orr	r1, r1, #48
	@DEBUG_VALUE: u32CSH <- 3
	str.w	r1, [r4, #132]
.Ltmp416:
	@DEBUG_VALUE: u32CSHI <- 4
	.loc	1 52 5                          @ ../Device/HyperRAM/hyperram_code.c:52:5
	ldr.w	r1, [r4, #132]
.Ltmp417:
	.loc	1 43 46                         @ ../Device/HyperRAM/hyperram_code.c:43:46
	vdiv.f32	s0, s2, s0
.Ltmp418:
	.loc	1 43 28 is_stmt 0               @ ../Device/HyperRAM/hyperram_code.c:43:28
	vcvt.u32.f32	s0, s0
	vmov	r3, s0
	.loc	1 43 56                         @ ../Device/HyperRAM/hyperram_code.c:43:56
	subs	r0, r3, r0
	movs	r3, #4
.Ltmp419:
	.loc	1 52 5 is_stmt 1                @ ../Device/HyperRAM/hyperram_code.c:52:5
	bfi	r1, r3, #8, #4
	@DEBUG_VALUE: u32CSHI <- 4
	str.w	r1, [r4, #132]
.Ltmp420:
	.loc	1 55 5                          @ ../Device/HyperRAM/hyperram_code.c:55:5
	ldr.w	r1, [r4, #132]
	.loc	1 43 75                         @ ../Device/HyperRAM/hyperram_code.c:43:75
	add	r0, r2
	@DEBUG_VALUE: _u32CSST <- 0
.Ltmp421:
	@DEBUG_VALUE: SPIM_Hyper_DefaultConfig:u32CSMAXLT <- undef
	.loc	1 55 5                          @ ../Device/HyperRAM/hyperram_code.c:55:5
	bfc	r1, #12, #20
	orr.w	r0, r1, r0, lsl #12
	movs	r1, #7
	sub.w	r0, r0, #4096
	str.w	r0, [r4, #132]
	.loc	1 58 5                          @ ../Device/HyperRAM/hyperram_code.c:58:5
	ldr.w	r0, [r4, #136]
	orr	r0, r0, #16711680
	str.w	r0, [r4, #136]
	.loc	1 61 5                          @ ../Device/HyperRAM/hyperram_code.c:61:5
	ldr.w	r0, [r4, #136]
	bfi	r0, r1, #24, #5
	str.w	r0, [r4, #136]
	.loc	1 64 5                          @ ../Device/HyperRAM/hyperram_code.c:64:5
	ldr.w	r0, [r4, #136]
	bfi	r0, r1, #8, #5
	str.w	r0, [r4, #136]
.Ltmp422:
	.loc	1 284 5                         @ ../Device/HyperRAM/hyperram_code.c:284:5
	mov	r0, r4
	bl	SPIM_HYPER_Reset
.Ltmp423:
	.loc	1 287 5                         @ ../Device/HyperRAM/hyperram_code.c:287:5
	mov	r0, r4
	bl	HyperRAM_TrimDLLDelayNumber
.Ltmp424:
	.loc	1 290 31                        @ ../Device/HyperRAM/hyperram_code.c:290:31
	mov	r0, r4
	mov.w	r1, #4096
	bl	SPIM_HYPER_ReadHyperRAMReg
.Ltmp425:
	mov	r1, r0
.Ltmp426:
	@DEBUG_VALUE: HyperRAM_Init:sHRAMReg <- [DW_OP_LLVM_fragment 96 32] $r1
	.loc	1 305 5                         @ ../Device/HyperRAM/hyperram_code.c:305:5
	mov	r0, r4
	.loc	1 302 38                        @ ../Device/HyperRAM/hyperram_code.c:302:38
	bic	r2, r1, #28672
.Ltmp427:
	@DEBUG_VALUE: HyperRAM_Init:sHRAMReg <- [DW_OP_LLVM_fragment 104 8] $r2
	.loc	1 305 5                         @ ../Device/HyperRAM/hyperram_code.c:305:5
	mov.w	r1, #4096
	.loc	1 305 5 epilogue_begin is_stmt 0 @ ../Device/HyperRAM/hyperram_code.c:305:5
	add	sp, #4
	pop.w	{r4, r5, r6, r7, lr}
.Ltmp428:
	@DEBUG_VALUE: HyperRAM_Init:spim <- [DW_OP_LLVM_entry_value 1] $r0
	b	SPIM_HYPER_WriteHyperRAMReg
.Ltmp429:
	.loc	1 0 5                           @ :0:5
.Ltmp430:
	.p2align	2
@ %bb.28:
.LCPI4_0:
	.long	0x447a0000                      @ float 1000
.LCPI4_1:
	.long	0x457a0000                      @ float 4000
.Lfunc_end4:
	.size	HyperRAM_Init, .Lfunc_end4-HyperRAM_Init
	.cfi_endproc
	.cantunwind
	.fnend
                                        @ -- End function
	.section	.text.HyperRAM_PinConfig,"ax",%progbits
	.hidden	HyperRAM_PinConfig              @ -- Begin function HyperRAM_PinConfig
	.globl	HyperRAM_PinConfig
	.p2align	2
	.type	HyperRAM_PinConfig,%function
	.code	16                              @ @HyperRAM_PinConfig
	.thumb_func
HyperRAM_PinConfig:
.Lfunc_begin5:
	.loc	1 310 0 is_stmt 1               @ ../Device/HyperRAM/hyperram_code.c:310:0
	.fnstart
	.cfi_startproc
@ %bb.0:
	@DEBUG_VALUE: HyperRAM_PinConfig:spim <- $r0
	movw	r1, #8192
	movt	r1, #16388
.Ltmp431:
	.loc	1 311 9 prologue_end            @ ../Device/HyperRAM/hyperram_code.c:311:9
	cmp	r0, r1
	.loc	1 373 1                         @ ../Device/HyperRAM/hyperram_code.c:373:1
	it	ne
	bxne	lr
.Ltmp432:
.LBB5_1:
	@DEBUG_VALUE: HyperRAM_PinConfig:spim <- $r0
	.save	{r4, r5, r6, r7, lr}
	push	{r4, r5, r6, r7, lr}
	.cfi_def_cfa_offset 20
	.cfi_offset lr, -4
	.cfi_offset r7, -8
	.cfi_offset r6, -12
	.cfi_offset r5, -16
	.cfi_offset r4, -20
	.pad	#4
	sub	sp, #4
	.cfi_def_cfa_offset 24
.Ltmp433:
	.loc	1 315 9                         @ ../Device/HyperRAM/hyperram_code.c:315:9
	movs	r0, #0
.Ltmp434:
	@DEBUG_VALUE: HyperRAM_PinConfig:spim <- [DW_OP_LLVM_entry_value 1] $r0
	mov.w	r1, #1540096
	bl	CLK_EnableModuleClock
.Ltmp435:
	.loc	1 318 9                         @ ../Device/HyperRAM/hyperram_code.c:318:9
	movs	r0, #0
	mov.w	r1, #1212416
	bl	CLK_EnableModuleClock
.Ltmp436:
	.loc	1 0 9 is_stmt 0                 @ ../Device/HyperRAM/hyperram_code.c:0:9
	movw	r0, #892
	movs	r1, #12
	movt	r0, #16384
.Ltmp437:
	@DEBUG_VALUE: u32SlewRate <- 3
	movw	r4, #37440
	.loc	1 328 9 is_stmt 1               @ ../Device/HyperRAM/hyperram_code.c:328:9
	ldr	r2, [r0]
	movw	r5, #37440
	movt	r4, #20514
	bfi	r2, r1, #0, #5
	str	r2, [r0]
	.loc	1 329 9                         @ ../Device/HyperRAM/hyperram_code.c:329:9
	ldr	r2, [r0]
	movt	r5, #16418
	bfi	r2, r1, #8, #5
	str	r2, [r0]
	.loc	1 357 25                        @ ../Device/HyperRAM/hyperram_code.c:357:25
	sub.w	r6, r5, #192
	.loc	1 330 9                         @ ../Device/HyperRAM/hyperram_code.c:330:9
	ldr	r2, [r0, #24]
	bfi	r2, r1, #8, #5
	str	r2, [r0, #24]
	.loc	1 331 9                         @ ../Device/HyperRAM/hyperram_code.c:331:9
	ldr	r2, [r0, #24]
	bfi	r2, r1, #16, #5
	str	r2, [r0, #24]
	.loc	1 332 9                         @ ../Device/HyperRAM/hyperram_code.c:332:9
	ldr	r2, [r0]
	bfi	r2, r1, #16, #5
	str	r2, [r0]
	.loc	1 333 9                         @ ../Device/HyperRAM/hyperram_code.c:333:9
	ldr	r2, [r0]
	bfi	r2, r1, #24, #5
	str	r2, [r0]
	.loc	1 334 9                         @ ../Device/HyperRAM/hyperram_code.c:334:9
	ldr	r2, [r0, #-16]
	bfi	r2, r1, #8, #5
	str	r2, [r0, #-16]
	.loc	1 335 9                         @ ../Device/HyperRAM/hyperram_code.c:335:9
	ldr	r2, [r0, #-16]
	bfi	r2, r1, #16, #5
	str	r2, [r0, #-16]
	.loc	1 336 9                         @ ../Device/HyperRAM/hyperram_code.c:336:9
	ldr	r2, [r0, #24]
	bfi	r2, r1, #0, #5
	str	r2, [r0, #24]
	.loc	1 337 9                         @ ../Device/HyperRAM/hyperram_code.c:337:9
	ldr	r2, [r0, #20]
	bfi	r2, r1, #24, #5
	str	r2, [r0, #20]
	.loc	1 338 9                         @ ../Device/HyperRAM/hyperram_code.c:338:9
	ldr	r2, [r0, #20]
	bfi	r2, r1, #16, #5
	str	r2, [r0, #20]
	.loc	1 339 9                         @ ../Device/HyperRAM/hyperram_code.c:339:9
	ldr	r2, [r0, #-16]
	bfi	r2, r1, #24, #5
	str	r2, [r0, #-16]
	.loc	1 340 9                         @ ../Device/HyperRAM/hyperram_code.c:340:9
	ldr	r2, [r0, #24]
	bfi	r2, r1, #24, #5
	str	r2, [r0, #24]
.Ltmp438:
	.loc	1 342 9                         @ ../Device/HyperRAM/hyperram_code.c:342:9
	@APP
	mov	r0, pc
	@NO_APP
.Ltmp439:
	@DEBUG_VALUE: current_pc <- $r0
	.loc	1 342 13 is_stmt 0              @ ../Device/HyperRAM/hyperram_code.c:342:13
	lsls	r0, r0, #3
	.loc	1 357 9 is_stmt 1               @ ../Device/HyperRAM/hyperram_code.c:357:9
	mov.w	r2, #3
	.loc	1 342 13                        @ ../Device/HyperRAM/hyperram_code.c:342:13
	mov	r0, r4
	itt	pl
	movwpl	r0, #37440
	movtpl	r0, #16418
	.loc	1 342 19 is_stmt 0              @ ../Device/HyperRAM/hyperram_code.c:342:19
	ldr	r1, [r0, #-156]
	orr	r1, r1, #57344
	str	r1, [r0, #-156]
.Ltmp440:
	.loc	1 345 9 is_stmt 1               @ ../Device/HyperRAM/hyperram_code.c:345:9
	@APP
	mov	r0, pc
	@NO_APP
.Ltmp441:
	@DEBUG_VALUE: current_pc <- $r0
	.loc	1 345 13 is_stmt 0              @ ../Device/HyperRAM/hyperram_code.c:345:13
	lsls	r0, r0, #3
	mov	r0, r4
	itt	pl
	movwpl	r0, #37440
	movtpl	r0, #16418
	.loc	1 345 19                        @ ../Device/HyperRAM/hyperram_code.c:345:19
	ldr	r1, [r0, #-92]
	orr	r1, r1, #61440
	str	r1, [r0, #-92]
.Ltmp442:
	.loc	1 349 9 is_stmt 1               @ ../Device/HyperRAM/hyperram_code.c:349:9
	@APP
	mov	r0, pc
	@NO_APP
.Ltmp443:
	@DEBUG_VALUE: current_pc <- $r0
	.loc	1 349 13 is_stmt 0              @ ../Device/HyperRAM/hyperram_code.c:349:13
	lsls	r0, r0, #3
	mov	r0, r4
	itt	pl
	movwpl	r0, #37440
	movtpl	r0, #16418
	.loc	1 349 19                        @ ../Device/HyperRAM/hyperram_code.c:349:19
	ldr	r1, [r0, #36]
	orr	r1, r1, #252
	str	r1, [r0, #36]
.Ltmp444:
	.loc	1 357 25 is_stmt 1              @ ../Device/HyperRAM/hyperram_code.c:357:25
	@APP
	mov	r0, pc
	@NO_APP
.Ltmp445:
	@DEBUG_VALUE: current_pc <- $r0
	.loc	1 357 25 is_stmt 0              @ ../Device/HyperRAM/hyperram_code.c:357:25
	sub.w	r1, r5, #4026531840
	lsls	r0, r0, #3
	sub.w	r7, r1, #192
	.loc	1 357 9                         @ ../Device/HyperRAM/hyperram_code.c:357:9
	mov.w	r1, #8192
	.loc	1 357 25                        @ ../Device/HyperRAM/hyperram_code.c:357:25
	csel	r0, r6, r7, pl
	.loc	1 357 9                         @ ../Device/HyperRAM/hyperram_code.c:357:9
	bl	GPIO_SetSlewCtl
.Ltmp446:
	.loc	1 358 25 is_stmt 1              @ ../Device/HyperRAM/hyperram_code.c:358:25
	@APP
	mov	r0, pc
	@NO_APP
.Ltmp447:
	@DEBUG_VALUE: current_pc <- $r0
	.loc	1 358 9 is_stmt 0               @ ../Device/HyperRAM/hyperram_code.c:358:9
	mov.w	r1, #16384
	.loc	1 358 25                        @ ../Device/HyperRAM/hyperram_code.c:358:25
	lsls	r0, r0, #3
	.loc	1 358 9                         @ ../Device/HyperRAM/hyperram_code.c:358:9
	mov.w	r2, #3
	.loc	1 358 25                        @ ../Device/HyperRAM/hyperram_code.c:358:25
	csel	r0, r6, r7, pl
	.loc	1 358 9                         @ ../Device/HyperRAM/hyperram_code.c:358:9
	bl	GPIO_SetSlewCtl
.Ltmp448:
	.loc	1 359 25 is_stmt 1              @ ../Device/HyperRAM/hyperram_code.c:359:25
	@APP
	mov	r0, pc
	@NO_APP
.Ltmp449:
	@DEBUG_VALUE: current_pc <- $r0
	.loc	1 359 9 is_stmt 0               @ ../Device/HyperRAM/hyperram_code.c:359:9
	mov.w	r1, #32768
	.loc	1 359 25                        @ ../Device/HyperRAM/hyperram_code.c:359:25
	lsls	r0, r0, #3
	.loc	1 359 9                         @ ../Device/HyperRAM/hyperram_code.c:359:9
	mov.w	r2, #3
	.loc	1 359 25                        @ ../Device/HyperRAM/hyperram_code.c:359:25
	csel	r0, r6, r7, pl
	.loc	1 359 9                         @ ../Device/HyperRAM/hyperram_code.c:359:9
	bl	GPIO_SetSlewCtl
.Ltmp450:
	.loc	1 361 25 is_stmt 1              @ ../Device/HyperRAM/hyperram_code.c:361:25
	@APP
	mov	r0, pc
	@NO_APP
.Ltmp451:
	@DEBUG_VALUE: current_pc <- $r0
	.loc	1 361 25 is_stmt 0              @ ../Device/HyperRAM/hyperram_code.c:361:25
	subs	r5, #128
	sub.w	r6, r4, #128
	lsls	r0, r0, #3
	csel	r0, r5, r6, pl
	.loc	1 361 9                         @ ../Device/HyperRAM/hyperram_code.c:361:9
	mov.w	r1, #4096
	movs	r2, #3
	bl	GPIO_SetSlewCtl
.Ltmp452:
	.loc	1 362 25 is_stmt 1              @ ../Device/HyperRAM/hyperram_code.c:362:25
	@APP
	mov	r0, pc
	@NO_APP
.Ltmp453:
	@DEBUG_VALUE: current_pc <- $r0
	.loc	1 362 9 is_stmt 0               @ ../Device/HyperRAM/hyperram_code.c:362:9
	mov.w	r1, #8192
	.loc	1 362 25                        @ ../Device/HyperRAM/hyperram_code.c:362:25
	lsls	r0, r0, #3
	.loc	1 362 9                         @ ../Device/HyperRAM/hyperram_code.c:362:9
	mov.w	r2, #3
	.loc	1 362 25                        @ ../Device/HyperRAM/hyperram_code.c:362:25
	csel	r0, r5, r6, pl
	.loc	1 362 9                         @ ../Device/HyperRAM/hyperram_code.c:362:9
	bl	GPIO_SetSlewCtl
.Ltmp454:
	.loc	1 363 25 is_stmt 1              @ ../Device/HyperRAM/hyperram_code.c:363:25
	@APP
	mov	r0, pc
	@NO_APP
.Ltmp455:
	@DEBUG_VALUE: current_pc <- $r0
	.loc	1 363 9 is_stmt 0               @ ../Device/HyperRAM/hyperram_code.c:363:9
	mov.w	r1, #16384
	.loc	1 363 25                        @ ../Device/HyperRAM/hyperram_code.c:363:25
	lsls	r0, r0, #3
	.loc	1 363 9                         @ ../Device/HyperRAM/hyperram_code.c:363:9
	mov.w	r2, #3
	.loc	1 363 25                        @ ../Device/HyperRAM/hyperram_code.c:363:25
	csel	r0, r5, r6, pl
	.loc	1 363 9                         @ ../Device/HyperRAM/hyperram_code.c:363:9
	bl	GPIO_SetSlewCtl
.Ltmp456:
	.loc	1 364 25 is_stmt 1              @ ../Device/HyperRAM/hyperram_code.c:364:25
	@APP
	mov	r0, pc
	@NO_APP
.Ltmp457:
	@DEBUG_VALUE: current_pc <- $r0
	.loc	1 364 9 is_stmt 0               @ ../Device/HyperRAM/hyperram_code.c:364:9
	mov.w	r1, #32768
	.loc	1 364 25                        @ ../Device/HyperRAM/hyperram_code.c:364:25
	lsls	r0, r0, #3
	.loc	1 364 9                         @ ../Device/HyperRAM/hyperram_code.c:364:9
	mov.w	r2, #3
	.loc	1 364 25                        @ ../Device/HyperRAM/hyperram_code.c:364:25
	csel	r0, r5, r6, pl
	.loc	1 364 9                         @ ../Device/HyperRAM/hyperram_code.c:364:9
	bl	GPIO_SetSlewCtl
.Ltmp458:
	.loc	1 366 25 is_stmt 1              @ ../Device/HyperRAM/hyperram_code.c:366:25
	@APP
	mov	r0, pc
	@NO_APP
.Ltmp459:
	@DEBUG_VALUE: current_pc <- $r0
	.loc	1 366 9 is_stmt 0               @ ../Device/HyperRAM/hyperram_code.c:366:9
	movs	r1, #4
	.loc	1 366 25                        @ ../Device/HyperRAM/hyperram_code.c:366:25
	lsls	r0, r0, #3
	.loc	1 366 9                         @ ../Device/HyperRAM/hyperram_code.c:366:9
	mov.w	r2, #3
	.loc	1 366 25                        @ ../Device/HyperRAM/hyperram_code.c:366:25
	mov	r0, r4
	itt	pl
	movwpl	r0, #37440
	movtpl	r0, #16418
	.loc	1 366 9                         @ ../Device/HyperRAM/hyperram_code.c:366:9
	bl	GPIO_SetSlewCtl
.Ltmp460:
	.loc	1 367 25 is_stmt 1              @ ../Device/HyperRAM/hyperram_code.c:367:25
	@APP
	mov	r0, pc
	@NO_APP
.Ltmp461:
	@DEBUG_VALUE: current_pc <- $r0
	.loc	1 367 9 is_stmt 0               @ ../Device/HyperRAM/hyperram_code.c:367:9
	movs	r1, #8
	.loc	1 367 25                        @ ../Device/HyperRAM/hyperram_code.c:367:25
	lsls	r0, r0, #3
	.loc	1 367 9                         @ ../Device/HyperRAM/hyperram_code.c:367:9
	mov.w	r2, #3
	.loc	1 367 25                        @ ../Device/HyperRAM/hyperram_code.c:367:25
	mov	r0, r4
	itt	pl
	movwpl	r0, #37440
	movtpl	r0, #16418
	.loc	1 367 9                         @ ../Device/HyperRAM/hyperram_code.c:367:9
	bl	GPIO_SetSlewCtl
.Ltmp462:
	.loc	1 368 25 is_stmt 1              @ ../Device/HyperRAM/hyperram_code.c:368:25
	@APP
	mov	r0, pc
	@NO_APP
.Ltmp463:
	@DEBUG_VALUE: current_pc <- $r0
	.loc	1 368 9 is_stmt 0               @ ../Device/HyperRAM/hyperram_code.c:368:9
	movs	r1, #16
	.loc	1 368 25                        @ ../Device/HyperRAM/hyperram_code.c:368:25
	lsls	r0, r0, #3
	.loc	1 368 9                         @ ../Device/HyperRAM/hyperram_code.c:368:9
	mov.w	r2, #3
	.loc	1 368 25                        @ ../Device/HyperRAM/hyperram_code.c:368:25
	mov	r0, r4
	itt	pl
	movwpl	r0, #37440
	movtpl	r0, #16418
	.loc	1 368 9                         @ ../Device/HyperRAM/hyperram_code.c:368:9
	bl	GPIO_SetSlewCtl
.Ltmp464:
	.loc	1 369 25 is_stmt 1              @ ../Device/HyperRAM/hyperram_code.c:369:25
	@APP
	mov	r0, pc
	@NO_APP
.Ltmp465:
	@DEBUG_VALUE: current_pc <- $r0
	.loc	1 369 9 is_stmt 0               @ ../Device/HyperRAM/hyperram_code.c:369:9
	movs	r1, #32
	.loc	1 369 25                        @ ../Device/HyperRAM/hyperram_code.c:369:25
	lsls	r0, r0, #3
	.loc	1 369 9                         @ ../Device/HyperRAM/hyperram_code.c:369:9
	mov.w	r2, #3
	.loc	1 369 25                        @ ../Device/HyperRAM/hyperram_code.c:369:25
	mov	r0, r4
	itt	pl
	movwpl	r0, #37440
	movtpl	r0, #16418
	.loc	1 369 9                         @ ../Device/HyperRAM/hyperram_code.c:369:9
	bl	GPIO_SetSlewCtl
.Ltmp466:
	.loc	1 370 25 is_stmt 1              @ ../Device/HyperRAM/hyperram_code.c:370:25
	@APP
	mov	r0, pc
	@NO_APP
.Ltmp467:
	@DEBUG_VALUE: current_pc <- $r0
	.loc	1 370 9 is_stmt 0               @ ../Device/HyperRAM/hyperram_code.c:370:9
	movs	r1, #64
	.loc	1 370 25                        @ ../Device/HyperRAM/hyperram_code.c:370:25
	lsls	r0, r0, #3
	.loc	1 370 9                         @ ../Device/HyperRAM/hyperram_code.c:370:9
	mov.w	r2, #3
	.loc	1 370 25                        @ ../Device/HyperRAM/hyperram_code.c:370:25
	mov	r0, r4
	itt	pl
	movwpl	r0, #37440
	movtpl	r0, #16418
	.loc	1 370 9                         @ ../Device/HyperRAM/hyperram_code.c:370:9
	bl	GPIO_SetSlewCtl
.Ltmp468:
	.loc	1 371 25 is_stmt 1              @ ../Device/HyperRAM/hyperram_code.c:371:25
	@APP
	mov	r0, pc
	@NO_APP
.Ltmp469:
	@DEBUG_VALUE: current_pc <- $r0
	.loc	1 371 9 is_stmt 0               @ ../Device/HyperRAM/hyperram_code.c:371:9
	movs	r1, #128
	.loc	1 371 25                        @ ../Device/HyperRAM/hyperram_code.c:371:25
	lsls	r0, r0, #3
	itt	pl
	movwpl	r4, #37440
	movtpl	r4, #16418
	.loc	1 371 9                         @ ../Device/HyperRAM/hyperram_code.c:371:9
	mov	r0, r4
	movs	r2, #3
	.loc	1 371 9 epilogue_begin          @ ../Device/HyperRAM/hyperram_code.c:371:9
	add	sp, #4
	pop.w	{r4, r5, r6, r7, lr}
.Ltmp470:
	b	GPIO_SetSlewCtl
.Ltmp471:
.Lfunc_end5:
	.size	HyperRAM_PinConfig, .Lfunc_end5-HyperRAM_PinConfig
	.cfi_endproc
	.file	11 "C:\\Users\\jimmy\\Desktop\\Nuvoton\\Nuvoton-Team\\repos\\m55m1-ElevatorCounting-YOLOv8n\\KEIL" "../../../../Library/StdDriver/inc\\gpio.h"
	.cantunwind
	.fnend
                                        @ -- End function
	.type	.L.str,%object                  @ @.str
	.section	.rodata.str1.1,"aMS",%progbits,1
.L.str:
	.asciz	"Erase Hyper RAM fail!! Read address:0x%08x, data::0x%08x  expect: 0\n"
	.size	.L.str, 69

	.type	.L.str.1,%object                @ @.str.1
.L.str.1:
	.asciz	"Erase Remain Hyper RAM fail!! Read address:0x%08x, data::0x%08x  expect: 0\n"
	.size	.L.str.1, 76

	.hidden	_printf_percent
	.hidden	_printf_flags
	.hidden	_printf_widthprec
	.hidden	_printf_pre_padding
	.hidden	_printf_x
	.hidden	_printf_d
	.hidden	_printf_int_dec
	.hidden	_printf_longlong_hex
	.file	12 "C:\\Users\\jimmy\\Desktop\\Nuvoton\\Nuvoton-Team\\repos\\m55m1-ElevatorCounting-YOLOv8n\\KEIL" "../Device/include\\hyperram_code.h"
	.section	".note.GNU-stack","",%progbits
	.eabi_attribute	30, 1	@ Tag_ABI_optimization_goals
	.ARM_attribute	16, 1	@ Tag_AV_eba