	.text
	.syntax unified
	.eabi_attribute	67, "2.09"	@ Tag_conformance
	.cpu	cortex-m55
	.eabi_attribute	6, 21	@ Tag_CPU_arch
	.eabi_attribute	7, 77	@ Tag_CPU_arch_profile
	.eabi_attribute	8, 0	@ Tag_ARM_ISA_use
	.eabi_attribute	9, 3	@ Tag_THUMB_ISA_use
	.fpu	fpv5-d16
	.arch_extension	mve.fp
	.eabi_attribute	36, 1	@ Tag_FP_HP_extension
	.eabi_attribute	48, 2	@ Tag_MVE_arch
	.eabi_attribute	46, 1	@ Tag_DSP_extension
	.eabi_attribute	34, 1	@ Tag_CPU_unaligned_access
	.eabi_attribute	17, 1	@ Tag_ABI_PCS_GOT_use
	.eabi_attribute	20, 2	@ Tag_ABI_FP_denormal
	.eabi_attribute	21, 0	@ Tag_ABI_FP_exceptions
	.eabi_attribute	23, 1	@ Tag_ABI_FP_number_model
	.eabi_attribute	24, 1	@ Tag_ABI_align_needed
	.eabi_attribute	25, 1	@ Tag_ABI_align_preserved
	.eabi_attribute	28, 1	@ Tag_ABI_VFP_args
	.eabi_attribute	38, 1	@ Tag_ABI_FP_16bit_format
	.eabi_attribute	18, 2	@ Tag_ABI_PCS_wchar_t
	.eabi_attribute	26, 1	@ Tag_ABI_enum_size
	.eabi_attribute	14, 0	@ Tag_ABI_PCS_R9_use
	.file	"Labels.cpp"
	.file	1 "C:\\Users\\jimmy\\Desktop\\Nuvoton\\Nuvoton-Team\\repos\\m55m1-ElevatorCounting-YOLOv8n\\KEIL" "../Model/Labels.cpp"
	.file	2 "C:\\Users\\jimmy" "AppData\\Local\\Keil_v5\\ARM\\ARMCLANG\\bin\\..\\include\\libcxx\\vector"
	.file	3 "C:\\Users\\jimmy" "AppData\\Local\\Keil_v5\\ARM\\ARMCLANG\\bin\\..\\include\\libcxx\\stdexcept"
	.file	4 "C:\\Users\\jimmy" "AppData\\Local\\Keil_v5\\ARM\\ARMCLANG\\bin\\..\\include\\libcxx\\new"
	.file	5 "C:\\Users\\jimmy" "AppData\\Local\\Keil_v5\\ARM\\ARMCLANG\\bin\\..\\include\\libcxx\\string"
	.file	6 "C:\\Users\\jimmy" "AppData\\Local\\Keil_v5\\ARM\\ARMCLANG\\bin\\..\\include\\stdlib.h"
	.file	7 "C:\\Users\\jimmy" "AppData\\Local\\Keil_v5\\ARM\\ARMCLANG\\bin\\..\\include\\libcxx\\__type_traits\\datasizeof.h"
	.file	8 "C:\\Users\\jimmy" "AppData\\Local\\Keil_v5\\ARM\\ARMCLANG\\bin\\..\\include\\libcxx\\limits"
	.file	9 "C:\\Users\\jimmy" "AppData\\Local\\Keil_v5\\ARM\\ARMCLANG\\bin\\..\\include\\libcxx\\__string\\char_traits.h"
	.file	10 "C:\\Users\\jimmy" "AppData\\Local\\Keil_v5\\ARM\\ARMCLANG\\bin\\..\\include\\stdio.h"
	.file	11 "C:\\Users\\jimmy" "AppData\\Local\\Keil_v5\\ARM\\ARMCLANG\\bin\\..\\include\\libcxx\\__memory\\allocator.h"
	.file	12 "C:\\Users\\jimmy" "AppData\\Local\\Keil_v5\\ARM\\ARMCLANG\\bin\\..\\include\\time.h"
	.file	13 "C:\\Users\\jimmy" "AppData\\Local\\Keil_v5\\ARM\\ARMCLANG\\bin\\..\\include\\libcxx\\__memory\\allocator_traits.h"
	.file	14 "C:\\Users\\jimmy" "AppData\\Local\\Keil_v5\\ARM\\ARMCLANG\\bin\\..\\include\\libcxx\\__memory\\compressed_pair.h"
	.file	15 "C:\\Users\\jimmy" "AppData\\Local\\Keil_v5\\ARM\\ARMCLANG\\bin\\..\\include\\libcxx\\string_view"
	.file	16 "C:\\Users\\jimmy" "AppData\\Local\\Keil_v5\\ARM\\ARMCLANG\\bin\\..\\include\\libcxx\\__type_traits\\integral_constant.h"
	.file	17 "C:\\Users\\jimmy" "AppData\\Local\\Keil_v5\\ARM\\ARMCLANG\\bin\\..\\include\\libcxx\\__string\\constexpr_c_functions.h"
	.file	18 "C:\\Users\\jimmy" "AppData\\Local\\Keil_v5\\ARM\\ARMCLANG\\bin\\..\\include\\libcxx\\__split_buffer"
	.file	19 "C:\\Users\\jimmy" "AppData\\Local\\Keil_v5\\ARM\\ARMCLANG\\bin\\..\\include\\libcxx\\__type_traits\\remove_reference.h"
	.section	.text._Z15GetLabelsVectorRNSt3__26vectorINS_12basic_stringIcNS_11char_traitsIcEENS_9allocatorIcEEEENS4_IS6_EEEE,"ax",%progbits
	.hidden	_Z15GetLabelsVectorRNSt3__26vectorINS_12basic_stringIcNS_11char_traitsIcEENS_9allocatorIcEEEENS4_IS6_EEEE @ -- Begin function _Z15GetLabelsVectorRNSt3__26vectorINS_12basic_stringIcNS_11char_traitsIcEENS_9allocatorIcEEEENS4_IS6_EEEE
	.globl	_Z15GetLabelsVectorRNSt3__26vectorINS_12basic_stringIcNS_11char_traitsIcEENS_9allocatorIcEEEENS4_IS6_EEEE
	.p2align	2
	.type	_Z15GetLabelsVectorRNSt3__26vectorINS_12basic_stringIcNS_11char_traitsIcEENS_9allocatorIcEEEENS4_IS6_EEEE,%function
	.code	16                              @ @_Z15GetLabelsVectorRNSt3__26vectorINS_12basic_stringIcNS_11char_traitsIcEENS_9allocatorIcEEEENS4_IS6_EEEE
	.thumb_func
_Z15GetLabelsVectorRNSt3__26vectorINS_12basic_stringIcNS_11char_traitsIcEENS_9allocatorIcEEEENS4_IS6_EEEE:
.Lfunc_begin0:
	.loc	1 13 0                          @ ../Model/Labels.cpp:13:0
	.fnstart
	.cfi_sections .debug_frame
	.cfi_startproc
@ %bb.0:
	@DEBUG_VALUE: GetLabelsVector:labels <- $r0
	@DEBUG_VALUE: clear:this <- $r0
	@DEBUG_VALUE: size:this <- $r0
	.save	{r4, r5, r6, r7, r8, r9, r10, lr}
	push.w	{r4, r5, r6, r7, r8, r9, r10, lr}
	.cfi_def_cfa_offset 32
	.cfi_offset lr, -4
	.cfi_offset r10, -8
	.cfi_offset r9, -12
	.cfi_offset r8, -16
	.cfi_offset r7, -20
	.cfi_offset r6, -24
	.cfi_offset r5, -28
	.cfi_offset r4, -32
.Ltmp0:
	.loc	2 634 56 prologue_end           @ AppData\Local\Keil_v5\ARM\ARMCLANG\bin\..\include\libcxx\vector:634:56
	ldrd	r5, r4, [r0]
	@DEBUG_VALUE: __base_destruct_at_end:this <- $r10
	@DEBUG_VALUE: __clear:this <- $r10
	mov	r10, r0
.Ltmp1:
	@DEBUG_VALUE: GetLabelsVector:labels <- $r10
	@DEBUG_VALUE: __base_destruct_at_end:__soon_to_be_end <- undef
	@DEBUG_VALUE: clear:__old_size <- [DW_OP_LLVM_arg 0, DW_OP_LLVM_arg 0, DW_OP_minus, DW_OP_constu 12, DW_OP_div, DW_OP_stack_value] undef
	@DEBUG_VALUE: __base_destruct_at_end:__new_last <- undef
	@DEBUG_VALUE: GetLabelsVector:labelsSz <- 1
	@DEBUG_VALUE: size:this <- $r10
	@DEBUG_VALUE: clear:this <- $r10
	@DEBUG_VALUE: GetLabelsVector:labels <- $r10
	.loc	2 0 56 is_stmt 0                @ AppData\Local\Keil_v5\ARM\ARMCLANG\bin\..\include\libcxx\vector:0:56
	mov	r6, r5
.Ltmp2:
	.loc	2 983 5 is_stmt 1               @ AppData\Local\Keil_v5\ARM\ARMCLANG\bin\..\include\libcxx\vector:983:5
	cmp	r5, r4
	bne	.LBB0_2
	b	.LBB0_5
.Ltmp3:
	.loc	2 0 5 is_stmt 0                 @ :0:5
.Ltmp4:
	.p2align	2
.LBB0_1:                                @   in Loop: Header=BB0_2 Depth=1
	@DEBUG_VALUE: clear:this <- $r10
	@DEBUG_VALUE: GetLabelsVector:labelsSz <- 1
	@DEBUG_VALUE: GetLabelsVector:labels <- $r10
	subs	r4, #12
	@DEBUG_VALUE: __is_long:this <- $r4
	@DEBUG_VALUE: ~basic_string:this <- $r4
	@DEBUG_VALUE: destroy:__p <- $r4
	@DEBUG_VALUE: destroy<std::__2::basic_string<char, std::__2::char_traits<char>, std::__2::allocator<char> >, 0>:__p <- $r4
.Ltmp5:
	@DEBUG_VALUE: __base_destruct_at_end:__soon_to_be_end <- $r4
	.loc	2 983 5                         @ AppData\Local\Keil_v5\ARM\ARMCLANG\bin\..\include\libcxx\vector:983:5
	cmp	r4, r5
	beq	.LBB0_4
.Ltmp6:
.LBB0_2:                                @ =>This Inner Loop Header: Depth=1
	@DEBUG_VALUE: clear:this <- $r10
	@DEBUG_VALUE: GetLabelsVector:labelsSz <- 1
	@DEBUG_VALUE: GetLabelsVector:labels <- $r10
	@DEBUG_VALUE: __base_destruct_at_end:__soon_to_be_end <- undef
	@DEBUG_VALUE: destroy<std::__2::basic_string<char, std::__2::char_traits<char>, std::__2::allocator<char> >, 0>:__p <- undef
	@DEBUG_VALUE: destroy:__p <- undef
	@DEBUG_VALUE: ~basic_string:this <- undef
	@DEBUG_VALUE: __is_long:this <- undef
	@DEBUG_VALUE: destroy<std::__2::basic_string<char, std::__2::char_traits<char>, std::__2::allocator<char> >, 0>:__a <- [DW_OP_plus_uconst 8, DW_OP_stack_value] $r10
	@DEBUG_VALUE: destroy:this <- [DW_OP_plus_uconst 8, DW_OP_stack_value] $r10
	.loc	5 1881 29 is_stmt 1             @ AppData\Local\Keil_v5\ARM\ARMCLANG\bin\..\include\libcxx\string:1881:29
	ldrsb	r0, [r4, #-1]
.Ltmp7:
	.loc	5 1212 9                        @ AppData\Local\Keil_v5\ARM\ARMCLANG\bin\..\include\libcxx\string:1212:9
	cmp.w	r0, #-1
	bgt	.LBB0_1
.Ltmp8:
@ %bb.3:                                @   in Loop: Header=BB0_2 Depth=1
	@DEBUG_VALUE: destroy:this <- [DW_OP_plus_uconst 8, DW_OP_stack_value] $r10
	@DEBUG_VALUE: destroy<std::__2::basic_string<char, std::__2::char_traits<char>, std::__2::allocator<char> >, 0>:__a <- [DW_OP_plus_uconst 8, DW_OP_stack_value] $r10
	@DEBUG_VALUE: clear:this <- $r10
	@DEBUG_VALUE: GetLabelsVector:labelsSz <- 1
	@DEBUG_VALUE: GetLabelsVector:labels <- $r10
	.loc	5 1985 29                       @ AppData\Local\Keil_v5\ARM\ARMCLANG\bin\..\include\libcxx\string:1985:29
	ldr	r1, [r4, #-4]
.Ltmp9:
	@DEBUG_VALUE: __get_long_pointer:this <- $r4
	.loc	5 1992 12                       @ AppData\Local\Keil_v5\ARM\ARMCLANG\bin\..\include\libcxx\string:1992:12
	ldr	r0, [r4, #-12]
.Ltmp10:
	@DEBUG_VALUE: __get_long_cap:this <- [DW_OP_plus_uconst 4294967284, DW_OP_stack_value] $r4
	.loc	5 1985 29                       @ AppData\Local\Keil_v5\ARM\ARMCLANG\bin\..\include\libcxx\string:1985:29
	bic	r1, r1, #-2147483648
.Ltmp11:
	@DEBUG_VALUE: deallocate:this <- [DW_OP_plus_uconst 4294967284, DW_OP_stack_value] $r4
	@DEBUG_VALUE: deallocate:__a <- [DW_OP_plus_uconst 4294967284, DW_OP_stack_value] $r4
	@DEBUG_VALUE: __libcpp_operator_delete<void *, unsigned int>:__args <- $r0
	@DEBUG_VALUE: __do_deallocate_handle_size<>:__ptr <- $r0
	@DEBUG_VALUE: __libcpp_deallocate:__align <- 1
	@DEBUG_VALUE: __libcpp_deallocate:__ptr <- $r0
	@DEBUG_VALUE: deallocate:__p <- $r0
	@DEBUG_VALUE: deallocate:__p <- $r0
	@DEBUG_VALUE: __libcpp_operator_delete<void *, unsigned int>:__args <- $r1
	@DEBUG_VALUE: __do_deallocate_handle_size<>:__size <- $r1
	@DEBUG_VALUE: __libcpp_deallocate:__size <- $r1
	@DEBUG_VALUE: deallocate:__n <- $r1
	@DEBUG_VALUE: deallocate:__n <- $r1
	.loc	4 281 3                         @ AppData\Local\Keil_v5\ARM\ARMCLANG\bin\..\include\libcxx\new:281:3
	bl	_ZdlPvj
.Ltmp12:
	.loc	4 0 3 is_stmt 0                 @ AppData\Local\Keil_v5\ARM\ARMCLANG\bin\..\include\libcxx\new:0:3
	b	.LBB0_1
.Ltmp13:
.LBB0_4:
	@DEBUG_VALUE: GetLabelsVector:labelsSz <- 1
	@DEBUG_VALUE: GetLabelsVector:labels <- $r10
	.loc	2 637 55 is_stmt 1              @ AppData\Local\Keil_v5\ARM\ARMCLANG\bin\..\include\libcxx\vector:637:55
	ldr.w	r6, [r10]
.Ltmp14:
.LBB0_5:
	@DEBUG_VALUE: GetLabelsVector:labelsSz <- 1
	@DEBUG_VALUE: GetLabelsVector:labels <- $r10
	.loc	2 637 35 is_stmt 0              @ AppData\Local\Keil_v5\ARM\ARMCLANG\bin\..\include\libcxx\vector:637:35
	ldr.w	r4, [r10, #8]
.Ltmp15:
	.loc	2 985 18 is_stmt 1              @ AppData\Local\Keil_v5\ARM\ARMCLANG\bin\..\include\libcxx\vector:985:18
	str.w	r5, [r10, #4]
.Ltmp16:
	@DEBUG_VALUE: __end_cap:this <- $r10
	@DEBUG_VALUE: capacity:this <- $r10
	@DEBUG_VALUE: reserve:__n <- 1
	@DEBUG_VALUE: reserve:this <- $r10
	@DEBUG_VALUE: __split_buffer:this <- undef
	@DEBUG_VALUE: __swap_out_circular_buffer:__v <- undef
	@DEBUG_VALUE: ~__split_buffer:this <- undef
	.loc	2 637 47                        @ AppData\Local\Keil_v5\ARM\ARMCLANG\bin\..\include\libcxx\vector:637:47
	subs.w	r8, r4, r6
.Ltmp17:
	.loc	2 1463 7                        @ AppData\Local\Keil_v5\ARM\ARMCLANG\bin\..\include\libcxx\vector:1463:7
	bne	.LBB0_8
.Ltmp18:
@ %bb.6:
	@DEBUG_VALUE: reserve:this <- $r10
	@DEBUG_VALUE: reserve:__n <- 1
	@DEBUG_VALUE: GetLabelsVector:labelsSz <- 1
	@DEBUG_VALUE: GetLabelsVector:labels <- $r10
	@DEBUG_VALUE: __a <- [DW_OP_plus_uconst 8, DW_OP_stack_value] $r10
	@DEBUG_VALUE: size:this <- $r10
	.loc	4 272 10                        @ AppData\Local\Keil_v5\ARM\ARMCLANG\bin\..\include\libcxx\new:272:10
	movs	r0, #12
.Ltmp19:
	.loc	2 634 48                        @ AppData\Local\Keil_v5\ARM\ARMCLANG\bin\..\include\libcxx\vector:634:48
	sub.w	r9, r5, r6
.Ltmp20:
	@DEBUG_VALUE: __libcpp_operator_new<unsigned int>:__args <- 12
	@DEBUG_VALUE: __libcpp_allocate:__align <- 4
	@DEBUG_VALUE: __libcpp_allocate:__size <- 12
	@DEBUG_VALUE: allocate:__n <- 1
	@DEBUG_VALUE: allocate:this <- undef
	@DEBUG_VALUE: __allocate_at_least<std::__2::allocator<std::__2::basic_string<char, std::__2::char_traits<char>, std::__2::allocator<char> > > >:__n <- 1
	@DEBUG_VALUE: __allocate_at_least<std::__2::allocator<std::__2::basic_string<char, std::__2::char_traits<char>, std::__2::allocator<char> > > >:__alloc <- undef
	@DEBUG_VALUE: __v <- [DW_OP_plus_uconst 8, DW_OP_stack_value, DW_OP_LLVM_fragment 128 32] $r10
	@DEBUG_VALUE: __v <- [DW_OP_LLVM_fragment 96 32] 0
	@DEBUG_VALUE: __split_buffer:__a <- [DW_OP_plus_uconst 8, DW_OP_stack_value] $r10
	@DEBUG_VALUE: __split_buffer:__cap <- 1
	@DEBUG_VALUE: __split_buffer:__start <- [DW_OP_constu 12, DW_OP_div, DW_OP_stack_value] $r9
	@DEBUG_VALUE: __split_buffer:this <- undef
	.loc	4 272 10                        @ AppData\Local\Keil_v5\ARM\ARMCLANG\bin\..\include\libcxx\new:272:10
	bl	_Znwj
.Ltmp21:
	.file	20 "C:\\Users\\jimmy" "AppData\\Local\\Keil_v5\\ARM\\ARMCLANG\\bin\\..\\include\\libcxx\\__memory\\uninitialized_algorithms.h"
	.loc	20 641 5                        @ AppData\Local\Keil_v5\ARM\ARMCLANG\bin\..\include\libcxx\__memory\uninitialized_algorithms.h:641:5
	mov	r1, r6
	mov	r2, r9
.Ltmp22:
	.loc	4 272 10                        @ AppData\Local\Keil_v5\ARM\ARMCLANG\bin\..\include\libcxx\new:272:10
	mov	r7, r0
.Ltmp23:
	@DEBUG_VALUE: __allocation <- [DW_OP_LLVM_fragment 32 32] 1
	@DEBUG_VALUE: __v <- [DW_OP_LLVM_fragment 32 32] $r7
	@DEBUG_VALUE: __uninitialized_allocator_relocate<std::__2::allocator<std::__2::basic_string<char, std::__2::char_traits<char>, std::__2::allocator<char> > >, std::__2::basic_string<char, std::__2::char_traits<char>, std::__2::allocator<char> > >:__last <- undef
	@DEBUG_VALUE: __v <- [DW_OP_LLVM_fragment 0 32] $r7
	@DEBUG_VALUE: __allocation <- [DW_OP_LLVM_fragment 0 32] $r7
	@DEBUG_VALUE: __swap_out_circular_buffer:__v <- undef
	.loc	18 357 32                       @ AppData\Local\Keil_v5\ARM\ARMCLANG\bin\..\include\libcxx\__split_buffer:357:32
	add.w	r5, r0, r9
.Ltmp24:
	@DEBUG_VALUE: __v <- [DW_OP_LLVM_fragment 64 32] $r5
	@DEBUG_VALUE: __v <- [DW_OP_LLVM_fragment 32 32] $r5
	.loc	18 358 32                       @ AppData\Local\Keil_v5\ARM\ARMCLANG\bin\..\include\libcxx\__split_buffer:358:32
	add.w	r4, r0, #12
.Ltmp25:
	@DEBUG_VALUE: __uninitialized_allocator_relocate<std::__2::allocator<std::__2::basic_string<char, std::__2::char_traits<char>, std::__2::allocator<char> > >, std::__2::basic_string<char, std::__2::char_traits<char>, std::__2::allocator<char> > >:__first <- $r6
	@DEBUG_VALUE: __uninitialized_allocator_relocate<std::__2::allocator<std::__2::basic_string<char, std::__2::char_traits<char>, std::__2::allocator<char> > >, std::__2::basic_string<char, std::__2::char_traits<char>, std::__2::allocator<char> > >:__alloc <- [DW_OP_plus_uconst 8, DW_OP_stack_value] $r10
	@DEBUG_VALUE: __uninitialized_allocator_relocate<std::__2::allocator<std::__2::basic_string<char, std::__2::char_traits<char>, std::__2::allocator<char> > >, std::__2::basic_string<char, std::__2::char_traits<char>, std::__2::allocator<char> > >:__result <- $r7
	@DEBUG_VALUE: __swap_out_circular_buffer:__new_begin <- $r7
	@DEBUG_VALUE: __swap_out_circular_buffer:this <- $r10
	@DEBUG_VALUE: __v <- [DW_OP_LLVM_fragment 96 32] $r4
	.loc	20 641 5                        @ AppData\Local\Keil_v5\ARM\ARMCLANG\bin\..\include\libcxx\__memory\uninitialized_algorithms.h:641:5
	bl	__aeabi_memcpy4
.Ltmp26:
	@DEBUG_VALUE: swap<std::__2::basic_string<char, std::__2::char_traits<char>, std::__2::allocator<char> > *>:__y <- undef
	@DEBUG_VALUE: swap<std::__2::basic_string<char, std::__2::char_traits<char>, std::__2::allocator<char> > *>:__y <- undef
	@DEBUG_VALUE: swap<std::__2::basic_string<char, std::__2::char_traits<char>, std::__2::allocator<char> > *>:__t <- $r6
	@DEBUG_VALUE: swap<std::__2::basic_string<char, std::__2::char_traits<char>, std::__2::allocator<char> > *>:__y <- undef
	@DEBUG_VALUE: swap<std::__2::basic_string<char, std::__2::char_traits<char>, std::__2::allocator<char> > *>:__x <- $r10
	@DEBUG_VALUE: __v <- [DW_OP_LLVM_fragment 64 32] $r6
	@DEBUG_VALUE: __v <- [DW_OP_LLVM_fragment 32 32] $r6
	@DEBUG_VALUE: __v <- [DW_OP_LLVM_fragment 0 32] $r6
	@DEBUG_VALUE: ~__split_buffer:this <- undef
	@DEBUG_VALUE: swap<std::__2::basic_string<char, std::__2::char_traits<char>, std::__2::allocator<char> > *>:__x <- [DW_OP_plus_uconst 4, DW_OP_stack_value] $r10
	@DEBUG_VALUE: swap<std::__2::basic_string<char, std::__2::char_traits<char>, std::__2::allocator<char> > *>:__t <- $r6
	@DEBUG_VALUE: swap<std::__2::basic_string<char, std::__2::char_traits<char>, std::__2::allocator<char> > *>:__x <- [DW_OP_plus_uconst 8, DW_OP_stack_value] $r10
	@DEBUG_VALUE: swap<std::__2::basic_string<char, std::__2::char_traits<char>, std::__2::allocator<char> > *>:__t <- $r4
	.file	21 "C:\\Users\\jimmy" "AppData\\Local\\Keil_v5\\ARM\\ARMCLANG\\bin\\..\\include\\libcxx\\__utility\\swap.h"
	.loc	21 43 7                         @ AppData\Local\Keil_v5\ARM\ARMCLANG\bin\..\include\libcxx\__utility\swap.h:43:7
	strd	r7, r5, [r10]
.Ltmp27:
	.loc	21 43 7 is_stmt 0               @ AppData\Local\Keil_v5\ARM\ARMCLANG\bin\..\include\libcxx\__utility\swap.h:43:7
	str.w	r4, [r10, #8]
.Ltmp28:
	@DEBUG_VALUE: __v <- [DW_OP_LLVM_fragment 64 32] $r6
	@DEBUG_VALUE: __v <- [DW_OP_LLVM_fragment 32 32] $r6
	@DEBUG_VALUE: __v <- [DW_OP_LLVM_fragment 0 32] $r6
	@DEBUG_VALUE: __v <- [DW_OP_plus_uconst 8, DW_OP_stack_value, DW_OP_LLVM_fragment 128 32] $r10
	@DEBUG_VALUE: __v <- [DW_OP_LLVM_fragment 96 32] $r4
	.loc	18 364 7 is_stmt 1              @ AppData\Local\Keil_v5\ARM\ARMCLANG\bin\..\include\libcxx\__split_buffer:364:7
	cbz	r6, .LBB0_8
.Ltmp29:
@ %bb.7:
	@DEBUG_VALUE: reserve:this <- $r10
	@DEBUG_VALUE: reserve:__n <- 1
	@DEBUG_VALUE: GetLabelsVector:labelsSz <- 1
	@DEBUG_VALUE: GetLabelsVector:labels <- $r10
	@DEBUG_VALUE: deallocate:__a <- undef
	@DEBUG_VALUE: deallocate:__p <- $r6
	@DEBUG_VALUE: deallocate:__n <- [DW_OP_constu 12, DW_OP_div, DW_OP_stack_value] $r8
	@DEBUG_VALUE: deallocate:this <- undef
	@DEBUG_VALUE: deallocate:__p <- $r6
	@DEBUG_VALUE: deallocate:__n <- [DW_OP_constu 12, DW_OP_div, DW_OP_stack_value] $r8
	@DEBUG_VALUE: __libcpp_deallocate:__ptr <- $r6
	@DEBUG_VALUE: __libcpp_deallocate:__size <- $r8
	@DEBUG_VALUE: __libcpp_deallocate:__align <- 4
	@DEBUG_VALUE: __do_deallocate_handle_size<>:__ptr <- $r6
	@DEBUG_VALUE: __do_deallocate_handle_size<>:__size <- $r8
	@DEBUG_VALUE: __libcpp_operator_delete<void *, unsigned int>:__args <- $r6
	@DEBUG_VALUE: __libcpp_operator_delete<void *, unsigned int>:__args <- $r8
	.loc	4 281 3                         @ AppData\Local\Keil_v5\ARM\ARMCLANG\bin\..\include\libcxx\new:281:3
	mov	r0, r6
	mov	r1, r8
	bl	_ZdlPvj
.Ltmp30:
	.loc	2 1552 25                       @ AppData\Local\Keil_v5\ARM\ARMCLANG\bin\..\include\libcxx\vector:1552:25
	ldrd	r5, r4, [r10, #4]
.Ltmp31:
.LBB0_8:
	@DEBUG_VALUE: GetLabelsVector:labelsSz <- 1
	@DEBUG_VALUE: GetLabelsVector:labels <- $r10
	@DEBUG_VALUE: i <- undef
	@DEBUG_VALUE: emplace_back<const char *&>:this <- $r10
	@DEBUG_VALUE: emplace_back<const char *&>:__end <- $r5
	.loc	2 1553 7                        @ AppData\Local\Keil_v5\ARM\ARMCLANG\bin\..\include\libcxx\vector:1553:7
	cmp	r5, r4
.Ltmp32:
	@DEBUG_VALUE: emplace_back<const char *&>:__args <- undef
	bhs	.LBB0_12
.Ltmp33:
@ %bb.9:
	@DEBUG_VALUE: emplace_back<const char *&>:__end <- $r5
	@DEBUG_VALUE: emplace_back<const char *&>:this <- $r10
	@DEBUG_VALUE: GetLabelsVector:labelsSz <- 1
	@DEBUG_VALUE: GetLabelsVector:labels <- $r10
	@DEBUG_VALUE: __construct_one_at_end<const char *&>:this <- $r10
	@DEBUG_VALUE: __construct_one_at_end<const char *&>:__tx <- [DW_OP_LLVM_fragment 0 32] $r10
	@DEBUG_VALUE: __construct_one_at_end<const char *&>:__tx <- [DW_OP_LLVM_fragment 32 32] $r5
	@DEBUG_VALUE: __construct_one_at_end<const char *&>:__tx <- [DW_OP_plus_uconst 12, DW_OP_stack_value, DW_OP_LLVM_fragment 64 32] $r5
	@DEBUG_VALUE: construct<std::__2::basic_string<char, std::__2::char_traits<char>, std::__2::allocator<char> >, const char *&, 0>:__a <- [DW_OP_plus_uconst 8, DW_OP_stack_value] $r10
	@DEBUG_VALUE: construct<std::__2::basic_string<char, std::__2::char_traits<char>, std::__2::allocator<char> >, const char *&, 0>:__p <- $r5
	@DEBUG_VALUE: construct<std::__2::basic_string<char, std::__2::char_traits<char>, std::__2::allocator<char> >, const char *&>:this <- [DW_OP_plus_uconst 8, DW_OP_stack_value] $r10
	@DEBUG_VALUE: construct<std::__2::basic_string<char, std::__2::char_traits<char>, std::__2::allocator<char> >, const char *&>:__p <- $r5
	.loc	11 151 28                       @ AppData\Local\Keil_v5\ARM\ARMCLANG\bin\..\include\libcxx\__memory\allocator.h:151:28
	movw	r0, :lower16:_ZL9labelsVec
	movt	r0, :upper16:_ZL9labelsVec
.Ltmp34:
	@DEBUG_VALUE: construct<std::__2::basic_string<char, std::__2::char_traits<char>, std::__2::allocator<char> >, const char *&>:__args <- $r0
	@DEBUG_VALUE: construct<std::__2::basic_string<char, std::__2::char_traits<char>, std::__2::allocator<char> >, const char *&, 0>:__args <- $r0
	@DEBUG_VALUE: __construct_one_at_end<const char *&>:__args <- $r0
	ldr.w	r8, [r0]
.Ltmp35:
	@DEBUG_VALUE: basic_string<0>:this <- $r5
	@DEBUG_VALUE: __constexpr_strlen<char>:__str <- $r8
	@DEBUG_VALUE: length:__s <- $r8
	@DEBUG_VALUE: basic_string<0>:__s <- $r8
	.loc	17 64 10                        @ AppData\Local\Keil_v5\ARM\ARMCLANG\bin\..\include\libcxx\__string\constexpr_c_functions.h:64:10
	mov	r0, r8
.Ltmp36:
	bl	strlen
.Ltmp37:
	mov	r6, r0
	movw	r0, #65528
	movt	r0, #32767
.Ltmp38:
	@DEBUG_VALUE: __init:this <- $r5
	@DEBUG_VALUE: __init:__sz <- $r6
	@DEBUG_VALUE: __init:__s <- $r8
	.loc	5 2334 7                        @ AppData\Local\Keil_v5\ARM\ARMCLANG\bin\..\include\libcxx\string:2334:7
	cmp	r6, r0
	bhs	.LBB0_17
.Ltmp39:
@ %bb.10:
	@DEBUG_VALUE: __init:__s <- $r8
	@DEBUG_VALUE: __init:__sz <- $r6
	@DEBUG_VALUE: __init:this <- $r5
	@DEBUG_VALUE: basic_string<0>:__s <- $r8
	@DEBUG_VALUE: basic_string<0>:this <- $r5
	@DEBUG_VALUE: construct<std::__2::basic_string<char, std::__2::char_traits<char>, std::__2::allocator<char> >, const char *&>:__p <- $r5
	@DEBUG_VALUE: construct<std::__2::basic_string<char, std::__2::char_traits<char>, std::__2::allocator<char> >, const char *&>:this <- [DW_OP_plus_uconst 8, DW_OP_stack_value] $r10
	@DEBUG_VALUE: construct<std::__2::basic_string<char, std::__2::char_traits<char>, std::__2::allocator<char> >, const char *&, 0>:__p <- $r5
	@DEBUG_VALUE: construct<std::__2::basic_string<char, std::__2::char_traits<char>, std::__2::allocator<char> >, const char *&, 0>:__a <- [DW_OP_plus_uconst 8, DW_OP_stack_value] $r10
	@DEBUG_VALUE: __construct_one_at_end<const char *&>:__tx <- [DW_OP_plus_uconst 12, DW_OP_stack_value, DW_OP_LLVM_fragment 64 32] $r5
	@DEBUG_VALUE: __construct_one_at_end<const char *&>:__tx <- [DW_OP_LLVM_fragment 32 32] $r5
	@DEBUG_VALUE: __construct_one_at_end<const char *&>:__tx <- [DW_OP_LLVM_fragment 0 32] $r10
	@DEBUG_VALUE: __construct_one_at_end<const char *&>:this <- $r10
	@DEBUG_VALUE: emplace_back<const char *&>:__end <- $r5
	@DEBUG_VALUE: emplace_back<const char *&>:this <- $r10
	@DEBUG_VALUE: GetLabelsVector:labelsSz <- 1
	@DEBUG_VALUE: GetLabelsVector:labels <- $r10
	@DEBUG_VALUE: __fits_in_sso:__sz <- $r6
	.loc	5 2337 7                        @ AppData\Local\Keil_v5\ARM\ARMCLANG\bin\..\include\libcxx\string:2337:7
	cmp	r6, #11
	bhs	.LBB0_13
.Ltmp40:
@ %bb.11:
	@DEBUG_VALUE: __init:__s <- $r8
	@DEBUG_VALUE: __init:__sz <- $r6
	@DEBUG_VALUE: __init:this <- $r5
	@DEBUG_VALUE: basic_string<0>:__s <- $r8
	@DEBUG_VALUE: basic_string<0>:this <- $r5
	@DEBUG_VALUE: construct<std::__2::basic_string<char, std::__2::char_traits<char>, std::__2::allocator<char> >, const char *&>:__p <- $r5
	@DEBUG_VALUE: construct<std::__2::basic_string<char, std::__2::char_traits<char>, std::__2::allocator<char> >, const char *&>:this <- [DW_OP_plus_uconst 8, DW_OP_stack_value] $r10
	@DEBUG_VALUE: construct<std::__2::basic_string<char, std::__2::char_traits<char>, std::__2::allocator<char> >, const char *&, 0>:__p <- $r5
	@DEBUG_VALUE: construct<std::__2::basic_string<char, std::__2::char_traits<char>, std::__2::allocator<char> >, const char *&, 0>:__a <- [DW_OP_plus_uconst 8, DW_OP_stack_value] $r10
	@DEBUG_VALUE: __construct_one_at_end<const char *&>:__tx <- [DW_OP_plus_uconst 12, DW_OP_stack_value, DW_OP_LLVM_fragment 64 32] $r5
	@DEBUG_VALUE: __construct_one_at_end<const char *&>:__tx <- [DW_OP_LLVM_fragment 32 32] $r5
	@DEBUG_VALUE: __construct_one_at_end<const char *&>:__tx <- [DW_OP_LLVM_fragment 0 32] $r10
	@DEBUG_VALUE: __construct_one_at_end<const char *&>:this <- $r10
	@DEBUG_VALUE: emplace_back<const char *&>:__end <- $r5
	@DEBUG_VALUE: emplace_back<const char *&>:this <- $r10
	@DEBUG_VALUE: GetLabelsVector:labelsSz <- 1
	@DEBUG_VALUE: GetLabelsVector:labels <- $r10
	@DEBUG_VALUE: __set_short_size:this <- $r5
	@DEBUG_VALUE: __set_short_size:__s <- $r6
	.loc	5 0 7 is_stmt 0                 @ AppData\Local\Keil_v5\ARM\ARMCLANG\bin\..\include\libcxx\string:0:7
	mov	r7, r5
.Ltmp41:
	.loc	5 1957 33 is_stmt 1             @ AppData\Local\Keil_v5\ARM\ARMCLANG\bin\..\include\libcxx\string:1957:33
	strb	r6, [r5, #11]
.Ltmp42:
	@DEBUG_VALUE: __constexpr_memmove<char, const char, 0>:__count <- $r6
	@DEBUG_VALUE: __constexpr_memmove<char, const char, 0>:__n <- $r6
	@DEBUG_VALUE: __constexpr_memmove<char, const char, 0>:__src <- $r8
	@DEBUG_VALUE: copy:__n <- $r6
	@DEBUG_VALUE: copy:__s2 <- $r8
	@DEBUG_VALUE: __constexpr_memmove<char, const char, 0>:__dest <- $r5
	@DEBUG_VALUE: copy:__s1 <- $r5
	@DEBUG_VALUE: __init:__p <- $r5
	.loc	17 226 14                       @ AppData\Local\Keil_v5\ARM\ARMCLANG\bin\..\include\libcxx\__string\constexpr_c_functions.h:226:14
	cbnz	r6, .LBB0_14
	b	.LBB0_15
.Ltmp43:
.LBB0_12:
	@DEBUG_VALUE: emplace_back<const char *&>:__end <- $r5
	@DEBUG_VALUE: emplace_back<const char *&>:this <- $r10
	@DEBUG_VALUE: GetLabelsVector:labelsSz <- 1
	@DEBUG_VALUE: GetLabelsVector:labels <- $r10
	.loc	2 1557 13                       @ AppData\Local\Keil_v5\ARM\ARMCLANG\bin\..\include\libcxx\vector:1557:13
	movw	r1, :lower16:_ZL9labelsVec
	mov	r0, r10
	movt	r1, :upper16:_ZL9labelsVec
	bl	_ZNSt3__26vectorINS_12basic_stringIcNS_11char_traitsIcEENS_9allocatorIcEEEENS4_IS6_EEE24__emplace_back_slow_pathIJRPKcEEEPS6_DpOT_
.Ltmp44:
	mov	r1, r0
.Ltmp45:
	@DEBUG_VALUE: emplace_back<const char *&>:__end <- $r1
	.loc	2 0 13 is_stmt 0                @ AppData\Local\Keil_v5\ARM\ARMCLANG\bin\..\include\libcxx\vector:0:13
	b	.LBB0_16
.Ltmp46:
.LBB0_13:
	@DEBUG_VALUE: __init:__s <- $r8
	@DEBUG_VALUE: __init:__sz <- $r6
	@DEBUG_VALUE: __init:this <- $r5
	@DEBUG_VALUE: basic_string<0>:__s <- $r8
	@DEBUG_VALUE: basic_string<0>:this <- $r5
	@DEBUG_VALUE: construct<std::__2::basic_string<char, std::__2::char_traits<char>, std::__2::allocator<char> >, const char *&>:__p <- $r5
	@DEBUG_VALUE: construct<std::__2::basic_string<char, std::__2::char_traits<char>, std::__2::allocator<char> >, const char *&>:this <- [DW_OP_plus_uconst 8, DW_OP_stack_value] $r10
	@DEBUG_VALUE: construct<std::__2::basic_string<char, std::__2::char_traits<char>, std::__2::allocator<char> >, const char *&, 0>:__p <- $r5
	@DEBUG_VALUE: construct<std::__2::basic_string<char, std::__2::char_traits<char>, std::__2::allocator<char> >, const char *&, 0>:__a <- [DW_OP_plus_uconst 8, DW_OP_stack_value] $r10
	@DEBUG_VALUE: __construct_one_at_end<const char *&>:__tx <- [DW_OP_plus_uconst 12, DW_OP_stack_value, DW_OP_LLVM_fragment 64 32] $r5
	@DEBUG_VALUE: __construct_one_at_end<const char *&>:__tx <- [DW_OP_LLVM_fragment 32 32] $r5
	@DEBUG_VALUE: __construct_one_at_end<const char *&>:__tx <- [DW_OP_LLVM_fragment 0 32] $r10
	@DEBUG_VALUE: __construct_one_at_end<const char *&>:this <- $r10
	@DEBUG_VALUE: emplace_back<const char *&>:__end <- $r5
	@DEBUG_VALUE: emplace_back<const char *&>:this <- $r10
	@DEBUG_VALUE: GetLabelsVector:labelsSz <- 1
	@DEBUG_VALUE: GetLabelsVector:labels <- $r10
	@DEBUG_VALUE: __recommend:__s <- $r6
	.loc	5 2064 9 is_stmt 1              @ AppData\Local\Keil_v5\ARM\ARMCLANG\bin\..\include\libcxx\string:2064:9
	orr	r0, r6, #7
.Ltmp47:
	.loc	5 2341 79                       @ AppData\Local\Keil_v5\ARM\ARMCLANG\bin\..\include\libcxx\string:2341:79
	add.w	r9, r0, #1
.Ltmp48:
	@DEBUG_VALUE: __libcpp_allocate:__align <- 1
	@DEBUG_VALUE: allocate:this <- $r5
	@DEBUG_VALUE: __allocate_at_least<std::__2::allocator<char> >:__alloc <- $r5
	@DEBUG_VALUE: __libcpp_operator_new<unsigned int>:__args <- $r9
	@DEBUG_VALUE: __libcpp_allocate:__size <- $r9
	@DEBUG_VALUE: allocate:__n <- $r9
	@DEBUG_VALUE: __allocate_at_least<std::__2::allocator<char> >:__n <- $r9
	.loc	4 272 10                        @ AppData\Local\Keil_v5\ARM\ARMCLANG\bin\..\include\libcxx\new:272:10
	mov	r0, r9
	bl	_Znwj
.Ltmp49:
	mov	r7, r0
.Ltmp50:
	@DEBUG_VALUE: __set_long_cap:__s <- $r9
	@DEBUG_VALUE: __set_long_cap:this <- $r5
	@DEBUG_VALUE: __allocation <- [DW_OP_LLVM_fragment 32 32] $r9
	@DEBUG_VALUE: __init:__p <- $r7
	@DEBUG_VALUE: __allocation <- [DW_OP_LLVM_fragment 0 32] $r7
	.loc	5 1981 33                       @ AppData\Local\Keil_v5\ARM\ARMCLANG\bin\..\include\libcxx\string:1981:33
	orr	r0, r9, #-2147483648
.Ltmp51:
	@DEBUG_VALUE: __set_long_pointer:this <- $r5
	@DEBUG_VALUE: __set_long_pointer:__p <- $r7
	@DEBUG_VALUE: __set_long_size:__s <- $r6
	@DEBUG_VALUE: __set_long_size:this <- $r5
	.loc	5 1989 30                       @ AppData\Local\Keil_v5\ARM\ARMCLANG\bin\..\include\libcxx\string:1989:30
	strd	r7, r6, [r5]
.Ltmp52:
	.loc	5 1981 33                       @ AppData\Local\Keil_v5\ARM\ARMCLANG\bin\..\include\libcxx\string:1981:33
	str	r0, [r5, #8]
.Ltmp53:
	@DEBUG_VALUE: __constexpr_memmove<char, const char, 0>:__count <- $r6
	@DEBUG_VALUE: __constexpr_memmove<char, const char, 0>:__n <- $r6
	@DEBUG_VALUE: __constexpr_memmove<char, const char, 0>:__src <- $r8
	@DEBUG_VALUE: copy:__n <- $r6
	@DEBUG_VALUE: copy:__s2 <- $r8
	@DEBUG_VALUE: __constexpr_memmove<char, const char, 0>:__dest <- $r7
	@DEBUG_VALUE: copy:__s1 <- $r7
.LBB0_14:
	@DEBUG_VALUE: copy:__s2 <- $r8
	@DEBUG_VALUE: copy:__n <- $r6
	@DEBUG_VALUE: __constexpr_memmove<char, const char, 0>:__src <- $r8
	@DEBUG_VALUE: __constexpr_memmove<char, const char, 0>:__n <- $r6
	@DEBUG_VALUE: __constexpr_memmove<char, const char, 0>:__count <- $r6
	@DEBUG_VALUE: __init:__s <- $r8
	@DEBUG_VALUE: __init:__sz <- $r6
	@DEBUG_VALUE: __init:this <- $r5
	@DEBUG_VALUE: basic_string<0>:__s <- $r8
	@DEBUG_VALUE: basic_string<0>:this <- $r5
	@DEBUG_VALUE: construct<std::__2::basic_string<char, std::__2::char_traits<char>, std::__2::allocator<char> >, const char *&>:__p <- $r5
	@DEBUG_VALUE: construct<std::__2::basic_string<char, std::__2::char_traits<char>, std::__2::allocator<char> >, const char *&>:this <- [DW_OP_plus_uconst 8, DW_OP_stack_value] $r10
	@DEBUG_VALUE: construct<std::__2::basic_string<char, std::__2::char_traits<char>, std::__2::allocator<char> >, const char *&, 0>:__p <- $r5
	@DEBUG_VALUE: construct<std::__2::basic_string<char, std::__2::char_traits<char>, std::__2::allocator<char> >, const char *&, 0>:__a <- [DW_OP_plus_uconst 8, DW_OP_stack_value] $r10
	@DEBUG_VALUE: __construct_one_at_end<const char *&>:__tx <- [DW_OP_plus_uconst 12, DW_OP_stack_value, DW_OP_LLVM_fragment 64 32] $r5
	@DEBUG_VALUE: __construct_one_at_end<const char *&>:__tx <- [DW_OP_LLVM_fragment 32 32] $r5
	@DEBUG_VALUE: __construct_one_at_end<const char *&>:__tx <- [DW_OP_LLVM_fragment 0 32] $r10
	@DEBUG_VALUE: __construct_one_at_end<const char *&>:this <- $r10
	@DEBUG_VALUE: emplace_back<const char *&>:__end <- $r5
	@DEBUG_VALUE: emplace_back<const char *&>:this <- $r10
	@DEBUG_VALUE: GetLabelsVector:labelsSz <- 1
	@DEBUG_VALUE: GetLabelsVector:labels <- $r10
	.loc	17 227 5                        @ AppData\Local\Keil_v5\ARM\ARMCLANG\bin\..\include\libcxx\__string\constexpr_c_functions.h:227:5
	mov	r0, r7
	mov	r1, r8
	mov	r2, r6
	bl	__aeabi_memmove
.Ltmp54:
.LBB0_15:
	@DEBUG_VALUE: __init:__s <- $r8
	@DEBUG_VALUE: __init:__sz <- $r6
	@DEBUG_VALUE: __init:this <- $r5
	@DEBUG_VALUE: basic_string<0>:__s <- $r8
	@DEBUG_VALUE: basic_string<0>:this <- $r5
	@DEBUG_VALUE: construct<std::__2::basic_string<char, std::__2::char_traits<char>, std::__2::allocator<char> >, const char *&>:__p <- $r5
	@DEBUG_VALUE: construct<std::__2::basic_string<char, std::__2::char_traits<char>, std::__2::allocator<char> >, const char *&>:this <- [DW_OP_plus_uconst 8, DW_OP_stack_value] $r10
	@DEBUG_VALUE: construct<std::__2::basic_string<char, std::__2::char_traits<char>, std::__2::allocator<char> >, const char *&, 0>:__p <- $r5
	@DEBUG_VALUE: construct<std::__2::basic_string<char, std::__2::char_traits<char>, std::__2::allocator<char> >, const char *&, 0>:__a <- [DW_OP_plus_uconst 8, DW_OP_stack_value] $r10
	@DEBUG_VALUE: __construct_one_at_end<const char *&>:__tx <- [DW_OP_plus_uconst 12, DW_OP_stack_value, DW_OP_LLVM_fragment 64 32] $r5
	@DEBUG_VALUE: __construct_one_at_end<const char *&>:__tx <- [DW_OP_LLVM_fragment 32 32] $r5
	@DEBUG_VALUE: __construct_one_at_end<const char *&>:__tx <- [DW_OP_LLVM_fragment 0 32] $r10
	@DEBUG_VALUE: __construct_one_at_end<const char *&>:this <- $r10
	@DEBUG_VALUE: emplace_back<const char *&>:__end <- $r5
	@DEBUG_VALUE: emplace_back<const char *&>:this <- $r10
	@DEBUG_VALUE: GetLabelsVector:labelsSz <- 1
	@DEBUG_VALUE: GetLabelsVector:labels <- $r10
	.loc	17 0 5 is_stmt 0                @ AppData\Local\Keil_v5\ARM\ARMCLANG\bin\..\include\libcxx\__string\constexpr_c_functions.h:0:5
	movs	r0, #0
.Ltmp55:
	@DEBUG_VALUE: assign:__c2 <- undef
	@DEBUG_VALUE: assign:__c1 <- [DW_OP_LLVM_arg 0, DW_OP_LLVM_arg 1, DW_OP_plus, DW_OP_stack_value] $r7, $r6
	.loc	2 961 5 is_stmt 1               @ AppData\Local\Keil_v5\ARM\ARMCLANG\bin\..\include\libcxx\vector:961:5
	add.w	r1, r5, #12
.Ltmp56:
	@DEBUG_VALUE: __construct_one_at_end<const char *&>:__tx <- [DW_OP_LLVM_fragment 32 32] $r1
	@DEBUG_VALUE: emplace_back<const char *&>:__end <- $r1
	.loc	9 92 10                         @ AppData\Local\Keil_v5\ARM\ARMCLANG\bin\..\include\libcxx\__string\char_traits.h:92:10
	strb	r0, [r7, r6]
.Ltmp57:
.LBB0_16:
	@DEBUG_VALUE: emplace_back<const char *&>:__end <- $r1
	@DEBUG_VALUE: emplace_back<const char *&>:this <- $r10
	@DEBUG_VALUE: GetLabelsVector:labelsSz <- 1
	@DEBUG_VALUE: GetLabelsVector:labels <- $r10
	.loc	1 29 5                          @ ../Model/Labels.cpp:29:5
	movs	r0, #1
.Ltmp58:
	.loc	2 1559 16                       @ AppData\Local\Keil_v5\ARM\ARMCLANG\bin\..\include\libcxx\vector:1559:16
	str.w	r1, [r10, #4]
.Ltmp59:
	@DEBUG_VALUE: emplace_back<const char *&>:__end <- $r1
	@DEBUG_VALUE: i <- undef
	.loc	1 29 5 epilogue_begin           @ ../Model/Labels.cpp:29:5
	pop.w	{r4, r5, r6, r7, r8, r9, r10, pc}
.Ltmp60:
.LBB0_17:
	@DEBUG_VALUE: __init:__s <- $r8
	@DEBUG_VALUE: __init:__sz <- $r6
	@DEBUG_VALUE: __init:this <- $r5
	@DEBUG_VALUE: basic_string<0>:__s <- $r8
	@DEBUG_VALUE: basic_string<0>:this <- $r5
	@DEBUG_VALUE: construct<std::__2::basic_string<char, std::__2::char_traits<char>, std::__2::allocator<char> >, const char *&>:__p <- $r5
	@DEBUG_VALUE: construct<std::__2::basic_string<char, std::__2::char_traits<char>, std::__2::allocator<char> >, const char *&>:this <- [DW_OP_plus_uconst 8, DW_OP_stack_value] $r10
	@DEBUG_VALUE: construct<std::__2::basic_string<char, std::__2::char_traits<char>, std::__2::allocator<char> >, const char *&, 0>:__p <- $r5
	@DEBUG_VALUE: construct<std::__2::basic_string<char, std::__2::char_traits<char>, std::__2::allocator<char> >, const char *&, 0>:__a <- [DW_OP_plus_uconst 8, DW_OP_stack_value] $r10
	@DEBUG_VALUE: __construct_one_at_end<const char *&>:__tx <- [DW_OP_plus_uconst 12, DW_OP_stack_value, DW_OP_LLVM_fragment 64 32] $r5
	@DEBUG_VALUE: __construct_one_at_end<const char *&>:__tx <- [DW_OP_LLVM_fragment 32 32] $r5
	@DEBUG_VALUE: __construct_one_at_end<const char *&>:__tx <- [DW_OP_LLVM_fragment 0 32] $r10
	@DEBUG_VALUE: __construct_one_at_end<const char *&>:this <- $r10
	@DEBUG_VALUE: emplace_back<const char *&>:__end <- $r5
	@DEBUG_VALUE: emplace_back<const char *&>:this <- $r10
	@DEBUG_VALUE: GetLabelsVector:labelsSz <- 1
	@DEBUG_VALUE: GetLabelsVector:labels <- $r10
	.loc	5 2335 5                        @ AppData\Local\Keil_v5\ARM\ARMCLANG\bin\..\include\libcxx\string:2335:5
	mov	r0, r5
	bl	_ZNKSt3__212basic_stringIcNS_11char_traitsIcEENS_9allocatorIcEEE20__throw_length_errorB8nn200000Ev
.Ltmp61:
.Lfunc_end0:
	.size	_Z15GetLabelsVectorRNSt3__26vectorINS_12basic_stringIcNS_11char_traitsIcEENS_9allocatorIcEEEENS4_IS6_EEEE, .Lfunc_end0-_Z15GetLabelsVectorRNSt3__26vectorINS_12basic_stringIcNS_11char_traitsIcEENS_9allocatorIcEEEENS4_IS6_EEEE
	.cfi_endproc
	.file	22 "C:\\Users\\jimmy" "AppData\\Local\\Keil_v5\\ARM\\ARMCLANG\\bin\\..\\include\\libcxx\\__memory\\allocate_at_least.h"
	.file	23 "C:\\Users\\jimmy" "AppData\\Local\\Keil_v5\\ARM\\ARMCLANG\\bin\\..\\include\\libcxx\\__type_traits\\enable_if.h"
	.cantunwind
	.fnend
                                        @ -- End function
	.section	.text._ZNKSt3__26vectorINS_12basic_stringIcNS_11char_traitsIcEENS_9allocatorIcEEEENS4_IS6_EEE20__throw_length_errorB8nn200000Ev,"axG",%progbits,_ZNKSt3__26vectorINS_12basic_stringIcNS_11char_traitsIcEENS_9allocatorIcEEEENS4_IS6_EEE20__throw_length_errorB8nn200000Ev,comdat
	.hidden	_ZNKSt3__26vectorINS_12basic_stringIcNS_11char_traitsIcEENS_9allocatorIcEEEENS4_IS6_EEE20__throw_length_errorB8nn200000Ev @ -- Begin function _ZNKSt3__26vectorINS_12basic_stringIcNS_11char_traitsIcEENS_9allocatorIcEEEENS4_IS6_EEE20__throw_length_errorB8nn200000Ev
	.weak	_ZNKSt3__26vectorINS_12basic_stringIcNS_11char_traitsIcEENS_9allocatorIcEEEENS4_IS6_EEE20__throw_length_errorB8nn200000Ev
	.p2align	2
	.type	_ZNKSt3__26vectorINS_12basic_stringIcNS_11char_traitsIcEENS_9allocatorIcEEEENS4_IS6_EEE20__throw_length_errorB8nn200000Ev,%function
	.code	16                              @ @_ZNKSt3__26vectorINS_12basic_stringIcNS_11char_traitsIcEENS_9allocatorIcEEEENS4_IS6_EEE20__throw_length_errorB8nn200000Ev
	.thumb_func
_ZNKSt3__26vectorINS_12basic_stringIcNS_11char_traitsIcEENS_9allocatorIcEEEENS4_IS6_EEE20__throw_length_errorB8nn200000Ev:
.Lfunc_begin1:
	.fnstart
	.cfi_startproc
@ %bb.0:
	@DEBUG_VALUE: __throw_length_error:this <- $r0
	.loc	2 998 78 prologue_end           @ AppData\Local\Keil_v5\ARM\ARMCLANG\bin\..\include\libcxx\vector:998:78
	adr	r0, .LCPI1_0
.Ltmp62:
	@DEBUG_VALUE: __throw_length_error:this <- [DW_OP_LLVM_entry_value 1] $r0
	bl	_ZNSt3__220__throw_length_errorB8nn200000EPKc
.Ltmp63:
	.loc	2 0 78 is_stmt 0                @ :0:78
.Ltmp64:
	.p2align	2
@ %bb.1:
.LCPI1_0:
.L.str.1:
	.asciz	"vector\000"
.Lfunc_end1:
	.size	_ZNKSt3__26vectorINS_12basic_stringIcNS_11char_traitsIcEENS_9allocatorIcEEEENS4_IS6_EEE20__throw_length_errorB8nn200000Ev, .Lfunc_end1-_ZNKSt3__26vectorINS_12basic_stringIcNS_11char_traitsIcEENS_9allocatorIcEEEENS4_IS6_EEE20__throw_length_errorB8nn200000Ev
	.cfi_endproc
	.cantunwind
	.fnend
                                        @ -- End function
	.section	.text._ZNSt3__220__throw_length_errorB8nn200000EPKc,"axG",%progbits,_ZNSt3__220__throw_length_errorB8nn200000EPKc,comdat
	.hidden	_ZNSt3__220__throw_length_errorB8nn200000EPKc @ -- Begin function _ZNSt3__220__throw_length_errorB8nn200000EPKc
	.weak	_ZNSt3__220__throw_length_errorB8nn200000EPKc
	.p2align	2
	.type	_ZNSt3__220__throw_length_errorB8nn200000EPKc,%function
	.code	16                              @ @_ZNSt3__220__throw_length_errorB8nn200000EPKc
	.thumb_func
_ZNSt3__220__throw_length_errorB8nn200000EPKc:
.Lfunc_begin2:
	.loc	3 238 0 is_stmt 1               @ AppData\Local\Keil_v5\ARM\ARMCLANG\bin\..\include\libcxx\stdexcept:238:0
	.fnstart
	.cfi_startproc
@ %bb.0:
	@DEBUG_VALUE: __throw_length_error:__msg <- $r0
	mov	r1, r0
.Ltmp65:
	@DEBUG_VALUE: __throw_length_error:__msg <- $r1
	.loc	3 242 3 prologue_end            @ AppData\Local\Keil_v5\ARM\ARMCLANG\bin\..\include\libcxx\stdexcept:242:3
	movw	r0, :lower16:.L.str.2
	movt	r0, :upper16:.L.str.2
	bl	_ZNSt3__222__libcpp_verbose_abortEPKcz
.Ltmp66:
.Lfunc_end2:
	.size	_ZNSt3__220__throw_length_errorB8nn200000EPKc, .Lfunc_end2-_ZNSt3__220__throw_length_errorB8nn200000EPKc
	.cfi_endproc
	.cantunwind
	.fnend
                                        @ -- End function
	.section	.text._ZSt28__throw_bad_array_new_lengthB8nn200000v,"axG",%progbits,_ZSt28__throw_bad_array_new_lengthB8nn200000v,comdat
	.hidden	_ZSt28__throw_bad_array_new_lengthB8nn200000v @ -- Begin function _ZSt28__throw_bad_array_new_lengthB8nn200000v
	.weak	_ZSt28__throw_bad_array_new_lengthB8nn200000v
	.p2align	2
	.type	_ZSt28__throw_bad_array_new_lengthB8nn200000v,%function
	.code	16                              @ @_ZSt28__throw_bad_array_new_lengthB8nn200000v
	.thumb_func
_ZSt28__throw_bad_array_new_lengthB8nn200000v:
.Lfunc_begin3:
	.fnstart
	.cfi_startproc
@ %bb.0:
	.loc	4 182 3 prologue_end            @ AppData\Local\Keil_v5\ARM\ARMCLANG\bin\..\include\libcxx\new:182:3
	adr	r0, .LCPI3_0
	bl	_ZNSt3__222__libcpp_verbose_abortEPKcz
.Ltmp67:
	.loc	4 0 3 is_stmt 0                 @ :0:3
.Ltmp68:
	.p2align	2
@ %bb.1:
.LCPI3_0:
.L.str.3:
	.asciz	"bad_array_new_length was thrown in -fno-exceptions mode"
.Lfunc_end3:
	.size	_ZSt28__throw_bad_array_new_lengthB8nn200000v, .Lfunc_end3-_ZSt28__throw_bad_array_new_lengthB8nn200000v
	.cfi_endproc
	.cantunwind
	.fnend
                                        @ -- End function
	.section	.text._ZNSt3__26vectorINS_12basic_stringIcNS_11char_traitsIcEENS_9allocatorIcEEEENS4_IS6_EEE24__emplace_back_slow_pathIJRPKcEEEPS6_DpOT_,"axG",%progbits,_ZNSt3__26vectorINS_12basic_stringIcNS_11char_traitsIcEENS_9allocatorIcEEEENS4_IS6_EEE24__emplace_back_slow_pathIJRPKcEEEPS6_DpOT_,comdat
	.hidden	_ZNSt3__26vectorINS_12basic_stringIcNS_11char_traitsIcEENS_9allocatorIcEEEENS4_IS6_EEE24__emplace_back_slow_pathIJRPKcEEEPS6_DpOT_ @ -- Begin function _ZNSt3__26vectorINS_12basic_stringIcNS_11char_traitsIcEENS_9allocatorIcEEEENS4_IS6_EEE24__emplace_back_slow_pathIJRPKcEEEPS6_DpOT_
	.weak	_ZNSt3__26vectorINS_12basic_stringIcNS_11char_traitsIcEENS_9allocatorIcEEEENS4_IS6_EEE24__emplace_back_slow_pathIJRPKcEEEPS6_DpOT_
	.p2align	2
	.type	_ZNSt3__26vectorINS_12basic_stringIcNS_11char_traitsIcEENS_9allocatorIcEEEENS4_IS6_EEE24__emplace_back_slow_pathIJRPKcEEEPS6_DpOT_,%function
	.code	16                              @ @_ZNSt3__26vectorINS_12basic_stringIcNS_11char_traitsIcEENS_9allocatorIcEEEENS4_IS6_EEE24__emplace_back_slow_pathIJRPKcEEEPS6_DpOT_
	.thumb_func
_ZNSt3__26vectorINS_12basic_stringIcNS_11char_traitsIcEENS_9allocatorIcEEEENS4_IS6_EEE24__emplace_back_slow_pathIJRPKcEEEPS6_DpOT_:
.Lfunc_begin4:
	.loc	2 1533 0 is_stmt 1              @ AppData\Local\Keil_v5\ARM\ARMCLANG\bin\..\include\libcxx\vector:1533:0
	.fnstart
	.cfi_startproc
@ %bb.0:
	@DEBUG_VALUE: __emplace_back_slow_path<const char *&>:this <- $r0
	@DEBUG_VALUE: __emplace_back_slow_path<const char *&>:__args <- $r1
	.save	{r4, r5, r6, r7, r8, r9, r10, r11, lr}
	push.w	{r4, r5, r6, r7, r8, r9, r10, r11, lr}
	.cfi_def_cfa_offset 36
	.cfi_offset lr, -4
	.cfi_offset r11, -8
	.cfi_offset r10, -12
	.cfi_offset r9, -16
	.cfi_offset r8, -20
	.cfi_offset r7, -24
	.cfi_offset r6, -28
	.cfi_offset r5, -32
	.cfi_offset r4, -36
	.pad	#4
	sub	sp, #4
	.cfi_def_cfa_offset 40
	mov	r11, r0
.Ltmp69:
	@DEBUG_VALUE: __emplace_back_slow_path<const char *&>:this <- $r11
	.loc	2 634 56 prologue_end           @ AppData\Local\Keil_v5\ARM\ARMCLANG\bin\..\include\libcxx\vector:634:56
	ldrd	r3, r0, [r0]
	movw	r7, #43691
	movt	r7, #43690
	.loc	2 634 48 is_stmt 0              @ AppData\Local\Keil_v5\ARM\ARMCLANG\bin\..\include\libcxx\vector:634:48
	subs	r0, r0, r3
	asrs	r0, r0, #2
	mul	r5, r0, r7
	movw	r0, #21845
	movt	r0, #5461
.Ltmp70:
	@DEBUG_VALUE: size:this <- $r11
	@DEBUG_VALUE: __emplace_back_slow_path<const char *&>:__a <- [DW_OP_plus_uconst 8, DW_OP_stack_value] $r11
	.loc	2 1535 70 is_stmt 1             @ AppData\Local\Keil_v5\ARM\ARMCLANG\bin\..\include\libcxx\vector:1535:70
	adds	r2, r5, #1
.Ltmp71:
	@DEBUG_VALUE: __recommend:__ms <- 357913941
	@DEBUG_VALUE: __recommend:this <- $r11
	@DEBUG_VALUE: __recommend:__new_size <- $r2
	.loc	2 1114 7                        @ AppData\Local\Keil_v5\ARM\ARMCLANG\bin\..\include\libcxx\vector:1114:7
	cmp	r2, r0
	@DEBUG_VALUE: __emplace_back_slow_path<const char *&>:__args <- $r1
	bhi	.LBB4_13
.Ltmp72:
@ %bb.1:
	@DEBUG_VALUE: __recommend:__new_size <- $r2
	@DEBUG_VALUE: __recommend:this <- $r11
	@DEBUG_VALUE: __recommend:__ms <- 357913941
	@DEBUG_VALUE: __emplace_back_slow_path<const char *&>:__a <- [DW_OP_plus_uconst 8, DW_OP_stack_value] $r11
	@DEBUG_VALUE: __emplace_back_slow_path<const char *&>:this <- $r11
	@DEBUG_VALUE: __emplace_back_slow_path<const char *&>:__args <- $r1
	.loc	2 0 7 is_stmt 0                 @ AppData\Local\Keil_v5\ARM\ARMCLANG\bin\..\include\libcxx\vector:0:7
	mov	r6, r1
.Ltmp73:
	@DEBUG_VALUE: __emplace_back_slow_path<const char *&>:__args <- $r6
	@DEBUG_VALUE: __emplace_back_slow_path<const char *&>:__args <- $r6
	@DEBUG_VALUE: capacity:this <- $r11
	@DEBUG_VALUE: __end_cap:this <- $r11
	.loc	2 637 35 is_stmt 1              @ AppData\Local\Keil_v5\ARM\ARMCLANG\bin\..\include\libcxx\vector:637:35
	ldr.w	r1, [r11, #8]
	.loc	2 637 47 is_stmt 0              @ AppData\Local\Keil_v5\ARM\ARMCLANG\bin\..\include\libcxx\vector:637:47
	subs	r1, r1, r3
	movw	r3, #43690
	asrs	r1, r1, #2
	muls	r1, r7, r1
.Ltmp74:
	@DEBUG_VALUE: __recommend:__cap <- $r1
	.loc	2 0 47                          @ AppData\Local\Keil_v5\ARM\ARMCLANG\bin\..\include\libcxx\vector:0:47
	movt	r3, #2730
.Ltmp75:
	.loc	2 1117 7 is_stmt 1              @ AppData\Local\Keil_v5\ARM\ARMCLANG\bin\..\include\libcxx\vector:1117:7
	cmp.w	r2, r1, lsl #1
	it	lo
	lsllo	r2, r1, #1
.Ltmp76:
	cmp	r1, r3
	csel	r4, r2, r0, lo
.Ltmp77:
	@DEBUG_VALUE: __emplace_back_slow_path<const char *&>:__v <- [DW_OP_plus_uconst 8, DW_OP_stack_value, DW_OP_LLVM_fragment 128 32] $r11
	@DEBUG_VALUE: __emplace_back_slow_path<const char *&>:__v <- [DW_OP_LLVM_fragment 96 32] 0
	@DEBUG_VALUE: __split_buffer:__a <- [DW_OP_plus_uconst 8, DW_OP_stack_value] $r11
	@DEBUG_VALUE: __split_buffer:__start <- $r5
	@DEBUG_VALUE: __split_buffer:this <- undef
	@DEBUG_VALUE: size:this <- $r11
	@DEBUG_VALUE: __split_buffer:__cap <- $r4
	.loc	18 350 7                        @ AppData\Local\Keil_v5\ARM\ARMCLANG\bin\..\include\libcxx\__split_buffer:350:7
	cbz	r4, .LBB4_4
.Ltmp78:
@ %bb.2:
	@DEBUG_VALUE: __split_buffer:__cap <- $r4
	@DEBUG_VALUE: __split_buffer:__start <- $r5
	@DEBUG_VALUE: __split_buffer:__a <- [DW_OP_plus_uconst 8, DW_OP_stack_value] $r11
	@DEBUG_VALUE: __emplace_back_slow_path<const char *&>:__v <- [DW_OP_LLVM_fragment 96 32] 0
	@DEBUG_VALUE: __emplace_back_slow_path<const char *&>:__v <- [DW_OP_plus_uconst 8, DW_OP_stack_value, DW_OP_LLVM_fragment 128 32] $r11
	@DEBUG_VALUE: __emplace_back_slow_path<const char *&>:__args <- $r6
	@DEBUG_VALUE: __emplace_back_slow_path<const char *&>:__a <- [DW_OP_plus_uconst 8, DW_OP_stack_value] $r11
	@DEBUG_VALUE: __emplace_back_slow_path<const char *&>:this <- $r11
	@DEBUG_VALUE: __allocate_at_least<std::__2::allocator<std::__2::basic_string<char, std::__2::char_traits<char>, std::__2::allocator<char> > > >:__alloc <- undef
	@DEBUG_VALUE: __allocate_at_least<std::__2::allocator<std::__2::basic_string<char, std::__2::char_traits<char>, std::__2::allocator<char> > > >:__n <- $r4
	@DEBUG_VALUE: allocate:this <- undef
	@DEBUG_VALUE: allocate:__n <- $r4
	.loc	11 98 9                         @ AppData\Local\Keil_v5\ARM\ARMCLANG\bin\..\include\libcxx\__memory\allocator.h:98:9
	cmp	r4, r0
	bhi	.LBB4_15
.Ltmp79:
@ %bb.3:
	@DEBUG_VALUE: allocate:__n <- $r4
	@DEBUG_VALUE: __allocate_at_least<std::__2::allocator<std::__2::basic_string<char, std::__2::char_traits<char>, std::__2::allocator<char> > > >:__n <- $r4
	@DEBUG_VALUE: __split_buffer:__cap <- $r4
	@DEBUG_VALUE: __split_buffer:__start <- $r5
	@DEBUG_VALUE: __split_buffer:__a <- [DW_OP_plus_uconst 8, DW_OP_stack_value] $r11
	@DEBUG_VALUE: __emplace_back_slow_path<const char *&>:__v <- [DW_OP_LLVM_fragment 96 32] 0
	@DEBUG_VALUE: __emplace_back_slow_path<const char *&>:__v <- [DW_OP_plus_uconst 8, DW_OP_stack_value, DW_OP_LLVM_fragment 128 32] $r11
	@DEBUG_VALUE: __emplace_back_slow_path<const char *&>:__args <- $r6
	@DEBUG_VALUE: __emplace_back_slow_path<const char *&>:__a <- [DW_OP_plus_uconst 8, DW_OP_stack_value] $r11
	@DEBUG_VALUE: __emplace_back_slow_path<const char *&>:this <- $r11
	.loc	11 103 59                       @ AppData\Local\Keil_v5\ARM\ARMCLANG\bin\..\include\libcxx\__memory\allocator.h:103:59
	add.w	r0, r4, r4, lsl #1
	lsls	r0, r0, #2
.Ltmp80:
	@DEBUG_VALUE: __libcpp_allocate:__align <- 4
	@DEBUG_VALUE: __libcpp_operator_new<unsigned int>:__args <- $r0
	@DEBUG_VALUE: __libcpp_allocate:__size <- $r0
	.loc	4 272 10                        @ AppData\Local\Keil_v5\ARM\ARMCLANG\bin\..\include\libcxx\new:272:10
	bl	_Znwj
.Ltmp81:
	mov	r7, r0
.Ltmp82:
	@DEBUG_VALUE: __allocation <- [DW_OP_LLVM_fragment 32 32] $r4
	@DEBUG_VALUE: __allocation <- [DW_OP_LLVM_fragment 0 32] $r7
	@DEBUG_VALUE: __split_buffer:__cap <- $r4
	.loc	4 0 10 is_stmt 0                @ AppData\Local\Keil_v5\ARM\ARMCLANG\bin\..\include\libcxx\new:0:10
	b	.LBB4_5
.Ltmp83:
.LBB4_4:
	@DEBUG_VALUE: __split_buffer:__cap <- $r4
	@DEBUG_VALUE: size:this <- $r11
	@DEBUG_VALUE: __split_buffer:__start <- $r5
	@DEBUG_VALUE: __split_buffer:__a <- [DW_OP_plus_uconst 8, DW_OP_stack_value] $r11
	@DEBUG_VALUE: __emplace_back_slow_path<const char *&>:__v <- [DW_OP_LLVM_fragment 96 32] 0
	@DEBUG_VALUE: __emplace_back_slow_path<const char *&>:__v <- [DW_OP_plus_uconst 8, DW_OP_stack_value, DW_OP_LLVM_fragment 128 32] $r11
	@DEBUG_VALUE: __recommend:__cap <- $r1
	@DEBUG_VALUE: __end_cap:this <- $r11
	@DEBUG_VALUE: capacity:this <- $r11
	@DEBUG_VALUE: __emplace_back_slow_path<const char *&>:__args <- $r6
	@DEBUG_VALUE: __recommend:this <- $r11
	@DEBUG_VALUE: __recommend:__ms <- 357913941
	@DEBUG_VALUE: __emplace_back_slow_path<const char *&>:__a <- [DW_OP_plus_uconst 8, DW_OP_stack_value] $r11
	@DEBUG_VALUE: __emplace_back_slow_path<const char *&>:this <- $r11
	movs	r7, #0
.Ltmp84:
.LBB4_5:
	@DEBUG_VALUE: __split_buffer:__cap <- $r4
	@DEBUG_VALUE: __split_buffer:__start <- $r5
	@DEBUG_VALUE: __split_buffer:__a <- [DW_OP_plus_uconst 8, DW_OP_stack_value] $r11
	@DEBUG_VALUE: __emplace_back_slow_path<const char *&>:__v <- [DW_OP_LLVM_fragment 96 32] 0
	@DEBUG_VALUE: __emplace_back_slow_path<const char *&>:__v <- [DW_OP_plus_uconst 8, DW_OP_stack_value, DW_OP_LLVM_fragment 128 32] $r11
	@DEBUG_VALUE: __emplace_back_slow_path<const char *&>:__args <- $r6
	@DEBUG_VALUE: __emplace_back_slow_path<const char *&>:__a <- [DW_OP_plus_uconst 8, DW_OP_stack_value] $r11
	@DEBUG_VALUE: __emplace_back_slow_path<const char *&>:this <- $r11
	@DEBUG_VALUE: __split_buffer:__cap <- $r4
	@DEBUG_VALUE: __emplace_back_slow_path<const char *&>:__v <- [DW_OP_LLVM_fragment 0 32] $r7
	.loc	18 357 32 is_stmt 1             @ AppData\Local\Keil_v5\ARM\ARMCLANG\bin\..\include\libcxx\__split_buffer:357:32
	add.w	r0, r5, r5, lsl #1
.Ltmp85:
	.loc	11 151 28                       @ AppData\Local\Keil_v5\ARM\ARMCLANG\bin\..\include\libcxx\__memory\allocator.h:151:28
	ldr.w	r8, [r6]
.Ltmp86:
	@DEBUG_VALUE: __constexpr_strlen<char>:__str <- $r8
	@DEBUG_VALUE: length:__s <- $r8
	@DEBUG_VALUE: basic_string<0>:__s <- $r8
	@DEBUG_VALUE: basic_string<0>:this <- $r5
	.loc	18 357 32                       @ AppData\Local\Keil_v5\ARM\ARMCLANG\bin\..\include\libcxx\__split_buffer:357:32
	add.w	r5, r7, r0, lsl #2
.Ltmp87:
	@DEBUG_VALUE: construct<std::__2::basic_string<char, std::__2::char_traits<char>, std::__2::allocator<char> >, const char *&>:__args <- $r6
	@DEBUG_VALUE: construct<std::__2::basic_string<char, std::__2::char_traits<char>, std::__2::allocator<char> >, const char *&>:this <- [DW_OP_plus_uconst 8, DW_OP_stack_value] $r11
	@DEBUG_VALUE: construct<std::__2::basic_string<char, std::__2::char_traits<char>, std::__2::allocator<char> >, const char *&, 0>:__args <- $r6
	@DEBUG_VALUE: construct<std::__2::basic_string<char, std::__2::char_traits<char>, std::__2::allocator<char> >, const char *&, 0>:__a <- [DW_OP_plus_uconst 8, DW_OP_stack_value] $r11
	@DEBUG_VALUE: construct<std::__2::basic_string<char, std::__2::char_traits<char>, std::__2::allocator<char> >, const char *&>:__p <- $r5
	@DEBUG_VALUE: construct<std::__2::basic_string<char, std::__2::char_traits<char>, std::__2::allocator<char> >, const char *&, 0>:__p <- $r5
	@DEBUG_VALUE: __emplace_back_slow_path<const char *&>:__v <- [DW_OP_LLVM_fragment 32 32] $r5
	@DEBUG_VALUE: __emplace_back_slow_path<const char *&>:__v <- [DW_OP_LLVM_fragment 64 32] $r5
	@DEBUG_VALUE: __emplace_back_slow_path<const char *&>:__v <- [DW_OP_LLVM_fragment 96 32] undef
	.loc	17 64 10                        @ AppData\Local\Keil_v5\ARM\ARMCLANG\bin\..\include\libcxx\__string\constexpr_c_functions.h:64:10
	mov	r0, r8
	bl	strlen
.Ltmp88:
	mov	r6, r0
.Ltmp89:
	.loc	17 0 10 is_stmt 0               @ AppData\Local\Keil_v5\ARM\ARMCLANG\bin\..\include\libcxx\__string\constexpr_c_functions.h:0:10
	movw	r0, #65528
	movt	r0, #32767
.Ltmp90:
	@DEBUG_VALUE: __init:__s <- $r8
	@DEBUG_VALUE: __init:__sz <- $r6
	@DEBUG_VALUE: __init:this <- $r5
	.loc	5 2334 7 is_stmt 1              @ AppData\Local\Keil_v5\ARM\ARMCLANG\bin\..\include\libcxx\string:2334:7
	cmp	r6, r0
	bhs	.LBB4_14
.Ltmp91:
@ %bb.6:
	@DEBUG_VALUE: __init:this <- $r5
	@DEBUG_VALUE: __init:__sz <- $r6
	@DEBUG_VALUE: __init:__s <- $r8
	@DEBUG_VALUE: __emplace_back_slow_path<const char *&>:__v <- [DW_OP_LLVM_fragment 64 32] $r5
	@DEBUG_VALUE: __emplace_back_slow_path<const char *&>:__v <- [DW_OP_LLVM_fragment 32 32] $r5
	@DEBUG_VALUE: construct<std::__2::basic_string<char, std::__2::char_traits<char>, std::__2::allocator<char> >, const char *&, 0>:__p <- $r5
	@DEBUG_VALUE: construct<std::__2::basic_string<char, std::__2::char_traits<char>, std::__2::allocator<char> >, const char *&>:__p <- $r5
	@DEBUG_VALUE: construct<std::__2::basic_string<char, std::__2::char_traits<char>, std::__2::allocator<char> >, const char *&, 0>:__a <- [DW_OP_plus_uconst 8, DW_OP_stack_value] $r11
	@DEBUG_VALUE: construct<std::__2::basic_string<char, std::__2::char_traits<char>, std::__2::allocator<char> >, const char *&>:this <- [DW_OP_plus_uconst 8, DW_OP_stack_value] $r11
	@DEBUG_VALUE: basic_string<0>:__s <- $r8
	@DEBUG_VALUE: __emplace_back_slow_path<const char *&>:__v <- [DW_OP_LLVM_fragment 0 32] $r7
	@DEBUG_VALUE: __emplace_back_slow_path<const char *&>:__v <- [DW_OP_plus_uconst 8, DW_OP_stack_value, DW_OP_LLVM_fragment 128 32] $r11
	@DEBUG_VALUE: __emplace_back_slow_path<const char *&>:__a <- [DW_OP_plus_uconst 8, DW_OP_stack_value] $r11
	@DEBUG_VALUE: __emplace_back_slow_path<const char *&>:this <- $r11
	.loc	2 0 0 is_stmt 0                 @ AppData\Local\Keil_v5\ARM\ARMCLANG\bin\..\include\libcxx\vector:0:0
	add.w	r0, r4, r4, lsl #1
.Ltmp92:
	.loc	5 2337 7 is_stmt 1              @ AppData\Local\Keil_v5\ARM\ARMCLANG\bin\..\include\libcxx\string:2337:7
	cmp	r6, #11
.Ltmp93:
	.loc	2 0 0 is_stmt 0                 @ AppData\Local\Keil_v5\ARM\ARMCLANG\bin\..\include\libcxx\vector:0:0
	add.w	r10, r7, r0, lsl #2
.Ltmp94:
	@DEBUG_VALUE: __fits_in_sso:__sz <- $r6
	@DEBUG_VALUE: __emplace_back_slow_path<const char *&>:__v <- [DW_OP_LLVM_fragment 96 32] $r10
	.loc	5 2337 7                        @ AppData\Local\Keil_v5\ARM\ARMCLANG\bin\..\include\libcxx\string:2337:7
	bhs	.LBB4_8
.Ltmp95:
@ %bb.7:
	@DEBUG_VALUE: __emplace_back_slow_path<const char *&>:__v <- [DW_OP_LLVM_fragment 96 32] $r10
	@DEBUG_VALUE: __init:this <- $r5
	@DEBUG_VALUE: __init:__sz <- $r6
	@DEBUG_VALUE: __init:__s <- $r8
	@DEBUG_VALUE: __emplace_back_slow_path<const char *&>:__v <- [DW_OP_LLVM_fragment 64 32] $r5
	@DEBUG_VALUE: __emplace_back_slow_path<const char *&>:__v <- [DW_OP_LLVM_fragment 32 32] $r5
	@DEBUG_VALUE: construct<std::__2::basic_string<char, std::__2::char_traits<char>, std::__2::allocator<char> >, const char *&, 0>:__p <- $r5
	@DEBUG_VALUE: construct<std::__2::basic_string<char, std::__2::char_traits<char>, std::__2::allocator<char> >, const char *&>:__p <- $r5
	@DEBUG_VALUE: construct<std::__2::basic_string<char, std::__2::char_traits<char>, std::__2::allocator<char> >, const char *&, 0>:__a <- [DW_OP_plus_uconst 8, DW_OP_stack_value] $r11
	@DEBUG_VALUE: construct<std::__2::basic_string<char, std::__2::char_traits<char>, std::__2::allocator<char> >, const char *&>:this <- [DW_OP_plus_uconst 8, DW_OP_stack_value] $r11
	@DEBUG_VALUE: basic_string<0>:__s <- $r8
	@DEBUG_VALUE: __emplace_back_slow_path<const char *&>:__v <- [DW_OP_LLVM_fragment 0 32] $r7
	@DEBUG_VALUE: __emplace_back_slow_path<const char *&>:__v <- [DW_OP_plus_uconst 8, DW_OP_stack_value, DW_OP_LLVM_fragment 128 32] $r11
	@DEBUG_VALUE: __emplace_back_slow_path<const char *&>:__a <- [DW_OP_plus_uconst 8, DW_OP_stack_value] $r11
	@DEBUG_VALUE: __emplace_back_slow_path<const char *&>:this <- $r11
	@DEBUG_VALUE: __set_short_size:this <- $r5
	@DEBUG_VALUE: __set_short_size:__s <- $r6
	.loc	5 0 7                           @ AppData\Local\Keil_v5\ARM\ARMCLANG\bin\..\include\libcxx\string:0:7
	mov	r7, r5
.Ltmp96:
	.loc	5 1957 33 is_stmt 1             @ AppData\Local\Keil_v5\ARM\ARMCLANG\bin\..\include\libcxx\string:1957:33
	strb	r6, [r5, #11]
.Ltmp97:
	@DEBUG_VALUE: __constexpr_memmove<char, const char, 0>:__count <- $r6
	@DEBUG_VALUE: __constexpr_memmove<char, const char, 0>:__n <- $r6
	@DEBUG_VALUE: __constexpr_memmove<char, const char, 0>:__src <- $r8
	@DEBUG_VALUE: copy:__n <- $r6
	@DEBUG_VALUE: copy:__s2 <- $r8
	@DEBUG_VALUE: __constexpr_memmove<char, const char, 0>:__dest <- $r5
	@DEBUG_VALUE: copy:__s1 <- $r5
	@DEBUG_VALUE: __init:__p <- $r5
	.loc	17 226 14                       @ AppData\Local\Keil_v5\ARM\ARMCLANG\bin\..\include\libcxx\__string\constexpr_c_functions.h:226:14
	cbnz	r6, .LBB4_9
	b	.LBB4_10
.Ltmp98:
.LBB4_8:
	@DEBUG_VALUE: __emplace_back_slow_path<const char *&>:__v <- [DW_OP_LLVM_fragment 96 32] $r10
	@DEBUG_VALUE: __init:this <- $r5
	@DEBUG_VALUE: __init:__sz <- $r6
	@DEBUG_VALUE: __init:__s <- $r8
	@DEBUG_VALUE: __emplace_back_slow_path<const char *&>:__v <- [DW_OP_LLVM_fragment 64 32] $r5
	@DEBUG_VALUE: __emplace_back_slow_path<const char *&>:__v <- [DW_OP_LLVM_fragment 32 32] $r5
	@DEBUG_VALUE: construct<std::__2::basic_string<char, std::__2::char_traits<char>, std::__2::allocator<char> >, const char *&, 0>:__p <- $r5
	@DEBUG_VALUE: construct<std::__2::basic_string<char, std::__2::char_traits<char>, std::__2::allocator<char> >, const char *&>:__p <- $r5
	@DEBUG_VALUE: construct<std::__2::basic_string<char, std::__2::char_traits<char>, std::__2::allocator<char> >, const char *&, 0>:__a <- [DW_OP_plus_uconst 8, DW_OP_stack_value] $r11
	@DEBUG_VALUE: construct<std::__2::basic_string<char, std::__2::char_traits<char>, std::__2::allocator<char> >, const char *&>:this <- [DW_OP_plus_uconst 8, DW_OP_stack_value] $r11
	@DEBUG_VALUE: basic_string<0>:__s <- $r8
	@DEBUG_VALUE: __emplace_back_slow_path<const char *&>:__v <- [DW_OP_LLVM_fragment 0 32] $r7
	@DEBUG_VALUE: __emplace_back_slow_path<const char *&>:__v <- [DW_OP_plus_uconst 8, DW_OP_stack_value, DW_OP_LLVM_fragment 128 32] $r11
	@DEBUG_VALUE: __emplace_back_slow_path<const char *&>:__a <- [DW_OP_plus_uconst 8, DW_OP_stack_value] $r11
	@DEBUG_VALUE: __emplace_back_slow_path<const char *&>:this <- $r11
	@DEBUG_VALUE: __recommend:__s <- $r6
	.loc	5 2064 9                        @ AppData\Local\Keil_v5\ARM\ARMCLANG\bin\..\include\libcxx\string:2064:9
	orr	r0, r6, #7
.Ltmp99:
	.loc	5 2341 79                       @ AppData\Local\Keil_v5\ARM\ARMCLANG\bin\..\include\libcxx\string:2341:79
	add.w	r9, r0, #1
.Ltmp100:
	@DEBUG_VALUE: __libcpp_allocate:__align <- 1
	@DEBUG_VALUE: allocate:this <- $r5
	@DEBUG_VALUE: __allocate_at_least<std::__2::allocator<char> >:__alloc <- $r5
	@DEBUG_VALUE: __libcpp_operator_new<unsigned int>:__args <- $r9
	@DEBUG_VALUE: __libcpp_allocate:__size <- $r9
	@DEBUG_VALUE: allocate:__n <- $r9
	@DEBUG_VALUE: __allocate_at_least<std::__2::allocator<char> >:__n <- $r9
	.loc	4 272 10                        @ AppData\Local\Keil_v5\ARM\ARMCLANG\bin\..\include\libcxx\new:272:10
	mov	r0, r9
	bl	_Znwj
.Ltmp101:
	mov	r7, r0
.Ltmp102:
	@DEBUG_VALUE: __set_long_cap:__s <- $r9
	@DEBUG_VALUE: __set_long_cap:this <- $r5
	@DEBUG_VALUE: __allocation <- [DW_OP_LLVM_fragment 32 32] $r9
	@DEBUG_VALUE: __init:__p <- $r7
	@DEBUG_VALUE: __allocation <- [DW_OP_LLVM_fragment 0 32] $r7
	.loc	5 1981 33                       @ AppData\Local\Keil_v5\ARM\ARMCLANG\bin\..\include\libcxx\string:1981:33
	orr	r0, r9, #-2147483648
.Ltmp103:
	@DEBUG_VALUE: __set_long_pointer:this <- $r5
	@DEBUG_VALUE: __set_long_pointer:__p <- $r7
	@DEBUG_VALUE: __set_long_size:__s <- $r6
	@DEBUG_VALUE: __set_long_size:this <- $r5
	.loc	5 1989 30                       @ AppData\Local\Keil_v5\ARM\ARMCLANG\bin\..\include\libcxx\string:1989:30
	strd	r7, r6, [r5]
.Ltmp104:
	.loc	5 1981 33                       @ AppData\Local\Keil_v5\ARM\ARMCLANG\bin\..\include\libcxx\string:1981:33
	str	r0, [r5, #8]
.Ltmp105:
	@DEBUG_VALUE: __constexpr_memmove<char, const char, 0>:__count <- $r6
	@DEBUG_VALUE: __constexpr_memmove<char, const char, 0>:__n <- $r6
	@DEBUG_VALUE: __constexpr_memmove<char, const char, 0>:__src <- $r8
	@DEBUG_VALUE: copy:__n <- $r6
	@DEBUG_VALUE: copy:__s2 <- $r8
	@DEBUG_VALUE: __constexpr_memmove<char, const char, 0>:__dest <- $r7
	@DEBUG_VALUE: copy:__s1 <- $r7
.LBB4_9:
	@DEBUG_VALUE: copy:__s2 <- $r8
	@DEBUG_VALUE: copy:__n <- $r6
	@DEBUG_VALUE: __constexpr_memmove<char, const char, 0>:__src <- $r8
	@DEBUG_VALUE: __constexpr_memmove<char, const char, 0>:__n <- $r6
	@DEBUG_VALUE: __constexpr_memmove<char, const char, 0>:__count <- $r6
	@DEBUG_VALUE: __emplace_back_slow_path<const char *&>:__v <- [DW_OP_LLVM_fragment 96 32] $r10
	@DEBUG_VALUE: __init:this <- $r5
	@DEBUG_VALUE: __init:__sz <- $r6
	@DEBUG_VALUE: __init:__s <- $r8
	@DEBUG_VALUE: __emplace_back_slow_path<const char *&>:__v <- [DW_OP_LLVM_fragment 64 32] $r5
	@DEBUG_VALUE: __emplace_back_slow_path<const char *&>:__v <- [DW_OP_LLVM_fragment 32 32] $r5
	@DEBUG_VALUE: construct<std::__2::basic_string<char, std::__2::char_traits<char>, std::__2::allocator<char> >, const char *&, 0>:__p <- $r5
	@DEBUG_VALUE: construct<std::__2::basic_string<char, std::__2::char_traits<char>, std::__2::allocator<char> >, const char *&>:__p <- $r5
	@DEBUG_VALUE: construct<std::__2::basic_string<char, std::__2::char_traits<char>, std::__2::allocator<char> >, const char *&, 0>:__a <- [DW_OP_plus_uconst 8, DW_OP_stack_value] $r11
	@DEBUG_VALUE: construct<std::__2::basic_string<char, std::__2::char_traits<char>, std::__2::allocator<char> >, const char *&>:this <- [DW_OP_plus_uconst 8, DW_OP_stack_value] $r11
	@DEBUG_VALUE: basic_string<0>:__s <- $r8
	@DEBUG_VALUE: __emplace_back_slow_path<const char *&>:__v <- [DW_OP_plus_uconst 8, DW_OP_stack_value, DW_OP_LLVM_fragment 128 32] $r11
	@DEBUG_VALUE: __emplace_back_slow_path<const char *&>:__a <- [DW_OP_plus_uconst 8, DW_OP_stack_value] $r11
	@DEBUG_VALUE: __emplace_back_slow_path<const char *&>:this <- $r11
	.loc	17 227 5                        @ AppData\Local\Keil_v5\ARM\ARMCLANG\bin\..\include\libcxx\__string\constexpr_c_functions.h:227:5
	mov	r0, r7
	mov	r1, r8
	mov	r2, r6
	bl	__aeabi_memmove
.Ltmp106:
.LBB4_10:
	@DEBUG_VALUE: __emplace_back_slow_path<const char *&>:__v <- [DW_OP_LLVM_fragment 96 32] $r10
	@DEBUG_VALUE: __init:this <- $r5
	@DEBUG_VALUE: __init:__sz <- $r6
	@DEBUG_VALUE: __init:__s <- $r8
	@DEBUG_VALUE: __emplace_back_slow_path<const char *&>:__v <- [DW_OP_LLVM_fragment 64 32] $r5
	@DEBUG_VALUE: __emplace_back_slow_path<const char *&>:__v <- [DW_OP_LLVM_fragment 32 32] $r5
	@DEBUG_VALUE: construct<std::__2::basic_string<char, std::__2::char_traits<char>, std::__2::allocator<char> >, const char *&, 0>:__p <- $r5
	@DEBUG_VALUE: construct<std::__2::basic_string<char, std::__2::char_traits<char>, std::__2::allocator<char> >, const char *&>:__p <- $r5
	@DEBUG_VALUE: construct<std::__2::basic_string<char, std::__2::char_traits<char>, std::__2::allocator<char> >, const char *&, 0>:__a <- [DW_OP_plus_uconst 8, DW_OP_stack_value] $r11
	@DEBUG_VALUE: construct<std::__2::basic_string<char, std::__2::char_traits<char>, std::__2::allocator<char> >, const char *&>:this <- [DW_OP_plus_uconst 8, DW_OP_stack_value] $r11
	@DEBUG_VALUE: basic_string<0>:__s <- $r8
	@DEBUG_VALUE: __emplace_back_slow_path<const char *&>:__v <- [DW_OP_plus_uconst 8, DW_OP_stack_value, DW_OP_LLVM_fragment 128 32] $r11
	@DEBUG_VALUE: __emplace_back_slow_path<const char *&>:__a <- [DW_OP_plus_uconst 8, DW_OP_stack_value] $r11
	@DEBUG_VALUE: __emplace_back_slow_path<const char *&>:this <- $r11
	.loc	17 0 5 is_stmt 0                @ AppData\Local\Keil_v5\ARM\ARMCLANG\bin\..\include\libcxx\__string\constexpr_c_functions.h:0:5
	movs	r0, #0
.Ltmp107:
	@DEBUG_VALUE: assign:__c2 <- undef
	@DEBUG_VALUE: assign:__c1 <- [DW_OP_LLVM_arg 0, DW_OP_LLVM_arg 1, DW_OP_plus, DW_OP_stack_value] $r7, $r6
	.loc	9 92 10 is_stmt 1               @ AppData\Local\Keil_v5\ARM\ARMCLANG\bin\..\include\libcxx\__string\char_traits.h:92:10
	strb	r0, [r7, r6]
.Ltmp108:
	.loc	2 1538 13                       @ AppData\Local\Keil_v5\ARM\ARMCLANG\bin\..\include\libcxx\vector:1538:13
	add.w	r6, r5, #12
.Ltmp109:
	@DEBUG_VALUE: __swap_out_circular_buffer:__v <- undef
	@DEBUG_VALUE: __swap_out_circular_buffer:this <- $r11
	@DEBUG_VALUE: __emplace_back_slow_path<const char *&>:__v <- [DW_OP_LLVM_fragment 64 32] $r6
	.loc	2 1050 47                       @ AppData\Local\Keil_v5\ARM\ARMCLANG\bin\..\include\libcxx\vector:1050:47
	ldrd	r7, r0, [r11]
.Ltmp110:
	.loc	20 641 5                        @ AppData\Local\Keil_v5\ARM\ARMCLANG\bin\..\include\libcxx\__memory\uninitialized_algorithms.h:641:5
	mov	r1, r7
.Ltmp111:
	.loc	2 1050 45                       @ AppData\Local\Keil_v5\ARM\ARMCLANG\bin\..\include\libcxx\vector:1050:45
	subs	r2, r0, r7
	.loc	2 1050 35 is_stmt 0             @ AppData\Local\Keil_v5\ARM\ARMCLANG\bin\..\include\libcxx\vector:1050:35
	subs	r5, r5, r2
.Ltmp112:
	@DEBUG_VALUE: __uninitialized_allocator_relocate<std::__2::allocator<std::__2::basic_string<char, std::__2::char_traits<char>, std::__2::allocator<char> > >, std::__2::basic_string<char, std::__2::char_traits<char>, std::__2::allocator<char> > >:__last <- undef
	@DEBUG_VALUE: __uninitialized_allocator_relocate<std::__2::allocator<std::__2::basic_string<char, std::__2::char_traits<char>, std::__2::allocator<char> > >, std::__2::basic_string<char, std::__2::char_traits<char>, std::__2::allocator<char> > >:__first <- $r7
	@DEBUG_VALUE: __uninitialized_allocator_relocate<std::__2::allocator<std::__2::basic_string<char, std::__2::char_traits<char>, std::__2::allocator<char> > >, std::__2::basic_string<char, std::__2::char_traits<char>, std::__2::allocator<char> > >:__alloc <- [DW_OP_plus_uconst 8, DW_OP_stack_value] $r11
	@DEBUG_VALUE: __uninitialized_allocator_relocate<std::__2::allocator<std::__2::basic_string<char, std::__2::char_traits<char>, std::__2::allocator<char> > >, std::__2::basic_string<char, std::__2::char_traits<char>, std::__2::allocator<char> > >:__result <- $r5
	@DEBUG_VALUE: __swap_out_circular_buffer:__new_begin <- $r5
	.loc	20 641 5 is_stmt 1              @ AppData\Local\Keil_v5\ARM\ARMCLANG\bin\..\include\libcxx\__memory\uninitialized_algorithms.h:641:5
	mov	r0, r5
	bl	__aeabi_memcpy4
.Ltmp113:
	@DEBUG_VALUE: swap<std::__2::basic_string<char, std::__2::char_traits<char>, std::__2::allocator<char> > *>:__t <- $r7
	@DEBUG_VALUE: swap<std::__2::basic_string<char, std::__2::char_traits<char>, std::__2::allocator<char> > *>:__y <- undef
	@DEBUG_VALUE: swap<std::__2::basic_string<char, std::__2::char_traits<char>, std::__2::allocator<char> > *>:__x <- $r11
	@DEBUG_VALUE: __emplace_back_slow_path<const char *&>:__v <- [DW_OP_LLVM_fragment 32 32] $r5
	@DEBUG_VALUE: swap<std::__2::basic_string<char, std::__2::char_traits<char>, std::__2::allocator<char> > *>:__x <- [DW_OP_plus_uconst 4, DW_OP_stack_value] $r11
	@DEBUG_VALUE: swap<std::__2::basic_string<char, std::__2::char_traits<char>, std::__2::allocator<char> > *>:__t <- $r7
	@DEBUG_VALUE: swap<std::__2::basic_string<char, std::__2::char_traits<char>, std::__2::allocator<char> > *>:__y <- undef
	@DEBUG_VALUE: __emplace_back_slow_path<const char *&>:__v <- [DW_OP_LLVM_fragment 32 32] $r7
	.loc	21 42 11                        @ AppData\Local\Keil_v5\ARM\ARMCLANG\bin\..\include\libcxx\__utility\swap.h:42:11
	ldr.w	r0, [r11, #8]
.Ltmp114:
	@DEBUG_VALUE: swap<std::__2::basic_string<char, std::__2::char_traits<char>, std::__2::allocator<char> > *>:__t <- $r0
	.loc	21 43 7                         @ AppData\Local\Keil_v5\ARM\ARMCLANG\bin\..\include\libcxx\__utility\swap.h:43:7
	strd	r5, r6, [r11]
.Ltmp115:
	@DEBUG_VALUE: swap<std::__2::basic_string<char, std::__2::char_traits<char>, std::__2::allocator<char> > *>:__x <- [DW_OP_plus_uconst 8, DW_OP_stack_value] $r11
	@DEBUG_VALUE: swap<std::__2::basic_string<char, std::__2::char_traits<char>, std::__2::allocator<char> > *>:__y <- undef
	@DEBUG_VALUE: __emplace_back_slow_path<const char *&>:__v <- [DW_OP_LLVM_fragment 64 32] $r7
	.loc	21 43 7 is_stmt 0               @ AppData\Local\Keil_v5\ARM\ARMCLANG\bin\..\include\libcxx\__utility\swap.h:43:7
	str.w	r10, [r11, #8]
.Ltmp116:
	@DEBUG_VALUE: ~__split_buffer:this <- undef
	@DEBUG_VALUE: __emplace_back_slow_path<const char *&>:__v <- [DW_OP_LLVM_fragment 0 32] $r7
	@DEBUG_VALUE: __emplace_back_slow_path<const char *&>:__v <- [DW_OP_LLVM_fragment 96 32] $r0
	.loc	18 364 7 is_stmt 1              @ AppData\Local\Keil_v5\ARM\ARMCLANG\bin\..\include\libcxx\__split_buffer:364:7
	cbz	r7, .LBB4_12
.Ltmp117:
@ %bb.11:
	@DEBUG_VALUE: __emplace_back_slow_path<const char *&>:__v <- [DW_OP_LLVM_fragment 96 32] $r0
	@DEBUG_VALUE: __emplace_back_slow_path<const char *&>:__v <- [DW_OP_LLVM_fragment 64 32] $r7
	@DEBUG_VALUE: __emplace_back_slow_path<const char *&>:__v <- [DW_OP_LLVM_fragment 32 32] $r7
	@DEBUG_VALUE: __emplace_back_slow_path<const char *&>:__v <- [DW_OP_LLVM_fragment 0 32] $r7
	@DEBUG_VALUE: __emplace_back_slow_path<const char *&>:__v <- [DW_OP_plus_uconst 8, DW_OP_stack_value, DW_OP_LLVM_fragment 128 32] $r11
	@DEBUG_VALUE: __emplace_back_slow_path<const char *&>:__a <- [DW_OP_plus_uconst 8, DW_OP_stack_value] $r11
	@DEBUG_VALUE: __emplace_back_slow_path<const char *&>:this <- $r11
	@DEBUG_VALUE: capacity:this <- undef
	.loc	18 139 47                       @ AppData\Local\Keil_v5\ARM\ARMCLANG\bin\..\include\libcxx\__split_buffer:139:47
	subs	r1, r0, r7
.Ltmp118:
	@DEBUG_VALUE: __libcpp_operator_delete<void *, unsigned int>:__args <- $r7
	@DEBUG_VALUE: __do_deallocate_handle_size<>:__ptr <- $r7
	@DEBUG_VALUE: __libcpp_deallocate:__align <- 4
	@DEBUG_VALUE: __libcpp_deallocate:__ptr <- $r7
	@DEBUG_VALUE: deallocate:__p <- $r7
	@DEBUG_VALUE: deallocate:this <- undef
	@DEBUG_VALUE: deallocate:__p <- $r7
	@DEBUG_VALUE: deallocate:__a <- undef
	@DEBUG_VALUE: __libcpp_operator_delete<void *, unsigned int>:__args <- $r1
	@DEBUG_VALUE: __do_deallocate_handle_size<>:__size <- $r1
	@DEBUG_VALUE: __libcpp_deallocate:__size <- $r1
	@DEBUG_VALUE: deallocate:__n <- [DW_OP_constu 12, DW_OP_div, DW_OP_stack_value] $r1
	@DEBUG_VALUE: deallocate:__n <- [DW_OP_constu 12, DW_OP_div, DW_OP_stack_value] $r1
	.loc	4 281 3                         @ AppData\Local\Keil_v5\ARM\ARMCLANG\bin\..\include\libcxx\new:281:3
	mov	r0, r7
.Ltmp119:
	bl	_ZdlPvj
.Ltmp120:
.LBB4_12:
	@DEBUG_VALUE: __emplace_back_slow_path<const char *&>:__v <- [DW_OP_LLVM_fragment 64 32] $r7
	@DEBUG_VALUE: __emplace_back_slow_path<const char *&>:__v <- [DW_OP_LLVM_fragment 32 32] $r7
	@DEBUG_VALUE: __emplace_back_slow_path<const char *&>:__v <- [DW_OP_LLVM_fragment 0 32] $r7
	@DEBUG_VALUE: __emplace_back_slow_path<const char *&>:__v <- [DW_OP_plus_uconst 8, DW_OP_stack_value, DW_OP_LLVM_fragment 128 32] $r11
	@DEBUG_VALUE: __emplace_back_slow_path<const char *&>:__a <- [DW_OP_plus_uconst 8, DW_OP_stack_value] $r11
	@DEBUG_VALUE: __emplace_back_slow_path<const char *&>:this <- $r11
	.loc	2 1541 1                        @ AppData\Local\Keil_v5\ARM\ARMCLANG\bin\..\include\libcxx\vector:1541:1
	mov	r0, r6
	.loc	2 1541 1 epilogue_begin is_stmt 0 @ AppData\Local\Keil_v5\ARM\ARMCLANG\bin\..\include\libcxx\vector:1541:1
	add	sp, #4
	pop.w	{r4, r5, r6, r7, r8, r9, r10, r11, pc}
.Ltmp121:
.LBB4_13:
	@DEBUG_VALUE: __recommend:__new_size <- $r2
	@DEBUG_VALUE: __recommend:this <- $r11
	@DEBUG_VALUE: __recommend:__ms <- 357913941
	@DEBUG_VALUE: __emplace_back_slow_path<const char *&>:__a <- [DW_OP_plus_uconst 8, DW_OP_stack_value] $r11
	@DEBUG_VALUE: __emplace_back_slow_path<const char *&>:this <- $r11
	@DEBUG_VALUE: __emplace_back_slow_path<const char *&>:__args <- $r1
	.loc	2 1115 11 is_stmt 1             @ AppData\Local\Keil_v5\ARM\ARMCLANG\bin\..\include\libcxx\vector:1115:11
	mov	r0, r11
	bl	_ZNKSt3__26vectorINS_12basic_stringIcNS_11char_traitsIcEENS_9allocatorIcEEEENS4_IS6_EEE20__throw_length_errorB8nn200000Ev
.Ltmp122:
.LBB4_14:
	@DEBUG_VALUE: __init:this <- $r5
	@DEBUG_VALUE: __init:__sz <- $r6
	@DEBUG_VALUE: __init:__s <- $r8
	@DEBUG_VALUE: __emplace_back_slow_path<const char *&>:__v <- [DW_OP_LLVM_fragment 64 32] $r5
	@DEBUG_VALUE: __emplace_back_slow_path<const char *&>:__v <- [DW_OP_LLVM_fragment 32 32] $r5
	@DEBUG_VALUE: construct<std::__2::basic_string<char, std::__2::char_traits<char>, std::__2::allocator<char> >, const char *&, 0>:__p <- $r5
	@DEBUG_VALUE: construct<std::__2::basic_string<char, std::__2::char_traits<char>, std::__2::allocator<char> >, const char *&>:__p <- $r5
	@DEBUG_VALUE: construct<std::__2::basic_string<char, std::__2::char_traits<char>, std::__2::allocator<char> >, const char *&, 0>:__a <- [DW_OP_plus_uconst 8, DW_OP_stack_value] $r11
	@DEBUG_VALUE: construct<std::__2::basic_string<char, std::__2::char_traits<char>, std::__2::allocator<char> >, const char *&>:this <- [DW_OP_plus_uconst 8, DW_OP_stack_value] $r11
	@DEBUG_VALUE: basic_string<0>:__s <- $r8
	@DEBUG_VALUE: __emplace_back_slow_path<const char *&>:__v <- [DW_OP_LLVM_fragment 0 32] $r7
	@DEBUG_VALUE: __emplace_back_slow_path<const char *&>:__v <- [DW_OP_plus_uconst 8, DW_OP_stack_value, DW_OP_LLVM_fragment 128 32] $r11
	@DEBUG_VALUE: __emplace_back_slow_path<const char *&>:__a <- [DW_OP_plus_uconst 8, DW_OP_stack_value] $r11
	@DEBUG_VALUE: __emplace_back_slow_path<const char *&>:this <- $r11
	.loc	5 2335 5                        @ AppData\Local\Keil_v5\ARM\ARMCLANG\bin\..\include\libcxx\string:2335:5
	mov	r0, r5
	bl	_ZNKSt3__212basic_stringIcNS_11char_traitsIcEENS_9allocatorIcEEE20__throw_length_errorB8nn200000Ev
.Ltmp123:
.LBB4_15:
	@DEBUG_VALUE: allocate:__n <- $r4
	@DEBUG_VALUE: __allocate_at_least<std::__2::allocator<std::__2::basic_string<char, std::__2::char_traits<char>, std::__2::allocator<char> > > >:__n <- $r4
	@DEBUG_VALUE: __split_buffer:__cap <- $r4
	@DEBUG_VALUE: __split_buffer:__start <- $r5
	@DEBUG_VALUE: __split_buffer:__a <- [DW_OP_plus_uconst 8, DW_OP_stack_value] $r11
	@DEBUG_VALUE: __emplace_back_slow_path<const char *&>:__v <- [DW_OP_LLVM_fragment 96 32] 0
	@DEBUG_VALUE: __emplace_back_slow_path<const char *&>:__v <- [DW_OP_plus_uconst 8, DW_OP_stack_value, DW_OP_LLVM_fragment 128 32] $r11
	@DEBUG_VALUE: __emplace_back_slow_path<const char *&>:__args <- $r6
	@DEBUG_VALUE: __emplace_back_slow_path<const char *&>:__a <- [DW_OP_plus_uconst 8, DW_OP_stack_value] $r11
	@DEBUG_VALUE: __emplace_back_slow_path<const char *&>:this <- $r11
	.loc	11 99 7                         @ AppData\Local\Keil_v5\ARM\ARMCLANG\bin\..\include\libcxx\__memory\allocator.h:99:7
	bl	_ZSt28__throw_bad_array_new_lengthB8nn200000v
.Ltmp124:
.Lfunc_end4:
	.size	_ZNSt3__26vectorINS_12basic_stringIcNS_11char_traitsIcEENS_9allocatorIcEEEENS4_IS6_EEE24__emplace_back_slow_pathIJRPKcEEEPS6_DpOT_, .Lfunc_end4-_ZNSt3__26vectorINS_12basic_stringIcNS_11char_traitsIcEENS_9allocatorIcEEEENS4_IS6_EEE24__emplace_back_slow_pathIJRPKcEEEPS6_DpOT_
	.cfi_endproc
	.cantunwind
	.fnend
                                        @ -- End function
	.section	.text._ZNKSt3__212basic_stringIcNS_11char_traitsIcEENS_9allocatorIcEEE20__throw_length_errorB8nn200000Ev,"axG",%progbits,_ZNKSt3__212basic_stringIcNS_11char_traitsIcEENS_9allocatorIcEEE20__throw_length_errorB8nn200000Ev,comdat
	.hidden	_ZNKSt3__212basic_stringIcNS_11char_traitsIcEENS_9allocatorIcEEE20__throw_length_errorB8nn200000Ev @ -- Begin function _ZNKSt3__212basic_stringIcNS_11char_traitsIcEENS_9allocatorIcEEE20__throw_length_errorB8nn200000Ev
	.weak	_ZNKSt3__212basic_stringIcNS_11char_traitsIcEENS_9allocatorIcEEE20__throw_length_errorB8nn200000Ev
	.p2align	2
	.type	_ZNKSt3__212basic_stringIcNS_11char_traitsIcEENS_9allocatorIcEEE20__throw_length_errorB8nn200000Ev,%function
	.code	16                              @ @_ZNKSt3__212basic_stringIcNS_11char_traitsIcEENS_9allocatorIcEEE20__throw_length_errorB8nn200000Ev
	.thumb_func
_ZNKSt3__212basic_stringIcNS_11char_traitsIcEENS_9allocatorIcEEE20__throw_length_errorB8nn200000Ev:
.Lfunc_begin5:
	.fnstart
	.cfi_startproc
@ %bb.0:
	@DEBUG_VALUE: __throw_length_error:this <- $r0
	.loc	5 2234 5 prologue_end           @ AppData\Local\Keil_v5\ARM\ARMCLANG\bin\..\include\libcxx\string:2234:5
	adr	r0, .LCPI5_0
.Ltmp125:
	@DEBUG_VALUE: __throw_length_error:this <- [DW_OP_LLVM_entry_value 1] $r0
	bl	_ZNSt3__220__throw_length_errorB8nn200000EPKc
.Ltmp126:
	.loc	5 0 5 is_stmt 0                 @ :0:5
.Ltmp127:
	.p2align	2
@ %bb.1:
.LCPI5_0:
.L.str.4:
	.asciz	"basic_string\000\000\000"
.Lfunc_end5:
	.size	_ZNKSt3__212basic_stringIcNS_11char_traitsIcEENS_9allocatorIcEEE20__throw_length_errorB8nn200000Ev, .Lfunc_end5-_ZNKSt3__212basic_stringIcNS_11char_traitsIcEENS_9allocatorIcEEE20__throw_length_errorB8nn200000Ev
	.cfi_endproc
	.cantunwind
	.fnend
                                        @ -- End function
	.type	_ZL9labelsVec,%object           @ @_ZL9labelsVec
	.section	labels,"aw",%progbits
	.p2align	4, 0x0
_ZL9labelsVec:
	.long	.L.str
	.size	_ZL9labelsVec, 4

	.type	.L.str,%object                  @ @.str
	.section	.rodata.str1.1,"aMS",%progbits,1
.L.str:
	.asciz	"person"
	.size	.L.str, 7

	.type	.L.str.2,%object                @ @.str.2
.L.str.2:
	.asciz	"length_error was thrown in -fno-exceptions mode with message \"%s\""
	.size	.L.str.2, 66

	.file	24 "C:\\Users\\jimmy" "AppData\\Local\\Keil_v5\\ARM\\ARMCLANG\\bin\\..\\include\\stddef.h"
	.file	25 "C:\\Users\\jimmy" "AppData\\Local\\Keil_v5\\ARM\\ARMCLANG\\bin\\..\\include\\libcxx\\stddef.h"
	.file	26 "C:\\Users\\jimmy" "AppData\\Local\\Keil_v5\\ARM\\ARMCLANG\\bin\\..\\include\\libcxx\\cstddef"
	.file	27 "C:\\Users\\jimmy" "AppData\\Local\\Keil_v5\\ARM\\ARMCLANG\\bin\\..\\include\\stdint.h"
	.file	28 "C:\\Users\\jimmy" "AppData\\Local\\Keil_v5\\ARM\\ARMCLANG\\bin\\..\\include\\libcxx\\cstdint"
	.file	29 "C:\\Users\\jimmy" "AppData\\Local\\Keil_v5\\ARM\\ARMCLANG\\bin\\..\\include\\libcxx\\cstdlib"
	.file	30 "C:\\Users\\jimmy" "AppData\\Local\\Keil_v5\\ARM\\ARMCLANG\\bin\\..\\include\\libcxx\\stdlib.h"
	.file	31 "C:\\Users\\jimmy" "AppData\\Local\\Keil_v5\\ARM\\ARMCLANG\\bin\\..\\include\\ctype.h"
	.file	32 "C:\\Users\\jimmy" "AppData\\Local\\Keil_v5\\ARM\\ARMCLANG\\bin\\..\\include\\libcxx\\cctype"
	.file	33 "C:\\Users\\jimmy" "AppData\\Local\\Keil_v5\\ARM\\ARMCLANG\\bin\\..\\include\\wctype.h"
	.file	34 "C:\\Users\\jimmy" "AppData\\Local\\Keil_v5\\ARM\\ARMCLANG\\bin\\..\\include\\libcxx\\cwctype"
	.file	35 "C:\\Users\\jimmy" "AppData\\Local\\Keil_v5\\ARM\\ARMCLANG\\bin\\..\\include\\wchar.h"
	.file	36 "C:\\Users\\jimmy\\Desktop\\Nuvoton\\Nuvoton-Team\\repos\\m55m1-ElevatorCounting-YOLOv8n\\KEIL" "../Model\\Labels.cpp"
	.file	37 "C:\\Users\\jimmy" "AppData\\Local\\Keil_v5\\ARM\\ARMCLANG\\bin\\..\\include\\libcxx\\cwchar"
	.file	38 "C:\\Users\\jimmy" "AppData\\Local\\Keil_v5\\ARM\\ARMCLANG\\bin\\..\\include\\libcxx\\wchar.h"
	.file	39 "C:\\Users\\jimmy" "AppData\\Local\\Keil_v5\\ARM\\ARMCLANG\\bin\\..\\include\\string.h"
	.file	40 "C:\\Users\\jimmy" "AppData\\Local\\Keil_v5\\ARM\\ARMCLANG\\bin\\..\\include\\libcxx\\cstring"
	.file	41 "C:\\Users\\jimmy" "AppData\\Local\\Keil_v5\\ARM\\ARMCLANG\\bin\\..\\include\\libcxx\\string.h"
	.file	42 "C:\\Users\\jimmy" "AppData\\Local\\Keil_v5\\ARM\\ARMCLANG\\bin\\..\\include\\libcxx\\__std_mbstate_t.h"
	.file	43 "C:\\Users\\jimmy" "AppData\\Local\\Keil_v5\\ARM\\ARMCLANG\\bin\\..\\include\\libcxx\\cstdio"
	.file	44 "C:\\Users\\jimmy" "AppData\\Local\\Keil_v5\\ARM\\ARMCLANG\\bin\\..\\include\\math.h"
	.file	45 "C:\\Users\\jimmy" "AppData\\Local\\Keil_v5\\ARM\\ARMCLANG\\bin\\..\\include\\libcxx\\__math\\traits.h"
	.file	46 "C:\\Users\\jimmy" "AppData\\Local\\Keil_v5\\ARM\\ARMCLANG\\bin\\..\\include\\libcxx\\math.h"
	.file	47 "C:\\Users\\jimmy" "AppData\\Local\\Keil_v5\\ARM\\ARMCLANG\\bin\\..\\include\\libcxx\\__math\\modulo.h"
	.file	48 "C:\\Users\\jimmy" "AppData\\Local\\Keil_v5\\ARM\\ARMCLANG\\bin\\..\\include\\libcxx\\cmath"
	.file	49 "C:\\Users\\jimmy" "AppData\\Local\\Keil_v5\\ARM\\ARMCLANG\\bin\\..\\include\\libcxx\\__chrono\\duration.h"
	.file	50 "C:\\Users\\jimmy" "AppData\\Local\\Keil_v5\\ARM\\ARMCLANG\\bin\\..\\include\\libcxx\\ctime"
	.file	51 "C:\\Users\\jimmy" "AppData\\Local\\Keil_v5\\ARM\\ARMCLANG\\bin\\..\\include\\errno.h"
	.file	52 "C:\\Users\\jimmy" "AppData\\Local\\Keil_v5\\ARM\\ARMCLANG\\bin\\..\\include\\locale.h"
	.file	53 "C:\\Users\\jimmy" "AppData\\Local\\Keil_v5\\ARM\\ARMCLANG\\bin\\..\\include\\libcxx\\clocale"
	.file	54 "C:\\Users\\jimmy" "AppData\\Local\\Keil_v5\\ARM\\ARMCLANG\\bin\\..\\include\\stdarg.h"
	.file	55 "C:\\Users\\jimmy" "AppData\\Local\\Keil_v5\\ARM\\ARMCLANG\\bin\\..\\include\\libcxx\\cstdarg"