	.text
	.syntax unified
	.eabi_attribute	67, "2.09"	@ Tag_conformance
	.cpu	cortex-m55
	.eabi_attribute	6, 21	@ Tag_CPU_arch
	.eabi_attribute	7, 77	@ Tag_CPU_arch_profile
	.eabi_attribute	8, 0	@ Tag_ARM_ISA_use
	.eabi_attribute	9, 3	@ Tag_THUMB_ISA_use
	.fpu	fpv5-d16
	.arch_extension	mve.fp
	.eabi_attribute	36, 1	@ Tag_FP_HP_extension
	.eabi_attribute	48, 2	@ Tag_MVE_arch
	.eabi_attribute	46, 1	@ Tag_DSP_extension
	.eabi_attribute	34, 1	@ Tag_CPU_unaligned_access
	.eabi_attribute	17, 1	@ Tag_ABI_PCS_GOT_use
	.eabi_attribute	20, 2	@ Tag_ABI_FP_denormal
	.eabi_attribute	21, 0	@ Tag_ABI_FP_exceptions
	.eabi_attribute	23, 1	@ Tag_ABI_FP_number_model
	.eabi_attribute	24, 1	@ Tag_ABI_align_needed
	.eabi_attribute	25, 1	@ Tag_ABI_align_preserved
	.eabi_attribute	28, 1	@ Tag_ABI_VFP_args
	.eabi_attribute	38, 1	@ Tag_ABI_FP_16bit_format
	.eabi_attribute	18, 2	@ Tag_ABI_PCS_wchar_t
	.eabi_attribute	26, 1	@ Tag_ABI_enum_size
	.eabi_attribute	14, 0	@ Tag_ABI_PCS_R9_use
	.file	"LCD_LT7381.c"
	.file	1 "C:\\Users\\jimmy\\Desktop\\Nuvoton\\Nuvoton-Team\\repos\\m55m1-ElevatorCounting-YOLOv8n\\KEIL" "../Device/Display/LCD\\../LCD.h"
	.file	2 "C:\\Users\\jimmy" "AppData\\Local\\Keil_v5\\ARM\\ARMCLANG\\bin\\..\\include\\stdint.h"
	.file	3 "C:\\Users\\jimmy\\Desktop\\Nuvoton\\Nuvoton-Team\\repos\\m55m1-ElevatorCounting-YOLOv8n\\KEIL" "../Device/Display/LCD/LCD_LT7381.c"
	.file	4 "C:\\Users\\jimmy\\Desktop\\Nuvoton\\Nuvoton-Team\\repos\\m55m1-ElevatorCounting-YOLOv8n\\KEIL" "../../../../Library/Device/Nuvoton/M55M1/Include\\ccap_reg.h"
	.section	.text.lt7381_write_reg,"ax",%progbits
	.hidden	lt7381_write_reg                @ -- Begin function lt7381_write_reg
	.globl	lt7381_write_reg
	.p2align	2
	.type	lt7381_write_reg,%function
	.code	16                              @ @lt7381_write_reg
	.thumb_func
lt7381_write_reg:
.Lfunc_begin0:
	.fnstart
	.cfi_sections .debug_frame
	.cfi_startproc
@ %bb.0:
	@DEBUG_VALUE: lt7381_write_reg:reg <- $r0
	@DEBUG_VALUE: lt7381_write_reg:data <- $r1
	.loc	3 199 5 prologue_end            @ ../Device/Display/LCD/LCD_LT7381.c:199:5
	uxtb	r0, r0
.Ltmp0:
	@DEBUG_VALUE: lt7381_write_reg:reg <- [DW_OP_LLVM_entry_value 1] $r0
	.loc	3 0 5 is_stmt 0                 @ ../Device/Display/LCD/LCD_LT7381.c:0:5
	mov.w	r2, #1610612736
	.loc	3 199 5                         @ ../Device/Display/LCD/LCD_LT7381.c:199:5
	strh	r0, [r2]
	.loc	3 202 5 is_stmt 1               @ ../Device/Display/LCD/LCD_LT7381.c:202:5
	uxtb	r0, r1
	movs	r1, #2
.Ltmp1:
	@DEBUG_VALUE: lt7381_write_reg:data <- [DW_OP_LLVM_entry_value 1] $r1
	.loc	3 0 5 is_stmt 0                 @ ../Device/Display/LCD/LCD_LT7381.c:0:5
	movt	r1, #24576
	.loc	3 202 5                         @ ../Device/Display/LCD/LCD_LT7381.c:202:5
	strh	r0, [r1]
	.loc	3 203 1 is_stmt 1               @ ../Device/Display/LCD/LCD_LT7381.c:203:1
	bx	lr
.Ltmp2:
.Lfunc_end0:
	.size	lt7381_write_reg, .Lfunc_end0-lt7381_write_reg
	.cfi_endproc
	.cantunwind
	.fnend
                                        @ -- End function
	.section	.text.lt7381_set_page,"ax",%progbits
	.hidden	lt7381_set_page                 @ -- Begin function lt7381_set_page
	.globl	lt7381_set_page
	.p2align	2
	.type	lt7381_set_page,%function
	.code	16                              @ @lt7381_set_page
	.thumb_func
lt7381_set_page:
.Lfunc_begin1:
	.loc	3 550 0                         @ ../Device/Display/LCD/LCD_LT7381.c:550:0
	.fnstart
	.cfi_startproc
@ %bb.0:
	@DEBUG_VALUE: lt7381_set_page:StartPage <- $r0
	@DEBUG_VALUE: lt7381_set_page:EndPage <- $r1
	.save	{r7, lr}
	push	{r7, lr}
	.cfi_def_cfa_offset 8
	.cfi_offset lr, -4
	.cfi_offset r7, -8
.Ltmp3:
	.loc	3 551 32 prologue_end           @ ../Device/Display/LCD/LCD_LT7381.c:551:32
	sub.w	r12, r1, r0
	mov.w	r2, #1610612736
	movs	r3, #88
.Ltmp4:
	@DEBUG_VALUE: lt7381_write_reg:data <- $r0
	@DEBUG_VALUE: lt7381_write_reg:reg <- 88
	.loc	3 0 32 is_stmt 0                @ ../Device/Display/LCD/LCD_LT7381.c:0:32
	movs	r1, #2
.Ltmp5:
	@DEBUG_VALUE: lt7381_set_page:EndPage <- [DW_OP_LLVM_entry_value 1] $r1
	.loc	3 199 5 is_stmt 1               @ ../Device/Display/LCD/LCD_LT7381.c:199:5
	strh	r3, [r2]
	.loc	3 202 5                         @ ../Device/Display/LCD/LCD_LT7381.c:202:5
	uxtb	r3, r0
	movt	r1, #24576
	mov.w	lr, #89
.Ltmp6:
	.loc	3 554 38                        @ ../Device/Display/LCD/LCD_LT7381.c:554:38
	lsrs	r0, r0, #8
.Ltmp7:
	@DEBUG_VALUE: lt7381_set_page:StartPage <- [DW_OP_LLVM_entry_value 1] $r0
	.loc	3 202 5                         @ ../Device/Display/LCD/LCD_LT7381.c:202:5
	strh	r3, [r1]
.Ltmp8:
	.loc	3 551 44                        @ ../Device/Display/LCD/LCD_LT7381.c:551:44
	add.w	r3, r12, #1
.Ltmp9:
	@DEBUG_VALUE: lt7381_set_page:ActiveY <- $r3
	@DEBUG_VALUE: lt7381_write_reg:reg <- 89
	@DEBUG_VALUE: lt7381_write_reg:data <- $r0
	.loc	3 199 5                         @ ../Device/Display/LCD/LCD_LT7381.c:199:5
	strh.w	lr, [r2]
	.loc	3 202 5                         @ ../Device/Display/LCD/LCD_LT7381.c:202:5
	strh	r0, [r1]
	movs	r0, #92
.Ltmp10:
	@DEBUG_VALUE: lt7381_write_reg:data <- $r3
	@DEBUG_VALUE: lt7381_write_reg:reg <- 92
	.loc	3 199 5                         @ ../Device/Display/LCD/LCD_LT7381.c:199:5
	strh	r0, [r2]
	.loc	3 202 5                         @ ../Device/Display/LCD/LCD_LT7381.c:202:5
	uxtb	r0, r3
.Ltmp11:
	.loc	3 551 44                        @ ../Device/Display/LCD/LCD_LT7381.c:551:44
	uxth	r3, r3
.Ltmp12:
	.loc	3 202 5                         @ ../Device/Display/LCD/LCD_LT7381.c:202:5
	strh	r0, [r1]
.Ltmp13:
	@DEBUG_VALUE: lt7381_write_reg:reg <- 92
	.loc	3 556 36                        @ ../Device/Display/LCD/LCD_LT7381.c:556:36
	lsrs	r0, r3, #8
	movs	r3, #93
.Ltmp14:
	@DEBUG_VALUE: lt7381_write_reg:reg <- 93
	@DEBUG_VALUE: lt7381_write_reg:data <- $r0
	.loc	3 199 5                         @ ../Device/Display/LCD/LCD_LT7381.c:199:5
	strh	r3, [r2]
	.loc	3 202 5                         @ ../Device/Display/LCD/LCD_LT7381.c:202:5
	strh	r0, [r1]
.Ltmp15:
	.loc	3 557 1 epilogue_begin          @ ../Device/Display/LCD/LCD_LT7381.c:557:1
	pop	{r7, pc}
.Ltmp16:
.Lfunc_end1:
	.size	lt7381_set_page, .Lfunc_end1-lt7381_set_page
	.cfi_endproc
	.cantunwind
	.fnend
                                        @ -- End function
	.section	.text.lt7381_put_char8x16,"ax",%progbits
	.hidden	lt7381_put_char8x16             @ -- Begin function lt7381_put_char8x16
	.globl	lt7381_put_char8x16
	.p2align	2
	.type	lt7381_put_char8x16,%function
	.code	16                              @ @lt7381_put_char8x16
	.thumb_func
lt7381_put_char8x16:
.Lfunc_begin2:
	.loc	3 679 0                         @ ../Device/Display/LCD/LCD_LT7381.c:679:0
	.fnstart
	.cfi_startproc
@ %bb.0:
	@DEBUG_VALUE: lt7381_put_char8x16:x <- $r0
	@DEBUG_VALUE: lt7381_put_char8x16:y <- $r1
	@DEBUG_VALUE: lt7381_put_char8x16:c <- $r2
	@DEBUG_VALUE: lt7381_put_char8x16:fColor <- $r3
	.save	{r4, r5, r6, r7, r8, r9, r10, r11, lr}
	push.w	{r4, r5, r6, r7, r8, r9, r10, r11, lr}
	.cfi_def_cfa_offset 36
	.cfi_offset lr, -4
	.cfi_offset r11, -8
	.cfi_offset r10, -12
	.cfi_offset r9, -16
	.cfi_offset r8, -20
	.cfi_offset r7, -24
	.cfi_offset r6, -28
	.cfi_offset r5, -32
	.cfi_offset r4, -36
	.pad	#8
	sub	sp, #8
	.cfi_def_cfa_offset 44
.Ltmp17:
	@DEBUG_VALUE: lt7381_put_char8x16:bColor <- [DW_OP_plus_uconst 44] [$sp+0]
	@DEBUG_VALUE: lt7381_put_char8x16:scaleUpFactory <- [DW_OP_plus_uconst 48] [$sp+0]
	ldrd	r8, r12, [sp, #44]
	movs	r4, #2
	mov.w	r5, #1610612736
	movs	r6, #86
.Ltmp18:
	@DEBUG_VALUE: lt7381_write_reg:reg <- 86
	@DEBUG_VALUE: lt7381_set_column:EndCol <- [DW_OP_LLVM_arg 0, DW_OP_LLVM_arg 1, DW_OP_plus, DW_OP_constu 1, DW_OP_minus, DW_OP_stack_value] $r7, $r0
	@DEBUG_VALUE: lt7381_set_column:ActiveX <- $r7
	@DEBUG_VALUE: lt7381_write_reg:data <- $r0
	@DEBUG_VALUE: lt7381_set_column:StartCol <- $r0
	movt	r4, #24576
	movw	r10, :lower16:Font8x16
.Ltmp19:
	.loc	3 199 5 prologue_end            @ ../Device/Display/LCD/LCD_LT7381.c:199:5
	strh	r6, [r5]
	.loc	3 202 5                         @ ../Device/Display/LCD/LCD_LT7381.c:202:5
	uxtb	r6, r0
	strh	r6, [r4]
	movs	r6, #87
.Ltmp20:
	@DEBUG_VALUE: lt7381_write_reg:reg <- 87
	@DEBUG_VALUE: lt7381_write_reg:data <- $r0
	.loc	3 544 37                        @ ../Device/Display/LCD/LCD_LT7381.c:544:37
	lsrs	r0, r0, #8
.Ltmp21:
	@DEBUG_VALUE: lt7381_put_char8x16:x <- [DW_OP_LLVM_entry_value 1] $r0
	.loc	3 683 26                        @ ../Device/Display/LCD/LCD_LT7381.c:683:26
	lsl.w	r7, r12, #3
.Ltmp22:
	.loc	3 199 5                         @ ../Device/Display/LCD/LCD_LT7381.c:199:5
	strh	r6, [r5]
	.loc	3 202 5                         @ ../Device/Display/LCD/LCD_LT7381.c:202:5
	strh	r0, [r4]
	movs	r0, #90
.Ltmp23:
	@DEBUG_VALUE: lt7381_write_reg:data <- $r7
	@DEBUG_VALUE: lt7381_write_reg:reg <- 90
	.loc	3 199 5                         @ ../Device/Display/LCD/LCD_LT7381.c:199:5
	strh	r0, [r5]
	.loc	3 202 5                         @ ../Device/Display/LCD/LCD_LT7381.c:202:5
	uxtb	r0, r7
.Ltmp24:
	.loc	3 546 36                        @ ../Device/Display/LCD/LCD_LT7381.c:546:36
	ubfx	r7, r12, #5, #8
.Ltmp25:
	.loc	3 202 5                         @ ../Device/Display/LCD/LCD_LT7381.c:202:5
	strh	r0, [r4]
	@DEBUG_VALUE: lt7381_write_reg:reg <- 90
	movs	r0, #91
.Ltmp26:
	@DEBUG_VALUE: lt7381_write_reg:reg <- 91
	@DEBUG_VALUE: lt7381_write_reg:data <- $r7
	.loc	3 199 5                         @ ../Device/Display/LCD/LCD_LT7381.c:199:5
	strh	r0, [r5]
	.loc	3 202 5                         @ ../Device/Display/LCD/LCD_LT7381.c:202:5
	strh	r7, [r4]
	movs	r7, #88
.Ltmp27:
	@DEBUG_VALUE: lt7381_write_reg:reg <- 88
	@DEBUG_VALUE: lt7381_set_page:EndPage <- [DW_OP_LLVM_arg 0, DW_OP_LLVM_arg 1, DW_OP_plus, DW_OP_constu 1, DW_OP_minus, DW_OP_stack_value] $r0, $r1
	@DEBUG_VALUE: lt7381_set_page:ActiveY <- $r0
	@DEBUG_VALUE: lt7381_write_reg:data <- $r1
	@DEBUG_VALUE: lt7381_set_page:StartPage <- $r1
	.loc	3 199 5                         @ ../Device/Display/LCD/LCD_LT7381.c:199:5
	strh	r7, [r5]
	.loc	3 202 5                         @ ../Device/Display/LCD/LCD_LT7381.c:202:5
	uxtb	r7, r1
.Ltmp28:
	.loc	3 684 24                        @ ../Device/Display/LCD/LCD_LT7381.c:684:24
	lsl.w	r0, r12, #4
.Ltmp29:
	.loc	3 202 5                         @ ../Device/Display/LCD/LCD_LT7381.c:202:5
	strh	r7, [r4]
	movs	r7, #89
.Ltmp30:
	@DEBUG_VALUE: lt7381_write_reg:reg <- 89
	@DEBUG_VALUE: lt7381_write_reg:data <- $r1
	.loc	3 554 38                        @ ../Device/Display/LCD/LCD_LT7381.c:554:38
	lsrs	r1, r1, #8
.Ltmp31:
	@DEBUG_VALUE: lt7381_put_char8x16:y <- [DW_OP_LLVM_entry_value 1] $r1
	.loc	3 202 5                         @ ../Device/Display/LCD/LCD_LT7381.c:202:5
	uxtb	r0, r0
.Ltmp32:
	.loc	3 199 5                         @ ../Device/Display/LCD/LCD_LT7381.c:199:5
	strh	r7, [r5]
	.loc	3 202 5                         @ ../Device/Display/LCD/LCD_LT7381.c:202:5
	strh	r1, [r4]
	movs	r1, #92
.Ltmp33:
	@DEBUG_VALUE: lt7381_write_reg:data <- $r0
	@DEBUG_VALUE: lt7381_write_reg:reg <- 92
	.loc	3 199 5                         @ ../Device/Display/LCD/LCD_LT7381.c:199:5
	strh	r1, [r5]
.Ltmp34:
	.loc	3 556 36                        @ ../Device/Display/LCD/LCD_LT7381.c:556:36
	ubfx	r1, r12, #4, #8
.Ltmp35:
	.loc	3 202 5                         @ ../Device/Display/LCD/LCD_LT7381.c:202:5
	strh	r0, [r4]
	@DEBUG_VALUE: lt7381_write_reg:reg <- 92
	movs	r0, #93
.Ltmp36:
	@DEBUG_VALUE: lt7381_write_reg:reg <- 93
	@DEBUG_VALUE: lt7381_write_reg:data <- $r1
	.loc	3 199 5                         @ ../Device/Display/LCD/LCD_LT7381.c:199:5
	strh	r0, [r5]
	movs	r0, #95
.Ltmp37:
	@DEBUG_VALUE: lt7381_write_reg:data <- 0
	@DEBUG_VALUE: lt7381_write_reg:reg <- 95
	.loc	3 202 5                         @ ../Device/Display/LCD/LCD_LT7381.c:202:5
	strh	r1, [r4]
	movs	r1, #0
.Ltmp38:
	.loc	3 199 5                         @ ../Device/Display/LCD/LCD_LT7381.c:199:5
	strh	r0, [r5]
	movs	r0, #96
.Ltmp39:
	@DEBUG_VALUE: lt7381_write_reg:data <- 0
	@DEBUG_VALUE: lt7381_write_reg:reg <- 96
	.loc	3 202 5                         @ ../Device/Display/LCD/LCD_LT7381.c:202:5
	strh	r1, [r4]
.Ltmp40:
	.loc	3 199 5                         @ ../Device/Display/LCD/LCD_LT7381.c:199:5
	strh	r0, [r5]
	movs	r0, #97
.Ltmp41:
	@DEBUG_VALUE: lt7381_write_reg:data <- 0
	@DEBUG_VALUE: lt7381_write_reg:reg <- 97
	.loc	3 202 5                         @ ../Device/Display/LCD/LCD_LT7381.c:202:5
	strh	r1, [r4]
.Ltmp42:
	.loc	3 199 5                         @ ../Device/Display/LCD/LCD_LT7381.c:199:5
	strh	r0, [r5]
	movs	r0, #98
.Ltmp43:
	@DEBUG_VALUE: lt7381_write_reg:data <- 0
	@DEBUG_VALUE: lt7381_write_reg:reg <- 98
	.loc	3 202 5                         @ ../Device/Display/LCD/LCD_LT7381.c:202:5
	strh	r1, [r4]
.Ltmp44:
	.loc	3 199 5                         @ ../Device/Display/LCD/LCD_LT7381.c:199:5
	strh	r0, [r5]
	movs	r0, #0
	.loc	3 202 5                         @ ../Device/Display/LCD/LCD_LT7381.c:202:5
	str	r0, [sp, #4]                    @ 4-byte Spill
	movs	r0, #4
	strh	r1, [r4]
	movs	r1, #1
.Ltmp45:
	.loc	3 693 5                         @ ../Device/Display/LCD/LCD_LT7381.c:693:5
	strh	r0, [r5]
.Ltmp46:
	@DEBUG_VALUE: lt7381_put_char8x16:i <- 0
	.loc	3 0 5 is_stmt 0                 @ ../Device/Display/LCD/LCD_LT7381.c:0:5
	lsls	r0, r2, #4
.Ltmp47:
	.loc	3 697 5 is_stmt 1               @ ../Device/Display/LCD/LCD_LT7381.c:697:5
	sub.w	r2, r12, #1
.Ltmp48:
	@DEBUG_VALUE: lt7381_put_char8x16:c <- [DW_OP_LLVM_entry_value 1] $r2
	.loc	3 0 5 is_stmt 0                 @ ../Device/Display/LCD/LCD_LT7381.c:0:5
	str	r0, [sp]                        @ 4-byte Spill
	movw	r0, #65532
	movt	r0, #32767
	and.w	r0, r0, r12
	.loc	3 697 5                         @ ../Device/Display/LCD/LCD_LT7381.c:697:5
	subs	r0, #4
	and	r6, r12, #3
	add.w	r9, r1, r0, lsr #2
	movt	r10, :upper16:Font8x16
	b	.LBB2_2
.Ltmp49:
	.loc	3 0 5                           @ :0:5
.Ltmp50:
	.p2align	2
.LBB2_1:                                @   in Loop: Header=BB2_2 Depth=1
	@DEBUG_VALUE: lt7381_put_char8x16:i <- [DW_OP_plus_uconst 4] [$sp+0]
	@DEBUG_VALUE: lt7381_put_char8x16:c <- [DW_OP_LLVM_entry_value 1] $r2
	@DEBUG_VALUE: lt7381_put_char8x16:y <- [DW_OP_LLVM_entry_value 1] $r1
	@DEBUG_VALUE: lt7381_put_char8x16:x <- [DW_OP_LLVM_entry_value 1] $r0
	@DEBUG_VALUE: lt7381_put_char8x16:fColor <- $r3
	ldr	r0, [sp, #4]                    @ 4-byte Reload
.Ltmp51:
	.loc	3 697 26                        @ ../Device/Display/LCD/LCD_LT7381.c:697:26
	adds	r0, #1
.Ltmp52:
	@DEBUG_VALUE: lt7381_put_char8x16:i <- $r0
	.loc	3 697 5                         @ ../Device/Display/LCD/LCD_LT7381.c:697:5
	cmp	r0, #16
	str	r0, [sp, #4]                    @ 4-byte Spill
.Ltmp53:
	@DEBUG_VALUE: lt7381_put_char8x16:i <- [DW_OP_plus_uconst 4] [$sp+0]
	@DEBUG_VALUE: lt7381_put_char8x16:i <- [DW_OP_plus_uconst 4] [$sp+0]
	@DEBUG_VALUE: lt7381_put_char8x16:i <- [DW_OP_plus_uconst 4] [$sp+0]
	.loc	3 721 1 is_stmt 1               @ ../Device/Display/LCD/LCD_LT7381.c:721:1
	itt	eq
	.loc	3 721 1 epilogue_begin is_stmt 0 @ ../Device/Display/LCD/LCD_LT7381.c:721:1
	addeq	sp, #8
	popeq.w	{r4, r5, r6, r7, r8, r9, r10, r11, pc}
.Ltmp54:
.LBB2_2:                                @ =>This Loop Header: Depth=1
                                        @     Child Loop BB2_5 Depth 2
                                        @       Child Loop BB2_7 Depth 3
                                        @       Child Loop BB2_14 Depth 3
                                        @       Child Loop BB2_21 Depth 3
                                        @       Child Loop BB2_28 Depth 3
                                        @       Child Loop BB2_35 Depth 3
                                        @       Child Loop BB2_42 Depth 3
                                        @       Child Loop BB2_49 Depth 3
                                        @       Child Loop BB2_56 Depth 3
	@DEBUG_VALUE: lt7381_put_char8x16:c <- [DW_OP_LLVM_entry_value 1] $r2
	@DEBUG_VALUE: lt7381_put_char8x16:y <- [DW_OP_LLVM_entry_value 1] $r1
	@DEBUG_VALUE: lt7381_put_char8x16:x <- [DW_OP_LLVM_entry_value 1] $r0
	@DEBUG_VALUE: lt7381_put_char8x16:fColor <- $r3
	@DEBUG_VALUE: lt7381_put_char8x16:i <- [DW_OP_plus_uconst 4] [$sp+0]
	@DEBUG_VALUE: lt7381_put_char8x16:r_y <- 0
	.loc	3 699 9 is_stmt 1               @ ../Device/Display/LCD/LCD_LT7381.c:699:9
	cmp.w	r12, #1
	blt	.LBB2_1
.Ltmp55:
@ %bb.3:                                @   in Loop: Header=BB2_2 Depth=1
	@DEBUG_VALUE: lt7381_put_char8x16:r_y <- 0
	@DEBUG_VALUE: lt7381_put_char8x16:i <- [DW_OP_plus_uconst 4] [$sp+0]
	@DEBUG_VALUE: lt7381_put_char8x16:c <- [DW_OP_LLVM_entry_value 1] $r2
	@DEBUG_VALUE: lt7381_put_char8x16:y <- [DW_OP_LLVM_entry_value 1] $r1
	@DEBUG_VALUE: lt7381_put_char8x16:x <- [DW_OP_LLVM_entry_value 1] $r0
	@DEBUG_VALUE: lt7381_put_char8x16:fColor <- $r3
	.loc	3 0 9 is_stmt 0                 @ ../Device/Display/LCD/LCD_LT7381.c:0:9
	ldrd	r1, r0, [sp]                    @ 8-byte Folded Reload
	add.w	r11, r0, r1
	movs	r0, #0
	b	.LBB2_5
.Ltmp56:
	.p2align	2
.LBB2_4:                                @   in Loop: Header=BB2_5 Depth=2
	@DEBUG_VALUE: lt7381_put_char8x16:j <- 7
	@DEBUG_VALUE: lt7381_put_char8x16:r_y <- $r0
	@DEBUG_VALUE: lt7381_put_char8x16:i <- [DW_OP_plus_uconst 4] [$sp+0]
	@DEBUG_VALUE: lt7381_put_char8x16:c <- [DW_OP_LLVM_entry_value 1] $r2
	@DEBUG_VALUE: lt7381_put_char8x16:y <- [DW_OP_LLVM_entry_value 1] $r1
	@DEBUG_VALUE: lt7381_put_char8x16:x <- [DW_OP_LLVM_entry_value 1] $r0
	@DEBUG_VALUE: lt7381_put_char8x16:fColor <- $r3
	@DEBUG_VALUE: lt7381_put_char8x16:j <- 8
	.loc	3 699 48                        @ ../Device/Display/LCD/LCD_LT7381.c:699:48
	adds	r0, #1
.Ltmp57:
	@DEBUG_VALUE: lt7381_put_char8x16:r_y <- $r0
	.loc	3 699 9                         @ ../Device/Display/LCD/LCD_LT7381.c:699:9
	cmp	r0, r12
.Ltmp58:
	@DEBUG_VALUE: lt7381_put_char8x16:m <- [DW_OP_constu 7, DW_OP_shl, DW_OP_constu 1, DW_OP_shl, DW_OP_stack_value] undef
	beq	.LBB2_1
.Ltmp59:
.LBB2_5:                                @   Parent Loop BB2_2 Depth=1
                                        @ =>  This Loop Header: Depth=2
                                        @       Child Loop BB2_7 Depth 3
                                        @       Child Loop BB2_14 Depth 3
                                        @       Child Loop BB2_21 Depth 3
                                        @       Child Loop BB2_28 Depth 3
                                        @       Child Loop BB2_35 Depth 3
                                        @       Child Loop BB2_42 Depth 3
                                        @       Child Loop BB2_49 Depth 3
                                        @       Child Loop BB2_56 Depth 3
	@DEBUG_VALUE: lt7381_put_char8x16:i <- [DW_OP_plus_uconst 4] [$sp+0]
	@DEBUG_VALUE: lt7381_put_char8x16:c <- [DW_OP_LLVM_entry_value 1] $r2
	@DEBUG_VALUE: lt7381_put_char8x16:y <- [DW_OP_LLVM_entry_value 1] $r1
	@DEBUG_VALUE: lt7381_put_char8x16:x <- [DW_OP_LLVM_entry_value 1] $r0
	@DEBUG_VALUE: lt7381_put_char8x16:fColor <- $r3
	@DEBUG_VALUE: lt7381_put_char8x16:r_y <- $r0
	.loc	3 701 17 is_stmt 1              @ ../Device/Display/LCD/LCD_LT7381.c:701:17
	ldrb.w	r7, [r10, r11]
.Ltmp60:
	@DEBUG_VALUE: lt7381_put_char8x16:r_x <- 0
	@DEBUG_VALUE: lt7381_put_char8x16:j <- 0
	@DEBUG_VALUE: lt7381_put_char8x16:m <- undef
	.loc	3 705 17                        @ ../Device/Display/LCD/LCD_LT7381.c:705:17
	cmp.w	r12, #4
	blo	.LBB2_8
.Ltmp61:
@ %bb.6:                                @   in Loop: Header=BB2_5 Depth=2
	@DEBUG_VALUE: lt7381_put_char8x16:j <- 0
	@DEBUG_VALUE: lt7381_put_char8x16:r_x <- 0
	@DEBUG_VALUE: lt7381_put_char8x16:r_y <- $r0
	@DEBUG_VALUE: lt7381_put_char8x16:i <- [DW_OP_plus_uconst 4] [$sp+0]
	@DEBUG_VALUE: lt7381_put_char8x16:c <- [DW_OP_LLVM_entry_value 1] $r2
	@DEBUG_VALUE: lt7381_put_char8x16:y <- [DW_OP_LLVM_entry_value 1] $r1
	@DEBUG_VALUE: lt7381_put_char8x16:x <- [DW_OP_LLVM_entry_value 1] $r0
	@DEBUG_VALUE: lt7381_put_char8x16:fColor <- $r3
	dls	lr, r9
.Ltmp62:
	.loc	3 701 17                        @ ../Device/Display/LCD/LCD_LT7381.c:701:17
	sxtb	r1, r7
	cmp	r1, #0
	csel	r1, r3, r8, mi
.Ltmp63:
	.loc	3 0 17 is_stmt 0                @ :0:17
.Ltmp64:
	.p2align	2
.LBB2_7:                                @   Parent Loop BB2_2 Depth=1
                                        @     Parent Loop BB2_5 Depth=2
                                        @ =>    This Inner Loop Header: Depth=3
	@DEBUG_VALUE: lt7381_put_char8x16:j <- 0
	@DEBUG_VALUE: lt7381_put_char8x16:r_y <- $r0
	@DEBUG_VALUE: lt7381_put_char8x16:i <- [DW_OP_plus_uconst 4] [$sp+0]
	@DEBUG_VALUE: lt7381_put_char8x16:c <- [DW_OP_LLVM_entry_value 1] $r2
	@DEBUG_VALUE: lt7381_put_char8x16:y <- [DW_OP_LLVM_entry_value 1] $r1
	@DEBUG_VALUE: lt7381_put_char8x16:x <- [DW_OP_LLVM_entry_value 1] $r0
	@DEBUG_VALUE: lt7381_put_char8x16:fColor <- $r3
	@DEBUG_VALUE: lt7381_put_char8x16:r_x <- undef
	strh	r1, [r4]
	strh	r1, [r4]
	strh	r1, [r4]
	strh	r1, [r4]
.Ltmp65:
	.loc	3 705 17 is_stmt 1              @ ../Device/Display/LCD/LCD_LT7381.c:705:17
	le	lr, .LBB2_7
.Ltmp66:
.LBB2_8:                                @   in Loop: Header=BB2_5 Depth=2
	@DEBUG_VALUE: lt7381_put_char8x16:j <- 0
	@DEBUG_VALUE: lt7381_put_char8x16:r_y <- $r0
	@DEBUG_VALUE: lt7381_put_char8x16:i <- [DW_OP_plus_uconst 4] [$sp+0]
	@DEBUG_VALUE: lt7381_put_char8x16:c <- [DW_OP_LLVM_entry_value 1] $r2
	@DEBUG_VALUE: lt7381_put_char8x16:y <- [DW_OP_LLVM_entry_value 1] $r1
	@DEBUG_VALUE: lt7381_put_char8x16:x <- [DW_OP_LLVM_entry_value 1] $r0
	@DEBUG_VALUE: lt7381_put_char8x16:fColor <- $r3
	cbz	r6, .LBB2_12
.Ltmp67:
@ %bb.9:                                @   in Loop: Header=BB2_5 Depth=2
	@DEBUG_VALUE: lt7381_put_char8x16:j <- 0
	@DEBUG_VALUE: lt7381_put_char8x16:r_y <- $r0
	@DEBUG_VALUE: lt7381_put_char8x16:i <- [DW_OP_plus_uconst 4] [$sp+0]
	@DEBUG_VALUE: lt7381_put_char8x16:c <- [DW_OP_LLVM_entry_value 1] $r2
	@DEBUG_VALUE: lt7381_put_char8x16:y <- [DW_OP_LLVM_entry_value 1] $r1
	@DEBUG_VALUE: lt7381_put_char8x16:x <- [DW_OP_LLVM_entry_value 1] $r0
	@DEBUG_VALUE: lt7381_put_char8x16:fColor <- $r3
	@DEBUG_VALUE: lt7381_put_char8x16:r_x <- undef
	.loc	3 701 17                        @ ../Device/Display/LCD/LCD_LT7381.c:701:17
	sxtb	r1, r7
	cmp	r1, #0
	csel	r5, r3, r8, mi
.Ltmp68:
	.loc	3 705 17                        @ ../Device/Display/LCD/LCD_LT7381.c:705:17
	cmp	r6, #1
.Ltmp69:
	.loc	3 0 0 is_stmt 0                 @ ../Device/Display/LCD/LCD_LT7381.c:0:0
	strh	r5, [r4]
.Ltmp70:
	.loc	3 705 17                        @ ../Device/Display/LCD/LCD_LT7381.c:705:17
	beq	.LBB2_12
.Ltmp71:
@ %bb.10:                               @   in Loop: Header=BB2_5 Depth=2
	@DEBUG_VALUE: lt7381_put_char8x16:j <- 0
	@DEBUG_VALUE: lt7381_put_char8x16:r_y <- $r0
	@DEBUG_VALUE: lt7381_put_char8x16:i <- [DW_OP_plus_uconst 4] [$sp+0]
	@DEBUG_VALUE: lt7381_put_char8x16:c <- [DW_OP_LLVM_entry_value 1] $r2
	@DEBUG_VALUE: lt7381_put_char8x16:y <- [DW_OP_LLVM_entry_value 1] $r1
	@DEBUG_VALUE: lt7381_put_char8x16:x <- [DW_OP_LLVM_entry_value 1] $r0
	@DEBUG_VALUE: lt7381_put_char8x16:fColor <- $r3
	@DEBUG_VALUE: lt7381_put_char8x16:r_x <- undef
	.loc	3 0 17                          @ ../Device/Display/LCD/LCD_LT7381.c:0:17
	cmp	r1, #0
	csel	r5, r3, r8, mi
	.loc	3 705 17                        @ ../Device/Display/LCD/LCD_LT7381.c:705:17
	cmp	r6, #2
.Ltmp72:
	.loc	3 0 0                           @ ../Device/Display/LCD/LCD_LT7381.c:0:0
	strh	r5, [r4]
.Ltmp73:
	.loc	3 705 17                        @ ../Device/Display/LCD/LCD_LT7381.c:705:17
	beq	.LBB2_12
.Ltmp74:
@ %bb.11:                               @   in Loop: Header=BB2_5 Depth=2
	@DEBUG_VALUE: lt7381_put_char8x16:j <- 0
	@DEBUG_VALUE: lt7381_put_char8x16:r_y <- $r0
	@DEBUG_VALUE: lt7381_put_char8x16:i <- [DW_OP_plus_uconst 4] [$sp+0]
	@DEBUG_VALUE: lt7381_put_char8x16:c <- [DW_OP_LLVM_entry_value 1] $r2
	@DEBUG_VALUE: lt7381_put_char8x16:y <- [DW_OP_LLVM_entry_value 1] $r1
	@DEBUG_VALUE: lt7381_put_char8x16:x <- [DW_OP_LLVM_entry_value 1] $r0
	@DEBUG_VALUE: lt7381_put_char8x16:fColor <- $r3
	@DEBUG_VALUE: lt7381_put_char8x16:r_x <- undef
	.loc	3 0 17                          @ ../Device/Display/LCD/LCD_LT7381.c:0:17
	cmp	r1, #0
	csel	r1, r3, r8, mi
.Ltmp75:
	strh	r1, [r4]
.Ltmp76:
	.p2align	2
.LBB2_12:                               @   in Loop: Header=BB2_5 Depth=2
	@DEBUG_VALUE: lt7381_put_char8x16:j <- 0
	@DEBUG_VALUE: lt7381_put_char8x16:r_y <- $r0
	@DEBUG_VALUE: lt7381_put_char8x16:i <- [DW_OP_plus_uconst 4] [$sp+0]
	@DEBUG_VALUE: lt7381_put_char8x16:c <- [DW_OP_LLVM_entry_value 1] $r2
	@DEBUG_VALUE: lt7381_put_char8x16:y <- [DW_OP_LLVM_entry_value 1] $r1
	@DEBUG_VALUE: lt7381_put_char8x16:x <- [DW_OP_LLVM_entry_value 1] $r0
	@DEBUG_VALUE: lt7381_put_char8x16:fColor <- $r3
	@DEBUG_VALUE: lt7381_put_char8x16:j <- 1
	@DEBUG_VALUE: lt7381_put_char8x16:r_x <- 0
	.loc	3 705 17                        @ ../Device/Display/LCD/LCD_LT7381.c:705:17
	cmp.w	r12, #4
.Ltmp77:
	@DEBUG_VALUE: lt7381_put_char8x16:m <- [DW_OP_constu 1, DW_OP_shl, DW_OP_stack_value] undef
	blo	.LBB2_15
.Ltmp78:
@ %bb.13:                               @   in Loop: Header=BB2_5 Depth=2
	@DEBUG_VALUE: lt7381_put_char8x16:j <- 1
	@DEBUG_VALUE: lt7381_put_char8x16:r_x <- 0
	@DEBUG_VALUE: lt7381_put_char8x16:r_y <- $r0
	@DEBUG_VALUE: lt7381_put_char8x16:i <- [DW_OP_plus_uconst 4] [$sp+0]
	@DEBUG_VALUE: lt7381_put_char8x16:c <- [DW_OP_LLVM_entry_value 1] $r2
	@DEBUG_VALUE: lt7381_put_char8x16:y <- [DW_OP_LLVM_entry_value 1] $r1
	@DEBUG_VALUE: lt7381_put_char8x16:x <- [DW_OP_LLVM_entry_value 1] $r0
	@DEBUG_VALUE: lt7381_put_char8x16:fColor <- $r3
	dls	lr, r9
	lsls	r1, r7, #25
	csel	r1, r8, r3, pl
.Ltmp79:
	.loc	3 0 17                          @ :0:17
.Ltmp80:
	.p2align	2
.LBB2_14:                               @   Parent Loop BB2_2 Depth=1
                                        @     Parent Loop BB2_5 Depth=2
                                        @ =>    This Inner Loop Header: Depth=3
	@DEBUG_VALUE: lt7381_put_char8x16:j <- 1
	@DEBUG_VALUE: lt7381_put_char8x16:r_y <- $r0
	@DEBUG_VALUE: lt7381_put_char8x16:i <- [DW_OP_plus_uconst 4] [$sp+0]
	@DEBUG_VALUE: lt7381_put_char8x16:c <- [DW_OP_LLVM_entry_value 1] $r2
	@DEBUG_VALUE: lt7381_put_char8x16:y <- [DW_OP_LLVM_entry_value 1] $r1
	@DEBUG_VALUE: lt7381_put_char8x16:x <- [DW_OP_LLVM_entry_value 1] $r0
	@DEBUG_VALUE: lt7381_put_char8x16:fColor <- $r3
	@DEBUG_VALUE: lt7381_put_char8x16:r_x <- undef
	strh	r1, [r4]
	strh	r1, [r4]
	strh	r1, [r4]
	strh	r1, [r4]
.Ltmp81:
	.loc	3 705 17                        @ ../Device/Display/LCD/LCD_LT7381.c:705:17
	le	lr, .LBB2_14
.Ltmp82:
.LBB2_15:                               @   in Loop: Header=BB2_5 Depth=2
	@DEBUG_VALUE: lt7381_put_char8x16:j <- 1
	@DEBUG_VALUE: lt7381_put_char8x16:r_y <- $r0
	@DEBUG_VALUE: lt7381_put_char8x16:i <- [DW_OP_plus_uconst 4] [$sp+0]
	@DEBUG_VALUE: lt7381_put_char8x16:c <- [DW_OP_LLVM_entry_value 1] $r2
	@DEBUG_VALUE: lt7381_put_char8x16:y <- [DW_OP_LLVM_entry_value 1] $r1
	@DEBUG_VALUE: lt7381_put_char8x16:x <- [DW_OP_LLVM_entry_value 1] $r0
	@DEBUG_VALUE: lt7381_put_char8x16:fColor <- $r3
	cbz	r6, .LBB2_19
.Ltmp83:
@ %bb.16:                               @   in Loop: Header=BB2_5 Depth=2
	@DEBUG_VALUE: lt7381_put_char8x16:j <- 1
	@DEBUG_VALUE: lt7381_put_char8x16:r_y <- $r0
	@DEBUG_VALUE: lt7381_put_char8x16:i <- [DW_OP_plus_uconst 4] [$sp+0]
	@DEBUG_VALUE: lt7381_put_char8x16:c <- [DW_OP_LLVM_entry_value 1] $r2
	@DEBUG_VALUE: lt7381_put_char8x16:y <- [DW_OP_LLVM_entry_value 1] $r1
	@DEBUG_VALUE: lt7381_put_char8x16:x <- [DW_OP_LLVM_entry_value 1] $r0
	@DEBUG_VALUE: lt7381_put_char8x16:fColor <- $r3
	@DEBUG_VALUE: lt7381_put_char8x16:r_x <- undef
	.loc	3 0 17                          @ ../Device/Display/LCD/LCD_LT7381.c:0:17
	lsls	r1, r7, #25
	csel	r5, r8, r3, pl
	.loc	3 705 17                        @ ../Device/Display/LCD/LCD_LT7381.c:705:17
	cmp	r6, #1
.Ltmp84:
	.loc	3 0 0                           @ ../Device/Display/LCD/LCD_LT7381.c:0:0
	strh	r5, [r4]
.Ltmp85:
	.loc	3 705 17                        @ ../Device/Display/LCD/LCD_LT7381.c:705:17
	beq	.LBB2_19
.Ltmp86:
@ %bb.17:                               @   in Loop: Header=BB2_5 Depth=2
	@DEBUG_VALUE: lt7381_put_char8x16:j <- 1
	@DEBUG_VALUE: lt7381_put_char8x16:r_y <- $r0
	@DEBUG_VALUE: lt7381_put_char8x16:i <- [DW_OP_plus_uconst 4] [$sp+0]
	@DEBUG_VALUE: lt7381_put_char8x16:c <- [DW_OP_LLVM_entry_value 1] $r2
	@DEBUG_VALUE: lt7381_put_char8x16:y <- [DW_OP_LLVM_entry_value 1] $r1
	@DEBUG_VALUE: lt7381_put_char8x16:x <- [DW_OP_LLVM_entry_value 1] $r0
	@DEBUG_VALUE: lt7381_put_char8x16:fColor <- $r3
	@DEBUG_VALUE: lt7381_put_char8x16:r_x <- undef
	.loc	3 0 17                          @ ../Device/Display/LCD/LCD_LT7381.c:0:17
	cmp	r1, #0
	csel	r5, r8, r3, pl
	.loc	3 705 17                        @ ../Device/Display/LCD/LCD_LT7381.c:705:17
	cmp	r6, #2
.Ltmp87:
	.loc	3 0 0                           @ ../Device/Display/LCD/LCD_LT7381.c:0:0
	strh	r5, [r4]
.Ltmp88:
	.loc	3 705 17                        @ ../Device/Display/LCD/LCD_LT7381.c:705:17
	beq	.LBB2_19
.Ltmp89:
@ %bb.18:                               @   in Loop: Header=BB2_5 Depth=2
	@DEBUG_VALUE: lt7381_put_char8x16:j <- 1
	@DEBUG_VALUE: lt7381_put_char8x16:r_y <- $r0
	@DEBUG_VALUE: lt7381_put_char8x16:i <- [DW_OP_plus_uconst 4] [$sp+0]
	@DEBUG_VALUE: lt7381_put_char8x16:c <- [DW_OP_LLVM_entry_value 1] $r2
	@DEBUG_VALUE: lt7381_put_char8x16:y <- [DW_OP_LLVM_entry_value 1] $r1
	@DEBUG_VALUE: lt7381_put_char8x16:x <- [DW_OP_LLVM_entry_value 1] $r0
	@DEBUG_VALUE: lt7381_put_char8x16:fColor <- $r3
	@DEBUG_VALUE: lt7381_put_char8x16:r_x <- undef
	.loc	3 0 17                          @ ../Device/Display/LCD/LCD_LT7381.c:0:17
	cmp	r1, #0
	csel	r1, r8, r3, pl
.Ltmp90:
	strh	r1, [r4]
.Ltmp91:
	.p2align	2
.LBB2_19:                               @   in Loop: Header=BB2_5 Depth=2
	@DEBUG_VALUE: lt7381_put_char8x16:j <- 1
	@DEBUG_VALUE: lt7381_put_char8x16:r_y <- $r0
	@DEBUG_VALUE: lt7381_put_char8x16:i <- [DW_OP_plus_uconst 4] [$sp+0]
	@DEBUG_VALUE: lt7381_put_char8x16:c <- [DW_OP_LLVM_entry_value 1] $r2
	@DEBUG_VALUE: lt7381_put_char8x16:y <- [DW_OP_LLVM_entry_value 1] $r1
	@DEBUG_VALUE: lt7381_put_char8x16:x <- [DW_OP_LLVM_entry_value 1] $r0
	@DEBUG_VALUE: lt7381_put_char8x16:fColor <- $r3
	@DEBUG_VALUE: lt7381_put_char8x16:j <- 2
	@DEBUG_VALUE: lt7381_put_char8x16:r_x <- 0
	.loc	3 705 17                        @ ../Device/Display/LCD/LCD_LT7381.c:705:17
	cmp	r2, #3
.Ltmp92:
	@DEBUG_VALUE: lt7381_put_char8x16:m <- [DW_OP_constu 2, DW_OP_shl, DW_OP_stack_value] undef
	blo	.LBB2_22
.Ltmp93:
@ %bb.20:                               @   in Loop: Header=BB2_5 Depth=2
	@DEBUG_VALUE: lt7381_put_char8x16:j <- 2
	@DEBUG_VALUE: lt7381_put_char8x16:r_x <- 0
	@DEBUG_VALUE: lt7381_put_char8x16:r_y <- $r0
	@DEBUG_VALUE: lt7381_put_char8x16:i <- [DW_OP_plus_uconst 4] [$sp+0]
	@DEBUG_VALUE: lt7381_put_char8x16:c <- [DW_OP_LLVM_entry_value 1] $r2
	@DEBUG_VALUE: lt7381_put_char8x16:y <- [DW_OP_LLVM_entry_value 1] $r1
	@DEBUG_VALUE: lt7381_put_char8x16:x <- [DW_OP_LLVM_entry_value 1] $r0
	@DEBUG_VALUE: lt7381_put_char8x16:fColor <- $r3
	dls	lr, r9
	lsls	r1, r7, #26
	csel	r1, r8, r3, pl
.Ltmp94:
	.loc	3 0 17                          @ :0:17
.Ltmp95:
	.p2align	2
.LBB2_21:                               @   Parent Loop BB2_2 Depth=1
                                        @     Parent Loop BB2_5 Depth=2
                                        @ =>    This Inner Loop Header: Depth=3
	@DEBUG_VALUE: lt7381_put_char8x16:j <- 2
	@DEBUG_VALUE: lt7381_put_char8x16:r_y <- $r0
	@DEBUG_VALUE: lt7381_put_char8x16:i <- [DW_OP_plus_uconst 4] [$sp+0]
	@DEBUG_VALUE: lt7381_put_char8x16:c <- [DW_OP_LLVM_entry_value 1] $r2
	@DEBUG_VALUE: lt7381_put_char8x16:y <- [DW_OP_LLVM_entry_value 1] $r1
	@DEBUG_VALUE: lt7381_put_char8x16:x <- [DW_OP_LLVM_entry_value 1] $r0
	@DEBUG_VALUE: lt7381_put_char8x16:fColor <- $r3
	@DEBUG_VALUE: lt7381_put_char8x16:r_x <- undef
	strh	r1, [r4]
	strh	r1, [r4]
	strh	r1, [r4]
	strh	r1, [r4]
.Ltmp96:
	.loc	3 705 17                        @ ../Device/Display/LCD/LCD_LT7381.c:705:17
	le	lr, .LBB2_21
.Ltmp97:
.LBB2_22:                               @   in Loop: Header=BB2_5 Depth=2
	@DEBUG_VALUE: lt7381_put_char8x16:j <- 2
	@DEBUG_VALUE: lt7381_put_char8x16:r_y <- $r0
	@DEBUG_VALUE: lt7381_put_char8x16:i <- [DW_OP_plus_uconst 4] [$sp+0]
	@DEBUG_VALUE: lt7381_put_char8x16:c <- [DW_OP_LLVM_entry_value 1] $r2
	@DEBUG_VALUE: lt7381_put_char8x16:y <- [DW_OP_LLVM_entry_value 1] $r1
	@DEBUG_VALUE: lt7381_put_char8x16:x <- [DW_OP_LLVM_entry_value 1] $r0
	@DEBUG_VALUE: lt7381_put_char8x16:fColor <- $r3
	cbz	r6, .LBB2_26
.Ltmp98:
@ %bb.23:                               @   in Loop: Header=BB2_5 Depth=2
	@DEBUG_VALUE: lt7381_put_char8x16:j <- 2
	@DEBUG_VALUE: lt7381_put_char8x16:r_y <- $r0
	@DEBUG_VALUE: lt7381_put_char8x16:i <- [DW_OP_plus_uconst 4] [$sp+0]
	@DEBUG_VALUE: lt7381_put_char8x16:c <- [DW_OP_LLVM_entry_value 1] $r2
	@DEBUG_VALUE: lt7381_put_char8x16:y <- [DW_OP_LLVM_entry_value 1] $r1
	@DEBUG_VALUE: lt7381_put_char8x16:x <- [DW_OP_LLVM_entry_value 1] $r0
	@DEBUG_VALUE: lt7381_put_char8x16:fColor <- $r3
	@DEBUG_VALUE: lt7381_put_char8x16:r_x <- undef
	.loc	3 0 17                          @ ../Device/Display/LCD/LCD_LT7381.c:0:17
	lsls	r1, r7, #26
	csel	r5, r8, r3, pl
	.loc	3 705 17                        @ ../Device/Display/LCD/LCD_LT7381.c:705:17
	cmp	r6, #1
.Ltmp99:
	.loc	3 0 0                           @ ../Device/Display/LCD/LCD_LT7381.c:0:0
	strh	r5, [r4]
.Ltmp100:
	.loc	3 705 17                        @ ../Device/Display/LCD/LCD_LT7381.c:705:17
	beq	.LBB2_26
.Ltmp101:
@ %bb.24:                               @   in Loop: Header=BB2_5 Depth=2
	@DEBUG_VALUE: lt7381_put_char8x16:j <- 2
	@DEBUG_VALUE: lt7381_put_char8x16:r_y <- $r0
	@DEBUG_VALUE: lt7381_put_char8x16:i <- [DW_OP_plus_uconst 4] [$sp+0]
	@DEBUG_VALUE: lt7381_put_char8x16:c <- [DW_OP_LLVM_entry_value 1] $r2
	@DEBUG_VALUE: lt7381_put_char8x16:y <- [DW_OP_LLVM_entry_value 1] $r1
	@DEBUG_VALUE: lt7381_put_char8x16:x <- [DW_OP_LLVM_entry_value 1] $r0
	@DEBUG_VALUE: lt7381_put_char8x16:fColor <- $r3
	@DEBUG_VALUE: lt7381_put_char8x16:r_x <- undef
	.loc	3 0 17                          @ ../Device/Display/LCD/LCD_LT7381.c:0:17
	cmp	r1, #0
	csel	r5, r8, r3, pl
	.loc	3 705 17                        @ ../Device/Display/LCD/LCD_LT7381.c:705:17
	cmp	r6, #2
.Ltmp102:
	.loc	3 0 0                           @ ../Device/Display/LCD/LCD_LT7381.c:0:0
	strh	r5, [r4]
.Ltmp103:
	.loc	3 705 17                        @ ../Device/Display/LCD/LCD_LT7381.c:705:17
	beq	.LBB2_26
.Ltmp104:
@ %bb.25:                               @   in Loop: Header=BB2_5 Depth=2
	@DEBUG_VALUE: lt7381_put_char8x16:j <- 2
	@DEBUG_VALUE: lt7381_put_char8x16:r_y <- $r0
	@DEBUG_VALUE: lt7381_put_char8x16:i <- [DW_OP_plus_uconst 4] [$sp+0]
	@DEBUG_VALUE: lt7381_put_char8x16:c <- [DW_OP_LLVM_entry_value 1] $r2
	@DEBUG_VALUE: lt7381_put_char8x16:y <- [DW_OP_LLVM_entry_value 1] $r1
	@DEBUG_VALUE: lt7381_put_char8x16:x <- [DW_OP_LLVM_entry_value 1] $r0
	@DEBUG_VALUE: lt7381_put_char8x16:fColor <- $r3
	@DEBUG_VALUE: lt7381_put_char8x16:r_x <- undef
	.loc	3 0 17                          @ ../Device/Display/LCD/LCD_LT7381.c:0:17
	cmp	r1, #0
	csel	r1, r8, r3, pl
.Ltmp105:
	strh	r1, [r4]
.Ltmp106:
	.p2align	2
.LBB2_26:                               @   in Loop: Header=BB2_5 Depth=2
	@DEBUG_VALUE: lt7381_put_char8x16:j <- 2
	@DEBUG_VALUE: lt7381_put_char8x16:r_y <- $r0
	@DEBUG_VALUE: lt7381_put_char8x16:i <- [DW_OP_plus_uconst 4] [$sp+0]
	@DEBUG_VALUE: lt7381_put_char8x16:c <- [DW_OP_LLVM_entry_value 1] $r2
	@DEBUG_VALUE: lt7381_put_char8x16:y <- [DW_OP_LLVM_entry_value 1] $r1
	@DEBUG_VALUE: lt7381_put_char8x16:x <- [DW_OP_LLVM_entry_value 1] $r0
	@DEBUG_VALUE: lt7381_put_char8x16:fColor <- $r3
	@DEBUG_VALUE: lt7381_put_char8x16:j <- 3
	@DEBUG_VALUE: lt7381_put_char8x16:r_x <- 0
	.loc	3 705 17                        @ ../Device/Display/LCD/LCD_LT7381.c:705:17
	cmp	r2, #3
.Ltmp107:
	@DEBUG_VALUE: lt7381_put_char8x16:m <- [DW_OP_constu 3, DW_OP_shl, DW_OP_stack_value] undef
	blo	.LBB2_29
.Ltmp108:
@ %bb.27:                               @   in Loop: Header=BB2_5 Depth=2
	@DEBUG_VALUE: lt7381_put_char8x16:j <- 3
	@DEBUG_VALUE: lt7381_put_char8x16:r_x <- 0
	@DEBUG_VALUE: lt7381_put_char8x16:r_y <- $r0
	@DEBUG_VALUE: lt7381_put_char8x16:i <- [DW_OP_plus_uconst 4] [$sp+0]
	@DEBUG_VALUE: lt7381_put_char8x16:c <- [DW_OP_LLVM_entry_value 1] $r2
	@DEBUG_VALUE: lt7381_put_char8x16:y <- [DW_OP_LLVM_entry_value 1] $r1
	@DEBUG_VALUE: lt7381_put_char8x16:x <- [DW_OP_LLVM_entry_value 1] $r0
	@DEBUG_VALUE: lt7381_put_char8x16:fColor <- $r3
	dls	lr, r9
	lsls	r1, r7, #27
	csel	r1, r8, r3, pl
.Ltmp109:
	.loc	3 0 17                          @ :0:17
.Ltmp110:
	.p2align	2
.LBB2_28:                               @   Parent Loop BB2_2 Depth=1
                                        @     Parent Loop BB2_5 Depth=2
                                        @ =>    This Inner Loop Header: Depth=3
	@DEBUG_VALUE: lt7381_put_char8x16:j <- 3
	@DEBUG_VALUE: lt7381_put_char8x16:r_y <- $r0
	@DEBUG_VALUE: lt7381_put_char8x16:i <- [DW_OP_plus_uconst 4] [$sp+0]
	@DEBUG_VALUE: lt7381_put_char8x16:c <- [DW_OP_LLVM_entry_value 1] $r2
	@DEBUG_VALUE: lt7381_put_char8x16:y <- [DW_OP_LLVM_entry_value 1] $r1
	@DEBUG_VALUE: lt7381_put_char8x16:x <- [DW_OP_LLVM_entry_value 1] $r0
	@DEBUG_VALUE: lt7381_put_char8x16:fColor <- $r3
	@DEBUG_VALUE: lt7381_put_char8x16:r_x <- undef
	strh	r1, [r4]
	strh	r1, [r4]
	strh	r1, [r4]
	strh	r1, [r4]
.Ltmp111:
	.loc	3 705 17                        @ ../Device/Display/LCD/LCD_LT7381.c:705:17
	le	lr, .LBB2_28
.Ltmp112:
.LBB2_29:                               @   in Loop: Header=BB2_5 Depth=2
	@DEBUG_VALUE: lt7381_put_char8x16:j <- 3
	@DEBUG_VALUE: lt7381_put_char8x16:r_y <- $r0
	@DEBUG_VALUE: lt7381_put_char8x16:i <- [DW_OP_plus_uconst 4] [$sp+0]
	@DEBUG_VALUE: lt7381_put_char8x16:c <- [DW_OP_LLVM_entry_value 1] $r2
	@DEBUG_VALUE: lt7381_put_char8x16:y <- [DW_OP_LLVM_entry_value 1] $r1
	@DEBUG_VALUE: lt7381_put_char8x16:x <- [DW_OP_LLVM_entry_value 1] $r0
	@DEBUG_VALUE: lt7381_put_char8x16:fColor <- $r3
	cbz	r6, .LBB2_33
.Ltmp113:
@ %bb.30:                               @   in Loop: Header=BB2_5 Depth=2
	@DEBUG_VALUE: lt7381_put_char8x16:j <- 3
	@DEBUG_VALUE: lt7381_put_char8x16:r_y <- $r0
	@DEBUG_VALUE: lt7381_put_char8x16:i <- [DW_OP_plus_uconst 4] [$sp+0]
	@DEBUG_VALUE: lt7381_put_char8x16:c <- [DW_OP_LLVM_entry_value 1] $r2
	@DEBUG_VALUE: lt7381_put_char8x16:y <- [DW_OP_LLVM_entry_value 1] $r1
	@DEBUG_VALUE: lt7381_put_char8x16:x <- [DW_OP_LLVM_entry_value 1] $r0
	@DEBUG_VALUE: lt7381_put_char8x16:fColor <- $r3
	@DEBUG_VALUE: lt7381_put_char8x16:r_x <- undef
	.loc	3 0 17                          @ ../Device/Display/LCD/LCD_LT7381.c:0:17
	lsls	r1, r7, #27
	csel	r5, r8, r3, pl
	.loc	3 705 17                        @ ../Device/Display/LCD/LCD_LT7381.c:705:17
	cmp	r6, #1
.Ltmp114:
	.loc	3 0 0                           @ ../Device/Display/LCD/LCD_LT7381.c:0:0
	strh	r5, [r4]
.Ltmp115:
	.loc	3 705 17                        @ ../Device/Display/LCD/LCD_LT7381.c:705:17
	beq	.LBB2_33
.Ltmp116:
@ %bb.31:                               @   in Loop: Header=BB2_5 Depth=2
	@DEBUG_VALUE: lt7381_put_char8x16:j <- 3
	@DEBUG_VALUE: lt7381_put_char8x16:r_y <- $r0
	@DEBUG_VALUE: lt7381_put_char8x16:i <- [DW_OP_plus_uconst 4] [$sp+0]
	@DEBUG_VALUE: lt7381_put_char8x16:c <- [DW_OP_LLVM_entry_value 1] $r2
	@DEBUG_VALUE: lt7381_put_char8x16:y <- [DW_OP_LLVM_entry_value 1] $r1
	@DEBUG_VALUE: lt7381_put_char8x16:x <- [DW_OP_LLVM_entry_value 1] $r0
	@DEBUG_VALUE: lt7381_put_char8x16:fColor <- $r3
	@DEBUG_VALUE: lt7381_put_char8x16:r_x <- undef
	.loc	3 0 17                          @ ../Device/Display/LCD/LCD_LT7381.c:0:17
	cmp	r1, #0
	csel	r5, r8, r3, pl
	.loc	3 705 17                        @ ../Device/Display/LCD/LCD_LT7381.c:705:17
	cmp	r6, #2
.Ltmp117:
	.loc	3 0 0                           @ ../Device/Display/LCD/LCD_LT7381.c:0:0
	strh	r5, [r4]
.Ltmp118:
	.loc	3 705 17                        @ ../Device/Display/LCD/LCD_LT7381.c:705:17
	beq	.LBB2_33
.Ltmp119:
@ %bb.32:                               @   in Loop: Header=BB2_5 Depth=2
	@DEBUG_VALUE: lt7381_put_char8x16:j <- 3
	@DEBUG_VALUE: lt7381_put_char8x16:r_y <- $r0
	@DEBUG_VALUE: lt7381_put_char8x16:i <- [DW_OP_plus_uconst 4] [$sp+0]
	@DEBUG_VALUE: lt7381_put_char8x16:c <- [DW_OP_LLVM_entry_value 1] $r2
	@DEBUG_VALUE: lt7381_put_char8x16:y <- [DW_OP_LLVM_entry_value 1] $r1
	@DEBUG_VALUE: lt7381_put_char8x16:x <- [DW_OP_LLVM_entry_value 1] $r0
	@DEBUG_VALUE: lt7381_put_char8x16:fColor <- $r3
	@DEBUG_VALUE: lt7381_put_char8x16:r_x <- undef
	.loc	3 0 17                          @ ../Device/Display/LCD/LCD_LT7381.c:0:17
	cmp	r1, #0
	csel	r1, r8, r3, pl
.Ltmp120:
	strh	r1, [r4]
.Ltmp121:
	.p2align	2
.LBB2_33:                               @   in Loop: Header=BB2_5 Depth=2
	@DEBUG_VALUE: lt7381_put_char8x16:j <- 3
	@DEBUG_VALUE: lt7381_put_char8x16:r_y <- $r0
	@DEBUG_VALUE: lt7381_put_char8x16:i <- [DW_OP_plus_uconst 4] [$sp+0]
	@DEBUG_VALUE: lt7381_put_char8x16:c <- [DW_OP_LLVM_entry_value 1] $r2
	@DEBUG_VALUE: lt7381_put_char8x16:y <- [DW_OP_LLVM_entry_value 1] $r1
	@DEBUG_VALUE: lt7381_put_char8x16:x <- [DW_OP_LLVM_entry_value 1] $r0
	@DEBUG_VALUE: lt7381_put_char8x16:fColor <- $r3
	@DEBUG_VALUE: lt7381_put_char8x16:j <- 4
	@DEBUG_VALUE: lt7381_put_char8x16:r_x <- 0
	.loc	3 705 17                        @ ../Device/Display/LCD/LCD_LT7381.c:705:17
	cmp	r2, #3
.Ltmp122:
	@DEBUG_VALUE: lt7381_put_char8x16:m <- [DW_OP_constu 4, DW_OP_shl, DW_OP_stack_value] undef
	blo	.LBB2_36
.Ltmp123:
@ %bb.34:                               @   in Loop: Header=BB2_5 Depth=2
	@DEBUG_VALUE: lt7381_put_char8x16:j <- 4
	@DEBUG_VALUE: lt7381_put_char8x16:r_x <- 0
	@DEBUG_VALUE: lt7381_put_char8x16:r_y <- $r0
	@DEBUG_VALUE: lt7381_put_char8x16:i <- [DW_OP_plus_uconst 4] [$sp+0]
	@DEBUG_VALUE: lt7381_put_char8x16:c <- [DW_OP_LLVM_entry_value 1] $r2
	@DEBUG_VALUE: lt7381_put_char8x16:y <- [DW_OP_LLVM_entry_value 1] $r1
	@DEBUG_VALUE: lt7381_put_char8x16:x <- [DW_OP_LLVM_entry_value 1] $r0
	@DEBUG_VALUE: lt7381_put_char8x16:fColor <- $r3
	dls	lr, r9
	lsls	r1, r7, #28
	csel	r1, r8, r3, pl
.Ltmp124:
	.loc	3 0 17                          @ :0:17
.Ltmp125:
	.p2align	2
.LBB2_35:                               @   Parent Loop BB2_2 Depth=1
                                        @     Parent Loop BB2_5 Depth=2
                                        @ =>    This Inner Loop Header: Depth=3
	@DEBUG_VALUE: lt7381_put_char8x16:j <- 4
	@DEBUG_VALUE: lt7381_put_char8x16:r_y <- $r0
	@DEBUG_VALUE: lt7381_put_char8x16:i <- [DW_OP_plus_uconst 4] [$sp+0]
	@DEBUG_VALUE: lt7381_put_char8x16:c <- [DW_OP_LLVM_entry_value 1] $r2
	@DEBUG_VALUE: lt7381_put_char8x16:y <- [DW_OP_LLVM_entry_value 1] $r1
	@DEBUG_VALUE: lt7381_put_char8x16:x <- [DW_OP_LLVM_entry_value 1] $r0
	@DEBUG_VALUE: lt7381_put_char8x16:fColor <- $r3
	@DEBUG_VALUE: lt7381_put_char8x16:r_x <- undef
	strh	r1, [r4]
	strh	r1, [r4]
	strh	r1, [r4]
	strh	r1, [r4]
.Ltmp126:
	.loc	3 705 17                        @ ../Device/Display/LCD/LCD_LT7381.c:705:17
	le	lr, .LBB2_35
.Ltmp127:
.LBB2_36:                               @   in Loop: Header=BB2_5 Depth=2
	@DEBUG_VALUE: lt7381_put_char8x16:j <- 4
	@DEBUG_VALUE: lt7381_put_char8x16:r_y <- $r0
	@DEBUG_VALUE: lt7381_put_char8x16:i <- [DW_OP_plus_uconst 4] [$sp+0]
	@DEBUG_VALUE: lt7381_put_char8x16:c <- [DW_OP_LLVM_entry_value 1] $r2
	@DEBUG_VALUE: lt7381_put_char8x16:y <- [DW_OP_LLVM_entry_value 1] $r1
	@DEBUG_VALUE: lt7381_put_char8x16:x <- [DW_OP_LLVM_entry_value 1] $r0
	@DEBUG_VALUE: lt7381_put_char8x16:fColor <- $r3
	cbz	r6, .LBB2_40
.Ltmp128:
@ %bb.37:                               @   in Loop: Header=BB2_5 Depth=2
	@DEBUG_VALUE: lt7381_put_char8x16:j <- 4
	@DEBUG_VALUE: lt7381_put_char8x16:r_y <- $r0
	@DEBUG_VALUE: lt7381_put_char8x16:i <- [DW_OP_plus_uconst 4] [$sp+0]
	@DEBUG_VALUE: lt7381_put_char8x16:c <- [DW_OP_LLVM_entry_value 1] $r2
	@DEBUG_VALUE: lt7381_put_char8x16:y <- [DW_OP_LLVM_entry_value 1] $r1
	@DEBUG_VALUE: lt7381_put_char8x16:x <- [DW_OP_LLVM_entry_value 1] $r0
	@DEBUG_VALUE: lt7381_put_char8x16:fColor <- $r3
	@DEBUG_VALUE: lt7381_put_char8x16:r_x <- undef
	.loc	3 0 17                          @ ../Device/Display/LCD/LCD_LT7381.c:0:17
	lsls	r1, r7, #28
	csel	r5, r8, r3, pl
	.loc	3 705 17                        @ ../Device/Display/LCD/LCD_LT7381.c:705:17
	cmp	r6, #1
.Ltmp129:
	.loc	3 0 0                           @ ../Device/Display/LCD/LCD_LT7381.c:0:0
	strh	r5, [r4]
.Ltmp130:
	.loc	3 705 17                        @ ../Device/Display/LCD/LCD_LT7381.c:705:17
	beq	.LBB2_40
.Ltmp131:
@ %bb.38:                               @   in Loop: Header=BB2_5 Depth=2
	@DEBUG_VALUE: lt7381_put_char8x16:j <- 4
	@DEBUG_VALUE: lt7381_put_char8x16:r_y <- $r0
	@DEBUG_VALUE: lt7381_put_char8x16:i <- [DW_OP_plus_uconst 4] [$sp+0]
	@DEBUG_VALUE: lt7381_put_char8x16:c <- [DW_OP_LLVM_entry_value 1] $r2
	@DEBUG_VALUE: lt7381_put_char8x16:y <- [DW_OP_LLVM_entry_value 1] $r1
	@DEBUG_VALUE: lt7381_put_char8x16:x <- [DW_OP_LLVM_entry_value 1] $r0
	@DEBUG_VALUE: lt7381_put_char8x16:fColor <- $r3
	@DEBUG_VALUE: lt7381_put_char8x16:r_x <- undef
	.loc	3 0 17                          @ ../Device/Display/LCD/LCD_LT7381.c:0:17
	cmp	r1, #0
	csel	r5, r8, r3, pl
	.loc	3 705 17                        @ ../Device/Display/LCD/LCD_LT7381.c:705:17
	cmp	r6, #2
.Ltmp132:
	.loc	3 0 0                           @ ../Device/Display/LCD/LCD_LT7381.c:0:0
	strh	r5, [r4]
.Ltmp133:
	.loc	3 705 17                        @ ../Device/Display/LCD/LCD_LT7381.c:705:17
	beq	.LBB2_40
.Ltmp134:
@ %bb.39:                               @   in Loop: Header=BB2_5 Depth=2
	@DEBUG_VALUE: lt7381_put_char8x16:j <- 4
	@DEBUG_VALUE: lt7381_put_char8x16:r_y <- $r0
	@DEBUG_VALUE: lt7381_put_char8x16:i <- [DW_OP_plus_uconst 4] [$sp+0]
	@DEBUG_VALUE: lt7381_put_char8x16:c <- [DW_OP_LLVM_entry_value 1] $r2
	@DEBUG_VALUE: lt7381_put_char8x16:y <- [DW_OP_LLVM_entry_value 1] $r1
	@DEBUG_VALUE: lt7381_put_char8x16:x <- [DW_OP_LLVM_entry_value 1] $r0
	@DEBUG_VALUE: lt7381_put_char8x16:fColor <- $r3
	@DEBUG_VALUE: lt7381_put_char8x16:r_x <- undef
	.loc	3 0 17                          @ ../Device/Display/LCD/LCD_LT7381.c:0:17
	cmp	r1, #0
	csel	r1, r8, r3, pl
.Ltmp135:
	strh	r1, [r4]
.Ltmp136:
	.p2align	2
.LBB2_40:                               @   in Loop: Header=BB2_5 Depth=2
	@DEBUG_VALUE: lt7381_put_char8x16:j <- 4
	@DEBUG_VALUE: lt7381_put_char8x16:r_y <- $r0
	@DEBUG_VALUE: lt7381_put_char8x16:i <- [DW_OP_plus_uconst 4] [$sp+0]
	@DEBUG_VALUE: lt7381_put_char8x16:c <- [DW_OP_LLVM_entry_value 1] $r2
	@DEBUG_VALUE: lt7381_put_char8x16:y <- [DW_OP_LLVM_entry_value 1] $r1
	@DEBUG_VALUE: lt7381_put_char8x16:x <- [DW_OP_LLVM_entry_value 1] $r0
	@DEBUG_VALUE: lt7381_put_char8x16:fColor <- $r3
	@DEBUG_VALUE: lt7381_put_char8x16:j <- 5
	@DEBUG_VALUE: lt7381_put_char8x16:r_x <- 0
	.loc	3 705 17                        @ ../Device/Display/LCD/LCD_LT7381.c:705:17
	cmp	r2, #3
.Ltmp137:
	@DEBUG_VALUE: lt7381_put_char8x16:m <- [DW_OP_constu 5, DW_OP_shl, DW_OP_stack_value] undef
	blo	.LBB2_43
.Ltmp138:
@ %bb.41:                               @   in Loop: Header=BB2_5 Depth=2
	@DEBUG_VALUE: lt7381_put_char8x16:j <- 5
	@DEBUG_VALUE: lt7381_put_char8x16:r_x <- 0
	@DEBUG_VALUE: lt7381_put_char8x16:r_y <- $r0
	@DEBUG_VALUE: lt7381_put_char8x16:i <- [DW_OP_plus_uconst 4] [$sp+0]
	@DEBUG_VALUE: lt7381_put_char8x16:c <- [DW_OP_LLVM_entry_value 1] $r2
	@DEBUG_VALUE: lt7381_put_char8x16:y <- [DW_OP_LLVM_entry_value 1] $r1
	@DEBUG_VALUE: lt7381_put_char8x16:x <- [DW_OP_LLVM_entry_value 1] $r0
	@DEBUG_VALUE: lt7381_put_char8x16:fColor <- $r3
	dls	lr, r9
	lsls	r1, r7, #29
	csel	r1, r8, r3, pl
.Ltmp139:
	.loc	3 0 17                          @ :0:17
.Ltmp140:
	.p2align	2
.LBB2_42:                               @   Parent Loop BB2_2 Depth=1
                                        @     Parent Loop BB2_5 Depth=2
                                        @ =>    This Inner Loop Header: Depth=3
	@DEBUG_VALUE: lt7381_put_char8x16:j <- 5
	@DEBUG_VALUE: lt7381_put_char8x16:r_y <- $r0
	@DEBUG_VALUE: lt7381_put_char8x16:i <- [DW_OP_plus_uconst 4] [$sp+0]
	@DEBUG_VALUE: lt7381_put_char8x16:c <- [DW_OP_LLVM_entry_value 1] $r2
	@DEBUG_VALUE: lt7381_put_char8x16:y <- [DW_OP_LLVM_entry_value 1] $r1
	@DEBUG_VALUE: lt7381_put_char8x16:x <- [DW_OP_LLVM_entry_value 1] $r0
	@DEBUG_VALUE: lt7381_put_char8x16:fColor <- $r3
	@DEBUG_VALUE: lt7381_put_char8x16:r_x <- undef
	strh	r1, [r4]
	strh	r1, [r4]
	strh	r1, [r4]
	strh	r1, [r4]
.Ltmp141:
	.loc	3 705 17                        @ ../Device/Display/LCD/LCD_LT7381.c:705:17
	le	lr, .LBB2_42
.Ltmp142:
.LBB2_43:                               @   in Loop: Header=BB2_5 Depth=2
	@DEBUG_VALUE: lt7381_put_char8x16:j <- 5
	@DEBUG_VALUE: lt7381_put_char8x16:r_y <- $r0
	@DEBUG_VALUE: lt7381_put_char8x16:i <- [DW_OP_plus_uconst 4] [$sp+0]
	@DEBUG_VALUE: lt7381_put_char8x16:c <- [DW_OP_LLVM_entry_value 1] $r2
	@DEBUG_VALUE: lt7381_put_char8x16:y <- [DW_OP_LLVM_entry_value 1] $r1
	@DEBUG_VALUE: lt7381_put_char8x16:x <- [DW_OP_LLVM_entry_value 1] $r0
	@DEBUG_VALUE: lt7381_put_char8x16:fColor <- $r3
	cbz	r6, .LBB2_47
.Ltmp143:
@ %bb.44:                               @   in Loop: Header=BB2_5 Depth=2
	@DEBUG_VALUE: lt7381_put_char8x16:j <- 5
	@DEBUG_VALUE: lt7381_put_char8x16:r_y <- $r0
	@DEBUG_VALUE: lt7381_put_char8x16:i <- [DW_OP_plus_uconst 4] [$sp+0]
	@DEBUG_VALUE: lt7381_put_char8x16:c <- [DW_OP_LLVM_entry_value 1] $r2
	@DEBUG_VALUE: lt7381_put_char8x16:y <- [DW_OP_LLVM_entry_value 1] $r1
	@DEBUG_VALUE: lt7381_put_char8x16:x <- [DW_OP_LLVM_entry_value 1] $r0
	@DEBUG_VALUE: lt7381_put_char8x16:fColor <- $r3
	@DEBUG_VALUE: lt7381_put_char8x16:r_x <- undef
	.loc	3 0 17                          @ ../Device/Display/LCD/LCD_LT7381.c:0:17
	lsls	r1, r7, #29
	csel	r5, r8, r3, pl
	.loc	3 705 17                        @ ../Device/Display/LCD/LCD_LT7381.c:705:17
	cmp	r6, #1
.Ltmp144:
	.loc	3 0 0                           @ ../Device/Display/LCD/LCD_LT7381.c:0:0
	strh	r5, [r4]
.Ltmp145:
	.loc	3 705 17                        @ ../Device/Display/LCD/LCD_LT7381.c:705:17
	beq	.LBB2_47
.Ltmp146:
@ %bb.45:                               @   in Loop: Header=BB2_5 Depth=2
	@DEBUG_VALUE: lt7381_put_char8x16:j <- 5
	@DEBUG_VALUE: lt7381_put_char8x16:r_y <- $r0
	@DEBUG_VALUE: lt7381_put_char8x16:i <- [DW_OP_plus_uconst 4] [$sp+0]
	@DEBUG_VALUE: lt7381_put_char8x16:c <- [DW_OP_LLVM_entry_value 1] $r2
	@DEBUG_VALUE: lt7381_put_char8x16:y <- [DW_OP_LLVM_entry_value 1] $r1
	@DEBUG_VALUE: lt7381_put_char8x16:x <- [DW_OP_LLVM_entry_value 1] $r0
	@DEBUG_VALUE: lt7381_put_char8x16:fColor <- $r3
	@DEBUG_VALUE: lt7381_put_char8x16:r_x <- undef
	.loc	3 0 17                          @ ../Device/Display/LCD/LCD_LT7381.c:0:17
	cmp	r1, #0
	csel	r5, r8, r3, pl
	.loc	3 705 17                        @ ../Device/Display/LCD/LCD_LT7381.c:705:17
	cmp	r6, #2
.Ltmp147:
	.loc	3 0 0                           @ ../Device/Display/LCD/LCD_LT7381.c:0:0
	strh	r5, [r4]
.Ltmp148:
	.loc	3 705 17                        @ ../Device/Display/LCD/LCD_LT7381.c:705:17
	beq	.LBB2_47
.Ltmp149:
@ %bb.46:                               @   in Loop: Header=BB2_5 Depth=2
	@DEBUG_VALUE: lt7381_put_char8x16:j <- 5
	@DEBUG_VALUE: lt7381_put_char8x16:r_y <- $r0
	@DEBUG_VALUE: lt7381_put_char8x16:i <- [DW_OP_plus_uconst 4] [$sp+0]
	@DEBUG_VALUE: lt7381_put_char8x16:c <- [DW_OP_LLVM_entry_value 1] $r2
	@DEBUG_VALUE: lt7381_put_char8x16:y <- [DW_OP_LLVM_entry_value 1] $r1
	@DEBUG_VALUE: lt7381_put_char8x16:x <- [DW_OP_LLVM_entry_value 1] $r0
	@DEBUG_VALUE: lt7381_put_char8x16:fColor <- $r3
	@DEBUG_VALUE: lt7381_put_char8x16:r_x <- undef
	.loc	3 0 17                          @ ../Device/Display/LCD/LCD_LT7381.c:0:17
	cmp	r1, #0
	csel	r1, r8, r3, pl
.Ltmp150:
	strh	r1, [r4]
.Ltmp151:
	.p2align	2
.LBB2_47:                               @   in Loop: Header=BB2_5 Depth=2
	@DEBUG_VALUE: lt7381_put_char8x16:j <- 5
	@DEBUG_VALUE: lt7381_put_char8x16:r_y <- $r0
	@DEBUG_VALUE: lt7381_put_char8x16:i <- [DW_OP_plus_uconst 4] [$sp+0]
	@DEBUG_VALUE: lt7381_put_char8x16:c <- [DW_OP_LLVM_entry_value 1] $r2
	@DEBUG_VALUE: lt7381_put_char8x16:y <- [DW_OP_LLVM_entry_value 1] $r1
	@DEBUG_VALUE: lt7381_put_char8x16:x <- [DW_OP_LLVM_entry_value 1] $r0
	@DEBUG_VALUE: lt7381_put_char8x16:fColor <- $r3
	@DEBUG_VALUE: lt7381_put_char8x16:j <- 6
	@DEBUG_VALUE: lt7381_put_char8x16:r_x <- 0
	.loc	3 705 17                        @ ../Device/Display/LCD/LCD_LT7381.c:705:17
	cmp	r2, #3
.Ltmp152:
	@DEBUG_VALUE: lt7381_put_char8x16:m <- [DW_OP_constu 6, DW_OP_shl, DW_OP_stack_value] undef
	blo	.LBB2_50
.Ltmp153:
@ %bb.48:                               @   in Loop: Header=BB2_5 Depth=2
	@DEBUG_VALUE: lt7381_put_char8x16:j <- 6
	@DEBUG_VALUE: lt7381_put_char8x16:r_x <- 0
	@DEBUG_VALUE: lt7381_put_char8x16:r_y <- $r0
	@DEBUG_VALUE: lt7381_put_char8x16:i <- [DW_OP_plus_uconst 4] [$sp+0]
	@DEBUG_VALUE: lt7381_put_char8x16:c <- [DW_OP_LLVM_entry_value 1] $r2
	@DEBUG_VALUE: lt7381_put_char8x16:y <- [DW_OP_LLVM_entry_value 1] $r1
	@DEBUG_VALUE: lt7381_put_char8x16:x <- [DW_OP_LLVM_entry_value 1] $r0
	@DEBUG_VALUE: lt7381_put_char8x16:fColor <- $r3
	dls	lr, r9
	lsls	r1, r7, #30
	csel	r1, r8, r3, pl
.Ltmp154:
	.loc	3 0 17                          @ :0:17
.Ltmp155:
	.p2align	2
.LBB2_49:                               @   Parent Loop BB2_2 Depth=1
                                        @     Parent Loop BB2_5 Depth=2
                                        @ =>    This Inner Loop Header: Depth=3
	@DEBUG_VALUE: lt7381_put_char8x16:j <- 6
	@DEBUG_VALUE: lt7381_put_char8x16:r_y <- $r0
	@DEBUG_VALUE: lt7381_put_char8x16:i <- [DW_OP_plus_uconst 4] [$sp+0]
	@DEBUG_VALUE: lt7381_put_char8x16:c <- [DW_OP_LLVM_entry_value 1] $r2
	@DEBUG_VALUE: lt7381_put_char8x16:y <- [DW_OP_LLVM_entry_value 1] $r1
	@DEBUG_VALUE: lt7381_put_char8x16:x <- [DW_OP_LLVM_entry_value 1] $r0
	@DEBUG_VALUE: lt7381_put_char8x16:fColor <- $r3
	@DEBUG_VALUE: lt7381_put_char8x16:r_x <- undef
	strh	r1, [r4]
	strh	r1, [r4]
	strh	r1, [r4]
	strh	r1, [r4]
.Ltmp156:
	.loc	3 705 17                        @ ../Device/Display/LCD/LCD_LT7381.c:705:17
	le	lr, .LBB2_49
.Ltmp157:
.LBB2_50:                               @   in Loop: Header=BB2_5 Depth=2
	@DEBUG_VALUE: lt7381_put_char8x16:j <- 6
	@DEBUG_VALUE: lt7381_put_char8x16:r_y <- $r0
	@DEBUG_VALUE: lt7381_put_char8x16:i <- [DW_OP_plus_uconst 4] [$sp+0]
	@DEBUG_VALUE: lt7381_put_char8x16:c <- [DW_OP_LLVM_entry_value 1] $r2
	@DEBUG_VALUE: lt7381_put_char8x16:y <- [DW_OP_LLVM_entry_value 1] $r1
	@DEBUG_VALUE: lt7381_put_char8x16:x <- [DW_OP_LLVM_entry_value 1] $r0
	@DEBUG_VALUE: lt7381_put_char8x16:fColor <- $r3
	cbz	r6, .LBB2_54
.Ltmp158:
@ %bb.51:                               @   in Loop: Header=BB2_5 Depth=2
	@DEBUG_VALUE: lt7381_put_char8x16:j <- 6
	@DEBUG_VALUE: lt7381_put_char8x16:r_y <- $r0
	@DEBUG_VALUE: lt7381_put_char8x16:i <- [DW_OP_plus_uconst 4] [$sp+0]
	@DEBUG_VALUE: lt7381_put_char8x16:c <- [DW_OP_LLVM_entry_value 1] $r2
	@DEBUG_VALUE: lt7381_put_char8x16:y <- [DW_OP_LLVM_entry_value 1] $r1
	@DEBUG_VALUE: lt7381_put_char8x16:x <- [DW_OP_LLVM_entry_value 1] $r0
	@DEBUG_VALUE: lt7381_put_char8x16:fColor <- $r3
	@DEBUG_VALUE: lt7381_put_char8x16:r_x <- undef
	.loc	3 0 17                          @ ../Device/Display/LCD/LCD_LT7381.c:0:17
	lsls	r1, r7, #30
	csel	r5, r8, r3, pl
	.loc	3 705 17                        @ ../Device/Display/LCD/LCD_LT7381.c:705:17
	cmp	r6, #1
.Ltmp159:
	.loc	3 0 0                           @ ../Device/Display/LCD/LCD_LT7381.c:0:0
	strh	r5, [r4]
.Ltmp160:
	.loc	3 705 17                        @ ../Device/Display/LCD/LCD_LT7381.c:705:17
	beq	.LBB2_54
.Ltmp161:
@ %bb.52:                               @   in Loop: Header=BB2_5 Depth=2
	@DEBUG_VALUE: lt7381_put_char8x16:j <- 6
	@DEBUG_VALUE: lt7381_put_char8x16:r_y <- $r0
	@DEBUG_VALUE: lt7381_put_char8x16:i <- [DW_OP_plus_uconst 4] [$sp+0]
	@DEBUG_VALUE: lt7381_put_char8x16:c <- [DW_OP_LLVM_entry_value 1] $r2
	@DEBUG_VALUE: lt7381_put_char8x16:y <- [DW_OP_LLVM_entry_value 1] $r1
	@DEBUG_VALUE: lt7381_put_char8x16:x <- [DW_OP_LLVM_entry_value 1] $r0
	@DEBUG_VALUE: lt7381_put_char8x16:fColor <- $r3
	@DEBUG_VALUE: lt7381_put_char8x16:r_x <- undef
	.loc	3 0 17                          @ ../Device/Display/LCD/LCD_LT7381.c:0:17
	cmp	r1, #0
	csel	r5, r8, r3, pl
	.loc	3 705 17                        @ ../Device/Display/LCD/LCD_LT7381.c:705:17
	cmp	r6, #2
.Ltmp162:
	.loc	3 0 0                           @ ../Device/Display/LCD/LCD_LT7381.c:0:0
	strh	r5, [r4]
.Ltmp163:
	.loc	3 705 17                        @ ../Device/Display/LCD/LCD_LT7381.c:705:17
	beq	.LBB2_54
.Ltmp164:
@ %bb.53:                               @   in Loop: Header=BB2_5 Depth=2
	@DEBUG_VALUE: lt7381_put_char8x16:j <- 6
	@DEBUG_VALUE: lt7381_put_char8x16:r_y <- $r0
	@DEBUG_VALUE: lt7381_put_char8x16:i <- [DW_OP_plus_uconst 4] [$sp+0]
	@DEBUG_VALUE: lt7381_put_char8x16:c <- [DW_OP_LLVM_entry_value 1] $r2
	@DEBUG_VALUE: lt7381_put_char8x16:y <- [DW_OP_LLVM_entry_value 1] $r1
	@DEBUG_VALUE: lt7381_put_char8x16:x <- [DW_OP_LLVM_entry_value 1] $r0
	@DEBUG_VALUE: lt7381_put_char8x16:fColor <- $r3
	@DEBUG_VALUE: lt7381_put_char8x16:r_x <- undef
	.loc	3 0 17                          @ ../Device/Display/LCD/LCD_LT7381.c:0:17
	cmp	r1, #0
	csel	r1, r8, r3, pl
.Ltmp165:
	strh	r1, [r4]
.Ltmp166:
	.p2align	2
.LBB2_54:                               @   in Loop: Header=BB2_5 Depth=2
	@DEBUG_VALUE: lt7381_put_char8x16:j <- 6
	@DEBUG_VALUE: lt7381_put_char8x16:r_y <- $r0
	@DEBUG_VALUE: lt7381_put_char8x16:i <- [DW_OP_plus_uconst 4] [$sp+0]
	@DEBUG_VALUE: lt7381_put_char8x16:c <- [DW_OP_LLVM_entry_value 1] $r2
	@DEBUG_VALUE: lt7381_put_char8x16:y <- [DW_OP_LLVM_entry_value 1] $r1
	@DEBUG_VALUE: lt7381_put_char8x16:x <- [DW_OP_LLVM_entry_value 1] $r0
	@DEBUG_VALUE: lt7381_put_char8x16:fColor <- $r3
	@DEBUG_VALUE: lt7381_put_char8x16:j <- 7
	@DEBUG_VALUE: lt7381_put_char8x16:r_x <- 0
	.loc	3 705 17                        @ ../Device/Display/LCD/LCD_LT7381.c:705:17
	cmp	r2, #3
.Ltmp167:
	@DEBUG_VALUE: lt7381_put_char8x16:m <- [DW_OP_constu 7, DW_OP_shl, DW_OP_stack_value] undef
	blo	.LBB2_57
.Ltmp168:
@ %bb.55:                               @   in Loop: Header=BB2_5 Depth=2
	@DEBUG_VALUE: lt7381_put_char8x16:j <- 7
	@DEBUG_VALUE: lt7381_put_char8x16:r_x <- 0
	@DEBUG_VALUE: lt7381_put_char8x16:r_y <- $r0
	@DEBUG_VALUE: lt7381_put_char8x16:i <- [DW_OP_plus_uconst 4] [$sp+0]
	@DEBUG_VALUE: lt7381_put_char8x16:c <- [DW_OP_LLVM_entry_value 1] $r2
	@DEBUG_VALUE: lt7381_put_char8x16:y <- [DW_OP_LLVM_entry_value 1] $r1
	@DEBUG_VALUE: lt7381_put_char8x16:x <- [DW_OP_LLVM_entry_value 1] $r0
	@DEBUG_VALUE: lt7381_put_char8x16:fColor <- $r3
	dls	lr, r9
	lsls	r1, r7, #31
	csel	r1, r8, r3, eq
.Ltmp169:
	.loc	3 0 17                          @ :0:17
.Ltmp170:
	.p2align	2
.LBB2_56:                               @   Parent Loop BB2_2 Depth=1
                                        @     Parent Loop BB2_5 Depth=2
                                        @ =>    This Inner Loop Header: Depth=3
	@DEBUG_VALUE: lt7381_put_char8x16:j <- 7
	@DEBUG_VALUE: lt7381_put_char8x16:r_y <- $r0
	@DEBUG_VALUE: lt7381_put_char8x16:i <- [DW_OP_plus_uconst 4] [$sp+0]
	@DEBUG_VALUE: lt7381_put_char8x16:c <- [DW_OP_LLVM_entry_value 1] $r2
	@DEBUG_VALUE: lt7381_put_char8x16:y <- [DW_OP_LLVM_entry_value 1] $r1
	@DEBUG_VALUE: lt7381_put_char8x16:x <- [DW_OP_LLVM_entry_value 1] $r0
	@DEBUG_VALUE: lt7381_put_char8x16:fColor <- $r3
	@DEBUG_VALUE: lt7381_put_char8x16:r_x <- undef
	strh	r1, [r4]
	strh	r1, [r4]
	strh	r1, [r4]
	strh	r1, [r4]
.Ltmp171:
	.loc	3 705 17                        @ ../Device/Display/LCD/LCD_LT7381.c:705:17
	le	lr, .LBB2_56
.Ltmp172:
.LBB2_57:                               @   in Loop: Header=BB2_5 Depth=2
	@DEBUG_VALUE: lt7381_put_char8x16:j <- 7
	@DEBUG_VALUE: lt7381_put_char8x16:r_y <- $r0
	@DEBUG_VALUE: lt7381_put_char8x16:i <- [DW_OP_plus_uconst 4] [$sp+0]
	@DEBUG_VALUE: lt7381_put_char8x16:c <- [DW_OP_LLVM_entry_value 1] $r2
	@DEBUG_VALUE: lt7381_put_char8x16:y <- [DW_OP_LLVM_entry_value 1] $r1
	@DEBUG_VALUE: lt7381_put_char8x16:x <- [DW_OP_LLVM_entry_value 1] $r0
	@DEBUG_VALUE: lt7381_put_char8x16:fColor <- $r3
	cmp	r6, #0
	beq.w	.LBB2_4
.Ltmp173:
@ %bb.58:                               @   in Loop: Header=BB2_5 Depth=2
	@DEBUG_VALUE: lt7381_put_char8x16:j <- 7
	@DEBUG_VALUE: lt7381_put_char8x16:r_y <- $r0
	@DEBUG_VALUE: lt7381_put_char8x16:i <- [DW_OP_plus_uconst 4] [$sp+0]
	@DEBUG_VALUE: lt7381_put_char8x16:c <- [DW_OP_LLVM_entry_value 1] $r2
	@DEBUG_VALUE: lt7381_put_char8x16:y <- [DW_OP_LLVM_entry_value 1] $r1
	@DEBUG_VALUE: lt7381_put_char8x16:x <- [DW_OP_LLVM_entry_value 1] $r0
	@DEBUG_VALUE: lt7381_put_char8x16:fColor <- $r3
	@DEBUG_VALUE: lt7381_put_char8x16:r_x <- undef
	.loc	3 0 17                          @ ../Device/Display/LCD/LCD_LT7381.c:0:17
	lsls	r1, r7, #31
	csel	r7, r8, r3, eq
	.loc	3 705 17                        @ ../Device/Display/LCD/LCD_LT7381.c:705:17
	cmp	r6, #1
.Ltmp174:
	.loc	3 0 0                           @ ../Device/Display/LCD/LCD_LT7381.c:0:0
	strh	r7, [r4]
.Ltmp175:
	.loc	3 705 17                        @ ../Device/Display/LCD/LCD_LT7381.c:705:17
	beq.w	.LBB2_4
.Ltmp176:
@ %bb.59:                               @   in Loop: Header=BB2_5 Depth=2
	@DEBUG_VALUE: lt7381_put_char8x16:j <- 7
	@DEBUG_VALUE: lt7381_put_char8x16:r_y <- $r0
	@DEBUG_VALUE: lt7381_put_char8x16:i <- [DW_OP_plus_uconst 4] [$sp+0]
	@DEBUG_VALUE: lt7381_put_char8x16:c <- [DW_OP_LLVM_entry_value 1] $r2
	@DEBUG_VALUE: lt7381_put_char8x16:y <- [DW_OP_LLVM_entry_value 1] $r1
	@DEBUG_VALUE: lt7381_put_char8x16:x <- [DW_OP_LLVM_entry_value 1] $r0
	@DEBUG_VALUE: lt7381_put_char8x16:fColor <- $r3
	@DEBUG_VALUE: lt7381_put_char8x16:r_x <- undef
	.loc	3 0 17                          @ ../Device/Display/LCD/LCD_LT7381.c:0:17
	cmp	r1, #0
	csel	r7, r8, r3, eq
	.loc	3 705 17                        @ ../Device/Display/LCD/LCD_LT7381.c:705:17
	cmp	r6, #2
.Ltmp177:
	.loc	3 0 0                           @ ../Device/Display/LCD/LCD_LT7381.c:0:0
	strh	r7, [r4]
.Ltmp178:
	.loc	3 705 17                        @ ../Device/Display/LCD/LCD_LT7381.c:705:17
	beq.w	.LBB2_4
.Ltmp179:
@ %bb.60:                               @   in Loop: Header=BB2_5 Depth=2
	@DEBUG_VALUE: lt7381_put_char8x16:j <- 7
	@DEBUG_VALUE: lt7381_put_char8x16:r_y <- $r0
	@DEBUG_VALUE: lt7381_put_char8x16:i <- [DW_OP_plus_uconst 4] [$sp+0]
	@DEBUG_VALUE: lt7381_put_char8x16:c <- [DW_OP_LLVM_entry_value 1] $r2
	@DEBUG_VALUE: lt7381_put_char8x16:y <- [DW_OP_LLVM_entry_value 1] $r1
	@DEBUG_VALUE: lt7381_put_char8x16:x <- [DW_OP_LLVM_entry_value 1] $r0
	@DEBUG_VALUE: lt7381_put_char8x16:fColor <- $r3
	@DEBUG_VALUE: lt7381_put_char8x16:r_x <- undef
	.loc	3 0 17                          @ ../Device/Display/LCD/LCD_LT7381.c:0:17
	cmp	r1, #0
	csel	r1, r8, r3, eq
.Ltmp180:
	strh	r1, [r4]
	b	.LBB2_4
.Ltmp181:
.Lfunc_end2:
	.size	lt7381_put_char8x16, .Lfunc_end2-lt7381_put_char8x16
	.cfi_endproc
	.cantunwind
	.fnend
                                        @ -- End function
	.section	.text.lt7381_set_column,"ax",%progbits
	.p2align	2                               @ -- Begin function lt7381_set_column
	.type	lt7381_set_column,%function
	.code	16                              @ @lt7381_set_column
	.thumb_func
lt7381_set_column:
.Lfunc_begin3:
	.loc	3 540 0 is_stmt 1               @ ../Device/Display/LCD/LCD_LT7381.c:540:0
	.fnstart
	.cfi_startproc
@ %bb.0:
	@DEBUG_VALUE: lt7381_set_column:StartCol <- $r0
	@DEBUG_VALUE: lt7381_set_column:EndCol <- $r1
	.save	{r7, lr}
	push	{r7, lr}
	.cfi_def_cfa_offset 8
	.cfi_offset lr, -4
	.cfi_offset r7, -8
.Ltmp182:
	.loc	3 541 31 prologue_end           @ ../Device/Display/LCD/LCD_LT7381.c:541:31
	sub.w	r12, r1, r0
	mov.w	r2, #1610612736
	movs	r3, #86
.Ltmp183:
	@DEBUG_VALUE: lt7381_write_reg:data <- $r0
	@DEBUG_VALUE: lt7381_write_reg:reg <- 86
	.loc	3 0 31 is_stmt 0                @ ../Device/Display/LCD/LCD_LT7381.c:0:31
	movs	r1, #2
.Ltmp184:
	@DEBUG_VALUE: lt7381_set_column:EndCol <- [DW_OP_LLVM_entry_value 1] $r1
	.loc	3 199 5 is_stmt 1               @ ../Device/Display/LCD/LCD_LT7381.c:199:5
	strh	r3, [r2]
	.loc	3 202 5                         @ ../Device/Display/LCD/LCD_LT7381.c:202:5
	uxtb	r3, r0
	movt	r1, #24576
	mov.w	lr, #87
.Ltmp185:
	.loc	3 544 37                        @ ../Device/Display/LCD/LCD_LT7381.c:544:37
	lsrs	r0, r0, #8
.Ltmp186:
	@DEBUG_VALUE: lt7381_set_column:StartCol <- [DW_OP_LLVM_entry_value 1] $r0
	.loc	3 202 5                         @ ../Device/Display/LCD/LCD_LT7381.c:202:5
	strh	r3, [r1]
.Ltmp187:
	.loc	3 541 42                        @ ../Device/Display/LCD/LCD_LT7381.c:541:42
	add.w	r3, r12, #1
.Ltmp188:
	@DEBUG_VALUE: lt7381_set_column:ActiveX <- $r3
	@DEBUG_VALUE: lt7381_write_reg:reg <- 87
	@DEBUG_VALUE: lt7381_write_reg:data <- $r0
	.loc	3 199 5                         @ ../Device/Display/LCD/LCD_LT7381.c:199:5
	strh.w	lr, [r2]
	.loc	3 202 5                         @ ../Device/Display/LCD/LCD_LT7381.c:202:5
	strh	r0, [r1]
	movs	r0, #90
.Ltmp189:
	@DEBUG_VALUE: lt7381_write_reg:data <- $r3
	@DEBUG_VALUE: lt7381_write_reg:reg <- 90
	.loc	3 199 5                         @ ../Device/Display/LCD/LCD_LT7381.c:199:5
	strh	r0, [r2]
	.loc	3 202 5                         @ ../Device/Display/LCD/LCD_LT7381.c:202:5
	uxtb	r0, r3
.Ltmp190:
	.loc	3 541 42                        @ ../Device/Display/LCD/LCD_LT7381.c:541:42
	uxth	r3, r3
.Ltmp191:
	.loc	3 202 5                         @ ../Device/Display/LCD/LCD_LT7381.c:202:5
	strh	r0, [r1]
.Ltmp192:
	@DEBUG_VALUE: lt7381_write_reg:reg <- 90
	.loc	3 546 36                        @ ../Device/Display/LCD/LCD_LT7381.c:546:36
	lsrs	r0, r3, #8
	movs	r3, #91
.Ltmp193:
	@DEBUG_VALUE: lt7381_write_reg:reg <- 91
	@DEBUG_VALUE: lt7381_write_reg:data <- $r0
	.loc	3 199 5                         @ ../Device/Display/LCD/LCD_LT7381.c:199:5
	strh	r3, [r2]
	.loc	3 202 5                         @ ../Device/Display/LCD/LCD_LT7381.c:202:5
	strh	r0, [r1]
.Ltmp194:
	.loc	3 547 1 epilogue_begin          @ ../Device/Display/LCD/LCD_LT7381.c:547:1
	pop	{r7, pc}
.Ltmp195:
.Lfunc_end3:
	.size	lt7381_set_column, .Lfunc_end3-lt7381_set_column
	.cfi_endproc
	.cantunwind
	.fnend
                                        @ -- End function
	.section	.text.lt7381_init,"ax",%progbits
	.p2align	2                               @ -- Begin function lt7381_init
	.type	lt7381_init,%function
	.code	16                              @ @lt7381_init
	.thumb_func
lt7381_init:
.Lfunc_begin4:
	.loc	3 510 0                         @ ../Device/Display/LCD/LCD_LT7381.c:510:0
	.fnstart
	.cfi_startproc
@ %bb.0:
	.save	{r4, r5, r6, r7, r8, r9, r10, r11, lr}
	push.w	{r4, r5, r6, r7, r8, r9, r10, r11, lr}
	.cfi_def_cfa_offset 36
	.cfi_offset lr, -4
	.cfi_offset r11, -8
	.cfi_offset r10, -12
	.cfi_offset r9, -16
	.cfi_offset r8, -20
	.cfi_offset r7, -24
	.cfi_offset r6, -28
	.cfi_offset r5, -32
	.cfi_offset r4, -36
	.pad	#4
	sub	sp, #4
	.cfi_def_cfa_offset 40
	movw	r8, #39384
	movs	r6, #1
	movt	r8, #16418
	mov.w	r9, #0
	movw	r10, #2
.Ltmp196:
	.loc	3 515 5 prologue_end            @ ../Device/Display/LCD/LCD_LT7381.c:515:5
	movs	r0, #100
	.loc	3 511 5                         @ ../Device/Display/LCD/LCD_LT7381.c:511:5
	str.w	r6, [r8]
	movt	r10, #24576
	.loc	3 512 5                         @ ../Device/Display/LCD/LCD_LT7381.c:512:5
	str	r9, [r8, #-68]
	.loc	3 515 5                         @ ../Device/Display/LCD/LCD_LT7381.c:515:5
	bl	Display_Delay
.Ltmp197:
	.loc	3 114 5                         @ ../Device/Display/LCD/LCD_LT7381.c:114:5
	movs	r0, #50
	.loc	3 113 5                         @ ../Device/Display/LCD/LCD_LT7381.c:113:5
	str.w	r6, [r8]
	.loc	3 114 5                         @ ../Device/Display/LCD/LCD_LT7381.c:114:5
	bl	Display_Delay
.Ltmp198:
	.loc	3 116 5                         @ ../Device/Display/LCD/LCD_LT7381.c:116:5
	movs	r0, #50
	.loc	3 115 5                         @ ../Device/Display/LCD/LCD_LT7381.c:115:5
	str.w	r9, [r8]
	.loc	3 116 5                         @ ../Device/Display/LCD/LCD_LT7381.c:116:5
	bl	Display_Delay
.Ltmp199:
	.loc	3 118 5                         @ ../Device/Display/LCD/LCD_LT7381.c:118:5
	movs	r0, #50
	.loc	3 117 5                         @ ../Device/Display/LCD/LCD_LT7381.c:117:5
	str.w	r6, [r8]
	.loc	3 118 5                         @ ../Device/Display/LCD/LCD_LT7381.c:118:5
	bl	Display_Delay
.Ltmp200:
	.loc	3 517 5                         @ ../Device/Display/LCD/LCD_LT7381.c:517:5
	movs	r0, #100
	bl	Display_Delay
.Ltmp201:
	@DEBUG_VALUE: lt7381_wait_ready:u16RegData <- 0
	@DEBUG_VALUE: lt7381_wait_ready:i <- 0
	.loc	3 0 5 is_stmt 0                 @ ../Device/Display/LCD/LCD_LT7381.c:0:5
	mov.w	r4, #1610612736
	mov.w	r11, #128
	mvn	r5, #50
	movs	r7, #0
	b	.LBB4_3
	.p2align	2
.LBB4_1:                                @   in Loop: Header=BB4_3 Depth=1
.Ltmp202:
	@DEBUG_VALUE: lt7381_wait_ready:i <- $r7
	.loc	3 146 21 is_stmt 1              @ ../Device/Display/LCD/LCD_LT7381.c:146:21
	mul	r0, r7, r5
	uxtb	r0, r0
.Ltmp203:
	.loc	3 146 13 is_stmt 0              @ ../Device/Display/LCD/LCD_LT7381.c:146:13
	cmp	r0, #51
	bls	.LBB4_6
.Ltmp204:
.LBB4_2:                                @   in Loop: Header=BB4_3 Depth=1
	@DEBUG_VALUE: lt7381_wait_ready:i <- $r7
	.loc	3 149 10 is_stmt 1              @ ../Device/Display/LCD/LCD_LT7381.c:149:10
	adds	r7, #1
.Ltmp205:
	@DEBUG_VALUE: lt7381_wait_ready:i <- $r7
.LBB4_3:                                @ =>This Inner Loop Header: Depth=1
	@DEBUG_VALUE: lt7381_wait_ready:i <- $r7
	.loc	3 128 14                        @ ../Device/Display/LCD/LCD_LT7381.c:128:14
	ldrh	r0, [r4]
.Ltmp206:
	.loc	3 128 13 is_stmt 0              @ ../Device/Display/LCD/LCD_LT7381.c:128:13
	lsls	r0, r0, #30
	bmi	.LBB4_1
.Ltmp207:
@ %bb.4:                                @   in Loop: Header=BB4_3 Depth=1
	@DEBUG_VALUE: lt7381_wait_ready:i <- $r7
	.loc	3 130 13 is_stmt 1              @ ../Device/Display/LCD/LCD_LT7381.c:130:13
	movs	r0, #2
	bl	Display_Delay
.Ltmp208:
	.loc	3 131 13                        @ ../Device/Display/LCD/LCD_LT7381.c:131:13
	strh	r6, [r4]
	.loc	3 132 26                        @ ../Device/Display/LCD/LCD_LT7381.c:132:26
	ldrh.w	r0, [r10]
.Ltmp209:
	@DEBUG_VALUE: lt7381_wait_ready:u16RegData <- undef
	.loc	3 134 17                        @ ../Device/Display/LCD/LCD_LT7381.c:134:17
	lsls	r0, r0, #24
	bmi	.LBB4_7
.Ltmp210:
@ %bb.5:                                @   in Loop: Header=BB4_3 Depth=1
	@DEBUG_VALUE: lt7381_wait_ready:i <- $r7
	.loc	3 140 17                        @ ../Device/Display/LCD/LCD_LT7381.c:140:17
	movs	r0, #2
	bl	Display_Delay
.Ltmp211:
	.loc	3 141 17                        @ ../Device/Display/LCD/LCD_LT7381.c:141:17
	strh	r6, [r4]
	.loc	3 142 17                        @ ../Device/Display/LCD/LCD_LT7381.c:142:17
	strh.w	r11, [r10]
	b	.LBB4_1
.Ltmp212:
	.loc	3 0 17 is_stmt 0                @ :0:17
.Ltmp213:
	.p2align	2
.LBB4_6:                                @   in Loop: Header=BB4_3 Depth=1
	@DEBUG_VALUE: lt7381_wait_ready:i <- $r7
	.loc	3 114 5 is_stmt 1               @ ../Device/Display/LCD/LCD_LT7381.c:114:5
	movs	r0, #50
	.loc	3 113 5                         @ ../Device/Display/LCD/LCD_LT7381.c:113:5
	str.w	r6, [r8]
	.loc	3 114 5                         @ ../Device/Display/LCD/LCD_LT7381.c:114:5
	bl	Display_Delay
.Ltmp214:
	.loc	3 116 5                         @ ../Device/Display/LCD/LCD_LT7381.c:116:5
	movs	r0, #50
	.loc	3 115 5                         @ ../Device/Display/LCD/LCD_LT7381.c:115:5
	str.w	r9, [r8]
	.loc	3 116 5                         @ ../Device/Display/LCD/LCD_LT7381.c:116:5
	bl	Display_Delay
.Ltmp215:
	.loc	3 118 5                         @ ../Device/Display/LCD/LCD_LT7381.c:118:5
	movs	r0, #50
	.loc	3 117 5                         @ ../Device/Display/LCD/LCD_LT7381.c:117:5
	str.w	r6, [r8]
	.loc	3 118 5                         @ ../Device/Display/LCD/LCD_LT7381.c:118:5
	bl	Display_Delay
.Ltmp216:
	.loc	3 0 5 is_stmt 0                 @ ../Device/Display/LCD/LCD_LT7381.c:0:5
	b	.LBB4_2
.Ltmp217:
.LBB4_7:
	@DEBUG_VALUE: lt7381_wait_ready:i <- $r7
	.loc	3 152 5 is_stmt 1               @ ../Device/Display/LCD/LCD_LT7381.c:152:5
	movs	r0, #100
	bl	Display_Delay
.Ltmp218:
	.loc	3 0 5 is_stmt 0                 @ ../Device/Display/LCD/LCD_LT7381.c:0:5
	mov.w	r0, #1610612736
.Ltmp219:
.LBB4_8:                                @ =>This Inner Loop Header: Depth=1
	@DEBUG_VALUE: lt7381_wait_ready:i <- $r7
	.loc	3 154 12 is_stmt 1              @ ../Device/Display/LCD/LCD_LT7381.c:154:12
	ldrh	r1, [r0]
	.loc	3 154 5 is_stmt 0               @ ../Device/Display/LCD/LCD_LT7381.c:154:5
	lsls	r1, r1, #30
	bpl	.LBB4_11
.Ltmp220:
@ %bb.9:                                @   in Loop: Header=BB4_8 Depth=1
	@DEBUG_VALUE: lt7381_wait_ready:i <- $r7
	.loc	3 154 12                        @ ../Device/Display/LCD/LCD_LT7381.c:154:12
	ldrh	r1, [r0]
	.loc	3 154 5                         @ ../Device/Display/LCD/LCD_LT7381.c:154:5
	lsls	r1, r1, #30
	.loc	3 154 12                        @ ../Device/Display/LCD/LCD_LT7381.c:154:12
	itt	mi
	ldrhmi	r1, [r0]
	.loc	3 154 5                         @ ../Device/Display/LCD/LCD_LT7381.c:154:5
	lslsmi.w	r1, r1, #30
	bpl	.LBB4_11
.Ltmp221:
@ %bb.10:                               @   in Loop: Header=BB4_8 Depth=1
	@DEBUG_VALUE: lt7381_wait_ready:i <- $r7
	.loc	3 154 12                        @ ../Device/Display/LCD/LCD_LT7381.c:154:12
	ldrh	r1, [r0]
	.loc	3 154 5                         @ ../Device/Display/LCD/LCD_LT7381.c:154:5
	lsls	r1, r1, #30
	bmi	.LBB4_8
.Ltmp222:
.LBB4_11:
	.loc	3 0 5                           @ ../Device/Display/LCD/LCD_LT7381.c:0:5
	mov.w	r6, #1610612736
	movs	r4, #0
	movs	r7, #1
.Ltmp223:
	.loc	3 161 5 is_stmt 1               @ ../Device/Display/LCD/LCD_LT7381.c:161:5
	movs	r0, #100
	.loc	3 159 5                         @ ../Device/Display/LCD/LCD_LT7381.c:159:5
	strh	r4, [r6]
	movs	r5, #100
	.loc	3 160 5                         @ ../Device/Display/LCD/LCD_LT7381.c:160:5
	strh.w	r7, [r10]
	.loc	3 161 5                         @ ../Device/Display/LCD/LCD_LT7381.c:161:5
	bl	Display_Delay
.Ltmp224:
	.loc	3 0 5 is_stmt 0                 @ ../Device/Display/LCD/LCD_LT7381.c:0:5
	movs	r0, #5
	movs	r1, #7
.Ltmp225:
	.loc	3 166 5 is_stmt 1               @ ../Device/Display/LCD/LCD_LT7381.c:166:5
	strh	r0, [r6]
	movs	r0, #198
	.loc	3 167 5                         @ ../Device/Display/LCD/LCD_LT7381.c:167:5
	strh.w	r0, [r10]
	.loc	3 171 5                         @ ../Device/Display/LCD/LCD_LT7381.c:171:5
	strh	r1, [r6]
	movs	r1, #9
	.loc	3 172 5                         @ ../Device/Display/LCD/LCD_LT7381.c:172:5
	strh.w	r0, [r10]
	.loc	3 176 5                         @ ../Device/Display/LCD/LCD_LT7381.c:176:5
	strh	r1, [r6]
	.loc	3 177 5                         @ ../Device/Display/LCD/LCD_LT7381.c:177:5
	strh.w	r0, [r10]
	movs	r0, #6
	.loc	3 181 5                         @ ../Device/Display/LCD/LCD_LT7381.c:181:5
	strh	r0, [r6]
	movs	r0, #35
	.loc	3 182 5                         @ ../Device/Display/LCD/LCD_LT7381.c:182:5
	strh.w	r0, [r10]
	movs	r0, #8
	.loc	3 184 5                         @ ../Device/Display/LCD/LCD_LT7381.c:184:5
	strh	r0, [r6]
	movs	r0, #10
	.loc	3 185 5                         @ ../Device/Display/LCD/LCD_LT7381.c:185:5
	strh.w	r5, [r10]
	.loc	3 187 5                         @ ../Device/Display/LCD/LCD_LT7381.c:187:5
	strh	r0, [r6]
	.loc	3 191 5                         @ ../Device/Display/LCD/LCD_LT7381.c:191:5
	movs	r0, #1
	.loc	3 188 5                         @ ../Device/Display/LCD/LCD_LT7381.c:188:5
	strh.w	r5, [r10]
	.loc	3 190 5                         @ ../Device/Display/LCD/LCD_LT7381.c:190:5
	strh	r4, [r6]
	.loc	3 191 5                         @ ../Device/Display/LCD/LCD_LT7381.c:191:5
	bl	Display_Delay
.Ltmp226:
	.loc	3 0 5 is_stmt 0                 @ ../Device/Display/LCD/LCD_LT7381.c:0:5
	movs	r0, #128
	.loc	3 192 5 is_stmt 1               @ ../Device/Display/LCD/LCD_LT7381.c:192:5
	strh.w	r0, [r10]
	.loc	3 193 5                         @ ../Device/Display/LCD/LCD_LT7381.c:193:5
	movs	r0, #1
	bl	Display_Delay
.Ltmp227:
	.loc	3 0 5 is_stmt 0                 @ ../Device/Display/LCD/LCD_LT7381.c:0:5
	movs	r0, #224
.Ltmp228:
	@DEBUG_VALUE: lt7381_write_reg:data <- 32
	@DEBUG_VALUE: lt7381_write_reg:reg <- 224
	movs	r1, #226
.Ltmp229:
	@DEBUG_VALUE: lt7381_write_reg:data <- 779
	@DEBUG_VALUE: lt7381_write_reg:reg <- 226
	.loc	3 199 5 is_stmt 1               @ ../Device/Display/LCD/LCD_LT7381.c:199:5
	strh	r0, [r6]
	movs	r0, #32
	.loc	3 202 5                         @ ../Device/Display/LCD/LCD_LT7381.c:202:5
	strh.w	r0, [r10]
	movs	r0, #225
.Ltmp230:
	@DEBUG_VALUE: lt7381_write_reg:data <- 3
	@DEBUG_VALUE: lt7381_write_reg:reg <- 225
	.loc	3 199 5                         @ ../Device/Display/LCD/LCD_LT7381.c:199:5
	strh	r0, [r6]
	movs	r0, #3
	.loc	3 202 5                         @ ../Device/Display/LCD/LCD_LT7381.c:202:5
	strh.w	r0, [r10]
.Ltmp231:
	.loc	3 199 5                         @ ../Device/Display/LCD/LCD_LT7381.c:199:5
	strh	r1, [r6]
	movs	r1, #11
	.loc	3 202 5                         @ ../Device/Display/LCD/LCD_LT7381.c:202:5
	strh.w	r1, [r10]
	movs	r1, #227
.Ltmp232:
	@DEBUG_VALUE: lt7381_write_reg:data <- 3
	@DEBUG_VALUE: lt7381_write_reg:reg <- 227
	.loc	3 199 5                         @ ../Device/Display/LCD/LCD_LT7381.c:199:5
	strh	r1, [r6]
	.loc	3 202 5                         @ ../Device/Display/LCD/LCD_LT7381.c:202:5
	strh.w	r0, [r10]
	movs	r0, #228
.Ltmp233:
	@DEBUG_VALUE: lt7381_write_reg:data <- 1
	@DEBUG_VALUE: lt7381_write_reg:reg <- 228
	.loc	3 199 5                         @ ../Device/Display/LCD/LCD_LT7381.c:199:5
	strh	r0, [r6]
	.loc	3 202 5                         @ ../Device/Display/LCD/LCD_LT7381.c:202:5
	strh.w	r7, [r10]
.Ltmp234:
.LBB4_12:                               @ =>This Inner Loop Header: Depth=1
	.loc	3 216 13                        @ ../Device/Display/LCD/LCD_LT7381.c:216:13
	ldrh	r0, [r6]
	.loc	3 216 5 is_stmt 0               @ ../Device/Display/LCD/LCD_LT7381.c:216:5
	lsls	r0, r0, #29
	bmi	.LBB4_15
@ %bb.13:                               @   in Loop: Header=BB4_12 Depth=1
	.loc	3 216 13                        @ ../Device/Display/LCD/LCD_LT7381.c:216:13
	ldrh	r0, [r6]
	.loc	3 216 5                         @ ../Device/Display/LCD/LCD_LT7381.c:216:5
	lsls	r0, r0, #29
	.loc	3 216 13                        @ ../Device/Display/LCD/LCD_LT7381.c:216:13
	itt	pl
	ldrhpl	r0, [r6]
	.loc	3 216 5                         @ ../Device/Display/LCD/LCD_LT7381.c:216:5
	lslspl.w	r0, r0, #29
	bmi	.LBB4_15
@ %bb.14:                               @   in Loop: Header=BB4_12 Depth=1
	.loc	3 216 13                        @ ../Device/Display/LCD/LCD_LT7381.c:216:13
	ldrh	r0, [r6]
	.loc	3 216 5                         @ ../Device/Display/LCD/LCD_LT7381.c:216:5
	lsls	r0, r0, #29
	bpl	.LBB4_12
.LBB4_15:
	.loc	3 218 5 is_stmt 1               @ ../Device/Display/LCD/LCD_LT7381.c:218:5
	movs	r0, #1
	movs	r6, #1
	bl	Display_Delay
.Ltmp235:
	.loc	3 0 5 is_stmt 0                 @ ../Device/Display/LCD/LCD_LT7381.c:0:5
	mov.w	r0, #1610612736
	movs	r3, #2
.Ltmp236:
	.loc	3 230 5 is_stmt 1               @ ../Device/Display/LCD/LCD_LT7381.c:230:5
	strh	r6, [r0]
	mov.w	r12, #3
	.loc	3 231 5                         @ ../Device/Display/LCD/LCD_LT7381.c:231:5
	ldrh.w	r1, [r10]
	movs	r7, #18
	movs	r5, #19
	movs	r4, #26
.Ltmp237:
	@DEBUG_VALUE: lt7381_write_reg:data <- 479
	@DEBUG_VALUE: lt7381_write_reg:reg <- 26
	orr	r1, r1, #16
	bic	r1, r1, #8
	strh.w	r1, [r10]
	.loc	3 237 5                         @ ../Device/Display/LCD/LCD_LT7381.c:237:5
	strh	r6, [r0]
	.loc	3 238 5                         @ ../Device/Display/LCD/LCD_LT7381.c:238:5
	ldrh.w	r1, [r10]
	orr	r1, r1, #1
	strh.w	r1, [r10]
	.loc	3 242 5                         @ ../Device/Display/LCD/LCD_LT7381.c:242:5
	strh	r3, [r0]
	.loc	3 243 5                         @ ../Device/Display/LCD/LCD_LT7381.c:243:5
	ldrh.w	r1, [r10]
	orr	r1, r1, #64
	bic	r1, r1, #128
	strh.w	r1, [r10]
	.loc	3 246 5                         @ ../Device/Display/LCD/LCD_LT7381.c:246:5
	strh	r3, [r0]
	.loc	3 247 5                         @ ../Device/Display/LCD/LCD_LT7381.c:247:5
	ldrh.w	r1, [r10]
	bic	r1, r1, #6
	strh.w	r1, [r10]
	movs	r1, #23
.Ltmp238:
	@DEBUG_VALUE: lt7381_write_reg:data <- 4
	@DEBUG_VALUE: lt7381_write_reg:reg <- 23
	.loc	3 251 5                         @ ../Device/Display/LCD/LCD_LT7381.c:251:5
	strh.w	r12, [r0]
	.loc	3 252 5                         @ ../Device/Display/LCD/LCD_LT7381.c:252:5
	ldrh.w	r2, [r10]
	bic	r2, r2, #4
	strh.w	r2, [r10]
	.loc	3 255 5                         @ ../Device/Display/LCD/LCD_LT7381.c:255:5
	strh.w	r12, [r0]
	.loc	3 256 5                         @ ../Device/Display/LCD/LCD_LT7381.c:256:5
	ldrh.w	r2, [r10]
	bic	r2, r2, #3
	strh.w	r2, [r10]
	.loc	3 264 5                         @ ../Device/Display/LCD/LCD_LT7381.c:264:5
	strh	r7, [r0]
	.loc	3 265 5                         @ ../Device/Display/LCD/LCD_LT7381.c:265:5
	ldrh.w	r2, [r10]
	orr	r2, r2, #128
	strh.w	r2, [r10]
	.loc	3 273 5                         @ ../Device/Display/LCD/LCD_LT7381.c:273:5
	strh	r7, [r0]
	.loc	3 274 5                         @ ../Device/Display/LCD/LCD_LT7381.c:274:5
	ldrh.w	r2, [r10]
	bic	r2, r2, #8
	strh.w	r2, [r10]
	.loc	3 285 5                         @ ../Device/Display/LCD/LCD_LT7381.c:285:5
	strh	r7, [r0]
	.loc	3 286 5                         @ ../Device/Display/LCD/LCD_LT7381.c:286:5
	ldrh.w	r2, [r10]
	bic	r2, r2, #7
	strh.w	r2, [r10]
	.loc	3 294 5                         @ ../Device/Display/LCD/LCD_LT7381.c:294:5
	strh	r5, [r0]
	.loc	3 295 5                         @ ../Device/Display/LCD/LCD_LT7381.c:295:5
	ldrh.w	r2, [r10]
	bic	r2, r2, #128
	strh.w	r2, [r10]
	.loc	3 302 5                         @ ../Device/Display/LCD/LCD_LT7381.c:302:5
	strh	r5, [r0]
	.loc	3 303 5                         @ ../Device/Display/LCD/LCD_LT7381.c:303:5
	ldrh.w	r2, [r10]
	bic	r2, r2, #64
	strh.w	r2, [r10]
	.loc	3 310 5                         @ ../Device/Display/LCD/LCD_LT7381.c:310:5
	strh	r5, [r0]
	.loc	3 311 5                         @ ../Device/Display/LCD/LCD_LT7381.c:311:5
	ldrh.w	r2, [r10]
	bic	r2, r2, #32
	strh.w	r2, [r10]
	movs	r2, #20
.Ltmp239:
	@DEBUG_VALUE: lt7381_write_reg:data <- 99
	@DEBUG_VALUE: lt7381_write_reg:reg <- 20
	.loc	3 199 5                         @ ../Device/Display/LCD/LCD_LT7381.c:199:5
	strh	r2, [r0]
	movs	r2, #99
	.loc	3 202 5                         @ ../Device/Display/LCD/LCD_LT7381.c:202:5
	strh.w	r2, [r10]
	movs	r2, #21
.Ltmp240:
	@DEBUG_VALUE: lt7381_write_reg:data <- 0
	@DEBUG_VALUE: lt7381_write_reg:reg <- 21
	.loc	3 199 5                         @ ../Device/Display/LCD/LCD_LT7381.c:199:5
	strh	r2, [r0]
	movs	r2, #0
	.loc	3 202 5                         @ ../Device/Display/LCD/LCD_LT7381.c:202:5
	strh.w	r2, [r10]
.Ltmp241:
	.loc	3 199 5                         @ ../Device/Display/LCD/LCD_LT7381.c:199:5
	strh	r4, [r0]
	movs	r4, #223
	.loc	3 202 5                         @ ../Device/Display/LCD/LCD_LT7381.c:202:5
	strh.w	r4, [r10]
	movs	r4, #27
.Ltmp242:
	@DEBUG_VALUE: lt7381_write_reg:data <- 1
	@DEBUG_VALUE: lt7381_write_reg:reg <- 27
	.loc	3 199 5                         @ ../Device/Display/LCD/LCD_LT7381.c:199:5
	strh	r4, [r0]
	movs	r4, #22
.Ltmp243:
	@DEBUG_VALUE: lt7381_write_reg:data <- 16
	@DEBUG_VALUE: lt7381_write_reg:reg <- 22
	.loc	3 202 5                         @ ../Device/Display/LCD/LCD_LT7381.c:202:5
	strh.w	r6, [r10]
.Ltmp244:
	.loc	3 199 5                         @ ../Device/Display/LCD/LCD_LT7381.c:199:5
	strh	r4, [r0]
	movs	r4, #16
	.loc	3 202 5                         @ ../Device/Display/LCD/LCD_LT7381.c:202:5
	strh.w	r4, [r10]
.Ltmp245:
	.loc	3 199 5                         @ ../Device/Display/LCD/LCD_LT7381.c:199:5
	strh	r1, [r0]
	movs	r1, #4
	.loc	3 202 5                         @ ../Device/Display/LCD/LCD_LT7381.c:202:5
	strh.w	r1, [r10]
	movs	r1, #24
.Ltmp246:
	@DEBUG_VALUE: lt7381_write_reg:data <- 19
	@DEBUG_VALUE: lt7381_write_reg:reg <- 24
	.loc	3 199 5                         @ ../Device/Display/LCD/LCD_LT7381.c:199:5
	strh	r1, [r0]
	movs	r1, #25
.Ltmp247:
	@DEBUG_VALUE: lt7381_write_reg:data <- 1
	@DEBUG_VALUE: lt7381_write_reg:reg <- 25
	.loc	3 202 5                         @ ../Device/Display/LCD/LCD_LT7381.c:202:5
	strh.w	r5, [r10]
.Ltmp248:
	.loc	3 199 5                         @ ../Device/Display/LCD/LCD_LT7381.c:199:5
	strh	r1, [r0]
	movs	r1, #28
.Ltmp249:
	@DEBUG_VALUE: lt7381_write_reg:data <- 19
	@DEBUG_VALUE: lt7381_write_reg:reg <- 28
	.loc	3 202 5                         @ ../Device/Display/LCD/LCD_LT7381.c:202:5
	strh.w	r6, [r10]
.Ltmp250:
	.loc	3 199 5                         @ ../Device/Display/LCD/LCD_LT7381.c:199:5
	strh	r1, [r0]
	movs	r1, #29
.Ltmp251:
	@DEBUG_VALUE: lt7381_write_reg:data <- 0
	@DEBUG_VALUE: lt7381_write_reg:reg <- 29
	.loc	3 202 5                         @ ../Device/Display/LCD/LCD_LT7381.c:202:5
	strh.w	r5, [r10]
.Ltmp252:
	.loc	3 199 5                         @ ../Device/Display/LCD/LCD_LT7381.c:199:5
	strh	r1, [r0]
	movs	r1, #30
.Ltmp253:
	@DEBUG_VALUE: lt7381_write_reg:data <- 11
	@DEBUG_VALUE: lt7381_write_reg:reg <- 30
	.loc	3 202 5                         @ ../Device/Display/LCD/LCD_LT7381.c:202:5
	strh.w	r2, [r10]
.Ltmp254:
	.loc	3 199 5                         @ ../Device/Display/LCD/LCD_LT7381.c:199:5
	strh	r1, [r0]
	movs	r1, #11
	.loc	3 202 5                         @ ../Device/Display/LCD/LCD_LT7381.c:202:5
	strh.w	r1, [r10]
	movs	r1, #31
.Ltmp255:
	@DEBUG_VALUE: lt7381_write_reg:data <- 2
	@DEBUG_VALUE: lt7381_write_reg:reg <- 31
	.loc	3 199 5                         @ ../Device/Display/LCD/LCD_LT7381.c:199:5
	strh	r1, [r0]
	.loc	3 202 5                         @ ../Device/Display/LCD/LCD_LT7381.c:202:5
	strh.w	r3, [r10]
	movs	r3, #94
.Ltmp256:
	.loc	3 382 5                         @ ../Device/Display/LCD/LCD_LT7381.c:382:5
	strh	r3, [r0]
	.loc	3 383 5                         @ ../Device/Display/LCD/LCD_LT7381.c:383:5
	ldrh.w	r1, [r10]
	bic	r1, r1, #4
	strh.w	r1, [r10]
	.loc	3 396 5                         @ ../Device/Display/LCD/LCD_LT7381.c:396:5
	strh	r3, [r0]
	.loc	3 397 5                         @ ../Device/Display/LCD/LCD_LT7381.c:397:5
	ldrh.w	r1, [r10]
	orr	r1, r1, #1
	bic	r1, r1, #2
	strh.w	r1, [r10]
.Ltmp257:
	@DEBUG_VALUE: lt7381_display_on:temp <- [DW_OP_plus_uconst 2, DW_OP_deref] $sp
	.loc	3 409 5                         @ ../Device/Display/LCD/LCD_LT7381.c:409:5
	strh	r7, [r0]
	movs	r7, #32
.Ltmp258:
	@DEBUG_VALUE: lt7381_write_reg:data <- 0
	@DEBUG_VALUE: lt7381_write_reg:reg <- 32
	.loc	3 410 12                        @ ../Device/Display/LCD/LCD_LT7381.c:410:12
	ldrh.w	r1, [r10]
	.loc	3 410 10 is_stmt 0              @ ../Device/Display/LCD/LCD_LT7381.c:410:10
	strh.w	r1, [sp, #2]
	.loc	3 411 10 is_stmt 1              @ ../Device/Display/LCD/LCD_LT7381.c:411:10
	ldrh.w	r1, [sp, #2]
	orr	r1, r1, #64
	strh.w	r1, [sp, #2]
	.loc	3 412 5                         @ ../Device/Display/LCD/LCD_LT7381.c:412:5
	ldrh.w	r1, [sp, #2]
	strh.w	r1, [r10]
.Ltmp259:
	.loc	3 424 5                         @ ../Device/Display/LCD/LCD_LT7381.c:424:5
	strh	r4, [r0]
	.loc	3 425 5                         @ ../Device/Display/LCD/LCD_LT7381.c:425:5
	ldrh.w	r1, [r10]
	orr	r1, r1, #4
	bic	r1, r1, #8
	strh.w	r1, [r10]
	movs	r1, #33
.Ltmp260:
	@DEBUG_VALUE: lt7381_write_reg:data <- 0
	@DEBUG_VALUE: lt7381_write_reg:reg <- 33
	.loc	3 199 5                         @ ../Device/Display/LCD/LCD_LT7381.c:199:5
	strh	r7, [r0]
	.loc	3 202 5                         @ ../Device/Display/LCD/LCD_LT7381.c:202:5
	strh.w	r2, [r10]
.Ltmp261:
	.loc	3 199 5                         @ ../Device/Display/LCD/LCD_LT7381.c:199:5
	strh	r1, [r0]
	movs	r1, #34
.Ltmp262:
	@DEBUG_VALUE: lt7381_write_reg:data <- 0
	@DEBUG_VALUE: lt7381_write_reg:reg <- 34
	.loc	3 202 5                         @ ../Device/Display/LCD/LCD_LT7381.c:202:5
	strh.w	r2, [r10]
.Ltmp263:
	.loc	3 199 5                         @ ../Device/Display/LCD/LCD_LT7381.c:199:5
	strh	r1, [r0]
	movs	r1, #35
.Ltmp264:
	@DEBUG_VALUE: lt7381_write_reg:data <- 0
	@DEBUG_VALUE: lt7381_write_reg:reg <- 35
	.loc	3 202 5                         @ ../Device/Display/LCD/LCD_LT7381.c:202:5
	strh.w	r2, [r10]
.Ltmp265:
	.loc	3 199 5                         @ ../Device/Display/LCD/LCD_LT7381.c:199:5
	strh	r1, [r0]
	movs	r1, #36
.Ltmp266:
	@DEBUG_VALUE: lt7381_write_reg:data <- 800
	@DEBUG_VALUE: lt7381_write_reg:reg <- 36
	.loc	3 202 5                         @ ../Device/Display/LCD/LCD_LT7381.c:202:5
	strh.w	r2, [r10]
.Ltmp267:
	.loc	3 199 5                         @ ../Device/Display/LCD/LCD_LT7381.c:199:5
	strh	r1, [r0]
	movs	r1, #37
.Ltmp268:
	@DEBUG_VALUE: lt7381_write_reg:data <- 3
	@DEBUG_VALUE: lt7381_write_reg:reg <- 37
	.loc	3 202 5                         @ ../Device/Display/LCD/LCD_LT7381.c:202:5
	strh.w	r7, [r10]
.Ltmp269:
	.loc	3 199 5                         @ ../Device/Display/LCD/LCD_LT7381.c:199:5
	strh	r1, [r0]
	movs	r1, #38
.Ltmp270:
	@DEBUG_VALUE: lt7381_write_reg:data <- 0
	@DEBUG_VALUE: lt7381_write_reg:reg <- 38
	.loc	3 202 5                         @ ../Device/Display/LCD/LCD_LT7381.c:202:5
	strh.w	r12, [r10]
.Ltmp271:
	.loc	3 199 5                         @ ../Device/Display/LCD/LCD_LT7381.c:199:5
	strh	r1, [r0]
	movs	r1, #39
.Ltmp272:
	@DEBUG_VALUE: lt7381_write_reg:data <- 0
	@DEBUG_VALUE: lt7381_write_reg:reg <- 39
	.loc	3 202 5                         @ ../Device/Display/LCD/LCD_LT7381.c:202:5
	strh.w	r2, [r10]
.Ltmp273:
	.loc	3 199 5                         @ ../Device/Display/LCD/LCD_LT7381.c:199:5
	strh	r1, [r0]
	movs	r1, #40
.Ltmp274:
	@DEBUG_VALUE: lt7381_write_reg:data <- 0
	@DEBUG_VALUE: lt7381_write_reg:reg <- 40
	.loc	3 202 5                         @ ../Device/Display/LCD/LCD_LT7381.c:202:5
	strh.w	r2, [r10]
.Ltmp275:
	.loc	3 199 5                         @ ../Device/Display/LCD/LCD_LT7381.c:199:5
	strh	r1, [r0]
	movs	r1, #41
.Ltmp276:
	@DEBUG_VALUE: lt7381_write_reg:data <- 0
	@DEBUG_VALUE: lt7381_write_reg:reg <- 41
	.loc	3 202 5                         @ ../Device/Display/LCD/LCD_LT7381.c:202:5
	strh.w	r2, [r10]
.Ltmp277:
	.loc	3 199 5                         @ ../Device/Display/LCD/LCD_LT7381.c:199:5
	strh	r1, [r0]
	movs	r1, #80
.Ltmp278:
	@DEBUG_VALUE: lt7381_write_reg:data <- 0
	@DEBUG_VALUE: lt7381_write_reg:reg <- 80
	.loc	3 202 5                         @ ../Device/Display/LCD/LCD_LT7381.c:202:5
	strh.w	r2, [r10]
.Ltmp279:
	.loc	3 199 5                         @ ../Device/Display/LCD/LCD_LT7381.c:199:5
	strh	r1, [r0]
	movs	r1, #81
.Ltmp280:
	@DEBUG_VALUE: lt7381_write_reg:data <- 0
	@DEBUG_VALUE: lt7381_write_reg:reg <- 81
	.loc	3 202 5                         @ ../Device/Display/LCD/LCD_LT7381.c:202:5
	strh.w	r2, [r10]
.Ltmp281:
	.loc	3 199 5                         @ ../Device/Display/LCD/LCD_LT7381.c:199:5
	strh	r1, [r0]
	movs	r1, #82
.Ltmp282:
	@DEBUG_VALUE: lt7381_write_reg:data <- 0
	@DEBUG_VALUE: lt7381_write_reg:reg <- 82
	.loc	3 202 5                         @ ../Device/Display/LCD/LCD_LT7381.c:202:5
	strh.w	r2, [r10]
.Ltmp283:
	.loc	3 199 5                         @ ../Device/Display/LCD/LCD_LT7381.c:199:5
	strh	r1, [r0]
	movs	r1, #83
.Ltmp284:
	@DEBUG_VALUE: lt7381_write_reg:data <- 0
	@DEBUG_VALUE: lt7381_write_reg:reg <- 83
	.loc	3 202 5                         @ ../Device/Display/LCD/LCD_LT7381.c:202:5
	strh.w	r2, [r10]
.Ltmp285:
	.loc	3 199 5                         @ ../Device/Display/LCD/LCD_LT7381.c:199:5
	strh	r1, [r0]
	movs	r1, #84
.Ltmp286:
	@DEBUG_VALUE: lt7381_write_reg:data <- 800
	@DEBUG_VALUE: lt7381_write_reg:reg <- 84
	.loc	3 202 5                         @ ../Device/Display/LCD/LCD_LT7381.c:202:5
	strh.w	r2, [r10]
.Ltmp287:
	.loc	3 199 5                         @ ../Device/Display/LCD/LCD_LT7381.c:199:5
	strh	r1, [r0]
	movs	r1, #85
.Ltmp288:
	@DEBUG_VALUE: lt7381_write_reg:data <- 3
	@DEBUG_VALUE: lt7381_write_reg:reg <- 85
	.loc	3 202 5                         @ ../Device/Display/LCD/LCD_LT7381.c:202:5
	strh.w	r7, [r10]
.Ltmp289:
	.loc	3 199 5                         @ ../Device/Display/LCD/LCD_LT7381.c:199:5
	strh	r1, [r0]
	movs	r1, #86
.Ltmp290:
	@DEBUG_VALUE: lt7381_write_reg:data <- 0
	@DEBUG_VALUE: lt7381_write_reg:reg <- 86
	.loc	3 202 5                         @ ../Device/Display/LCD/LCD_LT7381.c:202:5
	strh.w	r12, [r10]
.Ltmp291:
	.loc	3 199 5                         @ ../Device/Display/LCD/LCD_LT7381.c:199:5
	strh	r1, [r0]
	movs	r1, #87
.Ltmp292:
	@DEBUG_VALUE: lt7381_write_reg:data <- 0
	@DEBUG_VALUE: lt7381_write_reg:reg <- 87
	.loc	3 202 5                         @ ../Device/Display/LCD/LCD_LT7381.c:202:5
	strh.w	r2, [r10]
.Ltmp293:
	.loc	3 199 5                         @ ../Device/Display/LCD/LCD_LT7381.c:199:5
	strh	r1, [r0]
	movs	r1, #88
.Ltmp294:
	@DEBUG_VALUE: lt7381_write_reg:data <- 0
	@DEBUG_VALUE: lt7381_write_reg:reg <- 88
	.loc	3 202 5                         @ ../Device/Display/LCD/LCD_LT7381.c:202:5
	strh.w	r2, [r10]
.Ltmp295:
	.loc	3 199 5                         @ ../Device/Display/LCD/LCD_LT7381.c:199:5
	strh	r1, [r0]
	movs	r1, #89
.Ltmp296:
	@DEBUG_VALUE: lt7381_write_reg:data <- 0
	@DEBUG_VALUE: lt7381_write_reg:reg <- 89
	.loc	3 202 5                         @ ../Device/Display/LCD/LCD_LT7381.c:202:5
	strh.w	r2, [r10]
.Ltmp297:
	.loc	3 199 5                         @ ../Device/Display/LCD/LCD_LT7381.c:199:5
	strh	r1, [r0]
	movs	r1, #90
.Ltmp298:
	@DEBUG_VALUE: lt7381_write_reg:data <- 800
	@DEBUG_VALUE: lt7381_write_reg:reg <- 90
	.loc	3 202 5                         @ ../Device/Display/LCD/LCD_LT7381.c:202:5
	strh.w	r2, [r10]
.Ltmp299:
	.loc	3 199 5                         @ ../Device/Display/LCD/LCD_LT7381.c:199:5
	strh	r1, [r0]
	movs	r1, #91
.Ltmp300:
	@DEBUG_VALUE: lt7381_write_reg:data <- 3
	@DEBUG_VALUE: lt7381_write_reg:reg <- 91
	.loc	3 202 5                         @ ../Device/Display/LCD/LCD_LT7381.c:202:5
	strh.w	r7, [r10]
.Ltmp301:
	.loc	3 199 5                         @ ../Device/Display/LCD/LCD_LT7381.c:199:5
	strh	r1, [r0]
	movs	r1, #92
.Ltmp302:
	@DEBUG_VALUE: lt7381_write_reg:data <- 480
	@DEBUG_VALUE: lt7381_write_reg:reg <- 92
	.loc	3 202 5                         @ ../Device/Display/LCD/LCD_LT7381.c:202:5
	strh.w	r12, [r10]
.Ltmp303:
	.loc	3 199 5                         @ ../Device/Display/LCD/LCD_LT7381.c:199:5
	strh	r1, [r0]
	movs	r1, #224
	.loc	3 202 5                         @ ../Device/Display/LCD/LCD_LT7381.c:202:5
	strh.w	r1, [r10]
	movs	r1, #93
.Ltmp304:
	@DEBUG_VALUE: lt7381_write_reg:data <- 1
	@DEBUG_VALUE: lt7381_write_reg:reg <- 93
	.loc	3 199 5                         @ ../Device/Display/LCD/LCD_LT7381.c:199:5
	strh	r1, [r0]
	.loc	3 202 5                         @ ../Device/Display/LCD/LCD_LT7381.c:202:5
	strh.w	r6, [r10]
.Ltmp305:
	@DEBUG_VALUE: lt7381_write_reg:data <- 1
	@DEBUG_VALUE: lt7381_write_reg:reg <- 94
	.loc	3 199 5                         @ ../Device/Display/LCD/LCD_LT7381.c:199:5
	strh	r3, [r0]
.Ltmp306:
	.loc	3 536 5                         @ ../Device/Display/LCD/LCD_LT7381.c:536:5
	movs	r0, #0
.Ltmp307:
	.loc	3 202 5                         @ ../Device/Display/LCD/LCD_LT7381.c:202:5
	strh.w	r6, [r10]
.Ltmp308:
	.loc	3 534 5                         @ ../Device/Display/LCD/LCD_LT7381.c:534:5
	str	r6, [r8, #-68]
	.loc	3 536 5 epilogue_begin          @ ../Device/Display/LCD/LCD_LT7381.c:536:5
	add	sp, #4
	pop.w	{r4, r5, r6, r7, r8, r9, r10, r11, pc}
.Ltmp309:
.Lfunc_end4:
	.size	lt7381_init, .Lfunc_end4-lt7381_init
	.cfi_endproc
	.cantunwind
	.fnend
                                        @ -- End function
	.section	.text.lt7381_send_pixels,"ax",%progbits
	.p2align	2                               @ -- Begin function lt7381_send_pixels
	.type	lt7381_send_pixels,%function
	.code	16                              @ @lt7381_send_pixels
	.thumb_func
lt7381_send_pixels:
.Lfunc_begin5:
	.loc	3 580 0                         @ ../Device/Display/LCD/LCD_LT7381.c:580:0
	.fnstart
	.cfi_startproc
@ %bb.0:
	@DEBUG_VALUE: lt7381_send_pixels:pixels <- $r0
	@DEBUG_VALUE: lt7381_send_pixels:destWidth <- $r1
	@DEBUG_VALUE: lt7381_send_pixels:destHeight <- $r2
	@DEBUG_VALUE: lt7381_send_pixels:fixedColor <- $r3
	.save	{r4, r5, r6, r7, r8, r9, r10, r11, lr}
	push.w	{r4, r5, r6, r7, r8, r9, r10, r11, lr}
	.cfi_def_cfa_offset 36
	.cfi_offset lr, -4
	.cfi_offset r11, -8
	.cfi_offset r10, -12
	.cfi_offset r9, -16
	.cfi_offset r8, -20
	.cfi_offset r7, -24
	.cfi_offset r6, -28
	.cfi_offset r5, -32
	.cfi_offset r4, -36
	.pad	#20
	sub	sp, #20
	.cfi_def_cfa_offset 56
.Ltmp310:
	@DEBUG_VALUE: lt7381_send_pixels:byteLen <- [DW_OP_plus_uconst 56] [$sp+0]
	@DEBUG_VALUE: lt7381_send_pixels:scaleUpFactory <- [DW_OP_plus_uconst 60] [$sp+0]
	str	r2, [sp, #8]                    @ 4-byte Spill
.Ltmp311:
	@DEBUG_VALUE: lt7381_send_pixels:destHeight <- [DW_OP_plus_uconst 8] [$sp+0]
	@DEBUG_VALUE: lt7381_send_pixels:destHeight <- [DW_OP_plus_uconst 8] [$sp+0]
	mov	r6, r1
.Ltmp312:
	@DEBUG_VALUE: lt7381_send_pixels:destWidth <- $r6
	@DEBUG_VALUE: lt7381_send_pixels:destWidth <- $r6
	mov	r11, r0
.Ltmp313:
	@DEBUG_VALUE: lt7381_send_pixels:pixels <- $r11
	@DEBUG_VALUE: lt7381_send_pixels:pixels <- $r11
	ldrd	r2, r5, [sp, #56]
.Ltmp314:
	@DEBUG_VALUE: lt7381_send_pixels:color <- undef
	@DEBUG_VALUE: lt7381_send_pixels:pixels_x <- 0
	@DEBUG_VALUE: lt7381_send_pixels:pixels_y <- $r11
	movs	r7, #2
	mov.w	r0, #1610612736
	movs	r1, #95
.Ltmp315:
	@DEBUG_VALUE: lt7381_write_reg:data <- 0
	@DEBUG_VALUE: lt7381_write_reg:reg <- 95
	movt	r7, #24576
.Ltmp316:
	.loc	3 199 5 prologue_end            @ ../Device/Display/LCD/LCD_LT7381.c:199:5
	strh	r1, [r0]
	movs	r1, #0
	movs	r4, #96
.Ltmp317:
	@DEBUG_VALUE: lt7381_write_reg:data <- 0
	@DEBUG_VALUE: lt7381_write_reg:reg <- 96
	.loc	3 202 5                         @ ../Device/Display/LCD/LCD_LT7381.c:202:5
	strh	r1, [r7]
.Ltmp318:
	.loc	3 199 5                         @ ../Device/Display/LCD/LCD_LT7381.c:199:5
	strh	r4, [r0]
	movs	r4, #97
.Ltmp319:
	@DEBUG_VALUE: lt7381_write_reg:data <- 0
	@DEBUG_VALUE: lt7381_write_reg:reg <- 97
	.loc	3 202 5                         @ ../Device/Display/LCD/LCD_LT7381.c:202:5
	strh	r1, [r7]
.Ltmp320:
	.loc	3 199 5                         @ ../Device/Display/LCD/LCD_LT7381.c:199:5
	strh	r4, [r0]
	movs	r4, #98
.Ltmp321:
	@DEBUG_VALUE: lt7381_write_reg:data <- 0
	@DEBUG_VALUE: lt7381_write_reg:reg <- 98
	.loc	3 202 5                         @ ../Device/Display/LCD/LCD_LT7381.c:202:5
	strh	r1, [r7]
.Ltmp322:
	.loc	3 199 5                         @ ../Device/Display/LCD/LCD_LT7381.c:199:5
	strh	r4, [r0]
	.loc	3 202 5                         @ ../Device/Display/LCD/LCD_LT7381.c:202:5
	strh	r1, [r7]
.Ltmp323:
	.loc	3 596 35                        @ ../Device/Display/LCD/LCD_LT7381.c:596:35
	udiv	r1, r6, r5
.Ltmp324:
	@DEBUG_VALUE: lt7381_send_pixels:srcWidth <- $r1
	.loc	3 602 18                        @ ../Device/Display/LCD/LCD_LT7381.c:602:18
	cmp.w	r11, #0
	str	r1, [sp, #4]                    @ 4-byte Spill
.Ltmp325:
	@DEBUG_VALUE: lt7381_send_pixels:srcWidth <- [DW_OP_plus_uconst 4] [$sp+0]
	@DEBUG_VALUE: lt7381_send_pixels:srcWidth <- [DW_OP_plus_uconst 4] [$sp+0]
	.loc	3 0 18 is_stmt 0                @ ../Device/Display/LCD/LCD_LT7381.c:0:18
	mov.w	r1, #4
.Ltmp326:
	.loc	3 589 5 is_stmt 1               @ ../Device/Display/LCD/LCD_LT7381.c:589:5
	strh	r1, [r0]
.Ltmp327:
	.loc	3 602 18                        @ ../Device/Display/LCD/LCD_LT7381.c:602:18
	beq	.LBB5_4
.Ltmp328:
@ %bb.1:
	@DEBUG_VALUE: lt7381_send_pixels:srcWidth <- [DW_OP_plus_uconst 4] [$sp+0]
	@DEBUG_VALUE: lt7381_send_pixels:pixels_y <- $r11
	@DEBUG_VALUE: lt7381_send_pixels:pixels_x <- 0
	@DEBUG_VALUE: lt7381_send_pixels:pixels <- $r11
	@DEBUG_VALUE: lt7381_send_pixels:destWidth <- $r6
	@DEBUG_VALUE: lt7381_send_pixels:destHeight <- [DW_OP_plus_uconst 8] [$sp+0]
	@DEBUG_VALUE: lt7381_send_pixels:scaleUpFactory <- [DW_OP_plus_uconst 60] [$sp+0]
	@DEBUG_VALUE: lt7381_send_pixels:byteLen <- [DW_OP_plus_uconst 56] [$sp+0]
	@DEBUG_VALUE: lt7381_send_pixels:fixedColor <- $r3
	cmp.w	r2, #1024
	ble	.LBB5_4
.Ltmp329:
@ %bb.2:
	@DEBUG_VALUE: lt7381_send_pixels:srcWidth <- [DW_OP_plus_uconst 4] [$sp+0]
	@DEBUG_VALUE: lt7381_send_pixels:pixels_y <- $r11
	@DEBUG_VALUE: lt7381_send_pixels:pixels_x <- 0
	@DEBUG_VALUE: lt7381_send_pixels:pixels <- $r11
	@DEBUG_VALUE: lt7381_send_pixels:destWidth <- $r6
	@DEBUG_VALUE: lt7381_send_pixels:destHeight <- [DW_OP_plus_uconst 8] [$sp+0]
	@DEBUG_VALUE: lt7381_send_pixels:scaleUpFactory <- [DW_OP_plus_uconst 60] [$sp+0]
	@DEBUG_VALUE: lt7381_send_pixels:byteLen <- [DW_OP_plus_uconst 56] [$sp+0]
	@DEBUG_VALUE: lt7381_send_pixels:fixedColor <- $r3
	.loc	3 605 13                        @ ../Device/Display/LCD/LCD_LT7381.c:605:13
	cmp	r5, #1
	bne.w	.LBB5_43
.Ltmp330:
@ %bb.3:
	@DEBUG_VALUE: lt7381_send_pixels:srcWidth <- [DW_OP_plus_uconst 4] [$sp+0]
	@DEBUG_VALUE: lt7381_send_pixels:pixels_y <- $r11
	@DEBUG_VALUE: lt7381_send_pixels:pixels_x <- 0
	@DEBUG_VALUE: lt7381_send_pixels:pixels <- $r11
	@DEBUG_VALUE: lt7381_send_pixels:destWidth <- $r6
	@DEBUG_VALUE: lt7381_send_pixels:destHeight <- [DW_OP_plus_uconst 8] [$sp+0]
	@DEBUG_VALUE: lt7381_send_pixels:scaleUpFactory <- [DW_OP_plus_uconst 60] [$sp+0]
	@DEBUG_VALUE: lt7381_send_pixels:byteLen <- [DW_OP_plus_uconst 56] [$sp+0]
	@DEBUG_VALUE: lt7381_send_pixels:fixedColor <- $r3
	.loc	3 609 13                        @ ../Device/Display/LCD/LCD_LT7381.c:609:13
	mov	r0, r7
	mov	r1, r11
	.loc	3 607 33                        @ ../Device/Display/LCD/LCD_LT7381.c:607:33
	lsrs	r3, r2, #1
.Ltmp331:
	@DEBUG_VALUE: lt7381_send_pixels:fixedColor <- [DW_OP_LLVM_entry_value 1] $r3
	@DEBUG_VALUE: count <- $r3
	.loc	3 609 13                        @ ../Device/Display/LCD/LCD_LT7381.c:609:13
	movs	r2, #16
	.loc	3 609 13 epilogue_begin is_stmt 0 @ ../Device/Display/LCD/LCD_LT7381.c:609:13
	add	sp, #20
	pop.w	{r4, r5, r6, r7, r8, r9, r10, r11, lr}
.Ltmp332:
	@DEBUG_VALUE: lt7381_send_pixels:pixels <- [DW_OP_LLVM_entry_value 1] $r0
	@DEBUG_VALUE: lt7381_send_pixels:destWidth <- [DW_OP_LLVM_entry_value 1] $r1
	b	nu_pdma_mempush
.Ltmp333:
.LBB5_4:
	@DEBUG_VALUE: lt7381_send_pixels:srcWidth <- [DW_OP_plus_uconst 4] [$sp+0]
	@DEBUG_VALUE: lt7381_send_pixels:pixels_y <- $r11
	@DEBUG_VALUE: lt7381_send_pixels:pixels_x <- 0
	@DEBUG_VALUE: lt7381_send_pixels:pixels <- $r11
	@DEBUG_VALUE: lt7381_send_pixels:destWidth <- $r6
	@DEBUG_VALUE: lt7381_send_pixels:destHeight <- [DW_OP_plus_uconst 8] [$sp+0]
	@DEBUG_VALUE: lt7381_send_pixels:scaleUpFactory <- [DW_OP_plus_uconst 60] [$sp+0]
	@DEBUG_VALUE: lt7381_send_pixels:byteLen <- [DW_OP_plus_uconst 56] [$sp+0]
	@DEBUG_VALUE: lt7381_send_pixels:fixedColor <- $r3
	@DEBUG_VALUE: lt7381_send_pixels:pixels_y <- $r11
	@DEBUG_VALUE: lt7381_send_pixels:pixels_x <- 0
	@DEBUG_VALUE: lt7381_send_pixels:color <- [DW_OP_LLVM_convert 32 7, DW_OP_LLVM_convert 16 7, DW_OP_stack_value] $r3
	@DEBUG_VALUE: lt7381_send_pixels:h <- 0
	.loc	3 644 9 is_stmt 1               @ ../Device/Display/LCD/LCD_LT7381.c:644:9
	ldr	r0, [sp, #8]                    @ 4-byte Reload
	cmp	r0, #0
	beq.w	.LBB5_58
.Ltmp334:
@ %bb.5:
	@DEBUG_VALUE: lt7381_send_pixels:h <- 0
	@DEBUG_VALUE: lt7381_send_pixels:color <- [DW_OP_LLVM_convert 32 7, DW_OP_LLVM_convert 16 7, DW_OP_stack_value] $r3
	@DEBUG_VALUE: lt7381_send_pixels:srcWidth <- [DW_OP_plus_uconst 4] [$sp+0]
	@DEBUG_VALUE: lt7381_send_pixels:pixels_y <- $r11
	@DEBUG_VALUE: lt7381_send_pixels:pixels_x <- 0
	@DEBUG_VALUE: lt7381_send_pixels:pixels <- $r11
	@DEBUG_VALUE: lt7381_send_pixels:destWidth <- $r6
	@DEBUG_VALUE: lt7381_send_pixels:destHeight <- [DW_OP_plus_uconst 8] [$sp+0]
	@DEBUG_VALUE: lt7381_send_pixels:scaleUpFactory <- [DW_OP_plus_uconst 60] [$sp+0]
	@DEBUG_VALUE: lt7381_send_pixels:byteLen <- [DW_OP_plus_uconst 56] [$sp+0]
	@DEBUG_VALUE: lt7381_send_pixels:fixedColor <- $r3
	.loc	3 0 9 is_stmt 0                 @ ../Device/Display/LCD/LCD_LT7381.c:0:9
	movs	r0, #1
.Ltmp335:
	@DEBUG_VALUE: lt7381_send_pixels:color <- undef
	.loc	3 644 9                         @ ../Device/Display/LCD/LCD_LT7381.c:644:9
	cmp	r5, #1
	csel	r2, r5, r0, hi
	bic	r1, r2, #3
	mov.w	r12, #0
	subs	r1, #4
	str	r2, [sp, #16]                   @ 4-byte Spill
	add.w	r9, r0, r1, lsr #2
	and	r1, r2, #3
	mov.w	r2, #1610612736
	movs	r0, #0
	b	.LBB5_7
.Ltmp336:
	.loc	3 0 9                           @ :0:9
.Ltmp337:
	.p2align	2
.LBB5_6:                                @   in Loop: Header=BB5_7 Depth=1
	@DEBUG_VALUE: lt7381_send_pixels:r_y <- $r8
	@DEBUG_VALUE: lt7381_send_pixels:pixels_x <- $r0
	@DEBUG_VALUE: lt7381_send_pixels:color <- $r3
	@DEBUG_VALUE: lt7381_send_pixels:h <- [DW_OP_plus_uconst 12] [$sp+0]
	@DEBUG_VALUE: lt7381_send_pixels:srcWidth <- [DW_OP_plus_uconst 4] [$sp+0]
	@DEBUG_VALUE: lt7381_send_pixels:pixels_y <- $r11
	@DEBUG_VALUE: lt7381_send_pixels:destWidth <- $r6
	@DEBUG_VALUE: lt7381_send_pixels:destHeight <- [DW_OP_plus_uconst 8] [$sp+0]
	@DEBUG_VALUE: lt7381_send_pixels:scaleUpFactory <- [DW_OP_plus_uconst 60] [$sp+0]
	@DEBUG_VALUE: lt7381_send_pixels:byteLen <- [DW_OP_plus_uconst 56] [$sp+0]
	.loc	3 670 17 is_stmt 1              @ ../Device/Display/LCD/LCD_LT7381.c:670:17
	cmp.w	r11, #0
	ldr	r4, [sp, #4]                    @ 4-byte Reload
	it	ne
	addne.w	r11, r11, r4, lsl #1
.Ltmp338:
	@DEBUG_VALUE: lt7381_send_pixels:pixels <- [DW_OP_LLVM_entry_value 1] $r0
	@DEBUG_VALUE: lt7381_send_pixels:pixels_y <- $r11
	.loc	3 0 17 is_stmt 0                @ ../Device/Display/LCD/LCD_LT7381.c:0:17
	ldr.w	r12, [sp, #12]                  @ 4-byte Reload
.Ltmp339:
	.loc	3 644 9 is_stmt 1               @ ../Device/Display/LCD/LCD_LT7381.c:644:9
	ldr	r4, [sp, #8]                    @ 4-byte Reload
.Ltmp340:
	.loc	3 644 39 is_stmt 0              @ ../Device/Display/LCD/LCD_LT7381.c:644:39
	add	r12, r5
.Ltmp341:
	@DEBUG_VALUE: lt7381_send_pixels:h <- $r12
	@DEBUG_VALUE: lt7381_send_pixels:color <- $r3
	@DEBUG_VALUE: lt7381_send_pixels:pixels_x <- $r0
	.loc	3 644 9                         @ ../Device/Display/LCD/LCD_LT7381.c:644:9
	cmp	r12, r4
	bhs.w	.LBB5_58
.Ltmp342:
.LBB5_7:                                @ =>This Loop Header: Depth=1
                                        @     Child Loop BB5_9 Depth 2
                                        @       Child Loop BB5_13 Depth 3
                                        @         Child Loop BB5_28 Depth 4
                                        @           Child Loop BB5_31 Depth 5
                                        @           Child Loop BB5_35 Depth 5
                                        @           Child Loop BB5_39 Depth 5
                                        @         Child Loop BB5_15 Depth 4
                                        @         Child Loop BB5_19 Depth 4
                                        @         Child Loop BB5_23 Depth 4
	@DEBUG_VALUE: lt7381_send_pixels:srcWidth <- [DW_OP_plus_uconst 4] [$sp+0]
	@DEBUG_VALUE: lt7381_send_pixels:pixels_y <- $r11
	@DEBUG_VALUE: lt7381_send_pixels:destWidth <- $r6
	@DEBUG_VALUE: lt7381_send_pixels:destHeight <- [DW_OP_plus_uconst 8] [$sp+0]
	@DEBUG_VALUE: lt7381_send_pixels:scaleUpFactory <- [DW_OP_plus_uconst 60] [$sp+0]
	@DEBUG_VALUE: lt7381_send_pixels:byteLen <- [DW_OP_plus_uconst 56] [$sp+0]
	.loc	3 0 9                           @ ../Device/Display/LCD/LCD_LT7381.c:0:9
	mov.w	r8, #0
.Ltmp343:
	@DEBUG_VALUE: lt7381_send_pixels:r_y <- 0
	@DEBUG_VALUE: lt7381_send_pixels:h <- [DW_OP_plus_uconst 12] [$sp+0]
	@DEBUG_VALUE: lt7381_send_pixels:color <- $r3
	@DEBUG_VALUE: lt7381_send_pixels:pixels_x <- $r0
	@DEBUG_VALUE: lt7381_send_pixels:pixels_y <- $r11
	str.w	r12, [sp, #12]                  @ 4-byte Spill
	b	.LBB5_9
.Ltmp344:
	.p2align	2
.LBB5_8:                                @   in Loop: Header=BB5_9 Depth=2
	@DEBUG_VALUE: lt7381_send_pixels:r_y <- $r8
	@DEBUG_VALUE: lt7381_send_pixels:pixels_x <- $r0
	@DEBUG_VALUE: lt7381_send_pixels:color <- $r3
	@DEBUG_VALUE: lt7381_send_pixels:h <- [DW_OP_plus_uconst 12] [$sp+0]
	@DEBUG_VALUE: lt7381_send_pixels:srcWidth <- [DW_OP_plus_uconst 4] [$sp+0]
	@DEBUG_VALUE: lt7381_send_pixels:pixels_y <- $r11
	@DEBUG_VALUE: lt7381_send_pixels:destWidth <- $r6
	@DEBUG_VALUE: lt7381_send_pixels:destHeight <- [DW_OP_plus_uconst 8] [$sp+0]
	@DEBUG_VALUE: lt7381_send_pixels:scaleUpFactory <- [DW_OP_plus_uconst 60] [$sp+0]
	@DEBUG_VALUE: lt7381_send_pixels:byteLen <- [DW_OP_plus_uconst 56] [$sp+0]
	.loc	3 646 13 is_stmt 1              @ ../Device/Display/LCD/LCD_LT7381.c:646:13
	ldr	r4, [sp, #16]                   @ 4-byte Reload
.Ltmp345:
	.loc	3 646 52 is_stmt 0              @ ../Device/Display/LCD/LCD_LT7381.c:646:52
	add.w	r8, r8, #1
.Ltmp346:
	@DEBUG_VALUE: lt7381_send_pixels:r_y <- $r8
	@DEBUG_VALUE: lt7381_send_pixels:color <- $r3
	@DEBUG_VALUE: lt7381_send_pixels:pixels_x <- $r0
	.loc	3 646 13                        @ ../Device/Display/LCD/LCD_LT7381.c:646:13
	cmp	r8, r4
	beq	.LBB5_6
.Ltmp347:
.LBB5_9:                                @   Parent Loop BB5_7 Depth=1
                                        @ =>  This Loop Header: Depth=2
                                        @       Child Loop BB5_13 Depth 3
                                        @         Child Loop BB5_28 Depth 4
                                        @           Child Loop BB5_31 Depth 5
                                        @           Child Loop BB5_35 Depth 5
                                        @           Child Loop BB5_39 Depth 5
                                        @         Child Loop BB5_15 Depth 4
                                        @         Child Loop BB5_19 Depth 4
                                        @         Child Loop BB5_23 Depth 4
	@DEBUG_VALUE: lt7381_send_pixels:pixels_x <- $r0
	@DEBUG_VALUE: lt7381_send_pixels:color <- $r3
	@DEBUG_VALUE: lt7381_send_pixels:h <- [DW_OP_plus_uconst 12] [$sp+0]
	@DEBUG_VALUE: lt7381_send_pixels:srcWidth <- [DW_OP_plus_uconst 4] [$sp+0]
	@DEBUG_VALUE: lt7381_send_pixels:pixels_y <- $r11
	@DEBUG_VALUE: lt7381_send_pixels:destWidth <- $r6
	@DEBUG_VALUE: lt7381_send_pixels:destHeight <- [DW_OP_plus_uconst 8] [$sp+0]
	@DEBUG_VALUE: lt7381_send_pixels:scaleUpFactory <- [DW_OP_plus_uconst 60] [$sp+0]
	@DEBUG_VALUE: lt7381_send_pixels:byteLen <- [DW_OP_plus_uconst 56] [$sp+0]
	@DEBUG_VALUE: lt7381_send_pixels:pixels_x <- $r0
	@DEBUG_VALUE: lt7381_send_pixels:color <- $r3
	@DEBUG_VALUE: lt7381_send_pixels:r_y <- $r8
	.loc	3 648 21 is_stmt 1              @ ../Device/Display/LCD/LCD_LT7381.c:648:21
	cmp.w	r11, #0
	csel	r0, r0, r11, eq
.Ltmp348:
	@DEBUG_VALUE: lt7381_send_pixels:w <- 0
	@DEBUG_VALUE: lt7381_send_pixels:pixels_x <- $r0
	.loc	3 653 17                        @ ../Device/Display/LCD/LCD_LT7381.c:653:17
	cmp	r6, #0
	beq	.LBB5_8
.Ltmp349:
@ %bb.10:                               @   in Loop: Header=BB5_9 Depth=2
	@DEBUG_VALUE: lt7381_send_pixels:w <- 0
	@DEBUG_VALUE: lt7381_send_pixels:r_y <- $r8
	@DEBUG_VALUE: lt7381_send_pixels:pixels_x <- $r0
	@DEBUG_VALUE: lt7381_send_pixels:color <- $r3
	@DEBUG_VALUE: lt7381_send_pixels:h <- [DW_OP_plus_uconst 12] [$sp+0]
	@DEBUG_VALUE: lt7381_send_pixels:srcWidth <- [DW_OP_plus_uconst 4] [$sp+0]
	@DEBUG_VALUE: lt7381_send_pixels:pixels_y <- $r11
	@DEBUG_VALUE: lt7381_send_pixels:destWidth <- $r6
	@DEBUG_VALUE: lt7381_send_pixels:destHeight <- [DW_OP_plus_uconst 8] [$sp+0]
	@DEBUG_VALUE: lt7381_send_pixels:scaleUpFactory <- [DW_OP_plus_uconst 60] [$sp+0]
	@DEBUG_VALUE: lt7381_send_pixels:byteLen <- [DW_OP_plus_uconst 56] [$sp+0]
	.loc	3 0 17 is_stmt 0                @ ../Device/Display/LCD/LCD_LT7381.c:0:17
	mov.w	r10, #0
	b	.LBB5_13
.Ltmp350:
.LBB5_11:                               @   in Loop: Header=BB5_13 Depth=3
	@DEBUG_VALUE: lt7381_send_pixels:w <- $r10
	@DEBUG_VALUE: lt7381_send_pixels:r_y <- $r8
	@DEBUG_VALUE: lt7381_send_pixels:pixels_x <- $r0
	@DEBUG_VALUE: lt7381_send_pixels:color <- $r3
	@DEBUG_VALUE: lt7381_send_pixels:h <- [DW_OP_plus_uconst 12] [$sp+0]
	@DEBUG_VALUE: lt7381_send_pixels:srcWidth <- [DW_OP_plus_uconst 4] [$sp+0]
	@DEBUG_VALUE: lt7381_send_pixels:pixels_y <- $r11
	@DEBUG_VALUE: lt7381_send_pixels:destWidth <- $r6
	@DEBUG_VALUE: lt7381_send_pixels:destHeight <- [DW_OP_plus_uconst 8] [$sp+0]
	@DEBUG_VALUE: lt7381_send_pixels:scaleUpFactory <- [DW_OP_plus_uconst 60] [$sp+0]
	@DEBUG_VALUE: lt7381_send_pixels:byteLen <- [DW_OP_plus_uconst 56] [$sp+0]
	.loc	3 665 25 is_stmt 1              @ ../Device/Display/LCD/LCD_LT7381.c:665:25
	strh	r3, [r7]
.Ltmp351:
	@DEBUG_VALUE: lt7381_send_pixels:r_x <- undef
	.loc	3 0 25 is_stmt 0                @ :0:25
.Ltmp352:
	.p2align	2
.LBB5_12:                               @   in Loop: Header=BB5_13 Depth=3
	@DEBUG_VALUE: lt7381_send_pixels:w <- $r10
	@DEBUG_VALUE: lt7381_send_pixels:r_y <- $r8
	@DEBUG_VALUE: lt7381_send_pixels:pixels_x <- $r0
	@DEBUG_VALUE: lt7381_send_pixels:color <- $r3
	@DEBUG_VALUE: lt7381_send_pixels:h <- [DW_OP_plus_uconst 12] [$sp+0]
	@DEBUG_VALUE: lt7381_send_pixels:srcWidth <- [DW_OP_plus_uconst 4] [$sp+0]
	@DEBUG_VALUE: lt7381_send_pixels:pixels_y <- $r11
	@DEBUG_VALUE: lt7381_send_pixels:destWidth <- $r6
	@DEBUG_VALUE: lt7381_send_pixels:destHeight <- [DW_OP_plus_uconst 8] [$sp+0]
	@DEBUG_VALUE: lt7381_send_pixels:scaleUpFactory <- [DW_OP_plus_uconst 60] [$sp+0]
	@DEBUG_VALUE: lt7381_send_pixels:byteLen <- [DW_OP_plus_uconst 56] [$sp+0]
	.loc	3 653 46 is_stmt 1              @ ../Device/Display/LCD/LCD_LT7381.c:653:46
	add	r10, r5
.Ltmp353:
	@DEBUG_VALUE: lt7381_send_pixels:w <- $r10
	@DEBUG_VALUE: lt7381_send_pixels:color <- $r3
	@DEBUG_VALUE: lt7381_send_pixels:pixels_x <- $r0
	.loc	3 653 17 is_stmt 0              @ ../Device/Display/LCD/LCD_LT7381.c:653:17
	cmp	r10, r6
	bhs	.LBB5_8
.Ltmp354:
.LBB5_13:                               @   Parent Loop BB5_7 Depth=1
                                        @     Parent Loop BB5_9 Depth=2
                                        @ =>    This Loop Header: Depth=3
                                        @         Child Loop BB5_28 Depth 4
                                        @           Child Loop BB5_31 Depth 5
                                        @           Child Loop BB5_35 Depth 5
                                        @           Child Loop BB5_39 Depth 5
                                        @         Child Loop BB5_15 Depth 4
                                        @         Child Loop BB5_19 Depth 4
                                        @         Child Loop BB5_23 Depth 4
	@DEBUG_VALUE: lt7381_send_pixels:r_y <- $r8
	@DEBUG_VALUE: lt7381_send_pixels:pixels_x <- $r0
	@DEBUG_VALUE: lt7381_send_pixels:color <- $r3
	@DEBUG_VALUE: lt7381_send_pixels:h <- [DW_OP_plus_uconst 12] [$sp+0]
	@DEBUG_VALUE: lt7381_send_pixels:srcWidth <- [DW_OP_plus_uconst 4] [$sp+0]
	@DEBUG_VALUE: lt7381_send_pixels:pixels_y <- $r11
	@DEBUG_VALUE: lt7381_send_pixels:destWidth <- $r6
	@DEBUG_VALUE: lt7381_send_pixels:destHeight <- [DW_OP_plus_uconst 8] [$sp+0]
	@DEBUG_VALUE: lt7381_send_pixels:scaleUpFactory <- [DW_OP_plus_uconst 60] [$sp+0]
	@DEBUG_VALUE: lt7381_send_pixels:byteLen <- [DW_OP_plus_uconst 56] [$sp+0]
	@DEBUG_VALUE: lt7381_send_pixels:pixels_x <- $r0
	@DEBUG_VALUE: lt7381_send_pixels:color <- $r3
	@DEBUG_VALUE: lt7381_send_pixels:w <- $r10
	.loc	3 655 25 is_stmt 1              @ ../Device/Display/LCD/LCD_LT7381.c:655:25
	cmp	r0, #0
.Ltmp355:
	.loc	3 657 33                        @ ../Device/Display/LCD/LCD_LT7381.c:657:33
	ite	ne
	ldrhne	r3, [r0], #2
.Ltmp356:
	@DEBUG_VALUE: lt7381_send_pixels:fixedColor <- [DW_OP_LLVM_entry_value 1] $r3
	.loc	3 0 33 is_stmt 0                @ ../Device/Display/LCD/LCD_LT7381.c:0:33
	moveq	r0, #0
.Ltmp357:
	@DEBUG_VALUE: lt7381_send_pixels:pixels_x <- $r0
	@DEBUG_VALUE: lt7381_send_pixels:color <- $r3
	@DEBUG_VALUE: lt7381_send_pixels:r_x <- 0
	.loc	3 661 21 is_stmt 1              @ ../Device/Display/LCD/LCD_LT7381.c:661:21
	cmp	r5, #4
	bhs	.LBB5_26
.Ltmp358:
.LBB5_14:                               @   in Loop: Header=BB5_13 Depth=3
	@DEBUG_VALUE: lt7381_send_pixels:w <- $r10
	@DEBUG_VALUE: lt7381_send_pixels:r_y <- $r8
	@DEBUG_VALUE: lt7381_send_pixels:pixels_x <- $r0
	@DEBUG_VALUE: lt7381_send_pixels:color <- $r3
	@DEBUG_VALUE: lt7381_send_pixels:h <- [DW_OP_plus_uconst 12] [$sp+0]
	@DEBUG_VALUE: lt7381_send_pixels:srcWidth <- [DW_OP_plus_uconst 4] [$sp+0]
	@DEBUG_VALUE: lt7381_send_pixels:pixels_y <- $r11
	@DEBUG_VALUE: lt7381_send_pixels:destWidth <- $r6
	@DEBUG_VALUE: lt7381_send_pixels:destHeight <- [DW_OP_plus_uconst 8] [$sp+0]
	@DEBUG_VALUE: lt7381_send_pixels:scaleUpFactory <- [DW_OP_plus_uconst 60] [$sp+0]
	@DEBUG_VALUE: lt7381_send_pixels:byteLen <- [DW_OP_plus_uconst 56] [$sp+0]
	.loc	3 663 25                        @ ../Device/Display/LCD/LCD_LT7381.c:663:25
	cmp	r1, #0
	beq	.LBB5_12
.Ltmp359:
.LBB5_15:                               @   Parent Loop BB5_7 Depth=1
                                        @     Parent Loop BB5_9 Depth=2
                                        @       Parent Loop BB5_13 Depth=3
                                        @ =>      This Inner Loop Header: Depth=4
	@DEBUG_VALUE: lt7381_send_pixels:w <- $r10
	@DEBUG_VALUE: lt7381_send_pixels:r_y <- $r8
	@DEBUG_VALUE: lt7381_send_pixels:pixels_x <- $r0
	@DEBUG_VALUE: lt7381_send_pixels:color <- $r3
	@DEBUG_VALUE: lt7381_send_pixels:h <- [DW_OP_plus_uconst 12] [$sp+0]
	@DEBUG_VALUE: lt7381_send_pixels:srcWidth <- [DW_OP_plus_uconst 4] [$sp+0]
	@DEBUG_VALUE: lt7381_send_pixels:pixels_y <- $r11
	@DEBUG_VALUE: lt7381_send_pixels:destWidth <- $r6
	@DEBUG_VALUE: lt7381_send_pixels:destHeight <- [DW_OP_plus_uconst 8] [$sp+0]
	@DEBUG_VALUE: lt7381_send_pixels:scaleUpFactory <- [DW_OP_plus_uconst 60] [$sp+0]
	@DEBUG_VALUE: lt7381_send_pixels:byteLen <- [DW_OP_plus_uconst 56] [$sp+0]
	.loc	3 565 13                        @ ../Device/Display/LCD/LCD_LT7381.c:565:13
	ldrh	r4, [r2]
.Ltmp360:
	.loc	3 663 25                        @ ../Device/Display/LCD/LCD_LT7381.c:663:25
	lsls	r4, r4, #24
	bpl	.LBB5_18
.Ltmp361:
@ %bb.16:                               @   in Loop: Header=BB5_15 Depth=4
	@DEBUG_VALUE: lt7381_send_pixels:w <- $r10
	@DEBUG_VALUE: lt7381_send_pixels:r_y <- $r8
	@DEBUG_VALUE: lt7381_send_pixels:pixels_x <- $r0
	@DEBUG_VALUE: lt7381_send_pixels:color <- $r3
	@DEBUG_VALUE: lt7381_send_pixels:h <- [DW_OP_plus_uconst 12] [$sp+0]
	@DEBUG_VALUE: lt7381_send_pixels:srcWidth <- [DW_OP_plus_uconst 4] [$sp+0]
	@DEBUG_VALUE: lt7381_send_pixels:pixels_y <- $r11
	@DEBUG_VALUE: lt7381_send_pixels:destWidth <- $r6
	@DEBUG_VALUE: lt7381_send_pixels:destHeight <- [DW_OP_plus_uconst 8] [$sp+0]
	@DEBUG_VALUE: lt7381_send_pixels:scaleUpFactory <- [DW_OP_plus_uconst 60] [$sp+0]
	@DEBUG_VALUE: lt7381_send_pixels:byteLen <- [DW_OP_plus_uconst 56] [$sp+0]
	.loc	3 565 13                        @ ../Device/Display/LCD/LCD_LT7381.c:565:13
	ldrh	r4, [r2]
.Ltmp362:
	.loc	3 663 25                        @ ../Device/Display/LCD/LCD_LT7381.c:663:25
	lsls	r4, r4, #24
.Ltmp363:
	.loc	3 565 13                        @ ../Device/Display/LCD/LCD_LT7381.c:565:13
	itt	mi
	ldrhmi	r4, [r2]
.Ltmp364:
	.loc	3 663 25                        @ ../Device/Display/LCD/LCD_LT7381.c:663:25
	lslsmi.w	r4, r4, #24
	bpl	.LBB5_18
.Ltmp365:
@ %bb.17:                               @   in Loop: Header=BB5_15 Depth=4
	@DEBUG_VALUE: lt7381_send_pixels:w <- $r10
	@DEBUG_VALUE: lt7381_send_pixels:r_y <- $r8
	@DEBUG_VALUE: lt7381_send_pixels:pixels_x <- $r0
	@DEBUG_VALUE: lt7381_send_pixels:color <- $r3
	@DEBUG_VALUE: lt7381_send_pixels:h <- [DW_OP_plus_uconst 12] [$sp+0]
	@DEBUG_VALUE: lt7381_send_pixels:srcWidth <- [DW_OP_plus_uconst 4] [$sp+0]
	@DEBUG_VALUE: lt7381_send_pixels:pixels_y <- $r11
	@DEBUG_VALUE: lt7381_send_pixels:destWidth <- $r6
	@DEBUG_VALUE: lt7381_send_pixels:destHeight <- [DW_OP_plus_uconst 8] [$sp+0]
	@DEBUG_VALUE: lt7381_send_pixels:scaleUpFactory <- [DW_OP_plus_uconst 60] [$sp+0]
	@DEBUG_VALUE: lt7381_send_pixels:byteLen <- [DW_OP_plus_uconst 56] [$sp+0]
	.loc	3 565 13                        @ ../Device/Display/LCD/LCD_LT7381.c:565:13
	ldrh	r4, [r2]
.Ltmp366:
	.loc	3 663 25                        @ ../Device/Display/LCD/LCD_LT7381.c:663:25
	lsls	r4, r4, #24
	bmi	.LBB5_15
.Ltmp367:
	.loc	3 0 25 is_stmt 0                @ :0:25
.Ltmp368:
	.p2align	2
.LBB5_18:                               @   in Loop: Header=BB5_13 Depth=3
	@DEBUG_VALUE: lt7381_send_pixels:w <- $r10
	@DEBUG_VALUE: lt7381_send_pixels:r_y <- $r8
	@DEBUG_VALUE: lt7381_send_pixels:pixels_x <- $r0
	@DEBUG_VALUE: lt7381_send_pixels:color <- $r3
	@DEBUG_VALUE: lt7381_send_pixels:h <- [DW_OP_plus_uconst 12] [$sp+0]
	@DEBUG_VALUE: lt7381_send_pixels:srcWidth <- [DW_OP_plus_uconst 4] [$sp+0]
	@DEBUG_VALUE: lt7381_send_pixels:pixels_y <- $r11
	@DEBUG_VALUE: lt7381_send_pixels:destWidth <- $r6
	@DEBUG_VALUE: lt7381_send_pixels:destHeight <- [DW_OP_plus_uconst 8] [$sp+0]
	@DEBUG_VALUE: lt7381_send_pixels:scaleUpFactory <- [DW_OP_plus_uconst 60] [$sp+0]
	@DEBUG_VALUE: lt7381_send_pixels:byteLen <- [DW_OP_plus_uconst 56] [$sp+0]
	.loc	3 661 21 is_stmt 1              @ ../Device/Display/LCD/LCD_LT7381.c:661:21
	cmp	r1, #1
.Ltmp369:
	.loc	3 665 25                        @ ../Device/Display/LCD/LCD_LT7381.c:665:25
	strh	r3, [r7]
.Ltmp370:
	@DEBUG_VALUE: lt7381_send_pixels:r_x <- undef
	.loc	3 661 21                        @ ../Device/Display/LCD/LCD_LT7381.c:661:21
	beq	.LBB5_12
.Ltmp371:
.LBB5_19:                               @   Parent Loop BB5_7 Depth=1
                                        @     Parent Loop BB5_9 Depth=2
                                        @       Parent Loop BB5_13 Depth=3
                                        @ =>      This Inner Loop Header: Depth=4
	@DEBUG_VALUE: lt7381_send_pixels:w <- $r10
	@DEBUG_VALUE: lt7381_send_pixels:r_y <- $r8
	@DEBUG_VALUE: lt7381_send_pixels:pixels_x <- $r0
	@DEBUG_VALUE: lt7381_send_pixels:color <- $r3
	@DEBUG_VALUE: lt7381_send_pixels:h <- [DW_OP_plus_uconst 12] [$sp+0]
	@DEBUG_VALUE: lt7381_send_pixels:srcWidth <- [DW_OP_plus_uconst 4] [$sp+0]
	@DEBUG_VALUE: lt7381_send_pixels:pixels_y <- $r11
	@DEBUG_VALUE: lt7381_send_pixels:destWidth <- $r6
	@DEBUG_VALUE: lt7381_send_pixels:destHeight <- [DW_OP_plus_uconst 8] [$sp+0]
	@DEBUG_VALUE: lt7381_send_pixels:scaleUpFactory <- [DW_OP_plus_uconst 60] [$sp+0]
	@DEBUG_VALUE: lt7381_send_pixels:byteLen <- [DW_OP_plus_uconst 56] [$sp+0]
	.loc	3 565 13                        @ ../Device/Display/LCD/LCD_LT7381.c:565:13
	ldrh	r4, [r2]
.Ltmp372:
	.loc	3 663 25                        @ ../Device/Display/LCD/LCD_LT7381.c:663:25
	lsls	r4, r4, #24
	bpl	.LBB5_22
.Ltmp373:
@ %bb.20:                               @   in Loop: Header=BB5_19 Depth=4
	@DEBUG_VALUE: lt7381_send_pixels:w <- $r10
	@DEBUG_VALUE: lt7381_send_pixels:r_y <- $r8
	@DEBUG_VALUE: lt7381_send_pixels:pixels_x <- $r0
	@DEBUG_VALUE: lt7381_send_pixels:color <- $r3
	@DEBUG_VALUE: lt7381_send_pixels:h <- [DW_OP_plus_uconst 12] [$sp+0]
	@DEBUG_VALUE: lt7381_send_pixels:srcWidth <- [DW_OP_plus_uconst 4] [$sp+0]
	@DEBUG_VALUE: lt7381_send_pixels:pixels_y <- $r11
	@DEBUG_VALUE: lt7381_send_pixels:destWidth <- $r6
	@DEBUG_VALUE: lt7381_send_pixels:destHeight <- [DW_OP_plus_uconst 8] [$sp+0]
	@DEBUG_VALUE: lt7381_send_pixels:scaleUpFactory <- [DW_OP_plus_uconst 60] [$sp+0]
	@DEBUG_VALUE: lt7381_send_pixels:byteLen <- [DW_OP_plus_uconst 56] [$sp+0]
	.loc	3 565 13                        @ ../Device/Display/LCD/LCD_LT7381.c:565:13
	ldrh	r4, [r2]
.Ltmp374:
	.loc	3 663 25                        @ ../Device/Display/LCD/LCD_LT7381.c:663:25
	lsls	r4, r4, #24
.Ltmp375:
	.loc	3 565 13                        @ ../Device/Display/LCD/LCD_LT7381.c:565:13
	itt	mi
	ldrhmi	r4, [r2]
.Ltmp376:
	.loc	3 663 25                        @ ../Device/Display/LCD/LCD_LT7381.c:663:25
	lslsmi.w	r4, r4, #24
	bpl	.LBB5_22
.Ltmp377:
@ %bb.21:                               @   in Loop: Header=BB5_19 Depth=4
	@DEBUG_VALUE: lt7381_send_pixels:w <- $r10
	@DEBUG_VALUE: lt7381_send_pixels:r_y <- $r8
	@DEBUG_VALUE: lt7381_send_pixels:pixels_x <- $r0
	@DEBUG_VALUE: lt7381_send_pixels:color <- $r3
	@DEBUG_VALUE: lt7381_send_pixels:h <- [DW_OP_plus_uconst 12] [$sp+0]
	@DEBUG_VALUE: lt7381_send_pixels:srcWidth <- [DW_OP_plus_uconst 4] [$sp+0]
	@DEBUG_VALUE: lt7381_send_pixels:pixels_y <- $r11
	@DEBUG_VALUE: lt7381_send_pixels:destWidth <- $r6
	@DEBUG_VALUE: lt7381_send_pixels:destHeight <- [DW_OP_plus_uconst 8] [$sp+0]
	@DEBUG_VALUE: lt7381_send_pixels:scaleUpFactory <- [DW_OP_plus_uconst 60] [$sp+0]
	@DEBUG_VALUE: lt7381_send_pixels:byteLen <- [DW_OP_plus_uconst 56] [$sp+0]
	.loc	3 565 13                        @ ../Device/Display/LCD/LCD_LT7381.c:565:13
	ldrh	r4, [r2]
.Ltmp378:
	.loc	3 663 25                        @ ../Device/Display/LCD/LCD_LT7381.c:663:25
	lsls	r4, r4, #24
	bmi	.LBB5_19
.Ltmp379:
	.loc	3 0 25 is_stmt 0                @ :0:25
.Ltmp380:
	.p2align	2
.LBB5_22:                               @   in Loop: Header=BB5_13 Depth=3
	@DEBUG_VALUE: lt7381_send_pixels:w <- $r10
	@DEBUG_VALUE: lt7381_send_pixels:r_y <- $r8
	@DEBUG_VALUE: lt7381_send_pixels:pixels_x <- $r0
	@DEBUG_VALUE: lt7381_send_pixels:color <- $r3
	@DEBUG_VALUE: lt7381_send_pixels:h <- [DW_OP_plus_uconst 12] [$sp+0]
	@DEBUG_VALUE: lt7381_send_pixels:srcWidth <- [DW_OP_plus_uconst 4] [$sp+0]
	@DEBUG_VALUE: lt7381_send_pixels:pixels_y <- $r11
	@DEBUG_VALUE: lt7381_send_pixels:destWidth <- $r6
	@DEBUG_VALUE: lt7381_send_pixels:destHeight <- [DW_OP_plus_uconst 8] [$sp+0]
	@DEBUG_VALUE: lt7381_send_pixels:scaleUpFactory <- [DW_OP_plus_uconst 60] [$sp+0]
	@DEBUG_VALUE: lt7381_send_pixels:byteLen <- [DW_OP_plus_uconst 56] [$sp+0]
	.loc	3 661 21 is_stmt 1              @ ../Device/Display/LCD/LCD_LT7381.c:661:21
	cmp	r1, #2
.Ltmp381:
	.loc	3 665 25                        @ ../Device/Display/LCD/LCD_LT7381.c:665:25
	strh	r3, [r7]
.Ltmp382:
	@DEBUG_VALUE: lt7381_send_pixels:r_x <- undef
	.loc	3 661 21                        @ ../Device/Display/LCD/LCD_LT7381.c:661:21
	beq	.LBB5_12
.Ltmp383:
.LBB5_23:                               @   Parent Loop BB5_7 Depth=1
                                        @     Parent Loop BB5_9 Depth=2
                                        @       Parent Loop BB5_13 Depth=3
                                        @ =>      This Inner Loop Header: Depth=4
	@DEBUG_VALUE: lt7381_send_pixels:w <- $r10
	@DEBUG_VALUE: lt7381_send_pixels:r_y <- $r8
	@DEBUG_VALUE: lt7381_send_pixels:pixels_x <- $r0
	@DEBUG_VALUE: lt7381_send_pixels:color <- $r3
	@DEBUG_VALUE: lt7381_send_pixels:h <- [DW_OP_plus_uconst 12] [$sp+0]
	@DEBUG_VALUE: lt7381_send_pixels:srcWidth <- [DW_OP_plus_uconst 4] [$sp+0]
	@DEBUG_VALUE: lt7381_send_pixels:pixels_y <- $r11
	@DEBUG_VALUE: lt7381_send_pixels:destWidth <- $r6
	@DEBUG_VALUE: lt7381_send_pixels:destHeight <- [DW_OP_plus_uconst 8] [$sp+0]
	@DEBUG_VALUE: lt7381_send_pixels:scaleUpFactory <- [DW_OP_plus_uconst 60] [$sp+0]
	@DEBUG_VALUE: lt7381_send_pixels:byteLen <- [DW_OP_plus_uconst 56] [$sp+0]
	.loc	3 565 13                        @ ../Device/Display/LCD/LCD_LT7381.c:565:13
	ldrh	r4, [r2]
.Ltmp384:
	.loc	3 663 25                        @ ../Device/Display/LCD/LCD_LT7381.c:663:25
	lsls	r4, r4, #24
	bpl	.LBB5_11
.Ltmp385:
@ %bb.24:                               @   in Loop: Header=BB5_23 Depth=4
	@DEBUG_VALUE: lt7381_send_pixels:w <- $r10
	@DEBUG_VALUE: lt7381_send_pixels:r_y <- $r8
	@DEBUG_VALUE: lt7381_send_pixels:pixels_x <- $r0
	@DEBUG_VALUE: lt7381_send_pixels:color <- $r3
	@DEBUG_VALUE: lt7381_send_pixels:h <- [DW_OP_plus_uconst 12] [$sp+0]
	@DEBUG_VALUE: lt7381_send_pixels:srcWidth <- [DW_OP_plus_uconst 4] [$sp+0]
	@DEBUG_VALUE: lt7381_send_pixels:pixels_y <- $r11
	@DEBUG_VALUE: lt7381_send_pixels:destWidth <- $r6
	@DEBUG_VALUE: lt7381_send_pixels:destHeight <- [DW_OP_plus_uconst 8] [$sp+0]
	@DEBUG_VALUE: lt7381_send_pixels:scaleUpFactory <- [DW_OP_plus_uconst 60] [$sp+0]
	@DEBUG_VALUE: lt7381_send_pixels:byteLen <- [DW_OP_plus_uconst 56] [$sp+0]
	.loc	3 565 13                        @ ../Device/Display/LCD/LCD_LT7381.c:565:13
	ldrh	r4, [r2]
.Ltmp386:
	.loc	3 663 25                        @ ../Device/Display/LCD/LCD_LT7381.c:663:25
	lsls	r4, r4, #24
.Ltmp387:
	.loc	3 565 13                        @ ../Device/Display/LCD/LCD_LT7381.c:565:13
	itt	mi
	ldrhmi	r4, [r2]
.Ltmp388:
	.loc	3 663 25                        @ ../Device/Display/LCD/LCD_LT7381.c:663:25
	lslsmi.w	r4, r4, #24
	bpl	.LBB5_11
.Ltmp389:
@ %bb.25:                               @   in Loop: Header=BB5_23 Depth=4
	@DEBUG_VALUE: lt7381_send_pixels:w <- $r10
	@DEBUG_VALUE: lt7381_send_pixels:r_y <- $r8
	@DEBUG_VALUE: lt7381_send_pixels:pixels_x <- $r0
	@DEBUG_VALUE: lt7381_send_pixels:color <- $r3
	@DEBUG_VALUE: lt7381_send_pixels:h <- [DW_OP_plus_uconst 12] [$sp+0]
	@DEBUG_VALUE: lt7381_send_pixels:srcWidth <- [DW_OP_plus_uconst 4] [$sp+0]
	@DEBUG_VALUE: lt7381_send_pixels:pixels_y <- $r11
	@DEBUG_VALUE: lt7381_send_pixels:destWidth <- $r6
	@DEBUG_VALUE: lt7381_send_pixels:destHeight <- [DW_OP_plus_uconst 8] [$sp+0]
	@DEBUG_VALUE: lt7381_send_pixels:scaleUpFactory <- [DW_OP_plus_uconst 60] [$sp+0]
	@DEBUG_VALUE: lt7381_send_pixels:byteLen <- [DW_OP_plus_uconst 56] [$sp+0]
	.loc	3 565 13                        @ ../Device/Display/LCD/LCD_LT7381.c:565:13
	ldrh	r4, [r2]
.Ltmp390:
	.loc	3 663 25                        @ ../Device/Display/LCD/LCD_LT7381.c:663:25
	lsls	r4, r4, #24
	bmi	.LBB5_23
	b	.LBB5_11
.Ltmp391:
	.loc	3 0 25 is_stmt 0                @ :0:25
.Ltmp392:
	.p2align	2
.LBB5_26:                               @   in Loop: Header=BB5_13 Depth=3
	@DEBUG_VALUE: lt7381_send_pixels:r_x <- 0
	@DEBUG_VALUE: lt7381_send_pixels:w <- $r10
	@DEBUG_VALUE: lt7381_send_pixels:r_y <- $r8
	@DEBUG_VALUE: lt7381_send_pixels:pixels_x <- $r0
	@DEBUG_VALUE: lt7381_send_pixels:color <- $r3
	@DEBUG_VALUE: lt7381_send_pixels:h <- [DW_OP_plus_uconst 12] [$sp+0]
	@DEBUG_VALUE: lt7381_send_pixels:srcWidth <- [DW_OP_plus_uconst 4] [$sp+0]
	@DEBUG_VALUE: lt7381_send_pixels:pixels_y <- $r11
	@DEBUG_VALUE: lt7381_send_pixels:destWidth <- $r6
	@DEBUG_VALUE: lt7381_send_pixels:destHeight <- [DW_OP_plus_uconst 8] [$sp+0]
	@DEBUG_VALUE: lt7381_send_pixels:scaleUpFactory <- [DW_OP_plus_uconst 60] [$sp+0]
	@DEBUG_VALUE: lt7381_send_pixels:byteLen <- [DW_OP_plus_uconst 56] [$sp+0]
	.loc	3 661 21 is_stmt 1              @ ../Device/Display/LCD/LCD_LT7381.c:661:21
	mov	lr, r9
.Ltmp393:
	@DEBUG_VALUE: lt7381_send_pixels:r_x <- undef
	.loc	3 0 21 is_stmt 0                @ ../Device/Display/LCD/LCD_LT7381.c:0:21
	b	.LBB5_28
.Ltmp394:
	.p2align	2
.LBB5_27:                               @   in Loop: Header=BB5_28 Depth=4
	@DEBUG_VALUE: lt7381_send_pixels:w <- $r10
	@DEBUG_VALUE: lt7381_send_pixels:r_y <- $r8
	@DEBUG_VALUE: lt7381_send_pixels:pixels_x <- $r0
	@DEBUG_VALUE: lt7381_send_pixels:color <- $r3
	@DEBUG_VALUE: lt7381_send_pixels:h <- [DW_OP_plus_uconst 12] [$sp+0]
	@DEBUG_VALUE: lt7381_send_pixels:srcWidth <- [DW_OP_plus_uconst 4] [$sp+0]
	@DEBUG_VALUE: lt7381_send_pixels:pixels_y <- $r11
	@DEBUG_VALUE: lt7381_send_pixels:destWidth <- $r6
	@DEBUG_VALUE: lt7381_send_pixels:destHeight <- [DW_OP_plus_uconst 8] [$sp+0]
	@DEBUG_VALUE: lt7381_send_pixels:scaleUpFactory <- [DW_OP_plus_uconst 60] [$sp+0]
	@DEBUG_VALUE: lt7381_send_pixels:byteLen <- [DW_OP_plus_uconst 56] [$sp+0]
	.loc	3 665 25 is_stmt 1              @ ../Device/Display/LCD/LCD_LT7381.c:665:25
	strh	r3, [r7]
.Ltmp395:
	@DEBUG_VALUE: lt7381_send_pixels:r_x <- undef
	.loc	3 661 21                        @ ../Device/Display/LCD/LCD_LT7381.c:661:21
	subs.w	lr, lr, #1
	bne	.LBB5_28
	b	.LBB5_14
.Ltmp396:
.LBB5_28:                               @   Parent Loop BB5_7 Depth=1
                                        @     Parent Loop BB5_9 Depth=2
                                        @       Parent Loop BB5_13 Depth=3
                                        @ =>      This Loop Header: Depth=4
                                        @           Child Loop BB5_31 Depth 5
                                        @           Child Loop BB5_35 Depth 5
                                        @           Child Loop BB5_39 Depth 5
	@DEBUG_VALUE: lt7381_send_pixels:w <- $r10
	@DEBUG_VALUE: lt7381_send_pixels:r_y <- $r8
	@DEBUG_VALUE: lt7381_send_pixels:pixels_x <- $r0
	@DEBUG_VALUE: lt7381_send_pixels:color <- $r3
	@DEBUG_VALUE: lt7381_send_pixels:h <- [DW_OP_plus_uconst 12] [$sp+0]
	@DEBUG_VALUE: lt7381_send_pixels:srcWidth <- [DW_OP_plus_uconst 4] [$sp+0]
	@DEBUG_VALUE: lt7381_send_pixels:pixels_y <- $r11
	@DEBUG_VALUE: lt7381_send_pixels:destWidth <- $r6
	@DEBUG_VALUE: lt7381_send_pixels:destHeight <- [DW_OP_plus_uconst 8] [$sp+0]
	@DEBUG_VALUE: lt7381_send_pixels:scaleUpFactory <- [DW_OP_plus_uconst 60] [$sp+0]
	@DEBUG_VALUE: lt7381_send_pixels:byteLen <- [DW_OP_plus_uconst 56] [$sp+0]
	.loc	3 565 13                        @ ../Device/Display/LCD/LCD_LT7381.c:565:13
	ldrh.w	r12, [r2]
.Ltmp397:
	.loc	3 663 25                        @ ../Device/Display/LCD/LCD_LT7381.c:663:25
	lsls.w	r4, r12, #24
	bpl	.LBB5_30
.Ltmp398:
@ %bb.29:                               @   in Loop: Header=BB5_28 Depth=4
	@DEBUG_VALUE: lt7381_send_pixels:w <- $r10
	@DEBUG_VALUE: lt7381_send_pixels:r_y <- $r8
	@DEBUG_VALUE: lt7381_send_pixels:pixels_x <- $r0
	@DEBUG_VALUE: lt7381_send_pixels:color <- $r3
	@DEBUG_VALUE: lt7381_send_pixels:h <- [DW_OP_plus_uconst 12] [$sp+0]
	@DEBUG_VALUE: lt7381_send_pixels:srcWidth <- [DW_OP_plus_uconst 4] [$sp+0]
	@DEBUG_VALUE: lt7381_send_pixels:pixels_y <- $r11
	@DEBUG_VALUE: lt7381_send_pixels:destWidth <- $r6
	@DEBUG_VALUE: lt7381_send_pixels:destHeight <- [DW_OP_plus_uconst 8] [$sp+0]
	@DEBUG_VALUE: lt7381_send_pixels:scaleUpFactory <- [DW_OP_plus_uconst 60] [$sp+0]
	@DEBUG_VALUE: lt7381_send_pixels:byteLen <- [DW_OP_plus_uconst 56] [$sp+0]
	.loc	3 565 13                        @ ../Device/Display/LCD/LCD_LT7381.c:565:13
	ldrh	r4, [r2]
.Ltmp399:
	.loc	3 663 25                        @ ../Device/Display/LCD/LCD_LT7381.c:663:25
	lsls	r4, r4, #24
.Ltmp400:
	.loc	3 565 13                        @ ../Device/Display/LCD/LCD_LT7381.c:565:13
	itt	mi
	ldrhmi	r4, [r2]
.Ltmp401:
	.loc	3 663 25                        @ ../Device/Display/LCD/LCD_LT7381.c:663:25
	lslsmi.w	r4, r4, #24
	bmi	.LBB5_42
.Ltmp402:
.LBB5_30:                               @   in Loop: Header=BB5_28 Depth=4
	@DEBUG_VALUE: lt7381_send_pixels:w <- $r10
	@DEBUG_VALUE: lt7381_send_pixels:r_y <- $r8
	@DEBUG_VALUE: lt7381_send_pixels:pixels_x <- $r0
	@DEBUG_VALUE: lt7381_send_pixels:color <- $r3
	@DEBUG_VALUE: lt7381_send_pixels:h <- [DW_OP_plus_uconst 12] [$sp+0]
	@DEBUG_VALUE: lt7381_send_pixels:srcWidth <- [DW_OP_plus_uconst 4] [$sp+0]
	@DEBUG_VALUE: lt7381_send_pixels:pixels_y <- $r11
	@DEBUG_VALUE: lt7381_send_pixels:destWidth <- $r6
	@DEBUG_VALUE: lt7381_send_pixels:destHeight <- [DW_OP_plus_uconst 8] [$sp+0]
	@DEBUG_VALUE: lt7381_send_pixels:scaleUpFactory <- [DW_OP_plus_uconst 60] [$sp+0]
	@DEBUG_VALUE: lt7381_send_pixels:byteLen <- [DW_OP_plus_uconst 56] [$sp+0]
	.loc	3 665 25                        @ ../Device/Display/LCD/LCD_LT7381.c:665:25
	strh	r3, [r7]
.Ltmp403:
	@DEBUG_VALUE: lt7381_send_pixels:r_x <- undef
.LBB5_31:                               @   Parent Loop BB5_7 Depth=1
                                        @     Parent Loop BB5_9 Depth=2
                                        @       Parent Loop BB5_13 Depth=3
                                        @         Parent Loop BB5_28 Depth=4
                                        @ =>        This Inner Loop Header: Depth=5
	@DEBUG_VALUE: lt7381_send_pixels:w <- $r10
	@DEBUG_VALUE: lt7381_send_pixels:r_y <- $r8
	@DEBUG_VALUE: lt7381_send_pixels:pixels_x <- $r0
	@DEBUG_VALUE: lt7381_send_pixels:color <- $r3
	@DEBUG_VALUE: lt7381_send_pixels:h <- [DW_OP_plus_uconst 12] [$sp+0]
	@DEBUG_VALUE: lt7381_send_pixels:srcWidth <- [DW_OP_plus_uconst 4] [$sp+0]
	@DEBUG_VALUE: lt7381_send_pixels:pixels_y <- $r11
	@DEBUG_VALUE: lt7381_send_pixels:destWidth <- $r6
	@DEBUG_VALUE: lt7381_send_pixels:destHeight <- [DW_OP_plus_uconst 8] [$sp+0]
	@DEBUG_VALUE: lt7381_send_pixels:scaleUpFactory <- [DW_OP_plus_uconst 60] [$sp+0]
	@DEBUG_VALUE: lt7381_send_pixels:byteLen <- [DW_OP_plus_uconst 56] [$sp+0]
	.loc	3 565 13                        @ ../Device/Display/LCD/LCD_LT7381.c:565:13
	ldrh	r4, [r2]
.Ltmp404:
	.loc	3 663 25                        @ ../Device/Display/LCD/LCD_LT7381.c:663:25
	lsls	r4, r4, #24
	bpl	.LBB5_34
.Ltmp405:
@ %bb.32:                               @   in Loop: Header=BB5_31 Depth=5
	@DEBUG_VALUE: lt7381_send_pixels:w <- $r10
	@DEBUG_VALUE: lt7381_send_pixels:r_y <- $r8
	@DEBUG_VALUE: lt7381_send_pixels:pixels_x <- $r0
	@DEBUG_VALUE: lt7381_send_pixels:color <- $r3
	@DEBUG_VALUE: lt7381_send_pixels:h <- [DW_OP_plus_uconst 12] [$sp+0]
	@DEBUG_VALUE: lt7381_send_pixels:srcWidth <- [DW_OP_plus_uconst 4] [$sp+0]
	@DEBUG_VALUE: lt7381_send_pixels:pixels_y <- $r11
	@DEBUG_VALUE: lt7381_send_pixels:destWidth <- $r6
	@DEBUG_VALUE: lt7381_send_pixels:destHeight <- [DW_OP_plus_uconst 8] [$sp+0]
	@DEBUG_VALUE: lt7381_send_pixels:scaleUpFactory <- [DW_OP_plus_uconst 60] [$sp+0]
	@DEBUG_VALUE: lt7381_send_pixels:byteLen <- [DW_OP_plus_uconst 56] [$sp+0]
	.loc	3 565 13                        @ ../Device/Display/LCD/LCD_LT7381.c:565:13
	ldrh	r4, [r2]
.Ltmp406:
	.loc	3 663 25                        @ ../Device/Display/LCD/LCD_LT7381.c:663:25
	lsls	r4, r4, #24
.Ltmp407:
	.loc	3 565 13                        @ ../Device/Display/LCD/LCD_LT7381.c:565:13
	itt	mi
	ldrhmi	r4, [r2]
.Ltmp408:
	.loc	3 663 25                        @ ../Device/Display/LCD/LCD_LT7381.c:663:25
	lslsmi.w	r4, r4, #24
	bpl	.LBB5_34
.Ltmp409:
@ %bb.33:                               @   in Loop: Header=BB5_31 Depth=5
	@DEBUG_VALUE: lt7381_send_pixels:w <- $r10
	@DEBUG_VALUE: lt7381_send_pixels:r_y <- $r8
	@DEBUG_VALUE: lt7381_send_pixels:pixels_x <- $r0
	@DEBUG_VALUE: lt7381_send_pixels:color <- $r3
	@DEBUG_VALUE: lt7381_send_pixels:h <- [DW_OP_plus_uconst 12] [$sp+0]
	@DEBUG_VALUE: lt7381_send_pixels:srcWidth <- [DW_OP_plus_uconst 4] [$sp+0]
	@DEBUG_VALUE: lt7381_send_pixels:pixels_y <- $r11
	@DEBUG_VALUE: lt7381_send_pixels:destWidth <- $r6
	@DEBUG_VALUE: lt7381_send_pixels:destHeight <- [DW_OP_plus_uconst 8] [$sp+0]
	@DEBUG_VALUE: lt7381_send_pixels:scaleUpFactory <- [DW_OP_plus_uconst 60] [$sp+0]
	@DEBUG_VALUE: lt7381_send_pixels:byteLen <- [DW_OP_plus_uconst 56] [$sp+0]
	.loc	3 565 13                        @ ../Device/Display/LCD/LCD_LT7381.c:565:13
	ldrh	r4, [r2]
.Ltmp410:
	.loc	3 663 25                        @ ../Device/Display/LCD/LCD_LT7381.c:663:25
	lsls	r4, r4, #24
	bmi	.LBB5_31
.Ltmp411:
	.loc	3 0 25 is_stmt 0                @ :0:25
.Ltmp412:
	.p2align	2
.LBB5_34:                               @   in Loop: Header=BB5_28 Depth=4
	@DEBUG_VALUE: lt7381_send_pixels:w <- $r10
	@DEBUG_VALUE: lt7381_send_pixels:r_y <- $r8
	@DEBUG_VALUE: lt7381_send_pixels:pixels_x <- $r0
	@DEBUG_VALUE: lt7381_send_pixels:color <- $r3
	@DEBUG_VALUE: lt7381_send_pixels:h <- [DW_OP_plus_uconst 12] [$sp+0]
	@DEBUG_VALUE: lt7381_send_pixels:srcWidth <- [DW_OP_plus_uconst 4] [$sp+0]
	@DEBUG_VALUE: lt7381_send_pixels:pixels_y <- $r11
	@DEBUG_VALUE: lt7381_send_pixels:destWidth <- $r6
	@DEBUG_VALUE: lt7381_send_pixels:destHeight <- [DW_OP_plus_uconst 8] [$sp+0]
	@DEBUG_VALUE: lt7381_send_pixels:scaleUpFactory <- [DW_OP_plus_uconst 60] [$sp+0]
	@DEBUG_VALUE: lt7381_send_pixels:byteLen <- [DW_OP_plus_uconst 56] [$sp+0]
	.loc	3 665 25 is_stmt 1              @ ../Device/Display/LCD/LCD_LT7381.c:665:25
	strh	r3, [r7]
.Ltmp413:
	@DEBUG_VALUE: lt7381_send_pixels:r_x <- undef
.LBB5_35:                               @   Parent Loop BB5_7 Depth=1
                                        @     Parent Loop BB5_9 Depth=2
                                        @       Parent Loop BB5_13 Depth=3
                                        @         Parent Loop BB5_28 Depth=4
                                        @ =>        This Inner Loop Header: Depth=5
	@DEBUG_VALUE: lt7381_send_pixels:w <- $r10
	@DEBUG_VALUE: lt7381_send_pixels:r_y <- $r8
	@DEBUG_VALUE: lt7381_send_pixels:pixels_x <- $r0
	@DEBUG_VALUE: lt7381_send_pixels:color <- $r3
	@DEBUG_VALUE: lt7381_send_pixels:h <- [DW_OP_plus_uconst 12] [$sp+0]
	@DEBUG_VALUE: lt7381_send_pixels:srcWidth <- [DW_OP_plus_uconst 4] [$sp+0]
	@DEBUG_VALUE: lt7381_send_pixels:pixels_y <- $r11
	@DEBUG_VALUE: lt7381_send_pixels:destWidth <- $r6
	@DEBUG_VALUE: lt7381_send_pixels:destHeight <- [DW_OP_plus_uconst 8] [$sp+0]
	@DEBUG_VALUE: lt7381_send_pixels:scaleUpFactory <- [DW_OP_plus_uconst 60] [$sp+0]
	@DEBUG_VALUE: lt7381_send_pixels:byteLen <- [DW_OP_plus_uconst 56] [$sp+0]
	.loc	3 565 13                        @ ../Device/Display/LCD/LCD_LT7381.c:565:13
	ldrh	r4, [r2]
.Ltmp414:
	.loc	3 663 25                        @ ../Device/Display/LCD/LCD_LT7381.c:663:25
	lsls	r4, r4, #24
	bpl	.LBB5_38
.Ltmp415:
@ %bb.36:                               @   in Loop: Header=BB5_35 Depth=5
	@DEBUG_VALUE: lt7381_send_pixels:w <- $r10
	@DEBUG_VALUE: lt7381_send_pixels:r_y <- $r8
	@DEBUG_VALUE: lt7381_send_pixels:pixels_x <- $r0
	@DEBUG_VALUE: lt7381_send_pixels:color <- $r3
	@DEBUG_VALUE: lt7381_send_pixels:h <- [DW_OP_plus_uconst 12] [$sp+0]
	@DEBUG_VALUE: lt7381_send_pixels:srcWidth <- [DW_OP_plus_uconst 4] [$sp+0]
	@DEBUG_VALUE: lt7381_send_pixels:pixels_y <- $r11
	@DEBUG_VALUE: lt7381_send_pixels:destWidth <- $r6
	@DEBUG_VALUE: lt7381_send_pixels:destHeight <- [DW_OP_plus_uconst 8] [$sp+0]
	@DEBUG_VALUE: lt7381_send_pixels:scaleUpFactory <- [DW_OP_plus_uconst 60] [$sp+0]
	@DEBUG_VALUE: lt7381_send_pixels:byteLen <- [DW_OP_plus_uconst 56] [$sp+0]
	.loc	3 565 13                        @ ../Device/Display/LCD/LCD_LT7381.c:565:13
	ldrh	r4, [r2]
.Ltmp416:
	.loc	3 663 25                        @ ../Device/Display/LCD/LCD_LT7381.c:663:25
	lsls	r4, r4, #24
.Ltmp417:
	.loc	3 565 13                        @ ../Device/Display/LCD/LCD_LT7381.c:565:13
	itt	mi
	ldrhmi	r4, [r2]
.Ltmp418:
	.loc	3 663 25                        @ ../Device/Display/LCD/LCD_LT7381.c:663:25
	lslsmi.w	r4, r4, #24
	bpl	.LBB5_38
.Ltmp419:
@ %bb.37:                               @   in Loop: Header=BB5_35 Depth=5
	@DEBUG_VALUE: lt7381_send_pixels:w <- $r10
	@DEBUG_VALUE: lt7381_send_pixels:r_y <- $r8
	@DEBUG_VALUE: lt7381_send_pixels:pixels_x <- $r0
	@DEBUG_VALUE: lt7381_send_pixels:color <- $r3
	@DEBUG_VALUE: lt7381_send_pixels:h <- [DW_OP_plus_uconst 12] [$sp+0]
	@DEBUG_VALUE: lt7381_send_pixels:srcWidth <- [DW_OP_plus_uconst 4] [$sp+0]
	@DEBUG_VALUE: lt7381_send_pixels:pixels_y <- $r11
	@DEBUG_VALUE: lt7381_send_pixels:destWidth <- $r6
	@DEBUG_VALUE: lt7381_send_pixels:destHeight <- [DW_OP_plus_uconst 8] [$sp+0]
	@DEBUG_VALUE: lt7381_send_pixels:scaleUpFactory <- [DW_OP_plus_uconst 60] [$sp+0]
	@DEBUG_VALUE: lt7381_send_pixels:byteLen <- [DW_OP_plus_uconst 56] [$sp+0]
	.loc	3 565 13                        @ ../Device/Display/LCD/LCD_LT7381.c:565:13
	ldrh	r4, [r2]
.Ltmp420:
	.loc	3 663 25                        @ ../Device/Display/LCD/LCD_LT7381.c:663:25
	lsls	r4, r4, #24
	bmi	.LBB5_35
.Ltmp421:
	.loc	3 0 25 is_stmt 0                @ :0:25
.Ltmp422:
	.p2align	2
.LBB5_38:                               @   in Loop: Header=BB5_28 Depth=4
	@DEBUG_VALUE: lt7381_send_pixels:w <- $r10
	@DEBUG_VALUE: lt7381_send_pixels:r_y <- $r8
	@DEBUG_VALUE: lt7381_send_pixels:pixels_x <- $r0
	@DEBUG_VALUE: lt7381_send_pixels:color <- $r3
	@DEBUG_VALUE: lt7381_send_pixels:h <- [DW_OP_plus_uconst 12] [$sp+0]
	@DEBUG_VALUE: lt7381_send_pixels:srcWidth <- [DW_OP_plus_uconst 4] [$sp+0]
	@DEBUG_VALUE: lt7381_send_pixels:pixels_y <- $r11
	@DEBUG_VALUE: lt7381_send_pixels:destWidth <- $r6
	@DEBUG_VALUE: lt7381_send_pixels:destHeight <- [DW_OP_plus_uconst 8] [$sp+0]
	@DEBUG_VALUE: lt7381_send_pixels:scaleUpFactory <- [DW_OP_plus_uconst 60] [$sp+0]
	@DEBUG_VALUE: lt7381_send_pixels:byteLen <- [DW_OP_plus_uconst 56] [$sp+0]
	.loc	3 665 25 is_stmt 1              @ ../Device/Display/LCD/LCD_LT7381.c:665:25
	strh	r3, [r7]
.Ltmp423:
	@DEBUG_VALUE: lt7381_send_pixels:r_x <- undef
.LBB5_39:                               @   Parent Loop BB5_7 Depth=1
                                        @     Parent Loop BB5_9 Depth=2
                                        @       Parent Loop BB5_13 Depth=3
                                        @         Parent Loop BB5_28 Depth=4
                                        @ =>        This Inner Loop Header: Depth=5
	@DEBUG_VALUE: lt7381_send_pixels:w <- $r10
	@DEBUG_VALUE: lt7381_send_pixels:r_y <- $r8
	@DEBUG_VALUE: lt7381_send_pixels:pixels_x <- $r0
	@DEBUG_VALUE: lt7381_send_pixels:color <- $r3
	@DEBUG_VALUE: lt7381_send_pixels:h <- [DW_OP_plus_uconst 12] [$sp+0]
	@DEBUG_VALUE: lt7381_send_pixels:srcWidth <- [DW_OP_plus_uconst 4] [$sp+0]
	@DEBUG_VALUE: lt7381_send_pixels:pixels_y <- $r11
	@DEBUG_VALUE: lt7381_send_pixels:destWidth <- $r6
	@DEBUG_VALUE: lt7381_send_pixels:destHeight <- [DW_OP_plus_uconst 8] [$sp+0]
	@DEBUG_VALUE: lt7381_send_pixels:scaleUpFactory <- [DW_OP_plus_uconst 60] [$sp+0]
	@DEBUG_VALUE: lt7381_send_pixels:byteLen <- [DW_OP_plus_uconst 56] [$sp+0]
	.loc	3 565 13                        @ ../Device/Display/LCD/LCD_LT7381.c:565:13
	ldrh	r4, [r2]
.Ltmp424:
	.loc	3 663 25                        @ ../Device/Display/LCD/LCD_LT7381.c:663:25
	lsls	r4, r4, #24
	bpl	.LBB5_27
.Ltmp425:
@ %bb.40:                               @   in Loop: Header=BB5_39 Depth=5
	@DEBUG_VALUE: lt7381_send_pixels:w <- $r10
	@DEBUG_VALUE: lt7381_send_pixels:r_y <- $r8
	@DEBUG_VALUE: lt7381_send_pixels:pixels_x <- $r0
	@DEBUG_VALUE: lt7381_send_pixels:color <- $r3
	@DEBUG_VALUE: lt7381_send_pixels:h <- [DW_OP_plus_uconst 12] [$sp+0]
	@DEBUG_VALUE: lt7381_send_pixels:srcWidth <- [DW_OP_plus_uconst 4] [$sp+0]
	@DEBUG_VALUE: lt7381_send_pixels:pixels_y <- $r11
	@DEBUG_VALUE: lt7381_send_pixels:destWidth <- $r6
	@DEBUG_VALUE: lt7381_send_pixels:destHeight <- [DW_OP_plus_uconst 8] [$sp+0]
	@DEBUG_VALUE: lt7381_send_pixels:scaleUpFactory <- [DW_OP_plus_uconst 60] [$sp+0]
	@DEBUG_VALUE: lt7381_send_pixels:byteLen <- [DW_OP_plus_uconst 56] [$sp+0]
	.loc	3 565 13                        @ ../Device/Display/LCD/LCD_LT7381.c:565:13
	ldrh	r4, [r2]
.Ltmp426:
	.loc	3 663 25                        @ ../Device/Display/LCD/LCD_LT7381.c:663:25
	lsls	r4, r4, #24
.Ltmp427:
	.loc	3 565 13                        @ ../Device/Display/LCD/LCD_LT7381.c:565:13
	itt	mi
	ldrhmi	r4, [r2]
.Ltmp428:
	.loc	3 663 25                        @ ../Device/Display/LCD/LCD_LT7381.c:663:25
	lslsmi.w	r4, r4, #24
	bpl	.LBB5_27
.Ltmp429:
@ %bb.41:                               @   in Loop: Header=BB5_39 Depth=5
	@DEBUG_VALUE: lt7381_send_pixels:w <- $r10
	@DEBUG_VALUE: lt7381_send_pixels:r_y <- $r8
	@DEBUG_VALUE: lt7381_send_pixels:pixels_x <- $r0
	@DEBUG_VALUE: lt7381_send_pixels:color <- $r3
	@DEBUG_VALUE: lt7381_send_pixels:h <- [DW_OP_plus_uconst 12] [$sp+0]
	@DEBUG_VALUE: lt7381_send_pixels:srcWidth <- [DW_OP_plus_uconst 4] [$sp+0]
	@DEBUG_VALUE: lt7381_send_pixels:pixels_y <- $r11
	@DEBUG_VALUE: lt7381_send_pixels:destWidth <- $r6
	@DEBUG_VALUE: lt7381_send_pixels:destHeight <- [DW_OP_plus_uconst 8] [$sp+0]
	@DEBUG_VALUE: lt7381_send_pixels:scaleUpFactory <- [DW_OP_plus_uconst 60] [$sp+0]
	@DEBUG_VALUE: lt7381_send_pixels:byteLen <- [DW_OP_plus_uconst 56] [$sp+0]
	.loc	3 565 13                        @ ../Device/Display/LCD/LCD_LT7381.c:565:13
	ldrh	r4, [r2]
.Ltmp430:
	.loc	3 663 25                        @ ../Device/Display/LCD/LCD_LT7381.c:663:25
	lsls	r4, r4, #24
	bmi	.LBB5_39
	b	.LBB5_27
.Ltmp431:
	.loc	3 0 25 is_stmt 0                @ :0:25
.Ltmp432:
	.p2align	2
.LBB5_42:                               @   in Loop: Header=BB5_28 Depth=4
	@DEBUG_VALUE: lt7381_send_pixels:w <- $r10
	@DEBUG_VALUE: lt7381_send_pixels:r_y <- $r8
	@DEBUG_VALUE: lt7381_send_pixels:pixels_x <- $r0
	@DEBUG_VALUE: lt7381_send_pixels:color <- $r3
	@DEBUG_VALUE: lt7381_send_pixels:h <- [DW_OP_plus_uconst 12] [$sp+0]
	@DEBUG_VALUE: lt7381_send_pixels:srcWidth <- [DW_OP_plus_uconst 4] [$sp+0]
	@DEBUG_VALUE: lt7381_send_pixels:pixels_y <- $r11
	@DEBUG_VALUE: lt7381_send_pixels:destWidth <- $r6
	@DEBUG_VALUE: lt7381_send_pixels:destHeight <- [DW_OP_plus_uconst 8] [$sp+0]
	@DEBUG_VALUE: lt7381_send_pixels:scaleUpFactory <- [DW_OP_plus_uconst 60] [$sp+0]
	@DEBUG_VALUE: lt7381_send_pixels:byteLen <- [DW_OP_plus_uconst 56] [$sp+0]
	.loc	3 565 13 is_stmt 1              @ ../Device/Display/LCD/LCD_LT7381.c:565:13
	ldrh	r4, [r2]
.Ltmp433:
	.loc	3 663 25                        @ ../Device/Display/LCD/LCD_LT7381.c:663:25
	lsls	r4, r4, #24
	bmi	.LBB5_28
	b	.LBB5_30
.Ltmp434:
.LBB5_43:
	@DEBUG_VALUE: lt7381_send_pixels:srcWidth <- [DW_OP_plus_uconst 4] [$sp+0]
	@DEBUG_VALUE: lt7381_send_pixels:pixels_y <- $r11
	@DEBUG_VALUE: lt7381_send_pixels:pixels_x <- 0
	@DEBUG_VALUE: lt7381_send_pixels:pixels <- $r11
	@DEBUG_VALUE: lt7381_send_pixels:destWidth <- $r6
	@DEBUG_VALUE: lt7381_send_pixels:destHeight <- [DW_OP_plus_uconst 8] [$sp+0]
	@DEBUG_VALUE: lt7381_send_pixels:scaleUpFactory <- [DW_OP_plus_uconst 60] [$sp+0]
	@DEBUG_VALUE: lt7381_send_pixels:byteLen <- [DW_OP_plus_uconst 56] [$sp+0]
	@DEBUG_VALUE: lt7381_send_pixels:fixedColor <- $r3
	@DEBUG_VALUE: lt7381_send_pixels:pixels_y <- $r11
	@DEBUG_VALUE: lt7381_send_pixels:h <- 0
	.loc	3 615 13                        @ ../Device/Display/LCD/LCD_LT7381.c:615:13
	ldr	r0, [sp, #8]                    @ 4-byte Reload
	cmp	r0, #0
	beq	.LBB5_58
.Ltmp435:
@ %bb.44:
	@DEBUG_VALUE: lt7381_send_pixels:h <- 0
	@DEBUG_VALUE: lt7381_send_pixels:srcWidth <- [DW_OP_plus_uconst 4] [$sp+0]
	@DEBUG_VALUE: lt7381_send_pixels:pixels_y <- $r11
	@DEBUG_VALUE: lt7381_send_pixels:pixels_x <- 0
	@DEBUG_VALUE: lt7381_send_pixels:pixels <- $r11
	@DEBUG_VALUE: lt7381_send_pixels:destWidth <- $r6
	@DEBUG_VALUE: lt7381_send_pixels:destHeight <- [DW_OP_plus_uconst 8] [$sp+0]
	@DEBUG_VALUE: lt7381_send_pixels:scaleUpFactory <- [DW_OP_plus_uconst 60] [$sp+0]
	@DEBUG_VALUE: lt7381_send_pixels:byteLen <- [DW_OP_plus_uconst 56] [$sp+0]
	@DEBUG_VALUE: lt7381_send_pixels:fixedColor <- $r3
	.loc	3 0 13 is_stmt 0                @ ../Device/Display/LCD/LCD_LT7381.c:0:13
	movs	r0, #1
	.loc	3 615 13                        @ ../Device/Display/LCD/LCD_LT7381.c:615:13
	cmp	r5, #1
	csel	r10, r5, r0, hi
	bic	r8, r10, #7
	movw	r9, :lower16:s_au16PDMALineBuf
	lsl.w	r1, r8, #1
	str	r1, [sp, #16]                   @ 4-byte Spill
	sub.w	r1, r8, #8
	add.w	r0, r0, r1, lsr #3
	movs	r1, #0
	movt	r9, :upper16:s_au16PDMALineBuf
	str	r0, [sp, #12]                   @ 4-byte Spill
.Ltmp436:
	.loc	3 0 13                          @ :0:13
.Ltmp437:
	.p2align	2
.LBB5_45:                               @ =>This Loop Header: Depth=1
                                        @     Child Loop BB5_48 Depth 2
                                        @       Child Loop BB5_51 Depth 3
                                        @       Child Loop BB5_54 Depth 3
                                        @     Child Loop BB5_56 Depth 2
	@DEBUG_VALUE: lt7381_send_pixels:srcWidth <- [DW_OP_plus_uconst 4] [$sp+0]
	@DEBUG_VALUE: lt7381_send_pixels:pixels_y <- $r11
	@DEBUG_VALUE: lt7381_send_pixels:destWidth <- $r6
	@DEBUG_VALUE: lt7381_send_pixels:destHeight <- [DW_OP_plus_uconst 8] [$sp+0]
	@DEBUG_VALUE: lt7381_send_pixels:scaleUpFactory <- [DW_OP_plus_uconst 60] [$sp+0]
	@DEBUG_VALUE: lt7381_send_pixels:byteLen <- [DW_OP_plus_uconst 56] [$sp+0]
	@DEBUG_VALUE: lt7381_send_pixels:pixels_y <- $r11
	@DEBUG_VALUE: lt7381_send_pixels:pixels_x <- $r11
	@DEBUG_VALUE: lt7381_send_pixels:h <- $r1
	@DEBUG_VALUE: lt7381_send_pixels:w <- 0
	@DEBUG_VALUE: pu16PDMAData <- undef
	str	r1, [sp]                        @ 4-byte Spill
.Ltmp438:
	@DEBUG_VALUE: lt7381_send_pixels:h <- [$sp+0]
	@DEBUG_VALUE: lt7381_send_pixels:h <- [$sp+0]
	@DEBUG_VALUE: lt7381_send_pixels:h <- [$sp+0]
	.loc	3 620 17 is_stmt 1              @ ../Device/Display/LCD/LCD_LT7381.c:620:17
	cbz	r6, .LBB5_55
.Ltmp439:
@ %bb.46:                               @   in Loop: Header=BB5_45 Depth=1
	@DEBUG_VALUE: lt7381_send_pixels:h <- [$sp+0]
	@DEBUG_VALUE: lt7381_send_pixels:pixels_x <- $r11
	@DEBUG_VALUE: lt7381_send_pixels:w <- 0
	@DEBUG_VALUE: lt7381_send_pixels:srcWidth <- [DW_OP_plus_uconst 4] [$sp+0]
	@DEBUG_VALUE: lt7381_send_pixels:pixels_y <- $r11
	@DEBUG_VALUE: lt7381_send_pixels:destWidth <- $r6
	@DEBUG_VALUE: lt7381_send_pixels:destHeight <- [DW_OP_plus_uconst 8] [$sp+0]
	@DEBUG_VALUE: lt7381_send_pixels:scaleUpFactory <- [DW_OP_plus_uconst 60] [$sp+0]
	@DEBUG_VALUE: lt7381_send_pixels:byteLen <- [DW_OP_plus_uconst 56] [$sp+0]
	.loc	3 0 17 is_stmt 0                @ ../Device/Display/LCD/LCD_LT7381.c:0:17
	movs	r0, #0
	mov	r4, r9
	mov	r1, r11
	b	.LBB5_48
.Ltmp440:
	.p2align	2
.LBB5_47:                               @   in Loop: Header=BB5_48 Depth=2
	@DEBUG_VALUE: lt7381_send_pixels:w <- $r0
	@DEBUG_VALUE: lt7381_send_pixels:pixels_x <- $r1
	@DEBUG_VALUE: lt7381_send_pixels:h <- [$sp+0]
	@DEBUG_VALUE: lt7381_send_pixels:srcWidth <- [DW_OP_plus_uconst 4] [$sp+0]
	@DEBUG_VALUE: lt7381_send_pixels:pixels_y <- $r11
	@DEBUG_VALUE: lt7381_send_pixels:destWidth <- $r6
	@DEBUG_VALUE: lt7381_send_pixels:destHeight <- [DW_OP_plus_uconst 8] [$sp+0]
	@DEBUG_VALUE: lt7381_send_pixels:scaleUpFactory <- [DW_OP_plus_uconst 60] [$sp+0]
	@DEBUG_VALUE: lt7381_send_pixels:byteLen <- [DW_OP_plus_uconst 56] [$sp+0]
	.loc	3 620 46                        @ ../Device/Display/LCD/LCD_LT7381.c:620:46
	add	r0, r5
.Ltmp441:
	@DEBUG_VALUE: pu16PDMAData <- $r3
	@DEBUG_VALUE: lt7381_send_pixels:w <- $r0
	.loc	3 623 30 is_stmt 1              @ ../Device/Display/LCD/LCD_LT7381.c:623:30
	adds	r1, #2
.Ltmp442:
	@DEBUG_VALUE: lt7381_send_pixels:pixels_x <- $r1
	.loc	3 620 17                        @ ../Device/Display/LCD/LCD_LT7381.c:620:17
	cmp	r0, r6
	mov	r4, r3
.Ltmp443:
	@DEBUG_VALUE: pu16PDMAData <- $r4
	@DEBUG_VALUE: pu16PDMAData <- $r4
	@DEBUG_VALUE: pu16PDMAData <- $r4
	bhs	.LBB5_55
.Ltmp444:
.LBB5_48:                               @   Parent Loop BB5_45 Depth=1
                                        @ =>  This Loop Header: Depth=2
                                        @       Child Loop BB5_51 Depth 3
                                        @       Child Loop BB5_54 Depth 3
	@DEBUG_VALUE: lt7381_send_pixels:h <- [$sp+0]
	@DEBUG_VALUE: lt7381_send_pixels:srcWidth <- [DW_OP_plus_uconst 4] [$sp+0]
	@DEBUG_VALUE: lt7381_send_pixels:pixels_y <- $r11
	@DEBUG_VALUE: lt7381_send_pixels:destWidth <- $r6
	@DEBUG_VALUE: lt7381_send_pixels:destHeight <- [DW_OP_plus_uconst 8] [$sp+0]
	@DEBUG_VALUE: lt7381_send_pixels:scaleUpFactory <- [DW_OP_plus_uconst 60] [$sp+0]
	@DEBUG_VALUE: lt7381_send_pixels:byteLen <- [DW_OP_plus_uconst 56] [$sp+0]
	@DEBUG_VALUE: lt7381_send_pixels:pixels_x <- $r1
	@DEBUG_VALUE: lt7381_send_pixels:w <- $r0
	@DEBUG_VALUE: pu16PDMAData <- $r4
	.loc	3 622 29                        @ ../Device/Display/LCD/LCD_LT7381.c:622:29
	ldrh	r2, [r1]
.Ltmp445:
	@DEBUG_VALUE: lt7381_send_pixels:r_x <- 0
	@DEBUG_VALUE: lt7381_send_pixels:color <- undef
	.loc	3 625 21                        @ ../Device/Display/LCD/LCD_LT7381.c:625:21
	cmp	r5, #8
	bhs	.LBB5_50
.Ltmp446:
@ %bb.49:                               @   in Loop: Header=BB5_48 Depth=2
	@DEBUG_VALUE: pu16PDMAData <- $r4
	@DEBUG_VALUE: lt7381_send_pixels:w <- $r0
	@DEBUG_VALUE: lt7381_send_pixels:pixels_x <- $r1
	@DEBUG_VALUE: lt7381_send_pixels:h <- [$sp+0]
	@DEBUG_VALUE: lt7381_send_pixels:r_x <- 0
	@DEBUG_VALUE: lt7381_send_pixels:srcWidth <- [DW_OP_plus_uconst 4] [$sp+0]
	@DEBUG_VALUE: lt7381_send_pixels:pixels_y <- $r11
	@DEBUG_VALUE: lt7381_send_pixels:destWidth <- $r6
	@DEBUG_VALUE: lt7381_send_pixels:destHeight <- [DW_OP_plus_uconst 8] [$sp+0]
	@DEBUG_VALUE: lt7381_send_pixels:scaleUpFactory <- [DW_OP_plus_uconst 60] [$sp+0]
	@DEBUG_VALUE: lt7381_send_pixels:byteLen <- [DW_OP_plus_uconst 56] [$sp+0]
	.loc	3 0 21 is_stmt 0                @ ../Device/Display/LCD/LCD_LT7381.c:0:21
	mov.w	r12, #0
	mov	r3, r4
.Ltmp447:
	@DEBUG_VALUE: lt7381_send_pixels:fixedColor <- [DW_OP_LLVM_entry_value 1] $r3
	.loc	3 625 21                        @ ../Device/Display/LCD/LCD_LT7381.c:625:21
	b	.LBB5_53
.Ltmp448:
	.loc	3 0 21                          @ :0:21
.Ltmp449:
	.p2align	2
.LBB5_50:                               @   in Loop: Header=BB5_48 Depth=2
	@DEBUG_VALUE: pu16PDMAData <- $r4
	@DEBUG_VALUE: lt7381_send_pixels:w <- $r0
	@DEBUG_VALUE: lt7381_send_pixels:pixels_x <- $r1
	@DEBUG_VALUE: lt7381_send_pixels:h <- [$sp+0]
	@DEBUG_VALUE: lt7381_send_pixels:r_x <- 0
	@DEBUG_VALUE: lt7381_send_pixels:srcWidth <- [DW_OP_plus_uconst 4] [$sp+0]
	@DEBUG_VALUE: lt7381_send_pixels:pixels_y <- $r11
	@DEBUG_VALUE: lt7381_send_pixels:destWidth <- $r6
	@DEBUG_VALUE: lt7381_send_pixels:destHeight <- [DW_OP_plus_uconst 8] [$sp+0]
	@DEBUG_VALUE: lt7381_send_pixels:scaleUpFactory <- [DW_OP_plus_uconst 60] [$sp+0]
	@DEBUG_VALUE: lt7381_send_pixels:byteLen <- [DW_OP_plus_uconst 56] [$sp+0]
	.loc	3 625 21                        @ ../Device/Display/LCD/LCD_LT7381.c:625:21
	ldr	r3, [sp, #12]                   @ 4-byte Reload
.Ltmp450:
	@DEBUG_VALUE: lt7381_send_pixels:fixedColor <- [DW_OP_LLVM_entry_value 1] $r3
	vdup.16	q0, r2
	dls	lr, r3
	ldr	r3, [sp, #16]                   @ 4-byte Reload
	add	r3, r4
.Ltmp451:
	.loc	3 0 21                          @ :0:21
.Ltmp452:
	.p2align	2
.LBB5_51:                               @   Parent Loop BB5_45 Depth=1
                                        @     Parent Loop BB5_48 Depth=2
                                        @ =>    This Inner Loop Header: Depth=3
	@DEBUG_VALUE: lt7381_send_pixels:w <- $r0
	@DEBUG_VALUE: lt7381_send_pixels:pixels_x <- $r1
	@DEBUG_VALUE: lt7381_send_pixels:h <- [$sp+0]
	@DEBUG_VALUE: lt7381_send_pixels:r_x <- 0
	@DEBUG_VALUE: lt7381_send_pixels:srcWidth <- [DW_OP_plus_uconst 4] [$sp+0]
	@DEBUG_VALUE: lt7381_send_pixels:pixels_y <- $r11
	@DEBUG_VALUE: lt7381_send_pixels:destWidth <- $r6
	@DEBUG_VALUE: lt7381_send_pixels:destHeight <- [DW_OP_plus_uconst 8] [$sp+0]
	@DEBUG_VALUE: lt7381_send_pixels:scaleUpFactory <- [DW_OP_plus_uconst 60] [$sp+0]
	@DEBUG_VALUE: lt7381_send_pixels:byteLen <- [DW_OP_plus_uconst 56] [$sp+0]
	.loc	3 627 39 is_stmt 1              @ ../Device/Display/LCD/LCD_LT7381.c:627:39
	vstrb.8	q0, [r4], #16
.Ltmp453:
	.loc	3 625 60                        @ ../Device/Display/LCD/LCD_LT7381.c:625:60
	le	lr, .LBB5_51
.Ltmp454:
@ %bb.52:                               @   in Loop: Header=BB5_48 Depth=2
	@DEBUG_VALUE: lt7381_send_pixels:w <- $r0
	@DEBUG_VALUE: lt7381_send_pixels:pixels_x <- $r1
	@DEBUG_VALUE: lt7381_send_pixels:h <- [$sp+0]
	@DEBUG_VALUE: lt7381_send_pixels:r_x <- 0
	@DEBUG_VALUE: lt7381_send_pixels:srcWidth <- [DW_OP_plus_uconst 4] [$sp+0]
	@DEBUG_VALUE: lt7381_send_pixels:pixels_y <- $r11
	@DEBUG_VALUE: lt7381_send_pixels:destWidth <- $r6
	@DEBUG_VALUE: lt7381_send_pixels:destHeight <- [DW_OP_plus_uconst 8] [$sp+0]
	@DEBUG_VALUE: lt7381_send_pixels:scaleUpFactory <- [DW_OP_plus_uconst 60] [$sp+0]
	@DEBUG_VALUE: lt7381_send_pixels:byteLen <- [DW_OP_plus_uconst 56] [$sp+0]
	.loc	3 625 21 is_stmt 0              @ ../Device/Display/LCD/LCD_LT7381.c:625:21
	cmp	r5, r8
	mov	r12, r8
	beq	.LBB5_47
.Ltmp455:
.LBB5_53:                               @   in Loop: Header=BB5_48 Depth=2
	@DEBUG_VALUE: lt7381_send_pixels:w <- $r0
	@DEBUG_VALUE: lt7381_send_pixels:pixels_x <- $r1
	@DEBUG_VALUE: lt7381_send_pixels:h <- [$sp+0]
	@DEBUG_VALUE: lt7381_send_pixels:r_x <- 0
	@DEBUG_VALUE: lt7381_send_pixels:srcWidth <- [DW_OP_plus_uconst 4] [$sp+0]
	@DEBUG_VALUE: lt7381_send_pixels:pixels_y <- $r11
	@DEBUG_VALUE: lt7381_send_pixels:destWidth <- $r6
	@DEBUG_VALUE: lt7381_send_pixels:destHeight <- [DW_OP_plus_uconst 8] [$sp+0]
	@DEBUG_VALUE: lt7381_send_pixels:scaleUpFactory <- [DW_OP_plus_uconst 60] [$sp+0]
	@DEBUG_VALUE: lt7381_send_pixels:byteLen <- [DW_OP_plus_uconst 56] [$sp+0]
	sub.w	lr, r10, r12
.Ltmp456:
	.loc	3 0 21                          @ :0:21
.Ltmp457:
	.p2align	2
.LBB5_54:                               @   Parent Loop BB5_45 Depth=1
                                        @     Parent Loop BB5_48 Depth=2
                                        @ =>    This Inner Loop Header: Depth=3
	@DEBUG_VALUE: lt7381_send_pixels:w <- $r0
	@DEBUG_VALUE: lt7381_send_pixels:pixels_x <- $r1
	@DEBUG_VALUE: lt7381_send_pixels:h <- [$sp+0]
	@DEBUG_VALUE: lt7381_send_pixels:srcWidth <- [DW_OP_plus_uconst 4] [$sp+0]
	@DEBUG_VALUE: lt7381_send_pixels:pixels_y <- $r11
	@DEBUG_VALUE: lt7381_send_pixels:destWidth <- $r6
	@DEBUG_VALUE: lt7381_send_pixels:destHeight <- [DW_OP_plus_uconst 8] [$sp+0]
	@DEBUG_VALUE: lt7381_send_pixels:scaleUpFactory <- [DW_OP_plus_uconst 60] [$sp+0]
	@DEBUG_VALUE: lt7381_send_pixels:byteLen <- [DW_OP_plus_uconst 56] [$sp+0]
	@DEBUG_VALUE: pu16PDMAData <- $r3
	@DEBUG_VALUE: lt7381_send_pixels:r_x <- undef
	.loc	3 627 39 is_stmt 1              @ ../Device/Display/LCD/LCD_LT7381.c:627:39
	strh	r2, [r3], #2
.Ltmp458:
	@DEBUG_VALUE: pu16PDMAData <- $r3
	.loc	3 625 21                        @ ../Device/Display/LCD/LCD_LT7381.c:625:21
	le	lr, .LBB5_54
	b	.LBB5_47
.Ltmp459:
	.loc	3 0 21 is_stmt 0                @ :0:21
.Ltmp460:
	.p2align	2
.LBB5_55:                               @   in Loop: Header=BB5_45 Depth=1
	@DEBUG_VALUE: lt7381_send_pixels:h <- [$sp+0]
	@DEBUG_VALUE: lt7381_send_pixels:srcWidth <- [DW_OP_plus_uconst 4] [$sp+0]
	@DEBUG_VALUE: lt7381_send_pixels:pixels_y <- $r11
	@DEBUG_VALUE: lt7381_send_pixels:destWidth <- $r6
	@DEBUG_VALUE: lt7381_send_pixels:destHeight <- [DW_OP_plus_uconst 8] [$sp+0]
	@DEBUG_VALUE: lt7381_send_pixels:scaleUpFactory <- [DW_OP_plus_uconst 60] [$sp+0]
	@DEBUG_VALUE: lt7381_send_pixels:byteLen <- [DW_OP_plus_uconst 56] [$sp+0]
	mov	r4, r10
.Ltmp461:
	.p2align	2
.LBB5_56:                               @   Parent Loop BB5_45 Depth=1
                                        @ =>  This Inner Loop Header: Depth=2
	@DEBUG_VALUE: lt7381_send_pixels:h <- [$sp+0]
	@DEBUG_VALUE: lt7381_send_pixels:srcWidth <- [DW_OP_plus_uconst 4] [$sp+0]
	@DEBUG_VALUE: lt7381_send_pixels:pixels_y <- $r11
	@DEBUG_VALUE: lt7381_send_pixels:destWidth <- $r6
	@DEBUG_VALUE: lt7381_send_pixels:destHeight <- [DW_OP_plus_uconst 8] [$sp+0]
	@DEBUG_VALUE: lt7381_send_pixels:scaleUpFactory <- [DW_OP_plus_uconst 60] [$sp+0]
	@DEBUG_VALUE: lt7381_send_pixels:byteLen <- [DW_OP_plus_uconst 56] [$sp+0]
	@DEBUG_VALUE: lt7381_send_pixels:r_y <- undef
	.loc	3 634 21 is_stmt 1              @ ../Device/Display/LCD/LCD_LT7381.c:634:21
	mov	r0, r7
	mov	r1, r9
	movs	r2, #16
	mov	r3, r6
	bl	nu_pdma_mempush
.Ltmp462:
	.loc	3 632 35                        @ ../Device/Display/LCD/LCD_LT7381.c:632:35
	subs	r4, #1
.Ltmp463:
	.loc	3 632 17 is_stmt 0              @ ../Device/Display/LCD/LCD_LT7381.c:632:17
	bne	.LBB5_56
.Ltmp464:
@ %bb.57:                               @   in Loop: Header=BB5_45 Depth=1
	@DEBUG_VALUE: lt7381_send_pixels:h <- [$sp+0]
	@DEBUG_VALUE: lt7381_send_pixels:srcWidth <- [DW_OP_plus_uconst 4] [$sp+0]
	@DEBUG_VALUE: lt7381_send_pixels:pixels_y <- $r11
	@DEBUG_VALUE: lt7381_send_pixels:destWidth <- $r6
	@DEBUG_VALUE: lt7381_send_pixels:destHeight <- [DW_OP_plus_uconst 8] [$sp+0]
	@DEBUG_VALUE: lt7381_send_pixels:scaleUpFactory <- [DW_OP_plus_uconst 60] [$sp+0]
	@DEBUG_VALUE: lt7381_send_pixels:byteLen <- [DW_OP_plus_uconst 56] [$sp+0]
	.loc	3 637 26 is_stmt 1              @ ../Device/Display/LCD/LCD_LT7381.c:637:26
	ldr	r0, [sp, #4]                    @ 4-byte Reload
	ldr	r1, [sp]                        @ 4-byte Reload
	add.w	r11, r11, r0, lsl #1
.Ltmp465:
	@DEBUG_VALUE: lt7381_send_pixels:pixels <- [DW_OP_LLVM_entry_value 1] $r0
	@DEBUG_VALUE: lt7381_send_pixels:pixels_y <- $r11
	.loc	3 615 13                        @ ../Device/Display/LCD/LCD_LT7381.c:615:13
	ldr	r0, [sp, #8]                    @ 4-byte Reload
.Ltmp466:
	.loc	3 615 43 is_stmt 0              @ ../Device/Display/LCD/LCD_LT7381.c:615:43
	add	r1, r5
.Ltmp467:
	@DEBUG_VALUE: lt7381_send_pixels:h <- $r1
	.loc	3 615 13                        @ ../Device/Display/LCD/LCD_LT7381.c:615:13
	cmp	r1, r0
	blo	.LBB5_45
.Ltmp468:
.LBB5_58:
	@DEBUG_VALUE: lt7381_send_pixels:srcWidth <- [DW_OP_plus_uconst 4] [$sp+0]
	@DEBUG_VALUE: lt7381_send_pixels:pixels_y <- $r11
	@DEBUG_VALUE: lt7381_send_pixels:destWidth <- $r6
	@DEBUG_VALUE: lt7381_send_pixels:destHeight <- [DW_OP_plus_uconst 8] [$sp+0]
	@DEBUG_VALUE: lt7381_send_pixels:scaleUpFactory <- [DW_OP_plus_uconst 60] [$sp+0]
	@DEBUG_VALUE: lt7381_send_pixels:byteLen <- [DW_OP_plus_uconst 56] [$sp+0]
	.loc	3 676 1 epilogue_begin is_stmt 1 @ ../Device/Display/LCD/LCD_LT7381.c:676:1
	add	sp, #20
	pop.w	{r4, r5, r6, r7, r8, r9, r10, r11, pc}
.Ltmp469:
.Lfunc_end5:
	.size	lt7381_send_pixels, .Lfunc_end5-lt7381_send_pixels
	.cfi_endproc
	.file	5 "C:\\Users\\jimmy\\Desktop\\Nuvoton\\Nuvoton-Team\\repos\\m55m1-ElevatorCounting-YOLOv8n\\KEIL" "../Device/Display/LCD\\../drv_pdma.h"
	.cantunwind
	.fnend
                                        @ -- End function
	.hidden	g_s_WVGA_LT7381                 @ @g_s_WVGA_LT7381
	.type	g_s_WVGA_LT7381,%object
	.section	.data.g_s_WVGA_LT7381,"aw",%progbits
	.globl	g_s_WVGA_LT7381
	.p2align	2, 0x0
g_s_WVGA_LT7381:
	.asciz	"LT7381\000\000\000\000\000\000\000\000\000"
	.byte	0                               @ 0x0
	.zero	1
	.short	800                             @ 0x320
	.short	480                             @ 0x1e0
	.zero	2
	.long	lt7381_init
	.long	lt7381_write_reg
	.long	lt7381_set_column
	.long	lt7381_set_page
	.long	lt7381_send_pixels
	.long	lt7381_put_char8x16
	.size	g_s_WVGA_LT7381, 48

	.hidden	s_au16PDMALineBuf               @ @s_au16PDMALineBuf
	.type	s_au16PDMALineBuf,%object
	.section	.bss.vram.data,"aw",%nobits
	.globl	s_au16PDMALineBuf
	.p2align	5, 0x0
s_au16PDMALineBuf:
	.zero	1600
	.size	s_au16PDMALineBuf, 1600

	.section	".note.GNU-stack","",%progbits
	.eabi_attribute	30, 1	@ Tag_ABI_optimization_goals
	.ARM_attribute	16, 1	@ Tag_AV_eba