	.text
	.syntax unified
	.eabi_attribute	67, "2.09"	@ Tag_conformance
	.cpu	cortex-m55
	.eabi_attribute	6, 21	@ Tag_CPU_arch
	.eabi_attribute	7, 77	@ Tag_CPU_arch_profile
	.eabi_attribute	8, 0	@ Tag_ARM_ISA_use
	.eabi_attribute	9, 3	@ Tag_THUMB_ISA_use
	.fpu	fpv5-d16
	.arch_extension	mve.fp
	.eabi_attribute	36, 1	@ Tag_FP_HP_extension
	.eabi_attribute	48, 2	@ Tag_MVE_arch
	.eabi_attribute	46, 1	@ Tag_DSP_extension
	.eabi_attribute	34, 1	@ Tag_CPU_unaligned_access
	.eabi_attribute	17, 1	@ Tag_ABI_PCS_GOT_use
	.eabi_attribute	20, 2	@ Tag_ABI_FP_denormal
	.eabi_attribute	21, 0	@ Tag_ABI_FP_exceptions
	.eabi_attribute	23, 1	@ Tag_ABI_FP_number_model
	.eabi_attribute	24, 1	@ Tag_ABI_align_needed
	.eabi_attribute	25, 1	@ Tag_ABI_align_preserved
	.eabi_attribute	28, 1	@ Tag_ABI_VFP_args
	.eabi_attribute	38, 1	@ Tag_ABI_FP_16bit_format
	.eabi_attribute	18, 2	@ Tag_ABI_PCS_wchar_t
	.eabi_attribute	26, 1	@ Tag_ABI_enum_size
	.eabi_attribute	14, 0	@ Tag_ABI_PCS_R9_use
	.file	"main.cpp"
	.file	1 "C:\\Users\\jimmy\\Desktop\\Nuvoton\\Nuvoton-Team-2\\repos\\m55m1-ElevatorCounting-YOLOv8n\\KEIL" "../main.cpp"
	.file	2 "C:\\Users\\jimmy" "AppData\\Local\\Keil_v5\\ARM\\ARMCLANG\\bin\\..\\include\\stdint.h"
	.file	3 "C:\\Users\\jimmy\\Desktop\\Nuvoton\\Nuvoton-Team-2\\repos\\m55m1-ElevatorCounting-YOLOv8n\\KEIL" "../../../../ThirdParty/openmv/omv/imlib\\imlib.h"
	.file	4 "C:\\Users\\jimmy\\Desktop\\Nuvoton\\Nuvoton-Team-2\\repos\\m55m1-ElevatorCounting-YOLOv8n\\KEIL" "..\\DetectionResult.hpp"
	.file	5 "C:\\Users\\jimmy" "AppData\\Local\\Keil_v5\\ARM\\ARMCLANG\\bin\\..\\include\\libcxx\\__memory\\allocator.h"
	.file	6 "C:\\Users\\jimmy" "AppData\\Local\\Keil_v5\\ARM\\ARMCLANG\\bin\\..\\include\\time.h"
	.file	7 "C:\\Users\\jimmy" "AppData\\Local\\Keil_v5\\ARM\\ARMCLANG\\bin\\..\\include\\libcxx\\__memory\\allocator_traits.h"
	.file	8 "C:\\Users\\jimmy" "AppData\\Local\\Keil_v5\\ARM\\ARMCLANG\\bin\\..\\include\\libcxx\\vector"
	.file	9 "C:\\Users\\jimmy" "AppData\\Local\\Keil_v5\\ARM\\ARMCLANG\\bin\\..\\include\\libcxx\\__memory\\compressed_pair.h"
	.file	10 "C:\\Users\\jimmy" "AppData\\Local\\Keil_v5\\ARM\\ARMCLANG\\bin\\..\\include\\libcxx\\__type_traits\\type_identity.h"
	.file	11 "C:\\Users\\jimmy" "AppData\\Local\\Keil_v5\\ARM\\ARMCLANG\\bin\\..\\include\\libcxx\\__iterator\\wrap_iter.h"
	.file	12 "C:\\Users\\jimmy" "AppData\\Local\\Keil_v5\\ARM\\ARMCLANG\\bin\\..\\include\\libcxx\\__iterator\\iterator_traits.h"
	.file	13 "C:\\Users\\jimmy" "AppData\\Local\\Keil_v5\\ARM\\ARMCLANG\\bin\\..\\include\\stddef.h"
	.file	14 "C:\\Users\\jimmy" "AppData\\Local\\Keil_v5\\ARM\\ARMCLANG\\bin\\..\\include\\libcxx\\__type_traits\\integral_constant.h"
	.file	15 "C:\\Users\\jimmy" "AppData\\Local\\Keil_v5\\ARM\\ARMCLANG\\bin\\..\\include\\libcxx\\stdexcept"
	.file	16 "C:\\Users\\jimmy" "AppData\\Local\\Keil_v5\\ARM\\ARMCLANG\\bin\\..\\include\\libcxx\\new"
	.file	17 "C:\\Users\\jimmy\\Desktop\\Nuvoton\\Nuvoton-Team-2\\repos\\m55m1-ElevatorCounting-YOLOv8n\\KEIL" "..\\mpu_config_M55M1.h"
	.file	18 "C:\\Users\\jimmy\\Desktop\\Nuvoton\\Nuvoton-Team-2\\repos\\m55m1-ElevatorCounting-YOLOv8n\\KEIL" "../../../../ThirdParty/tflite_micro\\tensorflow/lite/core/c/common.h"
	.file	19 "C:\\Users\\jimmy\\Desktop\\Nuvoton\\Nuvoton-Team-2\\repos\\m55m1-ElevatorCounting-YOLOv8n\\KEIL" "../../../../ThirdParty/tflite_micro\\tensorflow/lite/core/c/c_api_types.h"
	.file	20 "C:\\Users\\jimmy\\Desktop\\Nuvoton\\Nuvoton-Team-2\\repos\\m55m1-ElevatorCounting-YOLOv8n\\KEIL" "../Device/include\\ImageSensor.h"
	.file	21 "C:\\Users\\jimmy" "AppData\\Local\\Keil_v5\\ARM\\ARMCLANG\\bin\\..\\include\\wchar.h"
	.file	22 "C:\\Users\\jimmy\\Desktop\\Nuvoton\\Nuvoton-Team-2\\repos\\m55m1-ElevatorCounting-YOLOv8n\\KEIL" "../../../../ThirdParty/FatFs/source\\ff.h"
	.file	23 "C:\\Users\\jimmy\\Desktop\\Nuvoton\\Nuvoton-Team-2\\repos\\m55m1-ElevatorCounting-YOLOv8n\\KEIL" "../../../../ThirdParty/tflite_micro\\tensorflow/lite/schema/schema_generated.h"
	.file	24 "C:\\Users\\jimmy" "AppData\\Local\\Keil_v5\\ARM\\ARMCLANG\\bin\\..\\include\\libcxx\\limits"
	.file	25 "C:\\Users\\jimmy\\Desktop\\Nuvoton\\Nuvoton-Team-2\\repos\\m55m1-ElevatorCounting-YOLOv8n\\KEIL" "../../../../Library/CMSIS/Core/Include\\m-profile/armv8m_mpu.h"
	.file	26 "C:\\Users\\jimmy" "AppData\\Local\\Keil_v5\\ARM\\ARMCLANG\\bin\\..\\include\\libcxx\\initializer_list"
	.file	27 "C:\\Users\\jimmy" "AppData\\Local\\Keil_v5\\ARM\\ARMCLANG\\bin\\..\\include\\stdlib.h"
	.file	28 "C:\\Users\\jimmy" "AppData\\Local\\Keil_v5\\ARM\\ARMCLANG\\bin\\..\\include\\libcxx\\__utility\\exception_guard.h"
	.file	29 "C:\\Users\\jimmy" "AppData\\Local\\Keil_v5\\ARM\\ARMCLANG\\bin\\..\\include\\libcxx\\__string\\char_traits.h"
	.file	30 "C:\\Users\\jimmy" "AppData\\Local\\Keil_v5\\ARM\\ARMCLANG\\bin\\..\\include\\libcxx\\string_view"
	.file	31 "C:\\Users\\jimmy" "AppData\\Local\\Keil_v5\\ARM\\ARMCLANG\\bin\\..\\include\\libcxx\\string"
	.file	32 "C:\\Users\\jimmy" "AppData\\Local\\Keil_v5\\ARM\\ARMCLANG\\bin\\..\\include\\libcxx\\__memory\\unique_ptr.h"
	.file	33 "C:\\Users\\jimmy" "AppData\\Local\\Keil_v5\\ARM\\ARMCLANG\\bin\\..\\include\\libcxx\\stddef.h"
	.file	34 "C:\\Users\\jimmy" "AppData\\Local\\Keil_v5\\ARM\\ARMCLANG\\bin\\..\\include\\libcxx\\__type_traits\\add_lvalue_reference.h"
	.file	35 "C:\\Users\\jimmy" "AppData\\Local\\Keil_v5\\ARM\\ARMCLANG\\bin\\..\\include\\libcxx\\__utility\\pair.h"
	.file	36 "C:\\Users\\jimmy" "AppData\\Local\\Keil_v5\\ARM\\ARMCLANG\\bin\\..\\include\\libcxx\\__memory\\uninitialized_algorithms.h"
	.section	.text.__cxx_global_array_dtor,"ax",%progbits
	.p2align	2                               @ -- Begin function __cxx_global_array_dtor
	.type	__cxx_global_array_dtor,%function
	.code	16                              @ @__cxx_global_array_dtor
	.thumb_func
__cxx_global_array_dtor:
.Lfunc_begin0:
	.file	37 "C:\\Users\\jimmy\\Desktop\\Nuvoton\\Nuvoton-Team-2\\repos\\m55m1-ElevatorCounting-YOLOv8n\\KEIL" "..\\main.cpp"
	.loc	37 0 0                          @ ..\main.cpp:0:0
	.fnstart
	.cfi_sections .debug_frame
	.cfi_startproc
@ %bb.0:
	.save	{r4, lr}
	push	{r4, lr}
	.cfi_def_cfa_offset 8
	.cfi_offset lr, -4
	.cfi_offset r4, -8
.Ltmp0:
	.loc	8 528 18 prologue_end           @ AppData\Local\Keil_v5\ARM\ARMCLANG\bin\..\include\libcxx\vector:528:18
	movw	r4, :lower16:s_asFramebuf
	movt	r4, :upper16:s_asFramebuf
.Ltmp1:
	@DEBUG_VALUE: ~vector:this <- [DW_OP_plus_uconst 60, DW_OP_stack_value] $r4
	ldr	r0, [r4, #60]
.Ltmp2:
	@DEBUG_VALUE: ~S_FRAMEBUF:this <- undef
	.loc	8 528 11 is_stmt 0              @ AppData\Local\Keil_v5\ARM\ARMCLANG\bin\..\include\libcxx\vector:528:11
	cbz	r0, .LBB0_2
.Ltmp3:
@ %bb.1:
	@DEBUG_VALUE: ~vector:this <- [DW_OP_plus_uconst 60, DW_OP_stack_value] $r4
	@DEBUG_VALUE: __base_destruct_at_end:__soon_to_be_end <- undef
	.loc	8 637 35 is_stmt 1              @ AppData\Local\Keil_v5\ARM\ARMCLANG\bin\..\include\libcxx\vector:637:35
	ldr	r1, [r4, #68]
.Ltmp4:
	@DEBUG_VALUE: __base_destruct_at_end:__new_last <- $r0
	.loc	8 985 18                        @ AppData\Local\Keil_v5\ARM\ARMCLANG\bin\..\include\libcxx\vector:985:18
	str	r0, [r4, #64]
.Ltmp5:
	.loc	8 637 47                        @ AppData\Local\Keil_v5\ARM\ARMCLANG\bin\..\include\libcxx\vector:637:47
	subs	r1, r1, r0
.Ltmp6:
	@DEBUG_VALUE: __libcpp_operator_delete<void *, unsigned int>:__args <- $r0
	@DEBUG_VALUE: __do_deallocate_handle_size<>:__ptr <- $r0
	@DEBUG_VALUE: __libcpp_deallocate:__align <- 4
	@DEBUG_VALUE: __libcpp_deallocate:__ptr <- $r0
	@DEBUG_VALUE: deallocate:__p <- $r0
	@DEBUG_VALUE: deallocate:__p <- $r0
	@DEBUG_VALUE: __libcpp_operator_delete<void *, unsigned int>:__args <- $r1
	@DEBUG_VALUE: __do_deallocate_handle_size<>:__size <- $r1
	@DEBUG_VALUE: __libcpp_deallocate:__size <- $r1
	@DEBUG_VALUE: deallocate:__n <- [DW_OP_constu 24, DW_OP_div, DW_OP_stack_value] $r1
	@DEBUG_VALUE: deallocate:__n <- [DW_OP_constu 24, DW_OP_div, DW_OP_stack_value] $r1
	.loc	16 281 3                        @ AppData\Local\Keil_v5\ARM\ARMCLANG\bin\..\include\libcxx\new:281:3
	bl	_ZdlPvj
.Ltmp7:
	@DEBUG_VALUE: deallocate:this <- [DW_OP_plus_uconst 8, DW_OP_stack_value] undef
	@DEBUG_VALUE: deallocate:__a <- [DW_OP_plus_uconst 8, DW_OP_stack_value] undef
	@DEBUG_VALUE: capacity:this <- undef
	@DEBUG_VALUE: __base_destruct_at_end:this <- undef
	@DEBUG_VALUE: __clear:this <- undef
.LBB0_2:
	@DEBUG_VALUE: ~vector:this <- [DW_OP_plus_uconst 60, DW_OP_stack_value] $r4
	@DEBUG_VALUE: ~vector:this <- [DW_OP_plus_uconst 24, DW_OP_stack_value] $r4
	@DEBUG_VALUE: ~S_FRAMEBUF:this <- $r4
	@DEBUG_VALUE: operator():this <- undef
	.loc	8 528 18                        @ AppData\Local\Keil_v5\ARM\ARMCLANG\bin\..\include\libcxx\vector:528:18
	ldr	r0, [r4, #24]
.Ltmp8:
	.loc	8 528 11 is_stmt 0              @ AppData\Local\Keil_v5\ARM\ARMCLANG\bin\..\include\libcxx\vector:528:11
	cmp	r0, #0
.Ltmp9:
	.loc	37 0 0                          @ ..\main.cpp:0:0
	it	eq
	popeq	{r4, pc}
.Ltmp10:
.LBB0_3:
	@DEBUG_VALUE: __base_destruct_at_end:__soon_to_be_end <- undef
	.loc	8 637 35 is_stmt 1              @ AppData\Local\Keil_v5\ARM\ARMCLANG\bin\..\include\libcxx\vector:637:35
	ldr	r1, [r4, #32]
.Ltmp11:
	.loc	8 985 18                        @ AppData\Local\Keil_v5\ARM\ARMCLANG\bin\..\include\libcxx\vector:985:18
	str	r0, [r4, #28]
.Ltmp12:
	@DEBUG_VALUE: __libcpp_deallocate:__align <- 4
	.loc	8 637 47                        @ AppData\Local\Keil_v5\ARM\ARMCLANG\bin\..\include\libcxx\vector:637:47
	subs	r1, r1, r0
.Ltmp13:
	@DEBUG_VALUE: deallocate:this <- [DW_OP_plus_uconst 8, DW_OP_stack_value] undef
	@DEBUG_VALUE: deallocate:__a <- [DW_OP_plus_uconst 8, DW_OP_stack_value] undef
	@DEBUG_VALUE: capacity:this <- undef
	@DEBUG_VALUE: __base_destruct_at_end:this <- undef
	@DEBUG_VALUE: __clear:this <- undef
	@DEBUG_VALUE: __libcpp_operator_delete<void *, unsigned int>:__args <- $r0
	@DEBUG_VALUE: __do_deallocate_handle_size<>:__ptr <- $r0
	@DEBUG_VALUE: __libcpp_deallocate:__align <- 4
	@DEBUG_VALUE: __libcpp_deallocate:__ptr <- $r0
	@DEBUG_VALUE: deallocate:__p <- $r0
	@DEBUG_VALUE: deallocate:__p <- $r0
	@DEBUG_VALUE: __libcpp_operator_delete<void *, unsigned int>:__args <- $r1
	@DEBUG_VALUE: __do_deallocate_handle_size<>:__size <- $r1
	@DEBUG_VALUE: __libcpp_deallocate:__size <- $r1
	@DEBUG_VALUE: deallocate:__n <- [DW_OP_constu 24, DW_OP_div, DW_OP_stack_value] $r1
	@DEBUG_VALUE: deallocate:__n <- [DW_OP_constu 24, DW_OP_div, DW_OP_stack_value] $r1
	@DEBUG_VALUE: __base_destruct_at_end:__new_last <- $r0
	.loc	16 281 3 epilogue_begin         @ AppData\Local\Keil_v5\ARM\ARMCLANG\bin\..\include\libcxx\new:281:3
	pop.w	{r4, lr}
.Ltmp14:
	b	_ZdlPvj
.Ltmp15:
.Lfunc_end0:
	.size	__cxx_global_array_dtor, .Lfunc_end0-__cxx_global_array_dtor
	.cfi_endproc
	.file	38 "<stdin>"
	.cantunwind
	.fnend
                                        @ -- End function
	.section	.text.main,"ax",%progbits
	.hidden	main                            @ -- Begin function main
	.globl	main
	.p2align	4
	.type	main,%function
	.code	16                              @ @main
	.thumb_func
main:
.Lfunc_begin1:
	.loc	1 287 0                         @ ../main.cpp:287:0
	.fnstart
	.cfi_startproc
@ %bb.0:
	.save	{r4, r5, r6, r7, r8, r9, r10, r11, lr}
	push.w	{r4, r5, r6, r7, r8, r9, r10, r11, lr}
	.cfi_def_cfa_offset 36
	.cfi_offset lr, -4
	.cfi_offset r11, -8
	.cfi_offset r10, -12
	.cfi_offset r9, -16
	.cfi_offset r8, -20
	.cfi_offset r7, -24
	.cfi_offset r6, -28
	.cfi_offset r5, -32
	.cfi_offset r4, -36
	.pad	#4
	sub	sp, #4
	.cfi_def_cfa_offset 40
	.vsave	{d8, d9}
	vpush	{d8, d9}
	.cfi_def_cfa_offset 56
	.cfi_offset d9, -48
	.cfi_offset d8, -56
	.pad	#464
	sub	sp, #464
	.cfi_def_cfa_offset 520
.Ltmp16:
	.loc	1 289 5 prologue_end            @ ../main.cpp:289:5
	bl	_Z9BoardInitv
.Ltmp17:
	.loc	1 0 5 is_stmt 0                 @ ../main.cpp:0:5
	movw	r0, #14896
.Ltmp18:
	.loc	1 230 11 is_stmt 1              @ ../main.cpp:230:11
	str	r0, [sp, #324]
.Ltmp19:
	@DEBUG_VALUE: PrepareModelToHyperRAM:sd_path <- [DW_OP_plus_uconst 324, DW_OP_deref] $sp
	.loc	1 0 11 is_stmt 0                @ ../main.cpp:0:11
	add	r0, sp, #324
	.loc	1 231 5 is_stmt 1               @ ../main.cpp:231:5
	bl	f_chdrive
.Ltmp20:
	@DEBUG_VALUE: PrepareModelToHyperRAM:i32FileReadIndex <- 0
	.loc	1 237 6                         @ ../main.cpp:237:6
	movw	r0, :lower16:.L.str.9
	movt	r0, :upper16:.L.str.9
	bl	ModelFileReader_Initialize
.Ltmp21:
	.loc	1 237 5 is_stmt 0               @ ../main.cpp:237:5
	cmp	r0, #0
	beq.w	.LBB1_9
.Ltmp22:
@ %bb.1:
	@DEBUG_VALUE: PrepareModelToHyperRAM:i32FileReadIndex <- 0
	@DEBUG_VALUE: PrepareModelToHyperRAM:sd_path <- [DW_OP_plus_uconst 324, DW_OP_deref] $sp
	.loc	1 243 16 is_stmt 1              @ ../main.cpp:243:16
	bl	ModelFileReader_FileSize
.Ltmp23:
	mov	r4, r0
.Ltmp24:
	@DEBUG_VALUE: PrepareModelToHyperRAM:i32FileSize <- $r4
	.loc	1 244 5                         @ ../main.cpp:244:5
	movw	r0, :lower16:.L.str.3
	movt	r0, :upper16:.L.str.3
	bl	__2printf
.Ltmp25:
	adr.w	r0, .LCPI1_0
	mov	r1, r4
	bl	__2printf
.Ltmp26:
	@DEBUG_VALUE: PrepareModelToHyperRAM:i32FileReadIndex <- 0
	.loc	1 246 2                         @ ../main.cpp:246:2
	cmp	r4, #1
	blt.w	.LBB1_10
.Ltmp27:
@ %bb.2:
	@DEBUG_VALUE: PrepareModelToHyperRAM:i32FileSize <- $r4
	@DEBUG_VALUE: PrepareModelToHyperRAM:i32FileReadIndex <- 0
	@DEBUG_VALUE: PrepareModelToHyperRAM:sd_path <- [DW_OP_plus_uconst 324, DW_OP_deref] $sp
	.loc	1 0 2 is_stmt 0                 @ ../main.cpp:0:2
	movs	r5, #0
	movs	r6, #0
	movt	r5, #33344
.Ltmp28:
	.p2align	2
.LBB1_3:                                @ =>This Inner Loop Header: Depth=1
	@DEBUG_VALUE: PrepareModelToHyperRAM:i32FileSize <- $r4
	@DEBUG_VALUE: PrepareModelToHyperRAM:sd_path <- [DW_OP_plus_uconst 324, DW_OP_deref] $sp
	@DEBUG_VALUE: PrepareModelToHyperRAM:i32FileReadIndex <- $r6
	.loc	1 248 70 is_stmt 1              @ ../main.cpp:248:70
	adds	r0, r6, r5
	.loc	1 248 13 is_stmt 0              @ ../main.cpp:248:13
	mov.w	r1, #512
	bl	ModelFileReader_ReadData
.Ltmp29:
	@DEBUG_VALUE: PrepareModelToHyperRAM:i32Read <- $r0
	@DEBUG_VALUE: PrepareModelToHyperRAM:i32FileReadIndex <- [DW_OP_LLVM_arg 0, DW_OP_LLVM_arg 1, DW_OP_plus, DW_OP_stack_value] $r0, $r6
	.loc	1 249 6 is_stmt 1               @ ../main.cpp:249:6
	cmp.w	r0, #-1
	ble.w	.LBB1_11
.Ltmp30:
@ %bb.4:                                @   in Loop: Header=BB1_3 Depth=1
	@DEBUG_VALUE: PrepareModelToHyperRAM:i32FileReadIndex <- [DW_OP_LLVM_arg 0, DW_OP_LLVM_arg 1, DW_OP_plus, DW_OP_stack_value] $r0, $r6
	@DEBUG_VALUE: PrepareModelToHyperRAM:i32Read <- $r0
	@DEBUG_VALUE: PrepareModelToHyperRAM:i32FileSize <- $r4
	@DEBUG_VALUE: PrepareModelToHyperRAM:sd_path <- [DW_OP_plus_uconst 324, DW_OP_deref] $sp
	.loc	1 251 20                        @ ../main.cpp:251:20
	add	r6, r0
.Ltmp31:
	@DEBUG_VALUE: PrepareModelToHyperRAM:i32FileReadIndex <- $r6
	.loc	1 246 2                         @ ../main.cpp:246:2
	cmp	r6, r4
	blt	.LBB1_3
.Ltmp32:
@ %bb.5:
	@DEBUG_VALUE: PrepareModelToHyperRAM:i32Read <- $r0
	@DEBUG_VALUE: PrepareModelToHyperRAM:i32FileReadIndex <- $r6
	@DEBUG_VALUE: PrepareModelToHyperRAM:i32FileSize <- $r4
	@DEBUG_VALUE: PrepareModelToHyperRAM:sd_path <- [DW_OP_plus_uconst 324, DW_OP_deref] $sp
	.loc	1 281 2                         @ ../main.cpp:281:2
	bl	ModelFileReader_Finish
.Ltmp33:
	@DEBUG_VALUE: YOLOv8nODModel:this <- [DW_OP_plus_uconst 324, DW_OP_stack_value] $sp
	@DEBUG_VALUE: main:i32ModelSize <- $r4
	.loc	1 0 2 is_stmt 0                 @ ../main.cpp:0:2
	add	r0, sp, #324
.Ltmp34:
	.file	39 "C:\\Users\\jimmy\\Desktop\\Nuvoton\\Nuvoton-Team-2\\repos\\m55m1-ElevatorCounting-YOLOv8n\\KEIL" "../Model/include\\YOLOv8nODModel.hpp"
	.loc	39 22 7 is_stmt 1               @ ../Model/include\YOLOv8nODModel.hpp:22:7
	bl	_ZN3arm3app5ModelC2Ev
.Ltmp35:
	movw	r1, :lower16:_ZTVN3arm3app14YOLOv8nODModelE
.Ltmp36:
	.file	40 "C:\\Users\\jimmy\\Desktop\\Nuvoton\\Nuvoton-Team-2\\repos\\m55m1-ElevatorCounting-YOLOv8n\\KEIL" "../../../../ThirdParty/tflite_micro\\tensorflow/lite/micro/micro_mutable_op_resolver.h"
	.loc	40 49 37                        @ ../../../../ThirdParty/tflite_micro\tensorflow/lite/micro/micro_mutable_op_resolver.h:49:37
	movw	r2, :lower16:_ZTVN6tflite22MicroMutableOpResolverILj2EEE
.Ltmp37:
	.loc	39 22 7                         @ ../Model/include\YOLOv8nODModel.hpp:22:7
	movt	r1, :upper16:_ZTVN3arm3app14YOLOv8nODModelE
.Ltmp38:
	.loc	1 305 16                        @ ../main.cpp:305:16
	movw	r6, :lower16:_ZN3arm3appL11tensorArenaE
.Ltmp39:
	.loc	39 22 7                         @ ../Model/include\YOLOv8nODModel.hpp:22:7
	adds	r1, #8
.Ltmp40:
	@DEBUG_VALUE: MicroMutableOpResolver:this <- [DW_OP_plus_uconst 56, DW_OP_stack_value] $r0
	.loc	40 49 37                        @ ../../../../ThirdParty/tflite_micro\tensorflow/lite/micro/micro_mutable_op_resolver.h:49:37
	movt	r2, :upper16:_ZTVN6tflite22MicroMutableOpResolverILj2EEE
.Ltmp41:
	.loc	39 22 7                         @ ../Model/include\YOLOv8nODModel.hpp:22:7
	str	r1, [sp, #324]
.Ltmp42:
	.loc	40 49 37                        @ ../../../../ThirdParty/tflite_micro\tensorflow/lite/micro/micro_mutable_op_resolver.h:49:37
	add.w	r1, r2, #8
.Ltmp43:
	.loc	1 305 16                        @ ../main.cpp:305:16
	movt	r6, :upper16:_ZN3arm3appL11tensorArenaE
	movs	r7, #0
.Ltmp44:
	.loc	40 49 37                        @ ../../../../ThirdParty/tflite_micro\tensorflow/lite/micro/micro_mutable_op_resolver.h:49:37
	str	r1, [sp, #380]
.Ltmp45:
	.loc	1 305 16                        @ ../main.cpp:305:16
	mov	r1, r6
	mov.w	r2, #1048576
	mov	r3, r5
.Ltmp46:
	.loc	40 708 16                       @ ../../../../ThirdParty/tflite_micro\tensorflow/lite/micro/micro_mutable_op_resolver.h:708:16
	str	r7, [sp, #440]
	.loc	40 714 16                       @ ../../../../ThirdParty/tflite_micro\tensorflow/lite/micro/micro_mutable_op_resolver.h:714:16
	str	r7, [sp, #460]
.Ltmp47:
	.loc	1 305 16                        @ ../main.cpp:305:16
	strd	r4, r7, [sp]
	bl	_ZN3arm3app5Model4InitEPhjPKhjPN6tflite14MicroAllocatorE
.Ltmp48:
	.loc	1 305 9 is_stmt 0               @ ../main.cpp:305:9
	cmp	r0, #0
	beq	.LBB1_14
.Ltmp49:
@ %bb.6:
	@DEBUG_VALUE: main:i32ModelSize <- $r4
	.loc	1 315 5 is_stmt 1               @ ../main.cpp:315:5
	movw	r0, :lower16:.L.str.3
	movt	r0, :upper16:.L.str.3
	bl	__2printf
.Ltmp50:
	adr.w	r0, .LCPI1_2
	bl	puts
.Ltmp51:
	.loc	1 0 5 is_stmt 0                 @ ../main.cpp:0:5
	movw	r0, #65535
	movs	r1, #3
	movt	r0, #15
	.loc	1 325 13 is_stmt 1              @ ../main.cpp:325:13
	add	r0, r6
	.loc	1 320 13                        @ ../main.cpp:320:13
	bfi	r6, r1, #0, #5
	.loc	1 325 13                        @ ../main.cpp:325:13
	bic	r11, r0, #20
	.loc	1 330 13                        @ ../main.cpp:330:13
	movw	r1, :lower16:_ZL8fb_array
	movw	r0, #23551
	movt	r1, :upper16:_ZL8fb_array
	movt	r0, #2
	orr	r7, r1, #3
	.loc	1 335 13                        @ ../main.cpp:335:13
	add.w	r10, r1, r0
	.loc	1 341 13                        @ ../main.cpp:341:13
	movw	r1, :lower16:_ZL10frame_buf1
	movt	r1, :upper16:_ZL10frame_buf1
	.loc	1 346 13                        @ ../main.cpp:346:13
	add	r0, r1
	bic	r9, r0, #22
.Ltmp52:
	@DEBUG_VALUE: __libcpp_operator_new<unsigned int>:__args <- 24
	@DEBUG_VALUE: __libcpp_allocate:__align <- 4
	@DEBUG_VALUE: __libcpp_allocate:__size <- 24
	@DEBUG_VALUE: allocate:__n <- 3
	@DEBUG_VALUE: allocate:this <- undef
	@DEBUG_VALUE: __allocate_at_least<std::__2::allocator<ARM_MPU_Region_t> >:__n <- 3
	@DEBUG_VALUE: __allocate_at_least<std::__2::allocator<ARM_MPU_Region_t> >:__alloc <- undef
	@DEBUG_VALUE: __vallocate:__n <- 3
	@DEBUG_VALUE: __vallocate:this <- undef
	@DEBUG_VALUE: __guard <- 0
	@DEBUG_VALUE: main:mpuConfig <- [DW_OP_LLVM_fragment 64 32] 0
	@DEBUG_VALUE: main:mpuConfig <- [DW_OP_LLVM_fragment 32 32] 0
	@DEBUG_VALUE: main:mpuConfig <- [DW_OP_LLVM_fragment 0 32] 0
	@DEBUG_VALUE: vector:this <- undef
	@DEBUG_VALUE: vector:__il <- [DW_OP_LLVM_fragment 32 32] 3
	@DEBUG_VALUE: vector:__il <- [DW_OP_LLVM_fragment 0 32] undef
	.loc	16 272 10                       @ AppData\Local\Keil_v5\ARM\ARMCLANG\bin\..\include\libcxx\new:272:10
	movs	r0, #24
.Ltmp53:
	.loc	1 335 13                        @ ../main.cpp:335:13
	bic	r4, r10, #22
.Ltmp54:
	.loc	1 341 13                        @ ../main.cpp:341:13
	orr	r8, r1, #3
.Ltmp55:
	.loc	16 272 10                       @ AppData\Local\Keil_v5\ARM\ARMCLANG\bin\..\include\libcxx\new:272:10
	bl	_Znwj
.Ltmp56:
	.loc	1 353 5                         @ ../main.cpp:353:5
	movs	r1, #3
.Ltmp57:
	.loc	16 272 10                       @ AppData\Local\Keil_v5\ARM\ARMCLANG\bin\..\include\libcxx\new:272:10
	mov	r5, r0
.Ltmp58:
	@DEBUG_VALUE: __uninitialized_allocator_copy_impl<std::__2::allocator<ARM_MPU_Region_t>, const ARM_MPU_Region_t *, const ARM_MPU_Region_t *, ARM_MPU_Region_t *>:__first2 <- undef
	@DEBUG_VALUE: construct<ARM_MPU_Region_t, const ARM_MPU_Region_t &>:__args <- undef
	@DEBUG_VALUE: construct<ARM_MPU_Region_t, const ARM_MPU_Region_t &>:__p <- undef
	@DEBUG_VALUE: construct<ARM_MPU_Region_t, const ARM_MPU_Region_t &>:this <- undef
	@DEBUG_VALUE: construct<ARM_MPU_Region_t, const ARM_MPU_Region_t &, 0>:__args <- undef
	@DEBUG_VALUE: construct<ARM_MPU_Region_t, const ARM_MPU_Region_t &, 0>:__p <- undef
	@DEBUG_VALUE: construct<ARM_MPU_Region_t, const ARM_MPU_Region_t &, 0>:__a <- undef
	@DEBUG_VALUE: __uninitialized_allocator_copy_impl<std::__2::allocator<ARM_MPU_Region_t>, const ARM_MPU_Region_t *, const ARM_MPU_Region_t *, ARM_MPU_Region_t *>:__guard <- 1
	@DEBUG_VALUE: __uninitialized_allocator_copy_impl<std::__2::allocator<ARM_MPU_Region_t>, const ARM_MPU_Region_t *, const ARM_MPU_Region_t *, ARM_MPU_Region_t *>:__last1 <- undef
	@DEBUG_VALUE: __uninitialized_allocator_copy_impl<std::__2::allocator<ARM_MPU_Region_t>, const ARM_MPU_Region_t *, const ARM_MPU_Region_t *, ARM_MPU_Region_t *>:__first1 <- undef
	@DEBUG_VALUE: __uninitialized_allocator_copy_impl<std::__2::allocator<ARM_MPU_Region_t>, const ARM_MPU_Region_t *, const ARM_MPU_Region_t *, ARM_MPU_Region_t *>:__alloc <- undef
	@DEBUG_VALUE: __uninitialized_allocator_copy<std::__2::allocator<ARM_MPU_Region_t>, const ARM_MPU_Region_t *, const ARM_MPU_Region_t *, ARM_MPU_Region_t *>:__unwrapped_range <- [DW_OP_LLVM_fragment 32 32] undef
	@DEBUG_VALUE: __uninitialized_allocator_copy<std::__2::allocator<ARM_MPU_Region_t>, const ARM_MPU_Region_t *, const ARM_MPU_Region_t *, ARM_MPU_Region_t *>:__unwrapped_range <- [DW_OP_LLVM_fragment 0 32] undef
	@DEBUG_VALUE: __uninitialized_allocator_copy<std::__2::allocator<ARM_MPU_Region_t>, const ARM_MPU_Region_t *, const ARM_MPU_Region_t *, ARM_MPU_Region_t *>:__last1 <- undef
	@DEBUG_VALUE: __uninitialized_allocator_copy<std::__2::allocator<ARM_MPU_Region_t>, const ARM_MPU_Region_t *, const ARM_MPU_Region_t *, ARM_MPU_Region_t *>:__first1 <- undef
	@DEBUG_VALUE: __uninitialized_allocator_copy<std::__2::allocator<ARM_MPU_Region_t>, const ARM_MPU_Region_t *, const ARM_MPU_Region_t *, ARM_MPU_Region_t *>:__alloc <- undef
	@DEBUG_VALUE: __construct_at_end<const ARM_MPU_Region_t *, const ARM_MPU_Region_t *>:__tx <- [DW_OP_LLVM_fragment 0 32] undef
	@DEBUG_VALUE: __construct_at_end<const ARM_MPU_Region_t *, const ARM_MPU_Region_t *>:__n <- 3
	@DEBUG_VALUE: __construct_at_end<const ARM_MPU_Region_t *, const ARM_MPU_Region_t *>:__last <- undef
	@DEBUG_VALUE: __construct_at_end<const ARM_MPU_Region_t *, const ARM_MPU_Region_t *>:__first <- undef
	@DEBUG_VALUE: __construct_at_end<const ARM_MPU_Region_t *, const ARM_MPU_Region_t *>:this <- undef
	@DEBUG_VALUE: __vallocate:__allocation <- [DW_OP_LLVM_fragment 32 32] 3
	@DEBUG_VALUE: __uninitialized_allocator_copy<std::__2::allocator<ARM_MPU_Region_t>, const ARM_MPU_Region_t *, const ARM_MPU_Region_t *, ARM_MPU_Region_t *>:__result <- [DW_OP_plus_uconst 24, DW_OP_stack_value] $r5
	@DEBUG_VALUE: __uninitialized_allocator_copy<std::__2::allocator<ARM_MPU_Region_t>, const ARM_MPU_Region_t *, const ARM_MPU_Region_t *, ARM_MPU_Region_t *>:__first2 <- $r5
	@DEBUG_VALUE: __construct_at_end<const ARM_MPU_Region_t *, const ARM_MPU_Region_t *>:__tx <- [DW_OP_LLVM_arg 0, DW_OP_LLVM_arg 1, DW_OP_constu 8, DW_OP_mul, DW_OP_plus, DW_OP_stack_value, DW_OP_LLVM_fragment 64 32] $r5, 3
	@DEBUG_VALUE: __construct_at_end<const ARM_MPU_Region_t *, const ARM_MPU_Region_t *>:__tx <- [DW_OP_LLVM_arg 0, DW_OP_LLVM_arg 1, DW_OP_plus, DW_OP_stack_value, DW_OP_LLVM_fragment 32 32] $r5, 24
	@DEBUG_VALUE: __vallocate:__allocation <- [DW_OP_LLVM_fragment 0 32] $r5
	@DEBUG_VALUE: __guard <- 1
	@DEBUG_VALUE: main:mpuConfig <- [DW_OP_plus_uconst 24, DW_OP_stack_value, DW_OP_LLVM_fragment 64 32] $r5
	@DEBUG_VALUE: main:mpuConfig <- [DW_OP_LLVM_arg 0, DW_OP_LLVM_arg 1, DW_OP_plus, DW_OP_stack_value, DW_OP_LLVM_fragment 32 32] $r5, 24
	@DEBUG_VALUE: main:mpuConfig <- [DW_OP_LLVM_fragment 0 32] $r5
	.loc	5 151 24                        @ AppData\Local\Keil_v5\ARM\ARMCLANG\bin\..\include\libcxx\__memory\allocator.h:151:24
	strd	r6, r11, [r0]
	strd	r7, r4, [r0, #8]
	strd	r8, r9, [r0, #16]
.Ltmp59:
	.loc	1 353 5                         @ ../main.cpp:353:5
	bl	InitPreDefMPURegion
.Ltmp60:
	.loc	1 0 5 is_stmt 0                 @ ../main.cpp:0:5
	add	r0, sp, #324
	.loc	1 360 41 is_stmt 1              @ ../main.cpp:360:41
	movs	r1, #0
	bl	_ZNK3arm3app5Model14GetInputTensorEj
.Ltmp61:
	mov	r4, r0
.Ltmp62:
	@DEBUG_VALUE: main:inputTensor <- $r4
	.loc	1 362 23                        @ ../main.cpp:362:23
	ldr	r0, [r0, #20]
.Ltmp63:
	.loc	1 362 9 is_stmt 0               @ ../main.cpp:362:9
	cmp	r0, #0
	beq	.LBB1_15
.Ltmp64:
@ %bb.7:
	@DEBUG_VALUE: main:inputTensor <- $r4
	@DEBUG_VALUE: main:mpuConfig <- [DW_OP_LLVM_fragment 0 32] $r5
	@DEBUG_VALUE: main:mpuConfig <- [DW_OP_LLVM_arg 0, DW_OP_LLVM_arg 1, DW_OP_plus, DW_OP_stack_value, DW_OP_LLVM_fragment 32 32] $r5, 24
	@DEBUG_VALUE: main:mpuConfig <- [DW_OP_plus_uconst 24, DW_OP_stack_value, DW_OP_LLVM_fragment 64 32] $r5
	.loc	1 367 33 is_stmt 1              @ ../main.cpp:367:33
	ldr	r0, [r0]
.Ltmp65:
	.loc	1 367 14 is_stmt 0              @ ../main.cpp:367:14
	cmp	r0, #3
	bge	.LBB1_23
.Ltmp66:
@ %bb.8:
	@DEBUG_VALUE: main:inputTensor <- $r4
	@DEBUG_VALUE: main:mpuConfig <- [DW_OP_LLVM_fragment 0 32] $r5
	@DEBUG_VALUE: main:mpuConfig <- [DW_OP_LLVM_arg 0, DW_OP_LLVM_arg 1, DW_OP_plus, DW_OP_stack_value, DW_OP_LLVM_fragment 32 32] $r5, 24
	@DEBUG_VALUE: main:mpuConfig <- [DW_OP_plus_uconst 24, DW_OP_stack_value, DW_OP_LLVM_fragment 64 32] $r5
	.loc	1 0 14                          @ ../main.cpp:0:14
	movw	r6, :lower16:.Lstr.18
	movs	r4, #3
.Ltmp67:
	movt	r6, :upper16:.Lstr.18
	.loc	1 367 14                        @ ../main.cpp:367:14
	b	.LBB1_16
.Ltmp68:
.LBB1_9:
	@DEBUG_VALUE: PrepareModelToHyperRAM:i32FileReadIndex <- 0
	@DEBUG_VALUE: PrepareModelToHyperRAM:sd_path <- [DW_OP_plus_uconst 324, DW_OP_deref] $sp
	.loc	1 239 9 is_stmt 1               @ ../main.cpp:239:9
	movw	r0, :lower16:.L.str
	movt	r0, :upper16:.L.str
	bl	__2printf
.Ltmp69:
	movw	r0, :lower16:.L.str.10
	movw	r1, :lower16:.L.str.9
	movt	r0, :upper16:.L.str.10
	movt	r1, :upper16:.L.str.9
	bl	__2printf
.Ltmp70:
	.loc	1 240 3                         @ ../main.cpp:240:3
	b	.LBB1_12
.Ltmp71:
.LBB1_10:
	@DEBUG_VALUE: PrepareModelToHyperRAM:i32FileSize <- $r4
	@DEBUG_VALUE: PrepareModelToHyperRAM:i32FileReadIndex <- 0
	@DEBUG_VALUE: PrepareModelToHyperRAM:sd_path <- [DW_OP_plus_uconst 324, DW_OP_deref] $sp
	.loc	1 281 2                         @ ../main.cpp:281:2
	bl	ModelFileReader_Finish
.Ltmp72:
	@DEBUG_VALUE: main:i32ModelSize <- undef
	.loc	1 0 2 is_stmt 0                 @ ../main.cpp:0:2
	b	.LBB1_12
.Ltmp73:
.LBB1_11:
	@DEBUG_VALUE: PrepareModelToHyperRAM:i32FileReadIndex <- [DW_OP_LLVM_arg 0, DW_OP_LLVM_arg 1, DW_OP_plus, DW_OP_stack_value] $r0, $r6
	@DEBUG_VALUE: PrepareModelToHyperRAM:i32Read <- $r0
	@DEBUG_VALUE: PrepareModelToHyperRAM:i32FileSize <- $r4
	@DEBUG_VALUE: PrepareModelToHyperRAM:sd_path <- [DW_OP_plus_uconst 324, DW_OP_deref] $sp
	.loc	1 256 9 is_stmt 1               @ ../main.cpp:256:9
	movw	r0, :lower16:.L.str
.Ltmp74:
	movt	r0, :upper16:.L.str
	bl	__2printf
.Ltmp75:
	movw	r0, :lower16:.Lstr.20
	movt	r0, :upper16:.Lstr.20
	bl	puts
.Ltmp76:
.LBB1_12:
	.loc	1 298 9                         @ ../main.cpp:298:9
	movw	r0, :lower16:.L.str
	movt	r0, :upper16:.L.str
	bl	__2printf
.Ltmp77:
	movw	r0, :lower16:.Lstr.19
	movt	r0, :upper16:.Lstr.19
	bl	puts
.Ltmp78:
	.loc	1 0 9 is_stmt 0                 @ ../main.cpp:0:9
	movs	r4, #1
.Ltmp79:
.LBB1_13:
	.loc	1 776 1 is_stmt 1               @ ../main.cpp:776:1
	mov	r0, r4
	.loc	1 776 1 epilogue_begin is_stmt 0 @ ../main.cpp:776:1
	add	sp, #464
	vpop	{d8, d9}
	add	sp, #4
	pop.w	{r4, r5, r6, r7, r8, r9, r10, r11, pc}
.LBB1_14:
.Ltmp80:
	@DEBUG_VALUE: main:i32ModelSize <- $r4
	.loc	1 310 9 is_stmt 1               @ ../main.cpp:310:9
	movw	r0, :lower16:.L.str
	movt	r0, :upper16:.L.str
	bl	__2printf
.Ltmp81:
	adr.w	r0, .LCPI1_1
	bl	puts
.Ltmp82:
	.loc	1 0 9 is_stmt 0                 @ ../main.cpp:0:9
	movs	r4, #1
.Ltmp83:
	b	.LBB1_17
.Ltmp84:
.LBB1_15:
	@DEBUG_VALUE: main:inputTensor <- $r4
	@DEBUG_VALUE: main:mpuConfig <- [DW_OP_LLVM_fragment 0 32] $r5
	@DEBUG_VALUE: main:mpuConfig <- [DW_OP_LLVM_arg 0, DW_OP_LLVM_arg 1, DW_OP_plus, DW_OP_stack_value, DW_OP_LLVM_fragment 32 32] $r5, 24
	@DEBUG_VALUE: main:mpuConfig <- [DW_OP_plus_uconst 24, DW_OP_stack_value, DW_OP_LLVM_fragment 64 32] $r5
	@DEBUG_VALUE: __guard <- 1
	@DEBUG_VALUE: __vallocate:__allocation <- [DW_OP_LLVM_fragment 0 32] $r5
	@DEBUG_VALUE: __construct_at_end<const ARM_MPU_Region_t *, const ARM_MPU_Region_t *>:__tx <- [DW_OP_LLVM_arg 0, DW_OP_LLVM_arg 1, DW_OP_plus, DW_OP_stack_value, DW_OP_LLVM_fragment 32 32] $r5, 24
	@DEBUG_VALUE: __construct_at_end<const ARM_MPU_Region_t *, const ARM_MPU_Region_t *>:__tx <- [DW_OP_LLVM_arg 0, DW_OP_LLVM_arg 1, DW_OP_constu 8, DW_OP_mul, DW_OP_plus, DW_OP_stack_value, DW_OP_LLVM_fragment 64 32] $r5, 3
	@DEBUG_VALUE: __uninitialized_allocator_copy<std::__2::allocator<ARM_MPU_Region_t>, const ARM_MPU_Region_t *, const ARM_MPU_Region_t *, ARM_MPU_Region_t *>:__first2 <- $r5
	@DEBUG_VALUE: __uninitialized_allocator_copy<std::__2::allocator<ARM_MPU_Region_t>, const ARM_MPU_Region_t *, const ARM_MPU_Region_t *, ARM_MPU_Region_t *>:__result <- [DW_OP_plus_uconst 24, DW_OP_stack_value] $r5
	@DEBUG_VALUE: __vallocate:__allocation <- [DW_OP_LLVM_fragment 32 32] 3
	@DEBUG_VALUE: __construct_at_end<const ARM_MPU_Region_t *, const ARM_MPU_Region_t *>:__n <- 3
	@DEBUG_VALUE: __uninitialized_allocator_copy_impl<std::__2::allocator<ARM_MPU_Region_t>, const ARM_MPU_Region_t *, const ARM_MPU_Region_t *, ARM_MPU_Region_t *>:__guard <- 1
	@DEBUG_VALUE: vector:__il <- [DW_OP_LLVM_fragment 32 32] 3
	@DEBUG_VALUE: __vallocate:__n <- 3
	@DEBUG_VALUE: __allocate_at_least<std::__2::allocator<ARM_MPU_Region_t> >:__n <- 3
	@DEBUG_VALUE: allocate:__n <- 3
	@DEBUG_VALUE: __libcpp_allocate:__size <- 24
	@DEBUG_VALUE: __libcpp_allocate:__align <- 4
	@DEBUG_VALUE: __libcpp_operator_new<unsigned int>:__args <- 24
	movs	r4, #2
.Ltmp85:
	adr.w	r6, .LCPI1_3
.Ltmp86:
.LBB1_16:
	@DEBUG_VALUE: main:mpuConfig <- [DW_OP_LLVM_fragment 0 32] $r5
	@DEBUG_VALUE: main:mpuConfig <- [DW_OP_LLVM_arg 0, DW_OP_LLVM_arg 1, DW_OP_plus, DW_OP_stack_value, DW_OP_LLVM_fragment 32 32] $r5, 24
	@DEBUG_VALUE: main:mpuConfig <- [DW_OP_plus_uconst 24, DW_OP_stack_value, DW_OP_LLVM_fragment 64 32] $r5
	movw	r0, :lower16:.L.str
	movt	r0, :upper16:.L.str
	bl	__2printf
.Ltmp87:
	mov	r0, r6
	bl	puts
.Ltmp88:
	@DEBUG_VALUE: __libcpp_operator_delete<void *, unsigned int>:__args <- 24
	@DEBUG_VALUE: __libcpp_operator_delete<void *, unsigned int>:__args <- $r5
	@DEBUG_VALUE: __do_deallocate_handle_size<>:__size <- 24
	@DEBUG_VALUE: __do_deallocate_handle_size<>:__ptr <- $r5
	@DEBUG_VALUE: __libcpp_deallocate:__align <- 4
	@DEBUG_VALUE: __libcpp_deallocate:__size <- 24
	@DEBUG_VALUE: __libcpp_deallocate:__ptr <- $r5
	@DEBUG_VALUE: deallocate:__n <- [DW_OP_constu 3, DW_OP_shra, DW_OP_stack_value] 24
	@DEBUG_VALUE: deallocate:__p <- $r5
	@DEBUG_VALUE: deallocate:this <- undef
	@DEBUG_VALUE: deallocate:__n <- [DW_OP_constu 3, DW_OP_shra, DW_OP_stack_value] 24
	@DEBUG_VALUE: deallocate:__p <- $r5
	@DEBUG_VALUE: deallocate:__a <- undef
	@DEBUG_VALUE: operator():this <- undef
	@DEBUG_VALUE: ~vector:this <- undef
	@DEBUG_VALUE: main:mpuConfig <- [DW_OP_LLVM_fragment 32 32] $r5
	.loc	16 281 3 is_stmt 1              @ AppData\Local\Keil_v5\ARM\ARMCLANG\bin\..\include\libcxx\new:281:3
	mov	r0, r5
	movs	r1, #24
	bl	_ZdlPvj
.Ltmp89:
.LBB1_17:
	@DEBUG_VALUE: ~YOLOv8nODModel:this <- [DW_OP_plus_uconst 324, DW_OP_stack_value] $sp
	@DEBUG_VALUE: ~Model:this <- [DW_OP_plus_uconst 324, DW_OP_stack_value] $sp
	.loc	8 528 18                        @ AppData\Local\Keil_v5\ARM\ARMCLANG\bin\..\include\libcxx\vector:528:18
	ldr	r0, [sp, #364]
.Ltmp90:
	.file	41 "C:\\Users\\jimmy\\Desktop\\Nuvoton\\Nuvoton-Team-2\\repos\\m55m1-ElevatorCounting-YOLOv8n\\KEIL" "../../../../ThirdParty/ml-embedded-evaluation-kit/source/application/api/common/include\\Model.hpp"
	.loc	41 36 28                        @ ../../../../ThirdParty/ml-embedded-evaluation-kit/source/application/api/common/include\Model.hpp:36:28
	movw	r1, :lower16:_ZTVN3arm3app5ModelE
	movt	r1, :upper16:_ZTVN3arm3app5ModelE
	adds	r1, #8
	str	r1, [sp, #324]
	@DEBUG_VALUE: ~vector:this <- undef
	@DEBUG_VALUE: operator():this <- undef
	cbz	r0, .LBB1_19
.Ltmp91:
@ %bb.18:
	@DEBUG_VALUE: ~Model:this <- [DW_OP_plus_uconst 324, DW_OP_stack_value] $sp
	@DEBUG_VALUE: ~YOLOv8nODModel:this <- [DW_OP_plus_uconst 324, DW_OP_stack_value] $sp
	@DEBUG_VALUE: __base_destruct_at_end:__soon_to_be_end <- undef
	.loc	8 637 35                        @ AppData\Local\Keil_v5\ARM\ARMCLANG\bin\..\include\libcxx\vector:637:35
	ldr	r1, [sp, #372]
.Ltmp92:
	@DEBUG_VALUE: __base_destruct_at_end:this <- [DW_OP_plus_uconst 324, DW_OP_plus_uconst 40, DW_OP_stack_value] $sp
	@DEBUG_VALUE: __clear:this <- [DW_OP_plus_uconst 324, DW_OP_plus_uconst 40, DW_OP_stack_value] $sp
	@DEBUG_VALUE: __base_destruct_at_end:__new_last <- $r0
	.loc	8 985 18                        @ AppData\Local\Keil_v5\ARM\ARMCLANG\bin\..\include\libcxx\vector:985:18
	str	r0, [sp, #368]
.Ltmp93:
	@DEBUG_VALUE: __end_cap:this <- [DW_OP_plus_uconst 324, DW_OP_plus_uconst 40, DW_OP_stack_value] $sp
	@DEBUG_VALUE: capacity:this <- [DW_OP_plus_uconst 324, DW_OP_plus_uconst 40, DW_OP_stack_value] $sp
	.loc	8 637 47                        @ AppData\Local\Keil_v5\ARM\ARMCLANG\bin\..\include\libcxx\vector:637:47
	subs	r1, r1, r0
.Ltmp94:
	@DEBUG_VALUE: deallocate:this <- [DW_OP_plus_uconst 324, DW_OP_plus_uconst 40, DW_OP_plus_uconst 8, DW_OP_stack_value] $sp
	@DEBUG_VALUE: deallocate:__a <- [DW_OP_plus_uconst 324, DW_OP_plus_uconst 40, DW_OP_plus_uconst 8, DW_OP_stack_value] $sp
	@DEBUG_VALUE: __libcpp_operator_delete<void *, unsigned int>:__args <- $r0
	@DEBUG_VALUE: __do_deallocate_handle_size<>:__ptr <- $r0
	@DEBUG_VALUE: __libcpp_deallocate:__align <- 4
	@DEBUG_VALUE: __libcpp_deallocate:__ptr <- $r0
	@DEBUG_VALUE: deallocate:__p <- $r0
	@DEBUG_VALUE: deallocate:__p <- $r0
	@DEBUG_VALUE: __libcpp_operator_delete<void *, unsigned int>:__args <- $r1
	@DEBUG_VALUE: __do_deallocate_handle_size<>:__size <- $r1
	@DEBUG_VALUE: __libcpp_deallocate:__size <- $r1
	@DEBUG_VALUE: deallocate:__n <- [DW_OP_constu 2, DW_OP_shra, DW_OP_stack_value] $r1
	@DEBUG_VALUE: deallocate:__n <- [DW_OP_constu 2, DW_OP_shra, DW_OP_stack_value] $r1
	.loc	16 281 3                        @ AppData\Local\Keil_v5\ARM\ARMCLANG\bin\..\include\libcxx\new:281:3
	bl	_ZdlPvj
.Ltmp95:
.LBB1_19:
	@DEBUG_VALUE: ~Model:this <- [DW_OP_plus_uconst 324, DW_OP_stack_value] $sp
	@DEBUG_VALUE: ~YOLOv8nODModel:this <- [DW_OP_plus_uconst 324, DW_OP_stack_value] $sp
	@DEBUG_VALUE: operator():this <- undef
	@DEBUG_VALUE: ~vector:this <- undef
	.loc	8 528 18                        @ AppData\Local\Keil_v5\ARM\ARMCLANG\bin\..\include\libcxx\vector:528:18
	ldr	r0, [sp, #352]
	cbz	r0, .LBB1_21
.Ltmp96:
@ %bb.20:
	@DEBUG_VALUE: ~Model:this <- [DW_OP_plus_uconst 324, DW_OP_stack_value] $sp
	@DEBUG_VALUE: ~YOLOv8nODModel:this <- [DW_OP_plus_uconst 324, DW_OP_stack_value] $sp
	@DEBUG_VALUE: __base_destruct_at_end:__soon_to_be_end <- undef
	.loc	8 637 35                        @ AppData\Local\Keil_v5\ARM\ARMCLANG\bin\..\include\libcxx\vector:637:35
	ldr	r1, [sp, #360]
.Ltmp97:
	@DEBUG_VALUE: __base_destruct_at_end:this <- [DW_OP_plus_uconst 324, DW_OP_plus_uconst 28, DW_OP_stack_value] $sp
	@DEBUG_VALUE: __clear:this <- [DW_OP_plus_uconst 324, DW_OP_plus_uconst 28, DW_OP_stack_value] $sp
	@DEBUG_VALUE: __base_destruct_at_end:__new_last <- $r0
	.loc	8 985 18                        @ AppData\Local\Keil_v5\ARM\ARMCLANG\bin\..\include\libcxx\vector:985:18
	str	r0, [sp, #356]
.Ltmp98:
	@DEBUG_VALUE: __end_cap:this <- [DW_OP_plus_uconst 324, DW_OP_plus_uconst 28, DW_OP_stack_value] $sp
	@DEBUG_VALUE: capacity:this <- [DW_OP_plus_uconst 324, DW_OP_plus_uconst 28, DW_OP_stack_value] $sp
	.loc	8 637 47                        @ AppData\Local\Keil_v5\ARM\ARMCLANG\bin\..\include\libcxx\vector:637:47
	subs	r1, r1, r0
.Ltmp99:
	@DEBUG_VALUE: deallocate:this <- [DW_OP_plus_uconst 324, DW_OP_plus_uconst 28, DW_OP_plus_uconst 8, DW_OP_stack_value] $sp
	@DEBUG_VALUE: deallocate:__a <- [DW_OP_plus_uconst 324, DW_OP_plus_uconst 28, DW_OP_plus_uconst 8, DW_OP_stack_value] $sp
	@DEBUG_VALUE: __libcpp_operator_delete<void *, unsigned int>:__args <- $r0
	@DEBUG_VALUE: __do_deallocate_handle_size<>:__ptr <- $r0
	@DEBUG_VALUE: __libcpp_deallocate:__align <- 4
	@DEBUG_VALUE: __libcpp_deallocate:__ptr <- $r0
	@DEBUG_VALUE: deallocate:__p <- $r0
	@DEBUG_VALUE: deallocate:__p <- $r0
	@DEBUG_VALUE: __libcpp_operator_delete<void *, unsigned int>:__args <- $r1
	@DEBUG_VALUE: __do_deallocate_handle_size<>:__size <- $r1
	@DEBUG_VALUE: __libcpp_deallocate:__size <- $r1
	@DEBUG_VALUE: deallocate:__n <- [DW_OP_constu 2, DW_OP_shra, DW_OP_stack_value] $r1
	@DEBUG_VALUE: deallocate:__n <- [DW_OP_constu 2, DW_OP_shra, DW_OP_stack_value] $r1
	.loc	16 281 3                        @ AppData\Local\Keil_v5\ARM\ARMCLANG\bin\..\include\libcxx\new:281:3
	bl	_ZdlPvj
.Ltmp100:
.LBB1_21:
	@DEBUG_VALUE: ~Model:this <- [DW_OP_plus_uconst 324, DW_OP_stack_value] $sp
	@DEBUG_VALUE: ~YOLOv8nODModel:this <- [DW_OP_plus_uconst 324, DW_OP_stack_value] $sp
	@DEBUG_VALUE: reset:__p <- 0
	@DEBUG_VALUE: ~unique_ptr:this <- undef
	@DEBUG_VALUE: reset:this <- undef
	.loc	32 277 29                       @ AppData\Local\Keil_v5\ARM\ARMCLANG\bin\..\include\libcxx\__memory\unique_ptr.h:277:29
	ldr	r0, [sp, #332]
.Ltmp101:
	@DEBUG_VALUE: reset:__tmp <- $r0
	.loc	32 0 29 is_stmt 0               @ AppData\Local\Keil_v5\ARM\ARMCLANG\bin\..\include\libcxx\__memory\unique_ptr.h:0:29
	movs	r1, #0
	.loc	32 278 20 is_stmt 1             @ AppData\Local\Keil_v5\ARM\ARMCLANG\bin\..\include\libcxx\__memory\unique_ptr.h:278:20
	str	r1, [sp, #332]
	.loc	32 279 9                        @ AppData\Local\Keil_v5\ARM\ARMCLANG\bin\..\include\libcxx\__memory\unique_ptr.h:279:9
	cmp	r0, #0
	beq	.LBB1_13
.Ltmp102:
@ %bb.22:
	@DEBUG_VALUE: reset:__tmp <- $r0
	@DEBUG_VALUE: reset:__p <- 0
	@DEBUG_VALUE: ~Model:this <- [DW_OP_plus_uconst 324, DW_OP_stack_value] $sp
	@DEBUG_VALUE: ~YOLOv8nODModel:this <- [DW_OP_plus_uconst 324, DW_OP_stack_value] $sp
	@DEBUG_VALUE: operator():__ptr <- $r0
	@DEBUG_VALUE: operator():this <- [DW_OP_plus_uconst 324, DW_OP_plus_uconst 8, DW_OP_stack_value] $sp
	.loc	32 68 5                         @ AppData\Local\Keil_v5\ARM\ARMCLANG\bin\..\include\libcxx\__memory\unique_ptr.h:68:5
	bl	_ZN6tflite16MicroInterpreterD1Ev
.Ltmp103:
	movs	r1, #192
	bl	_ZdlPvj
.Ltmp104:
	.loc	32 0 5 is_stmt 0                @ AppData\Local\Keil_v5\ARM\ARMCLANG\bin\..\include\libcxx\__memory\unique_ptr.h:0:5
	b	.LBB1_13
.Ltmp105:
.LBB1_23:
	@DEBUG_VALUE: main:inputTensor <- $r4
	@DEBUG_VALUE: main:mpuConfig <- [DW_OP_LLVM_fragment 0 32] $r5
	@DEBUG_VALUE: main:mpuConfig <- [DW_OP_LLVM_arg 0, DW_OP_LLVM_arg 1, DW_OP_plus, DW_OP_stack_value, DW_OP_LLVM_fragment 32 32] $r5, 24
	@DEBUG_VALUE: main:mpuConfig <- [DW_OP_plus_uconst 24, DW_OP_stack_value, DW_OP_LLVM_fragment 64 32] $r5
	add	r5, sp, #324
.Ltmp106:
	.loc	1 373 40 is_stmt 1              @ ../main.cpp:373:40
	movs	r1, #0
	mov	r0, r5
	movs	r6, #0
	bl	_ZNK3arm3app5Model13GetInputShapeEj
.Ltmp107:
	@DEBUG_VALUE: main:nChannels <- undef
	@DEBUG_VALUE: main:inputImgCols <- undef
	@DEBUG_VALUE: main:inputImgRows <- undef
	@DEBUG_VALUE: main:inputShape <- $r0
	.loc	1 376 30                        @ ../main.cpp:376:30
	ldrd	r1, r0, [r0, #8]
.Ltmp108:
	.loc	1 380 43                        @ ../main.cpp:380:43
	strd	r1, r0, [sp, #44]               @ 8-byte Folded Spill
	add	r0, sp, #316
	mov	r1, r4
	bl	_ZN3arm3app20GetTensorQuantParamsEP12TfLiteTensor
.Ltmp109:
	.loc	1 0 43 is_stmt 0                @ ../main.cpp:0:43
	vldr	s0, __arm_cp.1_7
	add	r0, sp, #260
	.loc	1 383 51 is_stmt 1              @ ../main.cpp:383:51
	mov	r1, r5
	bl	_ZN3arm3app10yolov8n_od23YOLOv8nODPostProcessingC1EPNS0_14YOLOv8nODModelEf
.Ltmp110:
	@DEBUG_VALUE: vector:this <- [DW_OP_plus_uconst 248, DW_OP_stack_value] $sp
	@DEBUG_VALUE: __compressed_pair<std::nullptr_t, std::__2::__default_init_tag>:__t2 <- [DW_OP_LLVM_fragment 0 8] undef
	.loc	1 0 51 is_stmt 0                @ ../main.cpp:0:51
	add	r0, sp, #248
.Ltmp111:
	@DEBUG_VALUE: __compressed_pair_elem<std::nullptr_t, 0>:this <- [DW_OP_plus_uconst 8, DW_OP_stack_value] $r0
	@DEBUG_VALUE: __compressed_pair<std::nullptr_t, std::__2::__default_init_tag>:this <- [DW_OP_plus_uconst 8, DW_OP_stack_value] $r0
	.loc	9 53 9 is_stmt 1                @ AppData\Local\Keil_v5\ARM\ARMCLANG\bin\..\include\libcxx\__memory\compressed_pair.h:53:9
	str	r6, [sp, #256]
.Ltmp112:
	.loc	8 765 11                        @ AppData\Local\Keil_v5\ARM\ARMCLANG\bin\..\include\libcxx\vector:765:11
	strd	r6, r6, [sp, #248]
.Ltmp113:
	@DEBUG_VALUE: __compressed_pair_elem<std::nullptr_t, 0>:__u <- undef
	@DEBUG_VALUE: __compressed_pair<std::nullptr_t, std::__2::__default_init_tag>:__t2 <- undef
	@DEBUG_VALUE: __compressed_pair<std::nullptr_t, std::__2::__default_init_tag>:__t1 <- undef
	.loc	1 387 5                         @ ../main.cpp:387:5
	bl	_Z15GetLabelsVectorRNSt3__26vectorINS_12basic_stringIcNS_11char_traitsIcEENS_9allocatorIcEEEENS4_IS6_EEEE
.Ltmp114:
	.loc	1 0 5 is_stmt 0                 @ ../main.cpp:0:5
	adr.w	r0, .LCPI1_5
	@DEBUG_VALUE: omv_init:frameBuffer <- [DW_OP_plus_uconst 120, DW_OP_plus_uconst 16, DW_OP_deref, DW_OP_LLVM_fragment 128 32] $sp
	@DEBUG_VALUE: omv_init:frameBuffer <- [DW_OP_plus_uconst 120, DW_OP_plus_uconst 8, DW_OP_deref, DW_OP_LLVM_fragment 64 32] $sp
	@DEBUG_VALUE: omv_init:frameBuffer <- [DW_OP_LLVM_fragment 96 32] 153600
	@DEBUG_VALUE: omv_init:frameBuffer <- [DW_OP_LLVM_fragment 32 32] 240
	@DEBUG_VALUE: omv_init:frameBuffer <- [DW_OP_LLVM_fragment 0 32] 320
.Ltmp115:
	@DEBUG_VALUE: omv_init:frameBuffer <- [DW_OP_plus_uconst 120, DW_OP_deref] $sp
	movw	r1, :lower16:_ZL8fb_array
.Ltmp116:
	.loc	1 168 19 is_stmt 1              @ ../main.cpp:168:19
	vldrw.u32	q4, [r0]
	.loc	1 173 14                        @ ../main.cpp:173:14
	movw	r0, :lower16:_fb_base
	movt	r1, :upper16:_ZL8fb_array
	movt	r0, :upper16:_fb_base
	add	r5, sp, #120
	str	r1, [r0]
	.loc	1 174 13                        @ ../main.cpp:174:13
	movw	r0, :lower16:_fb_end
	movt	r0, :upper16:_fb_end
	str.w	r10, [r0]
	.loc	1 175 14                        @ ../main.cpp:175:14
	add.w	r0, r1, #155648
	movw	r1, :lower16:_fballoc
	movt	r1, :upper16:_fballoc
	str	r0, [r1]
	.loc	1 176 15                        @ ../main.cpp:176:15
	movw	r0, :lower16:_jpeg_buf
	movw	r1, :lower16:_ZL10jpeg_array
	movt	r0, :upper16:_jpeg_buf
	movt	r1, :upper16:_ZL10jpeg_array
	.loc	1 168 19                        @ ../main.cpp:168:19
	vstrw.32	q4, [r5]
.Ltmp117:
	@DEBUG_VALUE: omv_init:frameBuffer <- [DW_OP_plus_uconst 120, DW_OP_plus_uconst 12, DW_OP_deref, DW_OP_LLVM_fragment 96 64] $sp
	@DEBUG_VALUE: omv_init:frameBuffer <- [DW_OP_plus_uconst 120, DW_OP_plus_uconst 4, DW_OP_deref, DW_OP_LLVM_fragment 32 32] $sp
	@DEBUG_VALUE: omv_init:frameBuffer <- [DW_OP_plus_uconst 120, DW_OP_deref, DW_OP_LLVM_fragment 0 32] $sp
	.loc	1 176 15                        @ ../main.cpp:176:15
	str	r1, [r0]
	.loc	1 178 5                         @ ../main.cpp:178:5
	bl	fb_alloc_init0
.Ltmp118:
	.loc	1 180 5                         @ ../main.cpp:180:5
	bl	framebuffer_init0
.Ltmp119:
	.loc	1 181 5                         @ ../main.cpp:181:5
	mov	r0, r5
	bl	framebuffer_init_from_image
.Ltmp120:
	@DEBUG_VALUE: omv_init:i <- 0
	.loc	1 185 32                        @ ../main.cpp:185:32
	movw	r5, :lower16:s_asFramebuf
	movt	r5, :upper16:s_asFramebuf
.Ltmp121:
	.loc	1 188 5                         @ ../main.cpp:188:5
	adds	r0, r5, #4
.Ltmp122:
	.loc	1 185 32                        @ ../main.cpp:185:32
	strb	r6, [r5]
.Ltmp123:
	@DEBUG_VALUE: omv_init:i <- 1
	strb.w	r6, [r5, #36]
.Ltmp124:
	@DEBUG_VALUE: omv_init:i <- 2
	.loc	1 188 5                         @ ../main.cpp:188:5
	bl	framebuffer_init_image
.Ltmp125:
	.loc	1 195 37                        @ ../main.cpp:195:37
	movw	r0, :lower16:_ZL10frame_buf1
	movt	r0, :upper16:_ZL10frame_buf1
	str	r0, [r5, #56]
	add	r0, sp, #228
	.loc	1 191 34                        @ ../main.cpp:191:34
	vstrw.32	q4, [r5, #40]
.Ltmp126:
	.loc	1 395 5                         @ ../main.cpp:395:5
	bl	framebuffer_init_image
.Ltmp127:
	.loc	1 405 5                         @ ../main.cpp:405:5
	bl	pmu_reset_counters
.Ltmp128:
	@DEBUG_VALUE: main:u64PerfFrames <- 0
	@DEBUG_VALUE: main:g_currentPersonCount <- 0
	.loc	1 413 20                        @ ../main.cpp:413:20
	bl	pmu_get_systick_Count
.Ltmp129:
	@DEBUG_VALUE: main:u64PerfCycle <- [DW_OP_LLVM_fragment 0 32] $r0
	.loc	1 414 22                        @ ../main.cpp:414:22
	movw	r2, :lower16:SystemCoreClock
	movt	r2, :upper16:SystemCoreClock
	ldr	r2, [r2]
.Ltmp130:
	@DEBUG_VALUE: main:u64PerfCycle <- [DW_OP_LLVM_fragment 32 32] $r1
	.loc	1 414 18 is_stmt 0              @ ../main.cpp:414:18
	adds	r0, r0, r2
.Ltmp131:
	@DEBUG_VALUE: main:u64PerfCycle <- [DW_OP_LLVM_fragment 0 32] $r0
	str	r0, [sp, #56]                   @ 4-byte Spill
.Ltmp132:
	@DEBUG_VALUE: main:u64PerfCycle <- [DW_OP_plus_uconst 56, DW_OP_LLVM_fragment 0 32] [$sp+0]
	@DEBUG_VALUE: main:u64PerfCycle <- [DW_OP_plus_uconst 56, DW_OP_LLVM_fragment 0 32] [$sp+0]
	adc	r0, r1, #0
.Ltmp133:
	@DEBUG_VALUE: main:u64PerfCycle <- [DW_OP_LLVM_fragment 32 32] $r0
	.loc	1 422 5 is_stmt 1               @ ../main.cpp:422:5
	str	r0, [sp, #52]                   @ 4-byte Spill
.Ltmp134:
	@DEBUG_VALUE: main:u64PerfCycle <- [DW_OP_plus_uconst 52, DW_OP_LLVM_fragment 32 32] [$sp+0]
	@DEBUG_VALUE: main:u64PerfCycle <- [DW_OP_plus_uconst 52, DW_OP_LLVM_fragment 32 32] [$sp+0]
	bl	ImageSensor_Init
.Ltmp135:
	.loc	1 423 55                        @ ../main.cpp:423:55
	ldrd	r1, r2, [sp, #228]
	.loc	1 423 5 is_stmt 0               @ ../main.cpp:423:5
	movs	r0, #2
	movs	r3, #1
	bl	ImageSensor_Config
.Ltmp136:
	.loc	1 430 5 is_stmt 1               @ ../main.cpp:430:5
	bl	Display_Init
.Ltmp137:
	.loc	1 431 5                         @ ../main.cpp:431:5
	movw	r0, #65535
	bl	Display_ClearLCD
.Ltmp138:
	.loc	1 0 5 is_stmt 0                 @ ../main.cpp:0:5
	movw	r11, #21846
	movs	r0, #0
	vmov.f32	s16, #2.000000e+00
	movt	r11, #21845
	mov.w	r9, #0
	str	r0, [sp, #60]                   @ 4-byte Spill
	str	r4, [sp, #40]                   @ 4-byte Spill
.Ltmp139:
	.p2align	2
.LBB1_24:                               @ =>This Loop Header: Depth=1
                                        @     Child Loop BB1_29 Depth 2
                                        @     Child Loop BB1_34 Depth 2
                                        @     Child Loop BB1_39 Depth 2
	@DEBUG_VALUE: main:u64PerfCycle <- [DW_OP_plus_uconst 52, DW_OP_LLVM_fragment 32 32] [$sp+0]
	@DEBUG_VALUE: main:u64PerfCycle <- [DW_OP_plus_uconst 56, DW_OP_LLVM_fragment 0 32] [$sp+0]
	@DEBUG_VALUE: main:u64PerfCycle <- [DW_OP_plus_uconst 56, DW_OP_LLVM_fragment 0 32] [$sp+0]
	@DEBUG_VALUE: main:u64PerfCycle <- [DW_OP_plus_uconst 52, DW_OP_LLVM_fragment 32 32] [$sp+0]
	@DEBUG_VALUE: main:u64PerfFrames <- [DW_OP_plus_uconst 60, DW_OP_LLVM_fragment 0 32] [$sp+0]
	@DEBUG_VALUE: main:u64PerfFrames <- [DW_OP_LLVM_fragment 32 32] $r9
	@DEBUG_VALUE: get_empty_framebuf:i <- 0
	movw	r3, :lower16:s_asFramebuf
	movt	r3, :upper16:s_asFramebuf
.Ltmp140:
	.loc	1 88 13 is_stmt 1               @ ../main.cpp:88:13
	mov	r2, r3
.Ltmp141:
	.loc	1 88 29 is_stmt 0               @ ../main.cpp:88:29
	ldrb	r0, [r3]
.Ltmp142:
	@DEBUG_VALUE: get_empty_framebuf:i <- [DW_OP_plus_uconst 1, DW_OP_stack_value] 0
	.loc	1 88 13                         @ ../main.cpp:88:13
	ldrb	r1, [r2, #36]!
	cmp	r1, #0
	csel	r2, r2, r6, eq
	cmp	r0, #0
	csel	r5, r3, r2, eq
.Ltmp143:
	@DEBUG_VALUE: main:emptyFramebuf <- $r5
	.loc	1 443 13 is_stmt 1              @ ../main.cpp:443:13
	cbz	r5, .LBB1_26
.Ltmp144:
@ %bb.25:                               @   in Loop: Header=BB1_24 Depth=1
	@DEBUG_VALUE: main:emptyFramebuf <- $r5
	@DEBUG_VALUE: main:u64PerfFrames <- [DW_OP_LLVM_fragment 32 32] $r9
	@DEBUG_VALUE: main:u64PerfFrames <- [DW_OP_plus_uconst 60, DW_OP_LLVM_fragment 0 32] [$sp+0]
	@DEBUG_VALUE: main:u64PerfCycle <- [DW_OP_plus_uconst 52, DW_OP_LLVM_fragment 32 32] [$sp+0]
	@DEBUG_VALUE: main:u64PerfCycle <- [DW_OP_plus_uconst 56, DW_OP_LLVM_fragment 0 32] [$sp+0]
	.loc	1 451 77                        @ ../main.cpp:451:77
	ldr	r0, [r5, #20]
	.loc	1 451 13 is_stmt 0              @ ../main.cpp:451:13
	bl	ImageSensor_TriggerCapture
.Ltmp145:
	.loc	1 0 13                          @ ../main.cpp:0:13
	movw	r1, :lower16:s_asFramebuf
	movt	r1, :upper16:s_asFramebuf
.Ltmp146:
	.loc	1 101 29 is_stmt 1              @ ../main.cpp:101:29
	ldrb	r0, [r1]
.Ltmp147:
	.loc	1 101 13 is_stmt 0              @ ../main.cpp:101:13
	ldrb.w	r1, [r1, #36]
.Ltmp148:
.LBB1_26:                               @   in Loop: Header=BB1_24 Depth=1
	@DEBUG_VALUE: main:emptyFramebuf <- $r5
	@DEBUG_VALUE: main:u64PerfFrames <- [DW_OP_LLVM_fragment 32 32] $r9
	@DEBUG_VALUE: main:u64PerfFrames <- [DW_OP_plus_uconst 60, DW_OP_LLVM_fragment 0 32] [$sp+0]
	@DEBUG_VALUE: main:u64PerfCycle <- [DW_OP_plus_uconst 52, DW_OP_LLVM_fragment 32 32] [$sp+0]
	@DEBUG_VALUE: main:u64PerfCycle <- [DW_OP_plus_uconst 56, DW_OP_LLVM_fragment 0 32] [$sp+0]
	@DEBUG_VALUE: get_full_framebuf:i <- [DW_OP_plus_uconst 1, DW_OP_stack_value] 0
	.loc	1 0 13                          @ ../main.cpp:0:13
	movw	r3, :lower16:s_asFramebuf
	.loc	1 101 13                        @ ../main.cpp:101:13
	cmp	r1, #1
	movt	r3, :upper16:s_asFramebuf
	add.w	r10, r3, #36
.Ltmp149:
	.loc	1 457 13 is_stmt 1              @ ../main.cpp:457:13
	str	r5, [sp, #76]                   @ 4-byte Spill
.Ltmp150:
	.loc	1 101 13                        @ ../main.cpp:101:13
	csel	r2, r10, r6, eq
	cmp	r0, #1
	csel	r8, r3, r2, eq
.Ltmp151:
	@DEBUG_VALUE: main:fullFramebuf <- $r8
	.loc	1 457 13                        @ ../main.cpp:457:13
	cmp.w	r8, #0
	beq	.LBB1_31
.Ltmp152:
@ %bb.27:                               @   in Loop: Header=BB1_24 Depth=1
	@DEBUG_VALUE: main:fullFramebuf <- $r8
	@DEBUG_VALUE: main:emptyFramebuf <- $r5
	@DEBUG_VALUE: main:u64PerfFrames <- [DW_OP_LLVM_fragment 32 32] $r9
	@DEBUG_VALUE: main:u64PerfFrames <- [DW_OP_plus_uconst 60, DW_OP_LLVM_fragment 0 32] [$sp+0]
	@DEBUG_VALUE: main:u64PerfCycle <- [DW_OP_plus_uconst 52, DW_OP_LLVM_fragment 32 32] [$sp+0]
	@DEBUG_VALUE: main:u64PerfCycle <- [DW_OP_plus_uconst 56, DW_OP_LLVM_fragment 0 32] [$sp+0]
	.loc	1 464 46                        @ ../main.cpp:464:46
	mov	r0, r8
	.loc	1 467 25                        @ ../main.cpp:467:25
	movs	r2, #192
	.loc	1 464 46                        @ ../main.cpp:464:46
	ldr	r1, [r0, #4]!
	.loc	1 467 25                        @ ../main.cpp:467:25
	str	r2, [sp, #84]
	.loc	1 468 25                        @ ../main.cpp:468:25
	movs	r2, #144
	.loc	1 464 19                        @ ../main.cpp:464:19
	strh.w	r1, [sp, #224]
	.loc	1 468 25                        @ ../main.cpp:468:25
	str	r2, [sp, #88]
.Ltmp153:
	@DEBUG_VALUE: offset <- 13824
	.loc	1 478 13                        @ ../main.cpp:478:13
	add	r2, sp, #220
	.loc	1 465 46                        @ ../main.cpp:465:46
	ldr	r1, [r0, #4]
	str.w	r9, [sp, #80]                   @ 4-byte Spill
.Ltmp154:
	@DEBUG_VALUE: main:u64PerfFrames <- [DW_OP_plus_uconst 80, DW_OP_LLVM_fragment 32 32] [$sp+0]
	@DEBUG_VALUE: main:u64PerfFrames <- [DW_OP_plus_uconst 80, DW_OP_LLVM_fragment 32 32] [$sp+0]
	.loc	1 465 19 is_stmt 0              @ ../main.cpp:465:19
	strh.w	r1, [sp, #226]
	.loc	1 472 59 is_stmt 1              @ ../main.cpp:472:59
	ldr	r1, [r4, #16]
	.loc	1 462 19                        @ ../main.cpp:462:19
	str	r6, [sp, #220]
	.loc	1 472 64                        @ ../main.cpp:472:64
	add.w	r1, r1, #13824
	.loc	1 472 28 is_stmt 0              @ ../main.cpp:472:28
	str	r1, [sp, #100]
	.loc	1 473 30 is_stmt 1              @ ../main.cpp:473:30
	movs	r1, #3
	movt	r1, #3081
	str	r1, [sp, #92]
	.loc	1 478 13                        @ ../main.cpp:478:13
	add	r1, sp, #84
	bl	imlib_nvt_scale
.Ltmp155:
	.loc	1 481 78                        @ ../main.cpp:481:78
	ldr	r5, [r4, #16]
.Ltmp156:
	@DEBUG_VALUE: req_data_pad <- $r5
	.loc	1 482 13                        @ ../main.cpp:482:13
	mov.w	r1, #13824
	mov	r0, r5
	bl	__aeabi_memclr
.Ltmp157:
	.loc	1 483 33                        @ ../main.cpp:483:33
	add.w	r0, r5, #96768
	.loc	1 483 13 is_stmt 0              @ ../main.cpp:483:13
	mov.w	r1, #13824
	bl	__aeabi_memclr
.Ltmp158:
	@DEBUG_VALUE: i <- 0
	@DEBUG_VALUE: signed_req_data <- undef
	@DEBUG_VALUE: req_data <- undef
	.loc	1 494 40 is_stmt 1              @ ../main.cpp:494:40
	ldr	r0, [r4, #24]
	mov.w	r7, #5570560
	mvn	r6, #127
.Ltmp159:
	.loc	1 494 4 is_stmt 0               @ ../main.cpp:494:4
	cbz	r0, .LBB1_30
.Ltmp160:
@ %bb.28:                               @   in Loop: Header=BB1_24 Depth=1
	@DEBUG_VALUE: i <- 0
	@DEBUG_VALUE: req_data_pad <- $r5
	@DEBUG_VALUE: main:u64PerfFrames <- [DW_OP_plus_uconst 80, DW_OP_LLVM_fragment 32 32] [$sp+0]
	@DEBUG_VALUE: offset <- 13824
	@DEBUG_VALUE: main:fullFramebuf <- $r8
	@DEBUG_VALUE: main:u64PerfFrames <- [DW_OP_plus_uconst 60, DW_OP_LLVM_fragment 0 32] [$sp+0]
	@DEBUG_VALUE: main:u64PerfCycle <- [DW_OP_plus_uconst 52, DW_OP_LLVM_fragment 32 32] [$sp+0]
	@DEBUG_VALUE: main:u64PerfCycle <- [DW_OP_plus_uconst 56, DW_OP_LLVM_fragment 0 32] [$sp+0]
	.loc	1 0 0                           @ ../main.cpp:0:0
	ldr	r0, [r4, #16]
.Ltmp161:
	@DEBUG_VALUE: signed_req_data <- $r0
	@DEBUG_VALUE: req_data <- $r0
	movs	r1, #0
.Ltmp162:
	.loc	1 494 4                         @ ../main.cpp:494:4
	adds	r0, #2
.Ltmp163:
	.loc	1 0 4                           @ :0:4
.Ltmp164:
	.p2align	2
.LBB1_29:                               @   Parent Loop BB1_24 Depth=1
                                        @ =>  This Inner Loop Header: Depth=2
	@DEBUG_VALUE: main:u64PerfFrames <- [DW_OP_plus_uconst 80, DW_OP_LLVM_fragment 32 32] [$sp+0]
	@DEBUG_VALUE: offset <- 13824
	@DEBUG_VALUE: main:fullFramebuf <- $r8
	@DEBUG_VALUE: main:u64PerfFrames <- [DW_OP_plus_uconst 60, DW_OP_LLVM_fragment 0 32] [$sp+0]
	@DEBUG_VALUE: main:u64PerfCycle <- [DW_OP_plus_uconst 52, DW_OP_LLVM_fragment 32 32] [$sp+0]
	@DEBUG_VALUE: main:u64PerfCycle <- [DW_OP_plus_uconst 56, DW_OP_LLVM_fragment 0 32] [$sp+0]
	@DEBUG_VALUE: i <- $r1
	.loc	1 496 20 is_stmt 1              @ ../main.cpp:496:20
	ldrb	r2, [r0, #-2]
.Ltmp165:
	@DEBUG_VALUE: r <- undef
	.loc	1 494 49                        @ ../main.cpp:494:49
	adds	r1, #3
.Ltmp166:
	@DEBUG_VALUE: i <- $r1
	.loc	1 497 20                        @ ../main.cpp:497:20
	ldrb	r3, [r0, #-1]
.Ltmp167:
	@DEBUG_VALUE: g <- undef
	.loc	1 498 20                        @ ../main.cpp:498:20
	ldrb	r5, [r0]
.Ltmp168:
	@DEBUG_VALUE: b <- undef
	.loc	1 501 32                        @ ../main.cpp:501:32
	add	r2, r3
	.loc	1 501 36 is_stmt 0              @ ../main.cpp:501:36
	add	r2, r5
.Ltmp169:
	@DEBUG_VALUE: gray_uint8 <- [DW_OP_constu 85, DW_OP_mul, DW_OP_constu 8, DW_OP_shr, DW_OP_LLVM_convert 32 7, DW_OP_LLVM_convert 8 7, DW_OP_stack_value] $r2
	.loc	1 502 27 is_stmt 1              @ ../main.cpp:502:27
	muls	r2, r7, r2
.Ltmp170:
	eor.w	r2, r6, r2, lsr #24
.Ltmp171:
	@DEBUG_VALUE: gray_int8 <- $r2
	.loc	1 504 31                        @ ../main.cpp:504:31
	strb	r2, [r0, #-2]
	.loc	1 505 31                        @ ../main.cpp:505:31
	strb	r2, [r0, #-1]
	.loc	1 506 31                        @ ../main.cpp:506:31
	strb	r2, [r0], #3
.Ltmp172:
	.loc	1 494 40                        @ ../main.cpp:494:40
	ldr	r2, [r4, #24]
.Ltmp173:
	.loc	1 494 4 is_stmt 0               @ ../main.cpp:494:4
	cmp	r1, r2
	blo	.LBB1_29
.Ltmp174:
.LBB1_30:                               @   in Loop: Header=BB1_24 Depth=1
	@DEBUG_VALUE: main:u64PerfFrames <- [DW_OP_plus_uconst 80, DW_OP_LLVM_fragment 32 32] [$sp+0]
	@DEBUG_VALUE: offset <- 13824
	@DEBUG_VALUE: main:fullFramebuf <- $r8
	@DEBUG_VALUE: main:u64PerfFrames <- [DW_OP_plus_uconst 60, DW_OP_LLVM_fragment 0 32] [$sp+0]
	@DEBUG_VALUE: main:u64PerfCycle <- [DW_OP_plus_uconst 52, DW_OP_LLVM_fragment 32 32] [$sp+0]
	@DEBUG_VALUE: main:u64PerfCycle <- [DW_OP_plus_uconst 56, DW_OP_LLVM_fragment 0 32] [$sp+0]
	.loc	1 518 10 is_stmt 1              @ ../main.cpp:518:10
	add	r0, sp, #324
	bl	_ZN3arm3app5Model12RunInferenceEv
.Ltmp175:
	.loc	1 525 34                        @ ../main.cpp:525:34
	movs	r0, #2
	movw	r1, :lower16:s_asFramebuf
	strb.w	r0, [r8]
	movs	r6, #0
	movt	r1, :upper16:s_asFramebuf
.Ltmp176:
	.loc	1 114 29                        @ ../main.cpp:114:29
	ldrb	r0, [r1]
.Ltmp177:
	.loc	1 114 13 is_stmt 0              @ ../main.cpp:114:13
	ldrb.w	r1, [r1, #36]
	ldr	r5, [sp, #76]                   @ 4-byte Reload
	ldr.w	r9, [sp, #80]                   @ 4-byte Reload
.Ltmp178:
	@DEBUG_VALUE: main:u64PerfFrames <- [DW_OP_LLVM_fragment 32 32] $r9
	@DEBUG_VALUE: main:u64PerfFrames <- [DW_OP_LLVM_fragment 32 32] $r9
.LBB1_31:                               @   in Loop: Header=BB1_24 Depth=1
	@DEBUG_VALUE: main:fullFramebuf <- $r8
	@DEBUG_VALUE: main:u64PerfFrames <- [DW_OP_LLVM_fragment 32 32] $r9
	@DEBUG_VALUE: main:u64PerfFrames <- [DW_OP_plus_uconst 60, DW_OP_LLVM_fragment 0 32] [$sp+0]
	@DEBUG_VALUE: main:u64PerfCycle <- [DW_OP_plus_uconst 52, DW_OP_LLVM_fragment 32 32] [$sp+0]
	@DEBUG_VALUE: main:u64PerfCycle <- [DW_OP_plus_uconst 56, DW_OP_LLVM_fragment 0 32] [$sp+0]
	@DEBUG_VALUE: get_inf_framebuf:i <- [DW_OP_plus_uconst 1, DW_OP_stack_value] 0
	cmp	r1, #2
	csel	r1, r10, r6, eq
	cmp	r0, #2
	movw	r0, :lower16:s_asFramebuf
	movt	r0, :upper16:s_asFramebuf
	csel	r1, r0, r1, eq
.Ltmp179:
	@DEBUG_VALUE: main:infFramebuf <- $r1
	.loc	1 530 13 is_stmt 1              @ ../main.cpp:530:13
	cmp	r1, #0
	beq.w	.LBB1_47
.Ltmp180:
@ %bb.32:                               @   in Loop: Header=BB1_24 Depth=1
	@DEBUG_VALUE: main:infFramebuf <- $r1
	@DEBUG_VALUE: main:fullFramebuf <- $r8
	@DEBUG_VALUE: main:u64PerfFrames <- [DW_OP_LLVM_fragment 32 32] $r9
	@DEBUG_VALUE: main:u64PerfFrames <- [DW_OP_plus_uconst 60, DW_OP_LLVM_fragment 0 32] [$sp+0]
	@DEBUG_VALUE: main:u64PerfCycle <- [DW_OP_plus_uconst 52, DW_OP_LLVM_fragment 32 32] [$sp+0]
	@DEBUG_VALUE: main:u64PerfCycle <- [DW_OP_plus_uconst 56, DW_OP_LLVM_fragment 0 32] [$sp+0]
	.loc	1 542 18                        @ ../main.cpp:542:18
	add.w	r8, r1, #24
.Ltmp181:
	.loc	1 0 18 is_stmt 0                @ ../main.cpp:0:18
	mov	r4, r1
.Ltmp182:
	@DEBUG_VALUE: main:infFramebuf <- $r4
	@DEBUG_VALUE: main:infFramebuf <- $r4
	ldrd	r2, r1, [sp, #44]               @ 8-byte Folded Reload
	.loc	1 537 16 is_stmt 1              @ ../main.cpp:537:16
	add	r0, sp, #260
	mov	r3, r2
	strd	r1, r8, [sp]
	bl	_ZN3arm3app10yolov8n_od23YOLOv8nODPostProcessing17RunPostProcessingEjjjjRNSt3__26vectorINS1_15DetectionResultENS3_9allocatorIS5_EEEE
.Ltmp183:
	@DEBUG_VALUE: operator==<arm::app::yolov8n_od::DetectionResult *>:__y <- undef
	@DEBUG_VALUE: operator==<arm::app::yolov8n_od::DetectionResult *>:__x <- undef
	@DEBUG_VALUE: operator!=<arm::app::yolov8n_od::DetectionResult *>:__y <- undef
	@DEBUG_VALUE: operator!=<arm::app::yolov8n_od::DetectionResult *>:__x <- undef
	@DEBUG_VALUE: __make_iter:this <- $r8
	@DEBUG_VALUE: __end3 <- undef
	@DEBUG_VALUE: __make_iter:__p <- undef
	@DEBUG_VALUE: end:this <- $r8
	@DEBUG_VALUE: __make_iter:this <- $r8
	@DEBUG_VALUE: __begin3 <- undef
	@DEBUG_VALUE: __make_iter:__p <- undef
	@DEBUG_VALUE: __range3 <- $r8
	.loc	8 1411 28                       @ AppData\Local\Keil_v5\ARM\ARMCLANG\bin\..\include\libcxx\vector:1411:28
	ldrd	r1, r2, [r4, #24]
	str	r4, [sp, #72]                   @ 4-byte Spill
.Ltmp184:
	@DEBUG_VALUE: main:infFramebuf <- [DW_OP_plus_uconst 72] [$sp+0]
	@DEBUG_VALUE: main:infFramebuf <- [DW_OP_plus_uconst 72] [$sp+0]
	@DEBUG_VALUE: begin:this <- $r8
	.loc	1 545 19                        @ ../main.cpp:545:19
	cmp	r1, r2
	beq.w	.LBB1_42
.Ltmp185:
@ %bb.33:                               @   in Loop: Header=BB1_24 Depth=1
	@DEBUG_VALUE: main:infFramebuf <- [DW_OP_plus_uconst 72] [$sp+0]
	@DEBUG_VALUE: __range3 <- $r8
	@DEBUG_VALUE: main:u64PerfFrames <- [DW_OP_LLVM_fragment 32 32] $r9
	@DEBUG_VALUE: main:u64PerfFrames <- [DW_OP_plus_uconst 60, DW_OP_LLVM_fragment 0 32] [$sp+0]
	@DEBUG_VALUE: main:u64PerfCycle <- [DW_OP_plus_uconst 52, DW_OP_LLVM_fragment 32 32] [$sp+0]
	@DEBUG_VALUE: main:u64PerfCycle <- [DW_OP_plus_uconst 56, DW_OP_LLVM_fragment 0 32] [$sp+0]
	.loc	1 545 0 is_stmt 0               @ ../main.cpp:545:0
	sub.w	r12, r2, r1
	movw	r0, #43691
	sub.w	r3, r12, #24
	movt	r0, #43690
	umull	r3, r6, r3, r0
	movs	r0, #1
	mov	r3, r1
	add.w	lr, r0, r6, lsr #4
.Ltmp186:
	.loc	1 0 0                           @ :0:0
.Ltmp187:
	.p2align	2
.LBB1_34:                               @   Parent Loop BB1_24 Depth=1
                                        @ =>  This Inner Loop Header: Depth=2
	@DEBUG_VALUE: main:infFramebuf <- [DW_OP_plus_uconst 72] [$sp+0]
	@DEBUG_VALUE: __range3 <- $r8
	@DEBUG_VALUE: main:u64PerfFrames <- [DW_OP_LLVM_fragment 32 32] $r9
	@DEBUG_VALUE: main:u64PerfFrames <- [DW_OP_plus_uconst 60, DW_OP_LLVM_fragment 0 32] [$sp+0]
	@DEBUG_VALUE: main:u64PerfCycle <- [DW_OP_plus_uconst 52, DW_OP_LLVM_fragment 32 32] [$sp+0]
	@DEBUG_VALUE: main:u64PerfCycle <- [DW_OP_plus_uconst 56, DW_OP_LLVM_fragment 0 32] [$sp+0]
	@DEBUG_VALUE: __begin3 <- $r3
	@DEBUG_VALUE: det <- $r3
	.loc	1 547 42 is_stmt 1              @ ../main.cpp:547:42
	ldrd	r6, r5, [r3]
	.loc	1 549 42                        @ ../main.cpp:549:42
	ldr	r4, [r3, #8]
	.loc	1 550 42                        @ ../main.cpp:550:42
	ldr	r0, [r3, #12]
	.loc	1 547 44                        @ ../main.cpp:547:44
	add.w	r6, r6, r6, lsl #2
	.loc	1 548 44                        @ ../main.cpp:548:44
	add.w	r5, r5, r5, lsl #2
	.loc	1 549 44                        @ ../main.cpp:549:44
	add.w	r4, r4, r4, lsl #2
	.loc	1 550 44                        @ ../main.cpp:550:44
	add.w	r0, r0, r0, lsl #2
	.loc	1 548 44                        @ ../main.cpp:548:44
	subs	r5, #120
	.loc	1 547 49                        @ ../main.cpp:547:49
	smmul	r6, r6, r11
	.loc	1 548 49                        @ ../main.cpp:548:49
	smmul	r5, r5, r11
	.loc	1 549 49                        @ ../main.cpp:549:49
	smmul	r4, r4, r11
	.loc	1 550 49                        @ ../main.cpp:550:49
	smmul	r0, r0, r11
	.loc	1 547 49                        @ ../main.cpp:547:49
	add.w	r6, r6, r6, lsr #31
	.loc	1 548 49                        @ ../main.cpp:548:49
	add.w	r5, r5, r5, lsr #31
	.loc	1 549 49                        @ ../main.cpp:549:49
	add.w	r4, r4, r4, lsr #31
	.loc	1 550 49                        @ ../main.cpp:550:49
	add.w	r0, r0, r0, lsr #31
.Ltmp188:
	@DEBUG_VALUE: operator++:this <- undef
	.loc	1 547 23                        @ ../main.cpp:547:23
	strd	r6, r5, [r3]
	.loc	1 549 23                        @ ../main.cpp:549:23
	strd	r4, r0, [r3, #8]
.Ltmp189:
	.loc	11 55 5                         @ AppData\Local\Keil_v5\ARM\ARMCLANG\bin\..\include\libcxx\__iterator\wrap_iter.h:55:5
	adds	r3, #24
.Ltmp190:
	@DEBUG_VALUE: operator==<arm::app::yolov8n_od::DetectionResult *>:__y <- undef
	@DEBUG_VALUE: operator==<arm::app::yolov8n_od::DetectionResult *>:__x <- undef
	@DEBUG_VALUE: operator!=<arm::app::yolov8n_od::DetectionResult *>:__y <- undef
	@DEBUG_VALUE: operator!=<arm::app::yolov8n_od::DetectionResult *>:__x <- undef
	@DEBUG_VALUE: __begin3 <- $r3
	.loc	1 545 19                        @ ../main.cpp:545:19
	le	lr, .LBB1_34
.Ltmp191:
@ %bb.35:                               @   in Loop: Header=BB1_24 Depth=1
	@DEBUG_VALUE: main:infFramebuf <- [DW_OP_plus_uconst 72] [$sp+0]
	@DEBUG_VALUE: main:u64PerfFrames <- [DW_OP_LLVM_fragment 32 32] $r9
	@DEBUG_VALUE: main:u64PerfFrames <- [DW_OP_plus_uconst 60, DW_OP_LLVM_fragment 0 32] [$sp+0]
	@DEBUG_VALUE: main:u64PerfCycle <- [DW_OP_plus_uconst 52, DW_OP_LLVM_fragment 32 32] [$sp+0]
	@DEBUG_VALUE: main:u64PerfCycle <- [DW_OP_plus_uconst 56, DW_OP_LLVM_fragment 0 32] [$sp+0]
	@DEBUG_VALUE: size:this <- $r8
	.loc	1 560 7                         @ ../main.cpp:560:7
	cmp	r2, r1
	beq	.LBB1_42
.Ltmp192:
@ %bb.36:                               @   in Loop: Header=BB1_24 Depth=1
	@DEBUG_VALUE: main:infFramebuf <- [DW_OP_plus_uconst 72] [$sp+0]
	@DEBUG_VALUE: main:u64PerfFrames <- [DW_OP_LLVM_fragment 32 32] $r9
	@DEBUG_VALUE: main:u64PerfFrames <- [DW_OP_plus_uconst 60, DW_OP_LLVM_fragment 0 32] [$sp+0]
	@DEBUG_VALUE: main:u64PerfCycle <- [DW_OP_plus_uconst 52, DW_OP_LLVM_fragment 32 32] [$sp+0]
	@DEBUG_VALUE: main:u64PerfCycle <- [DW_OP_plus_uconst 56, DW_OP_LLVM_fragment 0 32] [$sp+0]
	@DEBUG_VALUE: DrawDetectBox:drawImg <- undef
	@DEBUG_VALUE: DrawDetectBox:results <- $r8
	@DEBUG_VALUE: DrawDetectBox:labels <- [DW_OP_plus_uconst 248, DW_OP_stack_value] $sp
	@DEBUG_VALUE: size:this <- $r8
	@DEBUG_VALUE: DrawDetectBox:boxSize <- [DW_OP_constu 24, DW_OP_div, DW_OP_stack_value] $r12
	@DEBUG_VALUE: DrawDetectBox:personCount <- 0
	@DEBUG_VALUE: p <- 0
	.loc	1 209 2                         @ ../main.cpp:209:2
	cmp.w	r12, #1
	blt	.LBB1_42
.Ltmp193:
@ %bb.37:                               @   in Loop: Header=BB1_24 Depth=1
	@DEBUG_VALUE: p <- 0
	@DEBUG_VALUE: DrawDetectBox:personCount <- 0
	@DEBUG_VALUE: DrawDetectBox:boxSize <- [DW_OP_constu 24, DW_OP_div, DW_OP_stack_value] $r12
	@DEBUG_VALUE: size:this <- $r8
	@DEBUG_VALUE: DrawDetectBox:labels <- [DW_OP_plus_uconst 248, DW_OP_stack_value] $sp
	@DEBUG_VALUE: DrawDetectBox:results <- $r8
	@DEBUG_VALUE: main:infFramebuf <- [DW_OP_plus_uconst 72] [$sp+0]
	@DEBUG_VALUE: main:u64PerfFrames <- [DW_OP_LLVM_fragment 32 32] $r9
	@DEBUG_VALUE: main:u64PerfFrames <- [DW_OP_plus_uconst 60, DW_OP_LLVM_fragment 0 32] [$sp+0]
	@DEBUG_VALUE: main:u64PerfCycle <- [DW_OP_plus_uconst 52, DW_OP_LLVM_fragment 32 32] [$sp+0]
	@DEBUG_VALUE: main:u64PerfCycle <- [DW_OP_plus_uconst 56, DW_OP_LLVM_fragment 0 32] [$sp+0]
	.loc	8 634 48                        @ AppData\Local\Keil_v5\ARM\ARMCLANG\bin\..\include\libcxx\vector:634:48
	movw	r0, #43691
.Ltmp194:
	.loc	1 209 2                         @ ../main.cpp:209:2
	movs	r6, #1
.Ltmp195:
	.loc	8 634 48                        @ AppData\Local\Keil_v5\ARM\ARMCLANG\bin\..\include\libcxx\vector:634:48
	movt	r0, #43690
	movs	r4, #0
	umull	r0, r1, r12, r0
	movs	r7, #0
	lsrs	r0, r1, #4
.Ltmp196:
	@DEBUG_VALUE: DrawDetectBox:boxSize <- $r0
	.loc	1 209 2                         @ ../main.cpp:209:2
	cmp	r0, #1
.Ltmp197:
	.loc	1 565 0                         @ ../main.cpp:565:0
	ldr	r0, [sp, #72]                   @ 4-byte Reload
.Ltmp198:
	@DEBUG_VALUE: main:infFramebuf <- $r0
	@DEBUG_VALUE: main:infFramebuf <- $r0
	add.w	r0, r0, #4
.Ltmp199:
	.loc	1 209 2                         @ ../main.cpp:209:2
	str	r0, [sp, #64]                   @ 4-byte Spill
.Ltmp200:
	@DEBUG_VALUE: DrawDetectBox:drawImg <- [DW_OP_plus_uconst 64] [$sp+0]
	it	hi
	lsrhi	r6, r1, #4
	str.w	r8, [sp, #68]                   @ 4-byte Spill
	b	.LBB1_39
.Ltmp201:
	.loc	1 0 2 is_stmt 0                 @ :0:2
.Ltmp202:
	.p2align	2
.LBB1_38:                               @   in Loop: Header=BB1_39 Depth=2
	@DEBUG_VALUE: DrawDetectBox:personCount <- $r7
	@DEBUG_VALUE: DrawDetectBox:drawImg <- [DW_OP_plus_uconst 64] [$sp+0]
	@DEBUG_VALUE: DrawDetectBox:labels <- [DW_OP_plus_uconst 248, DW_OP_stack_value] $sp
	@DEBUG_VALUE: main:u64PerfFrames <- [DW_OP_LLVM_fragment 32 32] $r9
	@DEBUG_VALUE: main:u64PerfFrames <- [DW_OP_plus_uconst 60, DW_OP_LLVM_fragment 0 32] [$sp+0]
	@DEBUG_VALUE: main:u64PerfCycle <- [DW_OP_plus_uconst 52, DW_OP_LLVM_fragment 32 32] [$sp+0]
	@DEBUG_VALUE: main:u64PerfCycle <- [DW_OP_plus_uconst 56, DW_OP_LLVM_fragment 0 32] [$sp+0]
	@DEBUG_VALUE: DrawDetectBox:personCount <- $r7
	@DEBUG_VALUE: p <- undef
	.loc	1 209 19                        @ ../main.cpp:209:19
	subs	r6, #1
	add.w	r4, r4, #24
.Ltmp203:
	.loc	1 209 2                         @ ../main.cpp:209:2
	beq	.LBB1_43
.Ltmp204:
.LBB1_39:                               @   Parent Loop BB1_24 Depth=1
                                        @ =>  This Inner Loop Header: Depth=2
	@DEBUG_VALUE: DrawDetectBox:drawImg <- [DW_OP_plus_uconst 64] [$sp+0]
	@DEBUG_VALUE: DrawDetectBox:labels <- [DW_OP_plus_uconst 248, DW_OP_stack_value] $sp
	@DEBUG_VALUE: main:u64PerfFrames <- [DW_OP_LLVM_fragment 32 32] $r9
	@DEBUG_VALUE: main:u64PerfFrames <- [DW_OP_plus_uconst 60, DW_OP_LLVM_fragment 0 32] [$sp+0]
	@DEBUG_VALUE: main:u64PerfCycle <- [DW_OP_plus_uconst 52, DW_OP_LLVM_fragment 32 32] [$sp+0]
	@DEBUG_VALUE: main:u64PerfCycle <- [DW_OP_plus_uconst 56, DW_OP_LLVM_fragment 0 32] [$sp+0]
	@DEBUG_VALUE: DrawDetectBox:personCount <- $r7
	@DEBUG_VALUE: p <- undef
	@DEBUG_VALUE: operator[]:this <- $r8
	@DEBUG_VALUE: operator[]:__n <- undef
	.loc	8 1443 16 is_stmt 1             @ AppData\Local\Keil_v5\ARM\ARMCLANG\bin\..\include\libcxx\vector:1443:16
	ldr.w	r0, [r8]
.Ltmp205:
	.loc	1 211 13                        @ ../main.cpp:211:13
	adds	r1, r0, r4
	ldr	r2, [r1, #16]
.Ltmp206:
	@DEBUG_VALUE: DrawDetectBox:detectBox <- [DW_OP_LLVM_fragment 160 32] undef
	@DEBUG_VALUE: DrawDetectBox:detectBox <- [DW_OP_LLVM_fragment 96 32] undef
	@DEBUG_VALUE: DrawDetectBox:detectBox <- [DW_OP_LLVM_fragment 64 32] undef
	@DEBUG_VALUE: DrawDetectBox:detectBox <- [DW_OP_LLVM_fragment 32 32] undef
	@DEBUG_VALUE: DrawDetectBox:detectBox <- [DW_OP_LLVM_fragment 0 32] undef
	@DEBUG_VALUE: DrawDetectBox:detectBox <- [DW_OP_LLVM_fragment 128 32] $r2
	.loc	1 212 13                        @ ../main.cpp:212:13
	cmp	r2, #0
	bne	.LBB1_38
.Ltmp207:
@ %bb.40:                               @   in Loop: Header=BB1_39 Depth=2
	@DEBUG_VALUE: DrawDetectBox:detectBox <- [DW_OP_LLVM_fragment 128 32] $r2
	@DEBUG_VALUE: DrawDetectBox:personCount <- $r7
	@DEBUG_VALUE: DrawDetectBox:drawImg <- [DW_OP_plus_uconst 64] [$sp+0]
	@DEBUG_VALUE: DrawDetectBox:labels <- [DW_OP_plus_uconst 248, DW_OP_stack_value] $sp
	@DEBUG_VALUE: main:u64PerfFrames <- [DW_OP_LLVM_fragment 32 32] $r9
	@DEBUG_VALUE: main:u64PerfFrames <- [DW_OP_plus_uconst 60, DW_OP_LLVM_fragment 0 32] [$sp+0]
	@DEBUG_VALUE: main:u64PerfCycle <- [DW_OP_plus_uconst 52, DW_OP_LLVM_fragment 32 32] [$sp+0]
	@DEBUG_VALUE: main:u64PerfCycle <- [DW_OP_plus_uconst 56, DW_OP_LLVM_fragment 0 32] [$sp+0]
	@DEBUG_VALUE: DrawDetectBox:detectBox <- [DW_OP_LLVM_fragment 32 32] undef
	@DEBUG_VALUE: DrawDetectBox:detectBox <- [DW_OP_LLVM_fragment 64 32] undef
	@DEBUG_VALUE: DrawDetectBox:detectBox <- [DW_OP_LLVM_fragment 96 32] undef
	@DEBUG_VALUE: DrawDetectBox:detectBox <- [DW_OP_LLVM_fragment 32 32] $r5
	.loc	1 211 13                        @ ../main.cpp:211:13
	ldrd	r5, r3, [r1, #4]
.Ltmp208:
	@DEBUG_VALUE: DrawDetectBox:detectBox <- [DW_OP_LLVM_fragment 64 32] $r3
	.loc	1 213 24                        @ ../main.cpp:213:24
	adds	r7, #1
.Ltmp209:
	@DEBUG_VALUE: DrawDetectBox:personCount <- $r7
	.loc	1 211 13                        @ ../main.cpp:211:13
	ldr	r1, [r1, #12]
.Ltmp210:
	@DEBUG_VALUE: DrawDetectBox:detectBox <- [DW_OP_LLVM_fragment 96 32] $r1
	.loc	1 0 13 is_stmt 0                @ ../main.cpp:0:13
	mov	r8, r11
	.loc	1 211 13                        @ ../main.cpp:211:13
	ldr.w	r10, [r0, r4]
.Ltmp211:
	@DEBUG_VALUE: DrawDetectBox:detectBox <- [DW_OP_LLVM_fragment 0 32] $r10
	.loc	1 0 13                          @ ../main.cpp:0:13
	movs	r0, #31
.Ltmp212:
	.loc	1 214 7 is_stmt 1               @ ../main.cpp:214:7
	str	r7, [sp, #80]                   @ 4-byte Spill
.Ltmp213:
	@DEBUG_VALUE: DrawDetectBox:personCount <- [DW_OP_plus_uconst 80] [$sp+0]
	@DEBUG_VALUE: DrawDetectBox:personCount <- [DW_OP_plus_uconst 80] [$sp+0]
	mov	r2, r5
.Ltmp214:
	@DEBUG_VALUE: DrawDetectBox:personCount <- [DW_OP_plus_uconst 80] [$sp+0]
	.loc	1 0 7 is_stmt 0                 @ ../main.cpp:0:7
	ldr	r7, [sp, #64]                   @ 4-byte Reload
.Ltmp215:
	@DEBUG_VALUE: DrawDetectBox:personCount <- $r7
	mov	r11, r9
.Ltmp216:
	@DEBUG_VALUE: main:u64PerfFrames <- [DW_OP_LLVM_fragment 32 32] $r11
	@DEBUG_VALUE: main:u64PerfFrames <- [DW_OP_LLVM_fragment 32 32] $r11
	.loc	1 214 7                         @ ../main.cpp:214:7
	str	r0, [sp, #4]
	movs	r0, #2
	str	r1, [sp]
	mov	r1, r10
.Ltmp217:
	str	r0, [sp, #8]
	mov	r0, r7
	mov.w	r9, #0
	str.w	r9, [sp, #12]
	bl	imlib_draw_rectangle
.Ltmp218:
	.loc	8 1436 16 is_stmt 1             @ AppData\Local\Keil_v5\ARM\ARMCLANG\bin\..\include\libcxx\vector:1436:16
	ldr	r0, [sp, #248]
.Ltmp219:
	@DEBUG_VALUE: __is_long:this <- $r0
	@DEBUG_VALUE: __get_pointer:this <- $r0
	@DEBUG_VALUE: data:this <- $r0
	@DEBUG_VALUE: c_str:this <- $r0
	.loc	1 216 89                        @ ../main.cpp:216:89
	sub.w	r2, r5, #16
	@DEBUG_VALUE: operator[]:__n <- 0
	@DEBUG_VALUE: operator[]:this <- [DW_OP_plus_uconst 248, DW_OP_stack_value] $sp
	.loc	1 216 13 is_stmt 0              @ ../main.cpp:216:13
	vmov.f32	s0, s16
.Ltmp220:
	.loc	31 1881 29 is_stmt 1            @ AppData\Local\Keil_v5\ARM\ARMCLANG\bin\..\include\libcxx\string:1881:29
	ldrsb.w	r1, [r0, #11]
	ldr	r3, [r0]
.Ltmp221:
	.loc	31 2009 12                      @ AppData\Local\Keil_v5\ARM\ARMCLANG\bin\..\include\libcxx\string:2009:12
	cmp	r1, #0
.Ltmp222:
	.loc	1 216 13                        @ ../main.cpp:216:13
	mov	r1, r10
.Ltmp223:
	.loc	31 2009 12                      @ AppData\Local\Keil_v5\ARM\ARMCLANG\bin\..\include\libcxx\string:2009:12
	csel	r3, r3, r0, mi
.Ltmp224:
	.loc	1 216 13                        @ ../main.cpp:216:13
	movs	r0, #31
.Ltmp225:
	str.w	r9, [sp, #24]
	strd	r9, r9, [sp, #32]
	strd	r0, r9, [sp]
	strd	r9, r9, [sp, #8]
	strd	r9, r9, [sp, #16]
	mov	r0, r7
	str.w	r9, [sp, #28]
	mov	r9, r11
.Ltmp226:
	@DEBUG_VALUE: main:u64PerfFrames <- [DW_OP_LLVM_fragment 32 32] $r9
	@DEBUG_VALUE: main:u64PerfFrames <- [DW_OP_LLVM_fragment 32 32] $r9
	.loc	1 0 13 is_stmt 0                @ ../main.cpp:0:13
	mov	r11, r8
	ldr	r7, [sp, #80]                   @ 4-byte Reload
.Ltmp227:
	@DEBUG_VALUE: DrawDetectBox:personCount <- $r7
	ldr.w	r8, [sp, #68]                   @ 4-byte Reload
	.loc	1 216 13                        @ ../main.cpp:216:13
	bl	imlib_draw_string
.Ltmp228:
	.loc	1 0 13                          @ ../main.cpp:0:13
	b	.LBB1_38
.Ltmp229:
	.p2align	2
@ %bb.41:
__arm_cp.1_7:
	.long	0x3ecccccd                      @ float 0.400000006
.Lcpi_end0:
	.size	__arm_cp.1_7, .Lcpi_end0-__arm_cp.1_7
	.p2align	2
.LBB1_42:                               @   in Loop: Header=BB1_24 Depth=1
.Ltmp230:
	@DEBUG_VALUE: main:infFramebuf <- [DW_OP_plus_uconst 72] [$sp+0]
	@DEBUG_VALUE: main:u64PerfFrames <- [DW_OP_LLVM_fragment 32 32] $r9
	@DEBUG_VALUE: main:u64PerfFrames <- [DW_OP_plus_uconst 60, DW_OP_LLVM_fragment 0 32] [$sp+0]
	@DEBUG_VALUE: main:u64PerfCycle <- [DW_OP_plus_uconst 52, DW_OP_LLVM_fragment 32 32] [$sp+0]
	@DEBUG_VALUE: main:u64PerfCycle <- [DW_OP_plus_uconst 56, DW_OP_LLVM_fragment 0 32] [$sp+0]
	movs	r7, #0
.Ltmp231:
.LBB1_43:                               @   in Loop: Header=BB1_24 Depth=1
	@DEBUG_VALUE: main:u64PerfFrames <- [DW_OP_LLVM_fragment 32 32] $r9
	@DEBUG_VALUE: main:u64PerfFrames <- [DW_OP_plus_uconst 60, DW_OP_LLVM_fragment 0 32] [$sp+0]
	@DEBUG_VALUE: main:u64PerfCycle <- [DW_OP_plus_uconst 52, DW_OP_LLVM_fragment 32 32] [$sp+0]
	@DEBUG_VALUE: main:u64PerfCycle <- [DW_OP_plus_uconst 56, DW_OP_LLVM_fragment 0 32] [$sp+0]
	@DEBUG_VALUE: main:g_currentPersonCount <- $r7
	.loc	1 616 46 is_stmt 1              @ ../main.cpp:616:46
	ldr	r0, [sp, #228]
	add	r5, sp, #104
	.loc	1 617 46                        @ ../main.cpp:617:46
	ldr	r1, [sp, #232]
	movs	r6, #0
	.loc	1 616 77                        @ ../main.cpp:616:77
	subs	r0, #1
	.loc	1 623 13                        @ ../main.cpp:623:13
	movs	r2, #1
	.loc	1 616 30                        @ ../main.cpp:616:30
	str	r0, [sp, #112]
	.loc	1 617 77                        @ ../main.cpp:617:77
	subs	r1, #1
	.loc	1 623 66                        @ ../main.cpp:623:66
	ldr	r0, [sp, #72]                   @ 4-byte Reload
	.loc	1 617 30                        @ ../main.cpp:617:30
	str	r1, [sp, #116]
	.loc	1 623 13                        @ ../main.cpp:623:13
	mov	r1, r5
	.loc	1 623 66 is_stmt 0              @ ../main.cpp:623:66
	ldr	r0, [r0, #20]
	.loc	1 614 35 is_stmt 1              @ ../main.cpp:614:35
	str	r6, [sp, #104]
	.loc	1 615 35                        @ ../main.cpp:615:35
	str	r6, [sp, #108]
	.loc	1 623 13                        @ ../main.cpp:623:13
	bl	Display_FillRect
.Ltmp232:
	.loc	1 0 13 is_stmt 0                @ ../main.cpp:0:13
	ldr	r4, [sp, #60]                   @ 4-byte Reload
	.loc	1 677 27 is_stmt 1              @ ../main.cpp:677:27
	adds	r4, #1
.Ltmp233:
	@DEBUG_VALUE: main:u64PerfFrames <- [DW_OP_LLVM_fragment 0 32] $r4
	adc	r9, r9, #0
.Ltmp234:
	@DEBUG_VALUE: main:u64PerfFrames <- [DW_OP_LLVM_fragment 32 32] $r9
	.loc	1 678 19                        @ ../main.cpp:678:19
	bl	pmu_get_systick_Count
.Ltmp235:
	.loc	1 678 43 is_stmt 0              @ ../main.cpp:678:43
	ldr	r2, [sp, #56]                   @ 4-byte Reload
	subs	r0, r2, r0
	ldr	r0, [sp, #52]                   @ 4-byte Reload
	sbcs	r0, r1
.Ltmp236:
	.loc	1 678 8                         @ ../main.cpp:678:8
	bhs	.LBB1_45
.Ltmp237:
@ %bb.44:                               @   in Loop: Header=BB1_24 Depth=1
	@DEBUG_VALUE: main:u64PerfFrames <- [DW_OP_LLVM_fragment 0 32] $r4
	@DEBUG_VALUE: main:g_currentPersonCount <- $r7
	@DEBUG_VALUE: main:u64PerfFrames <- [DW_OP_LLVM_fragment 32 32] $r9
	@DEBUG_VALUE: main:u64PerfCycle <- [DW_OP_plus_uconst 52, DW_OP_LLVM_fragment 32 32] [$sp+0]
	@DEBUG_VALUE: main:u64PerfCycle <- [DW_OP_plus_uconst 56, DW_OP_LLVM_fragment 0 32] [$sp+0]
	.loc	1 680 17 is_stmt 1              @ ../main.cpp:680:17
	movw	r0, :lower16:.L.str.3
	movt	r0, :upper16:.L.str.3
	bl	__2printf
.Ltmp238:
	movw	r0, :lower16:.L.str.7
	mov	r2, r4
	movt	r0, :upper16:.L.str.7
	mov	r3, r9
	bl	__2printf
.Ltmp239:
	.loc	1 0 17 is_stmt 0                @ ../main.cpp:0:17
	mov	r2, r4
	add	r4, sp, #120
.Ltmp240:
	.loc	1 682 17 is_stmt 1              @ ../main.cpp:682:17
	mov	r0, r4
	adr	r1, .LCPI1_6
	mov	r3, r9
	str	r7, [sp]
	bl	__2sprintf
.Ltmp241:
	.loc	1 688 46                        @ ../main.cpp:688:46
	ldrd	r1, r0, [sp, #228]
	movs	r6, #0
	.loc	1 686 39                        @ ../main.cpp:686:39
	str	r6, [sp, #104]
	.loc	1 687 27                        @ ../main.cpp:687:27
	strd	r0, r1, [sp, #108]
	.loc	1 689 121                       @ ../main.cpp:689:121
	adds	r0, #31
	.loc	1 691 17                        @ ../main.cpp:691:17
	mov	r1, r5
	.loc	1 689 31                        @ ../main.cpp:689:31
	str	r0, [sp, #116]
	.loc	1 691 17                        @ ../main.cpp:691:17
	movw	r0, #65535
	bl	Display_ClearRect
.Ltmp242:
	.loc	1 694 21                        @ ../main.cpp:694:21
	mov	r0, r4
	bl	strlen
.Ltmp243:
	mov	r1, r0
	.loc	1 692 17                        @ ../main.cpp:692:17
	movs	r0, #31
	.loc	1 696 33                        @ ../main.cpp:696:33
	ldr	r3, [sp, #232]
	movs	r2, #0
	.loc	1 692 17                        @ ../main.cpp:692:17
	str	r0, [sp]
	movw	r0, #65535
	str	r0, [sp, #4]
	mov	r0, r4
	movs	r7, #2
.Ltmp244:
	str	r2, [sp, #60]                   @ 4-byte Spill
	str	r6, [sp, #8]
	movs	r6, #0
	str	r7, [sp, #12]
	bl	Display_PutText
.Ltmp245:
	.loc	1 703 42                        @ ../main.cpp:703:42
	bl	pmu_get_systick_Count
.Ltmp246:
	.loc	1 703 79 is_stmt 0              @ ../main.cpp:703:79
	movw	r2, :lower16:SystemCoreClock
	mov.w	r9, #0
.Ltmp247:
	movt	r2, :upper16:SystemCoreClock
	ldr	r2, [r2]
	.loc	1 703 66                        @ ../main.cpp:703:66
	adds	r0, r0, r2
.Ltmp248:
	@DEBUG_VALUE: main:u64PerfCycle <- [DW_OP_LLVM_fragment 0 32] $r0
	str	r0, [sp, #56]                   @ 4-byte Spill
.Ltmp249:
	@DEBUG_VALUE: main:u64PerfCycle <- [DW_OP_plus_uconst 56, DW_OP_LLVM_fragment 0 32] [$sp+0]
	@DEBUG_VALUE: main:u64PerfCycle <- [DW_OP_plus_uconst 56, DW_OP_LLVM_fragment 0 32] [$sp+0]
	adc	r0, r1, #0
.Ltmp250:
	@DEBUG_VALUE: main:u64PerfCycle <- [DW_OP_LLVM_fragment 32 32] $r0
	@DEBUG_VALUE: main:u64PerfFrames <- 0
	.loc	1 0 66                          @ ../main.cpp:0:66
	str	r0, [sp, #52]                   @ 4-byte Spill
.Ltmp251:
	@DEBUG_VALUE: main:u64PerfCycle <- [DW_OP_plus_uconst 52, DW_OP_LLVM_fragment 32 32] [$sp+0]
	@DEBUG_VALUE: main:u64PerfCycle <- [DW_OP_plus_uconst 52, DW_OP_LLVM_fragment 32 32] [$sp+0]
	b	.LBB1_46
.Ltmp252:
	.p2align	2
.LBB1_45:                               @   in Loop: Header=BB1_24 Depth=1
	@DEBUG_VALUE: main:u64PerfFrames <- [DW_OP_LLVM_fragment 0 32] $r4
	@DEBUG_VALUE: main:g_currentPersonCount <- $r7
	@DEBUG_VALUE: main:u64PerfFrames <- [DW_OP_LLVM_fragment 32 32] $r9
	@DEBUG_VALUE: main:u64PerfCycle <- [DW_OP_plus_uconst 52, DW_OP_LLVM_fragment 32 32] [$sp+0]
	@DEBUG_VALUE: main:u64PerfCycle <- [DW_OP_plus_uconst 56, DW_OP_LLVM_fragment 0 32] [$sp+0]
	str	r4, [sp, #60]                   @ 4-byte Spill
.Ltmp253:
	@DEBUG_VALUE: main:u64PerfFrames <- [DW_OP_plus_uconst 60, DW_OP_LLVM_fragment 0 32] [$sp+0]
.LBB1_46:                               @   in Loop: Header=BB1_24 Depth=1
	@DEBUG_VALUE: main:u64PerfCycle <- [DW_OP_plus_uconst 52, DW_OP_LLVM_fragment 32 32] [$sp+0]
	@DEBUG_VALUE: main:u64PerfCycle <- [DW_OP_plus_uconst 56, DW_OP_LLVM_fragment 0 32] [$sp+0]
	ldr	r4, [sp, #40]                   @ 4-byte Reload
	@DEBUG_VALUE: main:u64PerfCycle <- [DW_OP_plus_uconst 56, DW_OP_LLVM_fragment 0 32] [$sp+0]
.Ltmp254:
	@DEBUG_VALUE: main:u64PerfCycle <- [DW_OP_plus_uconst 52, DW_OP_LLVM_fragment 32 32] [$sp+0]
	@DEBUG_VALUE: main:u64PerfFrames <- [DW_OP_plus_uconst 60, DW_OP_LLVM_fragment 0 32] [$sp+0]
	@DEBUG_VALUE: main:u64PerfFrames <- [DW_OP_LLVM_fragment 32 32] $r9
	.loc	1 707 33 is_stmt 1              @ ../main.cpp:707:33
	ldr	r0, [sp, #72]                   @ 4-byte Reload
	ldr	r5, [sp, #76]                   @ 4-byte Reload
	strb	r6, [r0]
.Ltmp255:
.LBB1_47:                               @   in Loop: Header=BB1_24 Depth=1
	@DEBUG_VALUE: main:u64PerfFrames <- [DW_OP_LLVM_fragment 32 32] $r9
	@DEBUG_VALUE: main:u64PerfFrames <- [DW_OP_plus_uconst 60, DW_OP_LLVM_fragment 0 32] [$sp+0]
	@DEBUG_VALUE: main:u64PerfCycle <- [DW_OP_plus_uconst 52, DW_OP_LLVM_fragment 32 32] [$sp+0]
	@DEBUG_VALUE: main:u64PerfCycle <- [DW_OP_plus_uconst 56, DW_OP_LLVM_fragment 0 32] [$sp+0]
	@DEBUG_VALUE: main:u64PerfCycle <- [DW_OP_plus_uconst 56, DW_OP_LLVM_fragment 0 32] [$sp+0]
	@DEBUG_VALUE: main:u64PerfCycle <- [DW_OP_plus_uconst 52, DW_OP_LLVM_fragment 32 32] [$sp+0]
	@DEBUG_VALUE: main:u64PerfFrames <- [DW_OP_plus_uconst 60, DW_OP_LLVM_fragment 0 32] [$sp+0]
	@DEBUG_VALUE: main:u64PerfFrames <- [DW_OP_LLVM_fragment 32 32] $r9
	.loc	1 711 7                         @ ../main.cpp:711:7
	cbnz	r5, .LBB1_48
	le	.LBB1_24
.Ltmp256:
.LBB1_48:                               @   in Loop: Header=BB1_24 Depth=1
	@DEBUG_VALUE: main:u64PerfFrames <- [DW_OP_LLVM_fragment 32 32] $r9
	@DEBUG_VALUE: main:u64PerfFrames <- [DW_OP_plus_uconst 60, DW_OP_LLVM_fragment 0 32] [$sp+0]
	@DEBUG_VALUE: main:u64PerfCycle <- [DW_OP_plus_uconst 52, DW_OP_LLVM_fragment 32 32] [$sp+0]
	@DEBUG_VALUE: main:u64PerfCycle <- [DW_OP_plus_uconst 56, DW_OP_LLVM_fragment 0 32] [$sp+0]
	.loc	1 748 4                         @ ../main.cpp:748:4
	bl	ImageSensor_WaitCaptureDone
.Ltmp257:
	.loc	1 770 26                        @ ../main.cpp:770:26
	movs	r0, #1
	strb	r0, [r5]
	.loc	1 771 3                         @ ../main.cpp:771:3
	b	.LBB1_24
.Ltmp258:
	.loc	1 0 3 is_stmt 0                 @ :0:3
.Ltmp259:
	.p2align	4
@ %bb.49:
.LCPI1_5:
	.long	320                             @ 0x140
	.long	240                             @ 0xf0
	.long	201523202                       @ 0xc030002
	.long	153600                          @ 0x25800
.LCPI1_0:
.L.str.11:
	.asciz	"Model file size %i \n\000\000\000"
.LCPI1_1:
.Lstr:
	.asciz	"Failed to initialise model\000"
.LCPI1_2:
.Lstr.16:
	.asciz	"Set tesnor arena cache policy to WTRA \000"
.LCPI1_3:
.Lstr.17:
	.asciz	"Invalid input tensor dims\000\000"
.LCPI1_6:
.L.str.8:
	.asciz	"FPS: %llu | People: %d\000"
.Lfunc_end1:
	.size	main, .Lfunc_end1-main
	.cfi_endproc
	.file	42 "C:\\Users\\jimmy\\Desktop\\Nuvoton\\Nuvoton-Team-2\\repos\\m55m1-ElevatorCounting-YOLOv8n\\KEIL" "../../../../ThirdParty/tflite_micro\\tensorflow/lite/micro/micro_op_resolver.h"
	.file	43 "C:\\Users\\jimmy\\Desktop\\Nuvoton\\Nuvoton-Team-2\\repos\\m55m1-ElevatorCounting-YOLOv8n\\KEIL" "../../../../ThirdParty/tflite_micro\\tensorflow/lite/micro/micro_common.h"
	.file	44 "C:\\Users\\jimmy\\Desktop\\Nuvoton\\Nuvoton-Team-2\\repos\\m55m1-ElevatorCounting-YOLOv8n\\KEIL" "../../../../ThirdParty/tflite_micro/_deps/tensorflow-flatbuffers-src/include\\flatbuffers/flatbuffers.h"
	.file	45 "C:\\Users\\jimmy\\Desktop\\Nuvoton\\Nuvoton-Team-2\\repos\\m55m1-ElevatorCounting-YOLOv8n\\KEIL" "../../../../ThirdParty/tflite_micro/_deps/tensorflow-flatbuffers-src/include\\flatbuffers/flatbuffer_builder.h"
	.file	46 "C:\\Users\\jimmy\\Desktop\\Nuvoton\\Nuvoton-Team-2\\repos\\m55m1-ElevatorCounting-YOLOv8n\\KEIL" "../../../../ThirdParty/tflite_micro/_deps/tensorflow-flatbuffers-src/include\\flatbuffers/string.h"
	.file	47 "C:\\Users\\jimmy" "AppData\\Local\\Keil_v5\\ARM\\ARMCLANG\\bin\\..\\include\\libcxx\\__fwd\\string.h"
	.file	48 "C:\\Users\\jimmy" "AppData\\Local\\Keil_v5\\ARM\\ARMCLANG\\bin\\..\\include\\libcxx\\__fwd\\string_view.h"
	.file	49 "C:\\Users\\jimmy\\Desktop\\Nuvoton\\Nuvoton-Team-2\\repos\\m55m1-ElevatorCounting-YOLOv8n\\KEIL" "../../../../ThirdParty/tflite_micro/_deps/tensorflow-flatbuffers-src/include\\flatbuffers/base.h"
	.file	50 "C:\\Users\\jimmy\\Desktop\\Nuvoton\\Nuvoton-Team-2\\repos\\m55m1-ElevatorCounting-YOLOv8n\\KEIL" "../../../../ThirdParty/tflite_micro\\tensorflow/lite/micro/tflite_bridge/flatbuffer_conversions_bridge.h"
	.file	51 "C:\\Users\\jimmy" "AppData\\Local\\Keil_v5\\ARM\\ARMCLANG\\bin\\..\\include\\libcxx\\__memory\\allocate_at_least.h"
	.cantunwind
	.fnend
                                        @ -- End function
	.section	.text._ZNK6tflite22MicroMutableOpResolverILj2EE6FindOpENS_15BuiltinOperatorE,"axG",%progbits,_ZNK6tflite22MicroMutableOpResolverILj2EE6FindOpENS_15BuiltinOperatorE,comdat
	.hidden	_ZNK6tflite22MicroMutableOpResolverILj2EE6FindOpENS_15BuiltinOperatorE @ -- Begin function _ZNK6tflite22MicroMutableOpResolverILj2EE6FindOpENS_15BuiltinOperatorE
	.weak	_ZNK6tflite22MicroMutableOpResolverILj2EE6FindOpENS_15BuiltinOperatorE
	.p2align	2
	.type	_ZNK6tflite22MicroMutableOpResolverILj2EE6FindOpENS_15BuiltinOperatorE,%function
	.code	16                              @ @_ZNK6tflite22MicroMutableOpResolverILj2EE6FindOpENS_15BuiltinOperatorE
	.thumb_func
_ZNK6tflite22MicroMutableOpResolverILj2EE6FindOpENS_15BuiltinOperatorE:
.Lfunc_begin2:
	.fnstart
	.cfi_startproc
@ %bb.0:
	@DEBUG_VALUE: FindOp:this <- $r0
	@DEBUG_VALUE: FindOp:op <- $r1
	.loc	40 52 9 prologue_end is_stmt 1  @ ../../../../ThirdParty/tflite_micro\tensorflow/lite/micro/micro_mutable_op_resolver.h:52:9
	cmp	r1, #32
	beq	.LBB2_11
.Ltmp260:
@ %bb.1:
	@DEBUG_VALUE: FindOp:op <- $r1
	@DEBUG_VALUE: FindOp:this <- $r0
	.loc	40 0 9 is_stmt 0                @ ../../../../ThirdParty/tflite_micro\tensorflow/lite/micro/micro_mutable_op_resolver.h:0:9
	ldr	r2, [r0, #60]
.Ltmp261:
	@DEBUG_VALUE: i <- 0
	.loc	40 54 5 is_stmt 1               @ ../../../../ThirdParty/tflite_micro\tensorflow/lite/micro/micro_mutable_op_resolver.h:54:5
	cbz	r2, .LBB2_11
.Ltmp262:
@ %bb.2:
	@DEBUG_VALUE: i <- 0
	@DEBUG_VALUE: FindOp:op <- $r1
	@DEBUG_VALUE: FindOp:this <- $r0
	subs	r2, #1
	adds	r0, #108
.Ltmp263:
	@DEBUG_VALUE: FindOp:this <- [DW_OP_LLVM_entry_value 1] $r0
	.loc	40 0 5 is_stmt 0                @ ../../../../ThirdParty/tflite_micro\tensorflow/lite/micro/micro_mutable_op_resolver.h:0:5
	b	.LBB2_9
.Ltmp264:
	.p2align	2
.LBB2_3:                                @   in Loop: Header=BB2_9 Depth=1
	@DEBUG_VALUE: FindOp:this <- [DW_OP_LLVM_entry_value 1] $r0
	@DEBUG_VALUE: FindOp:op <- $r1
	@DEBUG_VALUE: i <- [DW_OP_LLVM_arg 0, DW_OP_consts 18446744073709551615, DW_OP_LLVM_arg 0, DW_OP_plus, DW_OP_minus, DW_OP_consts 18446744073709551612, DW_OP_div, DW_OP_consts 4, DW_OP_mul, DW_OP_consts 1, DW_OP_plus, DW_OP_stack_value] undef
	@DEBUG_VALUE: registration <- [DW_OP_LLVM_arg 0, DW_OP_consts 18446744073709551615, DW_OP_LLVM_arg 0, DW_OP_plus, DW_OP_minus, DW_OP_consts 18446744073709551612, DW_OP_div, DW_OP_consts 112, DW_OP_mul, DW_OP_consts 32, DW_OP_LLVM_arg 0, DW_OP_plus, DW_OP_plus, DW_OP_stack_value] undef
	.loc	40 56 24 is_stmt 1              @ ../../../../ThirdParty/tflite_micro\tensorflow/lite/micro/micro_mutable_op_resolver.h:56:24
	ldr	r3, [r0, #-56]
.Ltmp265:
	@DEBUG_VALUE: i <- [DW_OP_plus_uconst 1, DW_OP_stack_value] $r2
	.loc	40 0 24 is_stmt 0               @ ../../../../ThirdParty/tflite_micro\tensorflow/lite/micro/micro_mutable_op_resolver.h:0:24
	cmp	r3, r1
	itt	eq
	subeq	r0, #76
.Ltmp266:
	.loc	40 61 3 is_stmt 1               @ ../../../../ThirdParty/tflite_micro\tensorflow/lite/micro/micro_mutable_op_resolver.h:61:3
	bxeq	lr
.Ltmp267:
.LBB2_4:                                @   in Loop: Header=BB2_9 Depth=1
	@DEBUG_VALUE: i <- [DW_OP_plus_uconst 1, DW_OP_stack_value] $r2
	@DEBUG_VALUE: FindOp:this <- [DW_OP_LLVM_entry_value 1] $r0
	@DEBUG_VALUE: FindOp:op <- $r1
	@DEBUG_VALUE: i <- [DW_OP_LLVM_arg 0, DW_OP_consts 18446744073709551615, DW_OP_LLVM_arg 0, DW_OP_plus, DW_OP_minus, DW_OP_consts 18446744073709551612, DW_OP_div, DW_OP_consts 4, DW_OP_mul, DW_OP_consts 2, DW_OP_plus, DW_OP_stack_value] undef
	.loc	40 54 5                         @ ../../../../ThirdParty/tflite_micro\tensorflow/lite/micro/micro_mutable_op_resolver.h:54:5
	cmp	r2, #1
	beq	.LBB2_11
.Ltmp268:
@ %bb.5:                                @   in Loop: Header=BB2_9 Depth=1
	@DEBUG_VALUE: FindOp:this <- [DW_OP_LLVM_entry_value 1] $r0
	@DEBUG_VALUE: FindOp:op <- $r1
	@DEBUG_VALUE: i <- [DW_OP_LLVM_arg 0, DW_OP_consts 18446744073709551615, DW_OP_LLVM_arg 0, DW_OP_plus, DW_OP_minus, DW_OP_consts 18446744073709551612, DW_OP_div, DW_OP_consts 4, DW_OP_mul, DW_OP_consts 2, DW_OP_plus, DW_OP_stack_value] undef
	@DEBUG_VALUE: registration <- [DW_OP_LLVM_arg 0, DW_OP_consts 18446744073709551615, DW_OP_LLVM_arg 0, DW_OP_plus, DW_OP_minus, DW_OP_consts 18446744073709551612, DW_OP_div, DW_OP_consts 112, DW_OP_mul, DW_OP_consts 60, DW_OP_LLVM_arg 0, DW_OP_plus, DW_OP_plus, DW_OP_stack_value] undef
	.loc	40 56 24                        @ ../../../../ThirdParty/tflite_micro\tensorflow/lite/micro/micro_mutable_op_resolver.h:56:24
	ldr	r3, [r0, #-28]
.Ltmp269:
	@DEBUG_VALUE: i <- [DW_OP_plus_uconst 1, DW_OP_stack_value] $r2
	.loc	40 0 24 is_stmt 0               @ ../../../../ThirdParty/tflite_micro\tensorflow/lite/micro/micro_mutable_op_resolver.h:0:24
	cmp	r3, r1
	itt	eq
	subeq	r0, #48
.Ltmp270:
	.loc	40 61 3 is_stmt 1               @ ../../../../ThirdParty/tflite_micro\tensorflow/lite/micro/micro_mutable_op_resolver.h:61:3
	bxeq	lr
.Ltmp271:
.LBB2_6:                                @   in Loop: Header=BB2_9 Depth=1
	@DEBUG_VALUE: i <- [DW_OP_plus_uconst 1, DW_OP_stack_value] $r2
	@DEBUG_VALUE: FindOp:this <- [DW_OP_LLVM_entry_value 1] $r0
	@DEBUG_VALUE: FindOp:op <- $r1
	@DEBUG_VALUE: i <- [DW_OP_LLVM_arg 0, DW_OP_consts 18446744073709551615, DW_OP_LLVM_arg 0, DW_OP_plus, DW_OP_minus, DW_OP_consts 18446744073709551612, DW_OP_div, DW_OP_consts 4, DW_OP_mul, DW_OP_consts 3, DW_OP_plus, DW_OP_stack_value] undef
	.loc	40 54 5                         @ ../../../../ThirdParty/tflite_micro\tensorflow/lite/micro/micro_mutable_op_resolver.h:54:5
	cmp	r2, #2
	beq	.LBB2_11
.Ltmp272:
@ %bb.7:                                @   in Loop: Header=BB2_9 Depth=1
	@DEBUG_VALUE: FindOp:this <- [DW_OP_LLVM_entry_value 1] $r0
	@DEBUG_VALUE: FindOp:op <- $r1
	@DEBUG_VALUE: i <- [DW_OP_LLVM_arg 0, DW_OP_consts 18446744073709551615, DW_OP_LLVM_arg 0, DW_OP_plus, DW_OP_minus, DW_OP_consts 18446744073709551612, DW_OP_div, DW_OP_consts 4, DW_OP_mul, DW_OP_consts 3, DW_OP_plus, DW_OP_stack_value] undef
	@DEBUG_VALUE: registration <- [DW_OP_LLVM_arg 0, DW_OP_consts 18446744073709551615, DW_OP_LLVM_arg 0, DW_OP_plus, DW_OP_minus, DW_OP_consts 18446744073709551612, DW_OP_div, DW_OP_consts 112, DW_OP_mul, DW_OP_consts 88, DW_OP_LLVM_arg 0, DW_OP_plus, DW_OP_plus, DW_OP_stack_value] undef
	.loc	40 56 24                        @ ../../../../ThirdParty/tflite_micro\tensorflow/lite/micro/micro_mutable_op_resolver.h:56:24
	ldr	r3, [r0]
.Ltmp273:
	@DEBUG_VALUE: i <- [DW_OP_plus_uconst 1, DW_OP_stack_value] $r2
	.loc	40 0 24 is_stmt 0               @ ../../../../ThirdParty/tflite_micro\tensorflow/lite/micro/micro_mutable_op_resolver.h:0:24
	cmp	r3, r1
	itt	eq
	subeq	r0, #20
.Ltmp274:
	.loc	40 61 3 is_stmt 1               @ ../../../../ThirdParty/tflite_micro\tensorflow/lite/micro/micro_mutable_op_resolver.h:61:3
	bxeq	lr
.Ltmp275:
.LBB2_8:                                @   in Loop: Header=BB2_9 Depth=1
	@DEBUG_VALUE: i <- [DW_OP_plus_uconst 1, DW_OP_stack_value] $r2
	@DEBUG_VALUE: FindOp:this <- [DW_OP_LLVM_entry_value 1] $r0
	@DEBUG_VALUE: FindOp:op <- $r1
	@DEBUG_VALUE: i <- [DW_OP_LLVM_arg 0, DW_OP_consts 18446744073709551615, DW_OP_LLVM_arg 0, DW_OP_plus, DW_OP_minus, DW_OP_consts 18446744073709551612, DW_OP_div, DW_OP_consts 4, DW_OP_mul, DW_OP_consts 4, DW_OP_plus, DW_OP_stack_value] undef
	.loc	40 54 32                        @ ../../../../ThirdParty/tflite_micro\tensorflow/lite/micro/micro_mutable_op_resolver.h:54:32
	subs	r2, #4
	adds	r0, #112
.Ltmp276:
	.loc	40 54 5 is_stmt 0               @ ../../../../ThirdParty/tflite_micro\tensorflow/lite/micro/micro_mutable_op_resolver.h:54:5
	adds	r3, r2, #1
	beq	.LBB2_11
.Ltmp277:
.LBB2_9:                                @ =>This Inner Loop Header: Depth=1
	@DEBUG_VALUE: FindOp:this <- [DW_OP_LLVM_entry_value 1] $r0
	@DEBUG_VALUE: FindOp:op <- $r1
	@DEBUG_VALUE: i <- [DW_OP_LLVM_arg 0, DW_OP_consts 18446744073709551615, DW_OP_LLVM_arg 0, DW_OP_plus, DW_OP_minus, DW_OP_consts 18446744073709551612, DW_OP_div, DW_OP_consts 4, DW_OP_mul, DW_OP_stack_value] undef
	@DEBUG_VALUE: registration <- [DW_OP_LLVM_arg 0, DW_OP_consts 18446744073709551615, DW_OP_LLVM_arg 0, DW_OP_plus, DW_OP_minus, DW_OP_consts 18446744073709551612, DW_OP_div, DW_OP_consts 112, DW_OP_mul, DW_OP_consts 4, DW_OP_LLVM_arg 0, DW_OP_plus, DW_OP_plus, DW_OP_stack_value] undef
	.loc	40 56 24 is_stmt 1              @ ../../../../ThirdParty/tflite_micro\tensorflow/lite/micro/micro_mutable_op_resolver.h:56:24
	ldr	r3, [r0, #-84]
.Ltmp278:
	@DEBUG_VALUE: i <- [DW_OP_plus_uconst 1, DW_OP_stack_value] $r2
	.loc	40 0 24 is_stmt 0               @ ../../../../ThirdParty/tflite_micro\tensorflow/lite/micro/micro_mutable_op_resolver.h:0:24
	cmp	r3, r1
	itt	eq
	subeq	r0, #104
.Ltmp279:
	.loc	40 61 3 is_stmt 1               @ ../../../../ThirdParty/tflite_micro\tensorflow/lite/micro/micro_mutable_op_resolver.h:61:3
	bxeq	lr
.Ltmp280:
.LBB2_10:                               @   in Loop: Header=BB2_9 Depth=1
	@DEBUG_VALUE: i <- [DW_OP_plus_uconst 1, DW_OP_stack_value] $r2
	@DEBUG_VALUE: FindOp:this <- [DW_OP_LLVM_entry_value 1] $r0
	@DEBUG_VALUE: FindOp:op <- $r1
	@DEBUG_VALUE: i <- [DW_OP_LLVM_arg 0, DW_OP_consts 18446744073709551615, DW_OP_LLVM_arg 0, DW_OP_plus, DW_OP_minus, DW_OP_consts 18446744073709551612, DW_OP_div, DW_OP_consts 4, DW_OP_mul, DW_OP_consts 1, DW_OP_plus, DW_OP_stack_value] undef
	.loc	40 54 5                         @ ../../../../ThirdParty/tflite_micro\tensorflow/lite/micro/micro_mutable_op_resolver.h:54:5
	cmp	r2, #0
	bne	.LBB2_3
.Ltmp281:
.LBB2_11:
	@DEBUG_VALUE: FindOp:op <- $r1
	.loc	40 0 5 is_stmt 0                @ ../../../../ThirdParty/tflite_micro\tensorflow/lite/micro/micro_mutable_op_resolver.h:0:5
	movs	r0, #0
	.loc	40 61 3 is_stmt 1               @ ../../../../ThirdParty/tflite_micro\tensorflow/lite/micro/micro_mutable_op_resolver.h:61:3
	bx	lr
.Ltmp282:
.Lfunc_end2:
	.size	_ZNK6tflite22MicroMutableOpResolverILj2EE6FindOpENS_15BuiltinOperatorE, .Lfunc_end2-_ZNK6tflite22MicroMutableOpResolverILj2EE6FindOpENS_15BuiltinOperatorE
	.cfi_endproc
	.cantunwind
	.fnend
                                        @ -- End function
	.section	.text._ZNK6tflite22MicroMutableOpResolverILj2EE6FindOpEPKc,"axG",%progbits,_ZNK6tflite22MicroMutableOpResolverILj2EE6FindOpEPKc,comdat
	.hidden	_ZNK6tflite22MicroMutableOpResolverILj2EE6FindOpEPKc @ -- Begin function _ZNK6tflite22MicroMutableOpResolverILj2EE6FindOpEPKc
	.weak	_ZNK6tflite22MicroMutableOpResolverILj2EE6FindOpEPKc
	.p2align	2
	.type	_ZNK6tflite22MicroMutableOpResolverILj2EE6FindOpEPKc,%function
	.code	16                              @ @_ZNK6tflite22MicroMutableOpResolverILj2EE6FindOpEPKc
	.thumb_func
_ZNK6tflite22MicroMutableOpResolverILj2EE6FindOpEPKc:
.Lfunc_begin3:
	.loc	40 63 0                         @ ../../../../ThirdParty/tflite_micro\tensorflow/lite/micro/micro_mutable_op_resolver.h:63:0
	.fnstart
	.cfi_startproc
@ %bb.0:
	@DEBUG_VALUE: FindOp:this <- $r0
	@DEBUG_VALUE: FindOp:op <- $r1
	.save	{r4, r5, r6, lr}
	push	{r4, r5, r6, lr}
	.cfi_def_cfa_offset 16
	.cfi_offset lr, -4
	.cfi_offset r6, -8
	.cfi_offset r5, -12
	.cfi_offset r4, -16
.Ltmp283:
	@DEBUG_VALUE: i <- 0
	ldr	r5, [r0, #60]
.Ltmp284:
	.loc	40 64 5 prologue_end            @ ../../../../ThirdParty/tflite_micro\tensorflow/lite/micro/micro_mutable_op_resolver.h:64:5
	cmp	r5, #0
	@DEBUG_VALUE: FindOp:op <- $r1
	itt	eq
	moveq	r0, #0
.Ltmp285:
	@DEBUG_VALUE: FindOp:this <- [DW_OP_LLVM_entry_value 1] $r0
	.loc	40 72 3 epilogue_begin          @ ../../../../ThirdParty/tflite_micro\tensorflow/lite/micro/micro_mutable_op_resolver.h:72:3
	popeq	{r4, r5, r6, pc}
.Ltmp286:
.LBB3_1:
	@DEBUG_VALUE: FindOp:this <- [DW_OP_LLVM_entry_value 1] $r0
	@DEBUG_VALUE: i <- 0
	@DEBUG_VALUE: FindOp:op <- $r1
	.loc	40 0 3 is_stmt 0                @ ../../../../ThirdParty/tflite_micro\tensorflow/lite/micro/micro_mutable_op_resolver.h:0:3
	mov	r4, r1
.Ltmp287:
	@DEBUG_VALUE: FindOp:op <- $r4
	@DEBUG_VALUE: FindOp:op <- $r4
	.loc	40 64 5 is_stmt 1               @ ../../../../ThirdParty/tflite_micro\tensorflow/lite/micro/micro_mutable_op_resolver.h:64:5
	add.w	r6, r0, #28
	b	.LBB3_4
.Ltmp288:
	.loc	40 0 5 is_stmt 0                @ :0:5
.Ltmp289:
	.p2align	2
.LBB3_2:                                @   in Loop: Header=BB3_4 Depth=1
	@DEBUG_VALUE: FindOp:this <- [DW_OP_LLVM_entry_value 1] $r0
	.loc	40 67 32 is_stmt 1              @ ../../../../ThirdParty/tflite_micro\tensorflow/lite/micro/micro_mutable_op_resolver.h:67:32
	ldr	r0, [r6]
	.loc	40 67 12 is_stmt 0              @ ../../../../ThirdParty/tflite_micro\tensorflow/lite/micro/micro_mutable_op_resolver.h:67:12
	mov	r1, r4
	bl	strcmp
.Ltmp290:
	.loc	40 66 11 is_stmt 1              @ ../../../../ThirdParty/tflite_micro\tensorflow/lite/micro/micro_mutable_op_resolver.h:66:11
	cmp	r0, #0
	itt	eq
	subeq.w	r0, r6, #24
.Ltmp291:
	.loc	40 72 3 epilogue_begin          @ ../../../../ThirdParty/tflite_micro\tensorflow/lite/micro/micro_mutable_op_resolver.h:72:3
	popeq	{r4, r5, r6, pc}
.Ltmp292:
.LBB3_3:                                @   in Loop: Header=BB3_4 Depth=1
	@DEBUG_VALUE: FindOp:this <- [DW_OP_LLVM_entry_value 1] $r0
	@DEBUG_VALUE: i <- [DW_OP_LLVM_arg 0, DW_OP_LLVM_arg 0, DW_OP_minus, DW_OP_consts 18446744073709551615, DW_OP_div, DW_OP_consts 1, DW_OP_plus, DW_OP_stack_value] undef
	.loc	40 64 32                        @ ../../../../ThirdParty/tflite_micro\tensorflow/lite/micro/micro_mutable_op_resolver.h:64:32
	subs	r5, #1
	add.w	r6, r6, #28
	itt	eq
	moveq	r0, #0
.Ltmp293:
	.loc	40 72 3 epilogue_begin          @ ../../../../ThirdParty/tflite_micro\tensorflow/lite/micro/micro_mutable_op_resolver.h:72:3
	popeq	{r4, r5, r6, pc}
.Ltmp294:
.LBB3_4:                                @ =>This Inner Loop Header: Depth=1
	@DEBUG_VALUE: FindOp:this <- [DW_OP_LLVM_entry_value 1] $r0
	@DEBUG_VALUE: i <- [DW_OP_LLVM_arg 0, DW_OP_LLVM_arg 0, DW_OP_minus, DW_OP_consts 18446744073709551615, DW_OP_div, DW_OP_stack_value] undef
	@DEBUG_VALUE: registration <- [DW_OP_LLVM_arg 0, DW_OP_LLVM_arg 0, DW_OP_minus, DW_OP_consts 18446744073709551615, DW_OP_div, DW_OP_consts 28, DW_OP_mul, DW_OP_consts 4, DW_OP_LLVM_arg 0, DW_OP_plus, DW_OP_plus, DW_OP_stack_value] undef
	.loc	40 66 25                        @ ../../../../ThirdParty/tflite_micro\tensorflow/lite/micro/micro_mutable_op_resolver.h:66:25
	ldr	r0, [r6, #-4]
	.loc	40 66 65 is_stmt 0              @ ../../../../ThirdParty/tflite_micro\tensorflow/lite/micro/micro_mutable_op_resolver.h:66:65
	cmp	r0, #32
	beq	.LBB3_2
	b	.LBB3_3
.Ltmp295:
.Lfunc_end3:
	.size	_ZNK6tflite22MicroMutableOpResolverILj2EE6FindOpEPKc, .Lfunc_end3-_ZNK6tflite22MicroMutableOpResolverILj2EE6FindOpEPKc
	.cfi_endproc
	.cantunwind
	.fnend
                                        @ -- End function
	.section	.text._ZNK6tflite22MicroMutableOpResolverILj2EE15GetOpDataParserENS_15BuiltinOperatorE,"axG",%progbits,_ZNK6tflite22MicroMutableOpResolverILj2EE15GetOpDataParserENS_15BuiltinOperatorE,comdat
	.hidden	_ZNK6tflite22MicroMutableOpResolverILj2EE15GetOpDataParserENS_15BuiltinOperatorE @ -- Begin function _ZNK6tflite22MicroMutableOpResolverILj2EE15GetOpDataParserENS_15BuiltinOperatorE
	.weak	_ZNK6tflite22MicroMutableOpResolverILj2EE15GetOpDataParserENS_15BuiltinOperatorE
	.p2align	2
	.type	_ZNK6tflite22MicroMutableOpResolverILj2EE15GetOpDataParserENS_15BuiltinOperatorE,%function
	.code	16                              @ @_ZNK6tflite22MicroMutableOpResolverILj2EE15GetOpDataParserENS_15BuiltinOperatorE
	.thumb_func
_ZNK6tflite22MicroMutableOpResolverILj2EE15GetOpDataParserENS_15BuiltinOperatorE:
.Lfunc_begin4:
	.fnstart
	.cfi_startproc
@ %bb.0:
	@DEBUG_VALUE: GetOpDataParser:this <- $r0
	@DEBUG_VALUE: GetOpDataParser:op <- $r1
	.loc	40 76 5 prologue_end is_stmt 1  @ ../../../../ThirdParty/tflite_micro\tensorflow/lite/micro/micro_mutable_op_resolver.h:76:5
	ldr	r2, [r0, #80]
	cmp	r2, #2
	bhi	.LBB4_9
.Ltmp296:
@ %bb.1:
	@DEBUG_VALUE: GetOpDataParser:op <- $r1
	@DEBUG_VALUE: GetOpDataParser:this <- $r0
	@DEBUG_VALUE: i <- 0
	.loc	40 77 5                         @ ../../../../ThirdParty/tflite_micro\tensorflow/lite/micro/micro_mutable_op_resolver.h:77:5
	cmp	r2, #0
	itt	eq
	moveq	r0, #0
.Ltmp297:
	@DEBUG_VALUE: GetOpDataParser:this <- [DW_OP_LLVM_entry_value 1] $r0
	.loc	40 81 3                         @ ../../../../ThirdParty/tflite_micro\tensorflow/lite/micro/micro_mutable_op_resolver.h:81:3
	bxeq	lr
.Ltmp298:
.LBB4_2:
	@DEBUG_VALUE: i <- 0
	@DEBUG_VALUE: GetOpDataParser:this <- [DW_OP_LLVM_entry_value 1] $r0
	@DEBUG_VALUE: GetOpDataParser:op <- $r1
	@DEBUG_VALUE: i <- 0
	.loc	40 78 11                        @ ../../../../ThirdParty/tflite_micro\tensorflow/lite/micro/micro_mutable_op_resolver.h:78:11
	ldr	r3, [r0, #64]
.Ltmp299:
	.loc	40 78 11 is_stmt 0              @ ../../../../ThirdParty/tflite_micro\tensorflow/lite/micro/micro_mutable_op_resolver.h:78:11
	cmp	r3, r1
	bne	.LBB4_4
.Ltmp300:
@ %bb.3:
	@DEBUG_VALUE: i <- 0
	@DEBUG_VALUE: GetOpDataParser:this <- [DW_OP_LLVM_entry_value 1] $r0
	@DEBUG_VALUE: GetOpDataParser:op <- $r1
	.loc	40 0 11                         @ ../../../../ThirdParty/tflite_micro\tensorflow/lite/micro/micro_mutable_op_resolver.h:0:11
	movs	r1, #0
.Ltmp301:
	@DEBUG_VALUE: GetOpDataParser:op <- [DW_OP_LLVM_entry_value 1] $r1
	b	.LBB4_7
.Ltmp302:
.LBB4_4:
	@DEBUG_VALUE: i <- 0
	@DEBUG_VALUE: GetOpDataParser:this <- [DW_OP_LLVM_entry_value 1] $r0
	@DEBUG_VALUE: GetOpDataParser:op <- $r1
	@DEBUG_VALUE: i <- 1
	.loc	40 77 5 is_stmt 1               @ ../../../../ThirdParty/tflite_micro\tensorflow/lite/micro/micro_mutable_op_resolver.h:77:5
	cmp	r2, #1
	mov.w	r2, #0
	beq	.LBB4_8
.Ltmp303:
@ %bb.5:
	@DEBUG_VALUE: i <- 1
	@DEBUG_VALUE: GetOpDataParser:this <- [DW_OP_LLVM_entry_value 1] $r0
	@DEBUG_VALUE: GetOpDataParser:op <- $r1
	.loc	40 0 5 is_stmt 0                @ ../../../../ThirdParty/tflite_micro\tensorflow/lite/micro/micro_mutable_op_resolver.h:0:5
	ldr	r3, [r0, #68]
	.loc	40 77 5                         @ ../../../../ThirdParty/tflite_micro\tensorflow/lite/micro/micro_mutable_op_resolver.h:77:5
	cmp	r3, r1
	bne	.LBB4_8
.Ltmp304:
@ %bb.6:
	@DEBUG_VALUE: i <- 1
	@DEBUG_VALUE: GetOpDataParser:this <- [DW_OP_LLVM_entry_value 1] $r0
	@DEBUG_VALUE: GetOpDataParser:op <- $r1
	.loc	40 0 5                          @ ../../../../ThirdParty/tflite_micro\tensorflow/lite/micro/micro_mutable_op_resolver.h:0:5
	movs	r1, #1
.Ltmp305:
	@DEBUG_VALUE: GetOpDataParser:op <- [DW_OP_LLVM_entry_value 1] $r1
.LBB4_7:
	@DEBUG_VALUE: GetOpDataParser:op <- [DW_OP_LLVM_entry_value 1] $r1
	@DEBUG_VALUE: GetOpDataParser:this <- [DW_OP_LLVM_entry_value 1] $r0
	.loc	40 78 43 is_stmt 1              @ ../../../../ThirdParty/tflite_micro\tensorflow/lite/micro/micro_mutable_op_resolver.h:78:43
	add.w	r0, r0, r1, lsl #2
	ldr	r2, [r0, #72]
.Ltmp306:
.LBB4_8:
	@DEBUG_VALUE: GetOpDataParser:this <- [DW_OP_LLVM_entry_value 1] $r0
	.loc	40 81 3                         @ ../../../../ThirdParty/tflite_micro\tensorflow/lite/micro/micro_mutable_op_resolver.h:81:3
	mov	r0, r2
	bx	lr
.Ltmp307:
.LBB4_9:
	@DEBUG_VALUE: GetOpDataParser:op <- $r1
	@DEBUG_VALUE: GetOpDataParser:this <- $r0
	.loc	40 76 5                         @ ../../../../ThirdParty/tflite_micro\tensorflow/lite/micro/micro_mutable_op_resolver.h:76:5
	bl	abort
.Ltmp308:
	@DEBUG_VALUE: GetOpDataParser:op <- [DW_OP_LLVM_entry_value 1] $r1
	@DEBUG_VALUE: GetOpDataParser:this <- [DW_OP_LLVM_entry_value 1] $r0
.Lfunc_end4:
	.size	_ZNK6tflite22MicroMutableOpResolverILj2EE15GetOpDataParserENS_15BuiltinOperatorE, .Lfunc_end4-_ZNK6tflite22MicroMutableOpResolverILj2EE15GetOpDataParserENS_15BuiltinOperatorE
	.cfi_endproc
	.cantunwind
	.fnend
                                        @ -- End function
	.section	.text._ZN6tflite15MicroOpResolverD2Ev,"axG",%progbits,_ZN6tflite15MicroOpResolverD2Ev,comdat
	.hidden	_ZN6tflite15MicroOpResolverD2Ev @ -- Begin function _ZN6tflite15MicroOpResolverD2Ev
	.weak	_ZN6tflite15MicroOpResolverD2Ev
	.p2align	2
	.type	_ZN6tflite15MicroOpResolverD2Ev,%function
	.code	16                              @ @_ZN6tflite15MicroOpResolverD2Ev
	.thumb_func
_ZN6tflite15MicroOpResolverD2Ev:
.Lfunc_begin5:
	.fnstart
	.cfi_startproc
@ %bb.0:
	@DEBUG_VALUE: ~MicroOpResolver:this <- $r0
	.loc	42 50 31 prologue_end           @ ../../../../ThirdParty/tflite_micro\tensorflow/lite/micro/micro_op_resolver.h:50:31
	bx	lr
.Ltmp309:
.Lfunc_end5:
	.size	_ZN6tflite15MicroOpResolverD2Ev, .Lfunc_end5-_ZN6tflite15MicroOpResolverD2Ev
	.cfi_endproc
	.cantunwind
	.fnend
                                        @ -- End function
	.section	.text._ZN6tflite22MicroMutableOpResolverILj2EED0Ev,"axG",%progbits,_ZN6tflite22MicroMutableOpResolverILj2EED0Ev,comdat
	.hidden	_ZN6tflite22MicroMutableOpResolverILj2EED0Ev @ -- Begin function _ZN6tflite22MicroMutableOpResolverILj2EED0Ev
	.weak	_ZN6tflite22MicroMutableOpResolverILj2EED0Ev
	.p2align	2
	.type	_ZN6tflite22MicroMutableOpResolverILj2EED0Ev,%function
	.code	16                              @ @_ZN6tflite22MicroMutableOpResolverILj2EED0Ev
	.thumb_func
_ZN6tflite22MicroMutableOpResolverILj2EED0Ev:
.Lfunc_begin6:
	.fnstart
	.cfi_startproc
@ %bb.0:
	@DEBUG_VALUE: ~MicroMutableOpResolver:this <- $r0
	.loc	40 45 7 prologue_end            @ ../../../../ThirdParty/tflite_micro\tensorflow/lite/micro/micro_mutable_op_resolver.h:45:7
	bx	lr
.Ltmp310:
.Lfunc_end6:
	.size	_ZN6tflite22MicroMutableOpResolverILj2EED0Ev, .Lfunc_end6-_ZN6tflite22MicroMutableOpResolverILj2EED0Ev
	.cfi_endproc
	.cantunwind
	.fnend
                                        @ -- End function
	.section	.text._GLOBAL__sub_I_main.cpp,"ax",%progbits
	.p2align	2                               @ -- Begin function _GLOBAL__sub_I_main.cpp
	.type	_GLOBAL__sub_I_main.cpp,%function
	.code	16                              @ @_GLOBAL__sub_I_main.cpp
	.thumb_func
_GLOBAL__sub_I_main.cpp:
.Lfunc_begin7:
	.fnstart
	.cfi_startproc
@ %bb.0:
	.loc	8 765 11 prologue_end           @ AppData\Local\Keil_v5\ARM\ARMCLANG\bin\..\include\libcxx\vector:765:11
	movw	r12, :lower16:s_asFramebuf
.Ltmp311:
	.loc	37 0 0 is_stmt 0                @ ..\main.cpp:0:0
	movw	r0, :lower16:__cxx_global_array_dtor
	movw	r2, :lower16:__dso_handle
.Ltmp312:
	.loc	8 765 11                        @ AppData\Local\Keil_v5\ARM\ARMCLANG\bin\..\include\libcxx\vector:765:11
	movt	r12, :upper16:s_asFramebuf
.Ltmp313:
	@DEBUG_VALUE: vector:this <- [DW_OP_plus_uconst 24, DW_OP_stack_value] $r12
	@DEBUG_VALUE: S_FRAMEBUF:this <- $r12
	.loc	8 0 11                          @ AppData\Local\Keil_v5\ARM\ARMCLANG\bin\..\include\libcxx\vector:0:11
	movs	r3, #0
.Ltmp314:
	movt	r0, :upper16:__cxx_global_array_dtor
	movt	r2, :upper16:__dso_handle
	movs	r1, #0
.Ltmp315:
	@DEBUG_VALUE: S_FRAMEBUF:this <- undef
	.loc	8 765 11                        @ AppData\Local\Keil_v5\ARM\ARMCLANG\bin\..\include\libcxx\vector:765:11
	strd	r3, r3, [r12, #24]
.Ltmp316:
	@DEBUG_VALUE: __compressed_pair_elem<std::nullptr_t, 0>:this <- [DW_OP_plus_uconst 32, DW_OP_stack_value] $r12
	@DEBUG_VALUE: __compressed_pair<std::nullptr_t, std::__2::__default_init_tag>:this <- [DW_OP_plus_uconst 32, DW_OP_stack_value] $r12
	.loc	9 53 9 is_stmt 1                @ AppData\Local\Keil_v5\ARM\ARMCLANG\bin\..\include\libcxx\__memory\compressed_pair.h:53:9
	str.w	r3, [r12, #32]
.Ltmp317:
	@DEBUG_VALUE: __compressed_pair_elem<std::nullptr_t, 0>:this <- [DW_OP_plus_uconst 68, DW_OP_stack_value] $r12
	@DEBUG_VALUE: __compressed_pair<std::nullptr_t, std::__2::__default_init_tag>:this <- [DW_OP_plus_uconst 68, DW_OP_stack_value] $r12
	@DEBUG_VALUE: vector:this <- [DW_OP_plus_uconst 60, DW_OP_stack_value] $r12
	.loc	8 765 11                        @ AppData\Local\Keil_v5\ARM\ARMCLANG\bin\..\include\libcxx\vector:765:11
	strd	r3, r3, [r12, #60]
.Ltmp318:
	.loc	9 53 9                          @ AppData\Local\Keil_v5\ARM\ARMCLANG\bin\..\include\libcxx\__memory\compressed_pair.h:53:9
	str.w	r3, [r12, #68]
.Ltmp319:
	.loc	37 0 0 is_stmt 0                @ ..\main.cpp:0:0
	b	__cxa_atexit
.Ltmp320:
.Lfunc_end7:
	.size	_GLOBAL__sub_I_main.cpp, .Lfunc_end7-_GLOBAL__sub_I_main.cpp
	.cfi_endproc
	.cantunwind
	.fnend
                                        @ -- End function
	.hidden	s_asFramebuf                    @ @s_asFramebuf
	.type	s_asFramebuf,%object
	.section	.bss.s_asFramebuf,"aw",%nobits
	.globl	s_asFramebuf
	.p2align	2, 0x0
s_asFramebuf:
	.zero	72
	.size	s_asFramebuf, 72

	.hidden	__dso_handle
	.hidden	_fb_base                        @ @_fb_base
	.type	_fb_base,%object
	.section	.bss._fb_base,"aw",%nobits
	.globl	_fb_base
	.p2align	2, 0x0
_fb_base:
	.long	0
	.size	_fb_base, 4

	.hidden	_fb_end                         @ @_fb_end
	.type	_fb_end,%object
	.section	.bss._fb_end,"aw",%nobits
	.globl	_fb_end
	.p2align	2, 0x0
_fb_end:
	.long	0
	.size	_fb_end, 4

	.hidden	_jpeg_buf                       @ @_jpeg_buf
	.type	_jpeg_buf,%object
	.section	.bss._jpeg_buf,"aw",%nobits
	.globl	_jpeg_buf
	.p2align	2, 0x0
_jpeg_buf:
	.long	0
	.size	_jpeg_buf, 4

	.hidden	_fballoc                        @ @_fballoc
	.type	_fballoc,%object
	.section	.bss._fballoc,"aw",%nobits
	.globl	_fballoc
	.p2align	2, 0x0
_fballoc:
	.long	0
	.size	_fballoc, 4

	.type	.L.str,%object                  @ @.str
	.section	.rodata.str1.1,"aMS",%progbits,1
.L.str:
	.asciz	"ERROR - "
	.size	.L.str, 9

	.type	_ZN3arm3appL11tensorArenaE,%object @ @_ZN3arm3appL11tensorArenaE
	.section	.bss.NoInit.activation_buf_sram,"aw",%nobits
	.p2align	4, 0x0
_ZN3arm3appL11tensorArenaE:
	.zero	1048576
	.size	_ZN3arm3appL11tensorArenaE, 1048576

	.type	.L.str.3,%object                @ @.str.3
	.section	.rodata.str1.1,"aMS",%progbits,1
.L.str.3:
	.asciz	"INFO - "
	.size	.L.str.3, 8

	.type	_ZL8fb_array,%object            @ @_ZL8fb_array
	.section	.bss.vram.data,"aw",%nobits
	.p2align	5, 0x0
_ZL8fb_array:
	.zero	155648
	.size	_ZL8fb_array, 155648

	.type	_ZL10frame_buf1,%object         @ @_ZL10frame_buf1
	.p2align	5, 0x0
_ZL10frame_buf1:
	.zero	154624
	.size	_ZL10frame_buf1, 154624

	.type	.L.str.7,%object                @ @.str.7
	.section	.rodata.str1.1,"aMS",%progbits,1
.L.str.7:
	.asciz	"Total inference rate: %llu\n"
	.size	.L.str.7, 28

	.type	.L.str.9,%object                @ @.str.9
.L.str.9:
	.asciz	"0:\\YOLOv8n-elevator-od.tflite"
	.size	.L.str.9, 30

	.type	.L.str.10,%object               @ @.str.10
.L.str.10:
	.asciz	"Unable open model %s\n"
	.size	.L.str.10, 22

	.hidden	_ZTVN6tflite22MicroMutableOpResolverILj2EEE @ @_ZTVN6tflite22MicroMutableOpResolverILj2EEE
	.type	_ZTVN6tflite22MicroMutableOpResolverILj2EEE,%object
	.section	.rodata._ZTVN6tflite22MicroMutableOpResolverILj2EEE,"aG",%progbits,_ZTVN6tflite22MicroMutableOpResolverILj2EEE,comdat
	.weak	_ZTVN6tflite22MicroMutableOpResolverILj2EEE
	.p2align	2, 0x0
_ZTVN6tflite22MicroMutableOpResolverILj2EEE:
	.long	0
	.long	0
	.long	_ZNK6tflite22MicroMutableOpResolverILj2EE6FindOpENS_15BuiltinOperatorE
	.long	_ZNK6tflite22MicroMutableOpResolverILj2EE6FindOpEPKc
	.long	_ZNK6tflite22MicroMutableOpResolverILj2EE15GetOpDataParserENS_15BuiltinOperatorE
	.long	_ZN6tflite15MicroOpResolverD2Ev
	.long	_ZN6tflite22MicroMutableOpResolverILj2EED0Ev
	.size	_ZTVN6tflite22MicroMutableOpResolverILj2EEE, 28

	.type	_ZL10jpeg_array,%object         @ @_ZL10jpeg_array
	.section	.bss.vram.data,"aw",%nobits
	.p2align	5, 0x0
_ZL10jpeg_array:
	.zero	1024
	.size	_ZL10jpeg_array, 1024

	.section	.init_array,"aw",%init_array
	.p2align	2, 0x0
	.long	_GLOBAL__sub_I_main.cpp(target1)
	.type	.Lstr.18,%object                @ @str.18
	.section	.rodata.str1.1,"aMS",%progbits,1
.Lstr.18:
	.asciz	"Input tensor dimension should be >= 3"
	.size	.Lstr.18, 38

	.type	.Lstr.19,%object                @ @str.19
.Lstr.19:
	.asciz	"Failed to prepare model"
	.size	.Lstr.19, 24

	.type	.Lstr.20,%object                @ @str.20
.Lstr.20:
	.asciz	"Read Model file size is not enough"
	.size	.Lstr.20, 35

	.type	__ARM_use_no_argv,%object       @ @__ARM_use_no_argv
	.section	.ARM.use_no_argv,"awR",%progbits,unique,1
	.globl	__ARM_use_no_argv
	.p2align	2, 0x0
__ARM_use_no_argv:
	.long	1                               @ 0x1
	.size	__ARM_use_no_argv, 4

	.hidden	_printf_percent
	.hidden	_printf_sizespec
	.hidden	_printf_s
	.hidden	_printf_i
	.hidden	_printf_d
	.hidden	_printf_llu
	.hidden	_printf_int_dec
	.hidden	_printf_longlong_dec
	.hidden	_printf_str
	.file	52 "C:\\Users\\jimmy" "AppData\\Local\\Keil_v5\\ARM\\ARMCLANG\\bin\\..\\include\\stdio.h"
	.file	53 "C:\\Users\\jimmy" "AppData\\Local\\Keil_v5\\ARM\\ARMCLANG\\bin\\..\\include\\libcxx\\cstdio"
	.file	54 "C:\\Users\\jimmy" "AppData\\Local\\Keil_v5\\ARM\\ARMCLANG\\bin\\..\\include\\string.h"
	.file	55 "C:\\Users\\jimmy" "AppData\\Local\\Keil_v5\\ARM\\ARMCLANG\\bin\\..\\include\\libcxx\\cstring"
	.file	56 "C:\\Users\\jimmy" "AppData\\Local\\Keil_v5\\ARM\\ARMCLANG\\bin\\..\\include\\libcxx\\string.h"
	.file	57 "C:\\Users\\jimmy" "AppData\\Local\\Keil_v5\\ARM\\ARMCLANG\\bin\\..\\include\\stdarg.h"
	.file	58 "C:\\Users\\jimmy" "AppData\\Local\\Keil_v5\\ARM\\ARMCLANG\\bin\\..\\include\\libcxx\\cstddef"
	.file	59 "C:\\Users\\jimmy" "AppData\\Local\\Keil_v5\\ARM\\ARMCLANG\\bin\\..\\include\\libcxx\\cstdint"
	.file	60 "C:\\Users\\jimmy" "AppData\\Local\\Keil_v5\\ARM\\ARMCLANG\\bin\\..\\include\\math.h"
	.file	61 "C:\\Users\\jimmy" "AppData\\Local\\Keil_v5\\ARM\\ARMCLANG\\bin\\..\\include\\libcxx\\__math\\traits.h"
	.file	62 "C:\\Users\\jimmy" "AppData\\Local\\Keil_v5\\ARM\\ARMCLANG\\bin\\..\\include\\libcxx\\math.h"
	.file	63 "C:\\Users\\jimmy" "AppData\\Local\\Keil_v5\\ARM\\ARMCLANG\\bin\\..\\include\\libcxx\\__math\\modulo.h"
	.file	64 "C:\\Users\\jimmy" "AppData\\Local\\Keil_v5\\ARM\\ARMCLANG\\bin\\..\\include\\libcxx\\cmath"
	.file	65 "C:\\Users\\jimmy" "AppData\\Local\\Keil_v5\\ARM\\ARMCLANG\\bin\\..\\include\\libcxx\\stdlib.h"
	.file	66 "C:\\Users\\jimmy" "AppData\\Local\\Keil_v5\\ARM\\ARMCLANG\\bin\\..\\include\\libcxx\\cstdlib"
	.file	67 "C:\\Users\\jimmy" "AppData\\Local\\Keil_v5\\ARM\\ARMCLANG\\bin\\..\\include\\libcxx\\__std_mbstate_t.h"
	.file	68 "C:\\Users\\jimmy" "AppData\\Local\\Keil_v5\\ARM\\ARMCLANG\\bin\\..\\include\\libcxx\\cstdarg"
	.file	69 "C:\\Users\\jimmy" "AppData\\Local\\Keil_v5\\ARM\\ARMCLANG\\bin\\..\\include\\ctype.h"
	.file	70 "C:\\Users\\jimmy" "AppData\\Local\\Keil_v5\\ARM\\ARMCLANG\\bin\\..\\include\\libcxx\\cctype"
	.file	71 "C:\\Users\\jimmy" "AppData\\Local\\Keil_v5\\ARM\\ARMCLANG\\bin\\..\\include\\wctype.h"
	.file	72 "C:\\Users\\jimmy" "AppData\\Local\\Keil_v5\\ARM\\ARMCLANG\\bin\\..\\include\\libcxx\\cwctype"
	.file	73 "C:\\Users\\jimmy" "AppData\\Local\\Keil_v5\\ARM\\ARMCLANG\\bin\\..\\include\\libcxx\\cwchar"
	.file	74 "C:\\Users\\jimmy" "AppData\\Local\\Keil_v5\\ARM\\ARMCLANG\\bin\\..\\include\\libcxx\\wchar.h"
	.file	75 "C:\\Users\\jimmy" "AppData\\Local\\Keil_v5\\ARM\\ARMCLANG\\bin\\..\\include\\libcxx\\__chrono\\duration.h"
	.file	76 "C:\\Users\\jimmy" "AppData\\Local\\Keil_v5\\ARM\\ARMCLANG\\bin\\..\\include\\libcxx\\ctime"
	.file	77 "C:\\Users\\jimmy" "AppData\\Local\\Keil_v5\\ARM\\ARMCLANG\\bin\\..\\include\\errno.h"
	.file	78 "C:\\Users\\jimmy" "AppData\\Local\\Keil_v5\\ARM\\ARMCLANG\\bin\\..\\include\\locale.h"
	.file	79 "C:\\Users\\jimmy" "AppData\\Local\\Keil_v5\\ARM\\ARMCLANG\\bin\\..\\include\\libcxx\\clocale"
	.file	80 "C:\\Users\\jimmy" "AppData\\Local\\Keil_v5\\ARM\\ARMCLANG\\bin\\..\\include\\float.h"
	.file	81 "C:\\Users\\jimmy\\Desktop\\Nuvoton\\Nuvoton-Team-2\\repos\\m55m1-ElevatorCounting-YOLOv8n\\KEIL" "../../../../ThirdParty/ml-embedded-evaluation-kit/source/application/api/common/include\\TensorFlowLiteMicro.hpp"
	.file	82 "C:\\Users\\jimmy\\Desktop\\Nuvoton\\Nuvoton-Team-2\\repos\\m55m1-ElevatorCounting-YOLOv8n\\KEIL" "../Device/include\\Display.h"