	.text
	.syntax unified
	.eabi_attribute	67, "2.09"	@ Tag_conformance
	.cpu	cortex-m55
	.eabi_attribute	6, 21	@ Tag_CPU_arch
	.eabi_attribute	7, 77	@ Tag_CPU_arch_profile
	.eabi_attribute	8, 0	@ Tag_ARM_ISA_use
	.eabi_attribute	9, 3	@ Tag_THUMB_ISA_use
	.fpu	fpv5-d16
	.arch_extension	mve.fp
	.eabi_attribute	36, 1	@ Tag_FP_HP_extension
	.eabi_attribute	48, 2	@ Tag_MVE_arch
	.eabi_attribute	46, 1	@ Tag_DSP_extension
	.eabi_attribute	34, 1	@ Tag_CPU_unaligned_access
	.eabi_attribute	17, 1	@ Tag_ABI_PCS_GOT_use
	.eabi_attribute	20, 2	@ Tag_ABI_FP_denormal
	.eabi_attribute	21, 0	@ Tag_ABI_FP_exceptions
	.eabi_attribute	23, 1	@ Tag_ABI_FP_number_model
	.eabi_attribute	24, 1	@ Tag_ABI_align_needed
	.eabi_attribute	25, 1	@ Tag_ABI_align_preserved
	.eabi_attribute	28, 1	@ Tag_ABI_VFP_args
	.eabi_attribute	38, 1	@ Tag_ABI_FP_16bit_format
	.eabi_attribute	18, 2	@ Tag_ABI_PCS_wchar_t
	.eabi_attribute	26, 1	@ Tag_ABI_enum_size
	.eabi_attribute	14, 0	@ Tag_ABI_PCS_R9_use
	.file	"ModelFileReader.c"
	.file	1 "C:\\Users\\jimmy\\Desktop\\Nuvoton\\Nuvoton-Team-2\\repos\\m55m1-ElevatorCounting-YOLOv8n\\KEIL" "../ModelFileReader.c"
	.file	2 "C:\\Users\\jimmy\\Desktop\\Nuvoton\\Nuvoton-Team-2\\repos\\m55m1-ElevatorCounting-YOLOv8n\\KEIL" "../../../../ThirdParty/FatFs/source\\ff.h"
	.file	3 "C:\\Users\\jimmy" "AppData\\Local\\Keil_v5\\ARM\\ARMCLANG\\bin\\..\\include\\stdint.h"
	.file	4 "C:\\Users\\jimmy\\Desktop\\Nuvoton\\Nuvoton-Team-2\\repos\\m55m1-ElevatorCounting-YOLOv8n\\KEIL" "../../../../Library/Device/Nuvoton/M55M1/Include\\ccap_reg.h"
	.section	.text.ModelFileReader_Initialize,"ax",%progbits
	.hidden	ModelFileReader_Initialize      @ -- Begin function ModelFileReader_Initialize
	.globl	ModelFileReader_Initialize
	.p2align	2
	.type	ModelFileReader_Initialize,%function
	.code	16                              @ @ModelFileReader_Initialize
	.thumb_func
ModelFileReader_Initialize:
.Lfunc_begin0:
	.loc	1 26 0                          @ ../ModelFileReader.c:26:0
	.fnstart
	.cfi_sections .debug_frame
	.cfi_startproc
@ %bb.0:
	@DEBUG_VALUE: ModelFileReader_Initialize:pszOutFileName <- $r0
	.save	{r4, lr}
	push	{r4, lr}
	.cfi_def_cfa_offset 8
	.cfi_offset lr, -4
	.cfi_offset r4, -8
	mov	r1, r0
.Ltmp0:
	@DEBUG_VALUE: ModelFileReader_Initialize:pszOutFileName <- $r1
	.loc	1 29 11 prologue_end            @ ../ModelFileReader.c:29:11
	movw	r0, :lower16:modelFileObject
	movt	r0, :upper16:modelFileObject
	movs	r2, #1
	movs	r4, #1
	bl	f_open
.Ltmp1:
	@DEBUG_VALUE: ModelFileReader_Initialize:res <- $r0
	.loc	1 31 9                          @ ../ModelFileReader.c:31:9
	cbz	r0, .LBB0_2
.Ltmp2:
@ %bb.1:
	@DEBUG_VALUE: ModelFileReader_Initialize:res <- $r0
	.loc	1 33 9                          @ ../ModelFileReader.c:33:9
	adr	r0, .LCPI0_0
.Ltmp3:
	bl	puts
.Ltmp4:
	.loc	1 0 9 is_stmt 0                 @ ../ModelFileReader.c:0:9
	movs	r4, #0
.Ltmp5:
.LBB0_2:
	.loc	1 38 1 is_stmt 1                @ ../ModelFileReader.c:38:1
	mov	r0, r4
	.loc	1 38 1 epilogue_begin is_stmt 0 @ ../ModelFileReader.c:38:1
	pop	{r4, pc}
.Ltmp6:
	.loc	1 0 1                           @ :0:1
.Ltmp7:
	.p2align	2
@ %bb.3:
.LCPI0_0:
.Lstr:
	.asciz	"Open file error!\000\000\000"
.Lfunc_end0:
	.size	ModelFileReader_Initialize, .Lfunc_end0-ModelFileReader_Initialize
	.cfi_endproc
	.cantunwind
	.fnend
                                        @ -- End function
	.section	.text.ModelFileReader_Finish,"ax",%progbits
	.hidden	ModelFileReader_Finish          @ -- Begin function ModelFileReader_Finish
	.globl	ModelFileReader_Finish
	.p2align	2
	.type	ModelFileReader_Finish,%function
	.code	16                              @ @ModelFileReader_Finish
	.thumb_func
ModelFileReader_Finish:
.Lfunc_begin1:
	.loc	1 42 0 is_stmt 1                @ ../ModelFileReader.c:42:0
	.fnstart
	.cfi_startproc
@ %bb.0:
	.save	{r7, lr}
	push	{r7, lr}
	.cfi_def_cfa_offset 8
	.cfi_offset lr, -4
	.cfi_offset r7, -8
.Ltmp8:
	.loc	1 43 14 prologue_end            @ ../ModelFileReader.c:43:14
	movw	r0, :lower16:modelFileObject
	movt	r0, :upper16:modelFileObject
	bl	f_close
.Ltmp9:
	.loc	1 43 11 is_stmt 0               @ ../ModelFileReader.c:43:11
	cmp	r0, #0
	cset	r0, eq
.Ltmp10:
	.loc	1 47 1 epilogue_begin is_stmt 1 @ ../ModelFileReader.c:47:1
	pop	{r7, pc}
.Ltmp11:
.Lfunc_end1:
	.size	ModelFileReader_Finish, .Lfunc_end1-ModelFileReader_Finish
	.cfi_endproc
	.cantunwind
	.fnend
                                        @ -- End function
	.section	.text.ModelFileReader_ReadData,"ax",%progbits
	.hidden	ModelFileReader_ReadData        @ -- Begin function ModelFileReader_ReadData
	.globl	ModelFileReader_ReadData
	.p2align	2
	.type	ModelFileReader_ReadData,%function
	.code	16                              @ @ModelFileReader_ReadData
	.thumb_func
ModelFileReader_ReadData:
.Lfunc_begin2:
	.fnstart
	.cfi_startproc
@ %bb.0:
	@DEBUG_VALUE: ModelFileReader_ReadData:pbyData <- $r0
	@DEBUG_VALUE: ModelFileReader_ReadData:i32DataSize <- $r1
	.loc	1 58 6 prologue_end             @ ../ModelFileReader.c:58:6
	movw	r2, :lower16:modelFileObject
	movt	r2, :upper16:modelFileObject
	ldr	r3, [r2, #12]
	ldr	r2, [r2, #20]
.Ltmp12:
	@DEBUG_VALUE: ModelFileReader_ReadData:i32DataSize <- $r1
	.loc	1 58 6 is_stmt 0                @ ../ModelFileReader.c:58:6
	cmp	r2, r3
	@DEBUG_VALUE: ModelFileReader_ReadData:pbyData <- $r0
	itt	eq
	moveq.w	r0, #-1
.Ltmp13:
	.loc	1 68 1 is_stmt 1                @ ../ModelFileReader.c:68:1
	bxeq	lr
.Ltmp14:
.LBB2_1:
	@DEBUG_VALUE: ModelFileReader_ReadData:i32DataSize <- $r1
	.save	{r7, lr}
	push	{r7, lr}
	.cfi_def_cfa_offset 8
	.cfi_offset lr, -4
	.cfi_offset r7, -8
	.pad	#8
	sub	sp, #8
	.cfi_def_cfa_offset 16
	mov	r12, r1
.Ltmp15:
	@DEBUG_VALUE: ModelFileReader_ReadData:i32DataSize <- $r12
	.loc	1 0 1 is_stmt 0                 @ ../ModelFileReader.c:0:1
	mov	r1, r0
.Ltmp16:
	@DEBUG_VALUE: ModelFileReader_ReadData:pbyData <- $r1
	.loc	1 61 8 is_stmt 1                @ ../ModelFileReader.c:61:8
	movw	r0, :lower16:modelFileObject
	add	r3, sp, #4
	movt	r0, :upper16:modelFileObject
	mov	r2, r12
	bl	f_read
.Ltmp17:
	mov	r1, r0
.Ltmp18:
	@DEBUG_VALUE: ModelFileReader_ReadData:res <- $r1
	.loc	1 0 8 is_stmt 0                 @ ../ModelFileReader.c:0:8
	ldr	r0, [sp, #4]
	.loc	1 62 5 is_stmt 1                @ ../ModelFileReader.c:62:5
	cmp	r1, #0
	it	ne
	mvnne	r0, #1
	add	sp, #8
	pop	{r7, pc}
.Ltmp19:
.Lfunc_end2:
	.size	ModelFileReader_ReadData, .Lfunc_end2-ModelFileReader_ReadData
	.cfi_endproc
	.cantunwind
	.fnend
                                        @ -- End function
	.section	.text.ModelFileReader_FileSize,"ax",%progbits
	.hidden	ModelFileReader_FileSize        @ -- Begin function ModelFileReader_FileSize
	.globl	ModelFileReader_FileSize
	.p2align	2
	.type	ModelFileReader_FileSize,%function
	.code	16                              @ @ModelFileReader_FileSize
	.thumb_func
ModelFileReader_FileSize:
.Lfunc_begin3:
	.fnstart
	.cfi_startproc
@ %bb.0:
	.loc	1 73 9 prologue_end             @ ../ModelFileReader.c:73:9
	movw	r0, :lower16:modelFileObject
	movt	r0, :upper16:modelFileObject
	ldr	r0, [r0, #12]
	.loc	1 73 2 is_stmt 0                @ ../ModelFileReader.c:73:2
	bx	lr
.Ltmp20:
.Lfunc_end3:
	.size	ModelFileReader_FileSize, .Lfunc_end3-ModelFileReader_FileSize
	.cfi_endproc
	.cantunwind
	.fnend
                                        @ -- End function
	.section	.text.ModelFileReader_Rewind,"ax",%progbits
	.hidden	ModelFileReader_Rewind          @ -- Begin function ModelFileReader_Rewind
	.globl	ModelFileReader_Rewind
	.p2align	2
	.type	ModelFileReader_Rewind,%function
	.code	16                              @ @ModelFileReader_Rewind
	.thumb_func
ModelFileReader_Rewind:
.Lfunc_begin4:
	.fnstart
	.cfi_startproc
@ %bb.0:
	.loc	1 79 2 prologue_end is_stmt 1   @ ../ModelFileReader.c:79:2
	movw	r0, :lower16:modelFileObject
	movs	r1, #0
	movt	r0, :upper16:modelFileObject
.Ltmp21:
	b	f_lseek
.Ltmp22:
.Lfunc_end4:
	.size	ModelFileReader_Rewind, .Lfunc_end4-ModelFileReader_Rewind
	.cfi_endproc
	.cantunwind
	.fnend
                                        @ -- End function
	.type	modelFileObject,%object         @ @modelFileObject
	.section	.bss.modelFileObject,"aw",%nobits
	.p2align	2, 0x0
modelFileObject:
	.zero	552
	.size	modelFileObject, 552

	.file	5 "C:\\Users\\jimmy\\Desktop\\Nuvoton\\Nuvoton-Team-2\\repos\\m55m1-ElevatorCounting-YOLOv8n\\KEIL" "..\\ModelFileReader.h"
	.file	6 "C:\\Users\\jimmy" "AppData\\Local\\Keil_v5\\ARM\\ARMCLANG\\bin\\..\\include\\stddef.h"
	.section	".note.GNU-stack","",%progbits
	.eabi_attribute	30, 1	@ Tag_ABI_optimization_goals
	.ARM_attribute	16, 1	@ Tag_AV_eba