	.text
	.syntax unified
	.eabi_attribute	67, "2.09"	@ Tag_conformance
	.cpu	cortex-m55
	.eabi_attribute	6, 21	@ Tag_CPU_arch
	.eabi_attribute	7, 77	@ Tag_CPU_arch_profile
	.eabi_attribute	8, 0	@ Tag_ARM_ISA_use
	.eabi_attribute	9, 3	@ Tag_THUMB_ISA_use
	.fpu	fpv5-d16
	.arch_extension	mve.fp
	.eabi_attribute	36, 1	@ Tag_FP_HP_extension
	.eabi_attribute	48, 2	@ Tag_MVE_arch
	.eabi_attribute	46, 1	@ Tag_DSP_extension
	.eabi_attribute	34, 1	@ Tag_CPU_unaligned_access
	.eabi_attribute	17, 1	@ Tag_ABI_PCS_GOT_use
	.eabi_attribute	20, 2	@ Tag_ABI_FP_denormal
	.eabi_attribute	21, 0	@ Tag_ABI_FP_exceptions
	.eabi_attribute	23, 1	@ Tag_ABI_FP_number_model
	.eabi_attribute	24, 1	@ Tag_ABI_align_needed
	.eabi_attribute	25, 1	@ Tag_ABI_align_preserved
	.eabi_attribute	28, 1	@ Tag_ABI_VFP_args
	.eabi_attribute	38, 1	@ Tag_ABI_FP_16bit_format
	.eabi_attribute	18, 2	@ Tag_ABI_PCS_wchar_t
	.eabi_attribute	26, 1	@ Tag_ABI_enum_size
	.eabi_attribute	14, 0	@ Tag_ABI_PCS_R9_use
	.file	"pdma.c"
	.file	1 "C:\\Users\\jimmy" "AppData\\Local\\Keil_v5\\ARM\\ARMCLANG\\bin\\..\\include\\stdint.h"
	.file	2 "C:\\Users\\jimmy\\Desktop\\Nuvoton\\Nuvoton-Team-2\\repos\\m55m1-ElevatorCounting-YOLOv8n\\KEIL" "../../../../Library/StdDriver/src/pdma.c"
	.file	3 "C:\\Users\\jimmy\\Desktop\\Nuvoton\\Nuvoton-Team-2\\repos\\m55m1-ElevatorCounting-YOLOv8n\\KEIL" "../../../../Library/Device/Nuvoton/M55M1/Include\\ccap_reg.h"
	.section	.text.PDMA_Open,"ax",%progbits
	.hidden	PDMA_Open                       @ -- Begin function PDMA_Open
	.globl	PDMA_Open
	.p2align	2
	.type	PDMA_Open,%function
	.code	16                              @ @PDMA_Open
	.thumb_func
PDMA_Open:
.Lfunc_begin0:
	.loc	2 35 0                          @ ../../../../Library/StdDriver/src/pdma.c:35:0
	.fnstart
	.cfi_sections .debug_frame
	.cfi_startproc
@ %bb.0:
	@DEBUG_VALUE: PDMA_Open:pdma <- $r0
	@DEBUG_VALUE: PDMA_Open:u32Mask <- $r1
	.save	{r4, r5, r6, lr}
	push	{r4, r5, r6, lr}
	.cfi_def_cfa_offset 16
	.cfi_offset lr, -4
	.cfi_offset r6, -8
	.cfi_offset r5, -12
	.cfi_offset r4, -16
.Ltmp0:
	@DEBUG_VALUE: PDMA_Open:i <- 0
	mov.w	lr, #2
	movw	r3, :lower16:u32ChSelect
	movt	r3, :upper16:u32ChSelect
.Ltmp1:
	.loc	2 38 5 prologue_end             @ ../../../../Library/StdDriver/src/pdma.c:38:5
	add.w	r2, r0, #64
	adds	r3, #16
	mov.w	r12, #0
	movs	r4, #0
.Ltmp2:
	.loc	2 0 5 is_stmt 0                 @ :0:5
.Ltmp3:
	.p2align	2
.LBB0_1:                                @ =>This Inner Loop Header: Depth=1
	@DEBUG_VALUE: PDMA_Open:u32Mask <- $r1
	@DEBUG_VALUE: PDMA_Open:pdma <- $r0
	@DEBUG_VALUE: PDMA_Open:i <- $r4
	.loc	2 40 13 is_stmt 1               @ ../../../../Library/StdDriver/src/pdma.c:40:13
	lsr.w	r5, r1, r4
.Ltmp4:
	.loc	2 38 37                         @ ../../../../Library/StdDriver/src/pdma.c:38:37
	adds	r4, #8
.Ltmp5:
	@DEBUG_VALUE: PDMA_Open:i <- $r4
	.loc	2 40 13                         @ ../../../../Library/StdDriver/src/pdma.c:40:13
	lsls	r6, r5, #31
.Ltmp6:
	.loc	2 42 31                         @ ../../../../Library/StdDriver/src/pdma.c:42:31
	itt	ne
	strne	r12, [r2, #-64]
	.loc	2 43 28                         @ ../../../../Library/StdDriver/src/pdma.c:43:28
	strne	r12, [r3, #-16]
.Ltmp7:
	@DEBUG_VALUE: PDMA_Open:i <- [DW_OP_constu 1, DW_OP_or, DW_OP_stack_value] $r4
	.loc	2 40 13                         @ ../../../../Library/StdDriver/src/pdma.c:40:13
	lsls	r6, r5, #30
	@DEBUG_VALUE: PDMA_Open:i <- [DW_OP_constu 1, DW_OP_or, DW_OP_stack_value] $r4
.Ltmp8:
	.loc	2 42 31                         @ ../../../../Library/StdDriver/src/pdma.c:42:31
	itt	mi
	strmi	r12, [r2, #-48]
	.loc	2 43 28                         @ ../../../../Library/StdDriver/src/pdma.c:43:28
	strmi	r12, [r3, #-12]
.Ltmp9:
	@DEBUG_VALUE: PDMA_Open:i <- [DW_OP_constu 2, DW_OP_or, DW_OP_stack_value] $r4
	.loc	2 40 13                         @ ../../../../Library/StdDriver/src/pdma.c:40:13
	lsls	r6, r5, #29
	@DEBUG_VALUE: PDMA_Open:i <- [DW_OP_constu 2, DW_OP_or, DW_OP_stack_value] $r4
.Ltmp10:
	.loc	2 42 31                         @ ../../../../Library/StdDriver/src/pdma.c:42:31
	itt	mi
	strmi	r12, [r2, #-32]
	.loc	2 43 28                         @ ../../../../Library/StdDriver/src/pdma.c:43:28
	strmi	r12, [r3, #-8]
.Ltmp11:
	@DEBUG_VALUE: PDMA_Open:i <- [DW_OP_constu 3, DW_OP_or, DW_OP_stack_value] $r4
	.loc	2 40 13                         @ ../../../../Library/StdDriver/src/pdma.c:40:13
	lsls	r6, r5, #28
	@DEBUG_VALUE: PDMA_Open:i <- [DW_OP_constu 3, DW_OP_or, DW_OP_stack_value] $r4
.Ltmp12:
	.loc	2 42 31                         @ ../../../../Library/StdDriver/src/pdma.c:42:31
	itt	mi
	strmi	r12, [r2, #-16]
	.loc	2 43 28                         @ ../../../../Library/StdDriver/src/pdma.c:43:28
	strmi	r12, [r3, #-4]
.Ltmp13:
	@DEBUG_VALUE: PDMA_Open:i <- [DW_OP_constu 4, DW_OP_or, DW_OP_stack_value] $r4
	.loc	2 40 13                         @ ../../../../Library/StdDriver/src/pdma.c:40:13
	lsls	r6, r5, #27
	@DEBUG_VALUE: PDMA_Open:i <- [DW_OP_constu 4, DW_OP_or, DW_OP_stack_value] $r4
.Ltmp14:
	.loc	2 42 31                         @ ../../../../Library/StdDriver/src/pdma.c:42:31
	itt	mi
	strmi.w	r12, [r2]
	.loc	2 43 28                         @ ../../../../Library/StdDriver/src/pdma.c:43:28
	strmi.w	r12, [r3]
.Ltmp15:
	@DEBUG_VALUE: PDMA_Open:i <- [DW_OP_constu 5, DW_OP_or, DW_OP_stack_value] $r4
	.loc	2 40 13                         @ ../../../../Library/StdDriver/src/pdma.c:40:13
	lsls	r6, r5, #26
	@DEBUG_VALUE: PDMA_Open:i <- [DW_OP_constu 5, DW_OP_or, DW_OP_stack_value] $r4
.Ltmp16:
	.loc	2 42 31                         @ ../../../../Library/StdDriver/src/pdma.c:42:31
	itt	mi
	strmi.w	r12, [r2, #16]
	.loc	2 43 28                         @ ../../../../Library/StdDriver/src/pdma.c:43:28
	strmi.w	r12, [r3, #4]
.Ltmp17:
	@DEBUG_VALUE: PDMA_Open:i <- [DW_OP_constu 6, DW_OP_or, DW_OP_stack_value] $r4
	.loc	2 40 13                         @ ../../../../Library/StdDriver/src/pdma.c:40:13
	lsls	r6, r5, #25
	@DEBUG_VALUE: PDMA_Open:i <- [DW_OP_constu 6, DW_OP_or, DW_OP_stack_value] $r4
.Ltmp18:
	.loc	2 42 31                         @ ../../../../Library/StdDriver/src/pdma.c:42:31
	itt	mi
	strmi.w	r12, [r2, #32]
	.loc	2 43 28                         @ ../../../../Library/StdDriver/src/pdma.c:43:28
	strmi.w	r12, [r3, #8]
.Ltmp19:
	@DEBUG_VALUE: PDMA_Open:i <- [DW_OP_constu 7, DW_OP_or, DW_OP_stack_value] $r4
	.loc	2 40 13                         @ ../../../../Library/StdDriver/src/pdma.c:40:13
	lsls	r5, r5, #24
	@DEBUG_VALUE: PDMA_Open:i <- [DW_OP_constu 7, DW_OP_or, DW_OP_stack_value] $r4
.Ltmp20:
	.loc	2 42 31                         @ ../../../../Library/StdDriver/src/pdma.c:42:31
	itt	mi
	strmi.w	r12, [r2, #48]
	.loc	2 43 28                         @ ../../../../Library/StdDriver/src/pdma.c:43:28
	strmi.w	r12, [r3, #12]
.Ltmp21:
	.loc	2 38 21                         @ ../../../../Library/StdDriver/src/pdma.c:38:21
	adds	r3, #32
	adds	r2, #128
.Ltmp22:
	.loc	2 38 5 is_stmt 0                @ ../../../../Library/StdDriver/src/pdma.c:38:5
	le	lr, .LBB0_1
.Ltmp23:
@ %bb.2:
	@DEBUG_VALUE: PDMA_Open:i <- [DW_OP_constu 7, DW_OP_or, DW_OP_stack_value] $r4
	@DEBUG_VALUE: PDMA_Open:u32Mask <- $r1
	@DEBUG_VALUE: PDMA_Open:pdma <- $r0
	.loc	2 47 17 is_stmt 1               @ ../../../../Library/StdDriver/src/pdma.c:47:17
	ldr.w	r2, [r0, #1024]
	orrs	r1, r2
.Ltmp24:
	@DEBUG_VALUE: PDMA_Open:u32Mask <- [DW_OP_LLVM_entry_value 1] $r1
	str.w	r1, [r0, #1024]
	.loc	2 48 1 epilogue_begin           @ ../../../../Library/StdDriver/src/pdma.c:48:1
	pop	{r4, r5, r6, pc}
.Ltmp25:
.Lfunc_end0:
	.size	PDMA_Open, .Lfunc_end0-PDMA_Open
	.cfi_endproc
	.cantunwind
	.fnend
                                        @ -- End function
	.section	.text.PDMA_Close,"ax",%progbits
	.hidden	PDMA_Close                      @ -- Begin function PDMA_Close
	.globl	PDMA_Close
	.p2align	2
	.type	PDMA_Close,%function
	.code	16                              @ @PDMA_Close
	.thumb_func
PDMA_Close:
.Lfunc_begin1:
	.loc	2 58 0                          @ ../../../../Library/StdDriver/src/pdma.c:58:0
	.fnstart
	.cfi_startproc
@ %bb.0:
	@DEBUG_VALUE: PDMA_Close:pdma <- $r0
	movs	r1, #0
.Ltmp26:
	.loc	2 59 17 prologue_end            @ ../../../../Library/StdDriver/src/pdma.c:59:17
	str.w	r1, [r0, #1024]
	.loc	2 60 1                          @ ../../../../Library/StdDriver/src/pdma.c:60:1
	bx	lr
.Ltmp27:
.Lfunc_end1:
	.size	PDMA_Close, .Lfunc_end1-PDMA_Close
	.cfi_endproc
	.cantunwind
	.fnend
                                        @ -- End function
	.section	.text.PDMA_SetTransferCnt,"ax",%progbits
	.hidden	PDMA_SetTransferCnt             @ -- Begin function PDMA_SetTransferCnt
	.globl	PDMA_SetTransferCnt
	.p2align	2
	.type	PDMA_SetTransferCnt,%function
	.code	16                              @ @PDMA_SetTransferCnt
	.thumb_func
PDMA_SetTransferCnt:
.Lfunc_begin2:
	.loc	2 76 0                          @ ../../../../Library/StdDriver/src/pdma.c:76:0
	.fnstart
	.cfi_startproc
@ %bb.0:
	@DEBUG_VALUE: PDMA_SetTransferCnt:pdma <- $r0
	@DEBUG_VALUE: PDMA_SetTransferCnt:u32Ch <- $r1
	@DEBUG_VALUE: PDMA_SetTransferCnt:u32Width <- $r2
	@DEBUG_VALUE: PDMA_SetTransferCnt:u32TransCount <- $r3
	.save	{r7, lr}
	push	{r7, lr}
	.cfi_def_cfa_offset 8
	.cfi_offset lr, -4
	.cfi_offset r7, -8
.Ltmp28:
	.loc	2 77 5 prologue_end             @ ../../../../Library/StdDriver/src/pdma.c:77:5
	lsl.w	lr, r1, #4
	movw	r1, #53247
.Ltmp29:
	@DEBUG_VALUE: PDMA_SetTransferCnt:u32Ch <- [DW_OP_LLVM_entry_value 1] $r1
	.loc	2 77 27 is_stmt 0               @ ../../../../Library/StdDriver/src/pdma.c:77:27
	ldr.w	r12, [r0, lr]
	and.w	r1, r1, r12
	str.w	r1, [r0, lr]
	movs	r1, #0
	movt	r1, #65535
	.loc	2 78 65 is_stmt 1               @ ../../../../Library/StdDriver/src/pdma.c:78:65
	add.w	r1, r1, r3, lsl #16
	.loc	2 78 27 is_stmt 0               @ ../../../../Library/StdDriver/src/pdma.c:78:27
	ldr.w	r3, [r0, lr]
.Ltmp30:
	@DEBUG_VALUE: PDMA_SetTransferCnt:u32TransCount <- [DW_OP_LLVM_entry_value 1] $r3
	.loc	2 78 40                         @ ../../../../Library/StdDriver/src/pdma.c:78:40
	orrs	r1, r2
	.loc	2 78 27                         @ ../../../../Library/StdDriver/src/pdma.c:78:27
	orrs	r1, r3
	str.w	r1, [r0, lr]
	.loc	2 79 1 epilogue_begin is_stmt 1 @ ../../../../Library/StdDriver/src/pdma.c:79:1
	pop	{r7, pc}
.Ltmp31:
.Lfunc_end2:
	.size	PDMA_SetTransferCnt, .Lfunc_end2-PDMA_SetTransferCnt
	.cfi_endproc
	.cantunwind
	.fnend
                                        @ -- End function
	.section	.text.PDMA_SetTransferAddr,"ax",%progbits
	.hidden	PDMA_SetTransferAddr            @ -- Begin function PDMA_SetTransferAddr
	.globl	PDMA_SetTransferAddr
	.p2align	2
	.type	PDMA_SetTransferAddr,%function
	.code	16                              @ @PDMA_SetTransferAddr
	.thumb_func
PDMA_SetTransferAddr:
.Lfunc_begin3:
	.loc	2 98 0                          @ ../../../../Library/StdDriver/src/pdma.c:98:0
	.fnstart
	.cfi_startproc
@ %bb.0:
	@DEBUG_VALUE: PDMA_SetTransferAddr:pdma <- $r0
	@DEBUG_VALUE: PDMA_SetTransferAddr:u32Ch <- $r1
	@DEBUG_VALUE: PDMA_SetTransferAddr:u32SrcAddr <- $r2
	@DEBUG_VALUE: PDMA_SetTransferAddr:u32SrcCtrl <- $r3
	.save	{r7, lr}
	push	{r7, lr}
	.cfi_def_cfa_offset 8
	.cfi_offset lr, -4
	.cfi_offset r7, -8
.Ltmp32:
	@DEBUG_VALUE: PDMA_SetTransferAddr:u32DstAddr <- [DW_OP_plus_uconst 8] [$sp+0]
	@DEBUG_VALUE: PDMA_SetTransferAddr:u32DstCtrl <- [DW_OP_plus_uconst 12] [$sp+0]
	ldr.w	r12, [sp, #8]
.Ltmp33:
	.loc	2 99 5 prologue_end             @ ../../../../Library/StdDriver/src/pdma.c:99:5
	add.w	lr, r0, r1, lsl #4
	lsls	r1, r1, #4
.Ltmp34:
	@DEBUG_VALUE: PDMA_SetTransferAddr:u32Ch <- [DW_OP_LLVM_entry_value 1] $r1
	.loc	2 99 26 is_stmt 0               @ ../../../../Library/StdDriver/src/pdma.c:99:26
	str.w	r2, [lr, #4]
	.loc	2 100 26 is_stmt 1              @ ../../../../Library/StdDriver/src/pdma.c:100:26
	str.w	r12, [lr, #8]
	.loc	2 101 27                        @ ../../../../Library/StdDriver/src/pdma.c:101:27
	ldr	r2, [r0, r1]
.Ltmp35:
	@DEBUG_VALUE: PDMA_SetTransferAddr:u32SrcAddr <- [DW_OP_LLVM_entry_value 1] $r2
	.loc	2 0 27 is_stmt 0                @ ../../../../Library/StdDriver/src/pdma.c:0:27
	ldr.w	r12, [sp, #12]
	.loc	2 101 27                        @ ../../../../Library/StdDriver/src/pdma.c:101:27
	bic	r2, r2, #3840
	str	r2, [r0, r1]
	.loc	2 102 27 is_stmt 1              @ ../../../../Library/StdDriver/src/pdma.c:102:27
	ldr	r2, [r0, r1]
	.loc	2 102 42 is_stmt 0              @ ../../../../Library/StdDriver/src/pdma.c:102:42
	orr.w	r3, r3, r12
.Ltmp36:
	@DEBUG_VALUE: PDMA_SetTransferAddr:u32SrcCtrl <- [DW_OP_LLVM_entry_value 1] $r3
	.loc	2 102 27                        @ ../../../../Library/StdDriver/src/pdma.c:102:27
	orrs	r2, r3
	str	r2, [r0, r1]
	.loc	2 103 1 epilogue_begin is_stmt 1 @ ../../../../Library/StdDriver/src/pdma.c:103:1
	pop	{r7, pc}
.Ltmp37:
.Lfunc_end3:
	.size	PDMA_SetTransferAddr, .Lfunc_end3-PDMA_SetTransferAddr
	.cfi_endproc
	.cantunwind
	.fnend
                                        @ -- End function
	.section	.text.PDMA_SetTransferMode,"ax",%progbits
	.hidden	PDMA_SetTransferMode            @ -- Begin function PDMA_SetTransferMode
	.globl	PDMA_SetTransferMode
	.p2align	2
	.type	PDMA_SetTransferMode,%function
	.code	16                              @ @PDMA_SetTransferMode
	.thumb_func
PDMA_SetTransferMode:
.Lfunc_begin4:
	.fnstart
	.cfi_startproc
@ %bb.0:
	@DEBUG_VALUE: PDMA_SetTransferMode:pdma <- $r0
	@DEBUG_VALUE: PDMA_SetTransferMode:u32Ch <- $r1
	@DEBUG_VALUE: PDMA_SetTransferMode:u32Peripheral <- $r2
	@DEBUG_VALUE: PDMA_SetTransferMode:u32ScatterEn <- $r3
	@DEBUG_VALUE: PDMA_SetTransferMode:u32DescAddr <- [$sp+0]
	.loc	2 207 5 prologue_end            @ ../../../../Library/StdDriver/src/pdma.c:207:5
	movw	r12, :lower16:u32ChSelect
	.loc	2 209 5                         @ ../../../../Library/StdDriver/src/pdma.c:209:5
	cmp	r1, #15
	.loc	2 207 5                         @ ../../../../Library/StdDriver/src/pdma.c:207:5
	movt	r12, :upper16:u32ChSelect
	.loc	2 207 24 is_stmt 0              @ ../../../../Library/StdDriver/src/pdma.c:207:24
	str.w	r2, [r12, r1, lsl #2]
	.loc	2 209 5 is_stmt 1               @ ../../../../Library/StdDriver/src/pdma.c:209:5
	bhi.w	.LBB4_17
.Ltmp38:
@ %bb.1:
	@DEBUG_VALUE: PDMA_SetTransferMode:u32DescAddr <- [$sp+0]
	@DEBUG_VALUE: PDMA_SetTransferMode:u32ScatterEn <- $r3
	@DEBUG_VALUE: PDMA_SetTransferMode:u32Peripheral <- $r2
	@DEBUG_VALUE: PDMA_SetTransferMode:u32Ch <- $r1
	@DEBUG_VALUE: PDMA_SetTransferMode:pdma <- $r0
.LCPI4_0:
	tbb	[pc, r1]
.Ltmp39:
@ %bb.2:
	.loc	2 0 5 is_stmt 0                 @ ../../../../Library/StdDriver/src/pdma.c:0:5
.LJTI4_0:
	.byte	(.LBB4_3-(.LCPI4_0+4))/2
	.byte	(.LBB4_13-(.LCPI4_0+4))/2
	.byte	(.LBB4_9-(.LCPI4_0+4))/2
	.byte	(.LBB4_11-(.LCPI4_0+4))/2
	.byte	(.LBB4_6-(.LCPI4_0+4))/2
	.byte	(.LBB4_14-(.LCPI4_0+4))/2
	.byte	(.LBB4_18-(.LCPI4_0+4))/2
	.byte	(.LBB4_12-(.LCPI4_0+4))/2
	.byte	(.LBB4_20-(.LCPI4_0+4))/2
	.byte	(.LBB4_8-(.LCPI4_0+4))/2
	.byte	(.LBB4_19-(.LCPI4_0+4))/2
	.byte	(.LBB4_5-(.LCPI4_0+4))/2
	.byte	(.LBB4_7-(.LCPI4_0+4))/2
	.byte	(.LBB4_15-(.LCPI4_0+4))/2
	.byte	(.LBB4_4-(.LCPI4_0+4))/2
	.byte	(.LBB4_10-(.LCPI4_0+4))/2
	.p2align	1
.LBB4_3:
.Ltmp40:
	@DEBUG_VALUE: PDMA_SetTransferMode:u32DescAddr <- [$sp+0]
	@DEBUG_VALUE: PDMA_SetTransferMode:u32ScatterEn <- $r3
	@DEBUG_VALUE: PDMA_SetTransferMode:u32Peripheral <- $r2
	@DEBUG_VALUE: PDMA_SetTransferMode:u32Ch <- $r1
	@DEBUG_VALUE: PDMA_SetTransferMode:pdma <- $r0
	.loc	2 212 38 is_stmt 1              @ ../../../../Library/StdDriver/src/pdma.c:212:38
	ldr.w	r12, [r0, #1152]
	.loc	2 212 48 is_stmt 0              @ ../../../../Library/StdDriver/src/pdma.c:212:48
	bic	r12, r12, #127
	.loc	2 212 79                        @ ../../../../Library/StdDriver/src/pdma.c:212:79
	orr.w	r2, r2, r12
.Ltmp41:
	@DEBUG_VALUE: PDMA_SetTransferMode:u32Peripheral <- [DW_OP_LLVM_entry_value 1] $r2
	.loc	2 212 29                        @ ../../../../Library/StdDriver/src/pdma.c:212:29
	str.w	r2, [r0, #1152]
	.loc	2 225 13 is_stmt 1              @ ../../../../Library/StdDriver/src/pdma.c:225:13
	b	.LBB4_17
.Ltmp42:
.LBB4_4:
	@DEBUG_VALUE: PDMA_SetTransferMode:u32DescAddr <- [$sp+0]
	@DEBUG_VALUE: PDMA_SetTransferMode:u32ScatterEn <- $r3
	@DEBUG_VALUE: PDMA_SetTransferMode:u32Peripheral <- $r2
	@DEBUG_VALUE: PDMA_SetTransferMode:u32Ch <- $r1
	@DEBUG_VALUE: PDMA_SetTransferMode:pdma <- $r0
	.loc	2 268 40                        @ ../../../../Library/StdDriver/src/pdma.c:268:40
	ldr.w	r12, [r0, #1164]
	.loc	2 268 52 is_stmt 0              @ ../../../../Library/StdDriver/src/pdma.c:268:52
	bic	r12, r12, #8323072
	.loc	2 268 86                        @ ../../../../Library/StdDriver/src/pdma.c:268:86
	orr.w	r2, r12, r2, lsl #16
.Ltmp43:
	@DEBUG_VALUE: PDMA_SetTransferMode:u32Peripheral <- [DW_OP_LLVM_entry_value 1] $r2
	.loc	2 268 31                        @ ../../../../Library/StdDriver/src/pdma.c:268:31
	b	.LBB4_16
.Ltmp44:
.LBB4_5:
	@DEBUG_VALUE: PDMA_SetTransferMode:u32DescAddr <- [$sp+0]
	@DEBUG_VALUE: PDMA_SetTransferMode:u32ScatterEn <- $r3
	@DEBUG_VALUE: PDMA_SetTransferMode:u32Peripheral <- $r2
	@DEBUG_VALUE: PDMA_SetTransferMode:u32Ch <- $r1
	@DEBUG_VALUE: PDMA_SetTransferMode:pdma <- $r0
	.loc	2 256 39 is_stmt 1              @ ../../../../Library/StdDriver/src/pdma.c:256:39
	ldr.w	r12, [r0, #1160]
	.loc	2 256 50 is_stmt 0              @ ../../../../Library/StdDriver/src/pdma.c:256:50
	bic	r12, r12, #2130706432
	.loc	2 256 83                        @ ../../../../Library/StdDriver/src/pdma.c:256:83
	orr.w	r2, r12, r2, lsl #24
.Ltmp45:
	@DEBUG_VALUE: PDMA_SetTransferMode:u32Peripheral <- [DW_OP_LLVM_entry_value 1] $r2
	.loc	2 256 30                        @ ../../../../Library/StdDriver/src/pdma.c:256:30
	str.w	r2, [r0, #1160]
	.loc	2 257 13 is_stmt 1              @ ../../../../Library/StdDriver/src/pdma.c:257:13
	b	.LBB4_17
.Ltmp46:
.LBB4_6:
	@DEBUG_VALUE: PDMA_SetTransferMode:u32DescAddr <- [$sp+0]
	@DEBUG_VALUE: PDMA_SetTransferMode:u32ScatterEn <- $r3
	@DEBUG_VALUE: PDMA_SetTransferMode:u32Peripheral <- $r2
	@DEBUG_VALUE: PDMA_SetTransferMode:u32Ch <- $r1
	@DEBUG_VALUE: PDMA_SetTransferMode:pdma <- $r0
	.loc	2 228 38                        @ ../../../../Library/StdDriver/src/pdma.c:228:38
	ldr.w	r12, [r0, #1156]
	.loc	2 228 48 is_stmt 0              @ ../../../../Library/StdDriver/src/pdma.c:228:48
	bic	r12, r12, #127
	.loc	2 228 79                        @ ../../../../Library/StdDriver/src/pdma.c:228:79
	orr.w	r2, r2, r12
.Ltmp47:
	@DEBUG_VALUE: PDMA_SetTransferMode:u32Peripheral <- [DW_OP_LLVM_entry_value 1] $r2
	.loc	2 228 29                        @ ../../../../Library/StdDriver/src/pdma.c:228:29
	str.w	r2, [r0, #1156]
	.loc	2 241 13 is_stmt 1              @ ../../../../Library/StdDriver/src/pdma.c:241:13
	b	.LBB4_17
.Ltmp48:
.LBB4_7:
	@DEBUG_VALUE: PDMA_SetTransferMode:u32DescAddr <- [$sp+0]
	@DEBUG_VALUE: PDMA_SetTransferMode:u32ScatterEn <- $r3
	@DEBUG_VALUE: PDMA_SetTransferMode:u32Peripheral <- $r2
	@DEBUG_VALUE: PDMA_SetTransferMode:u32Ch <- $r1
	@DEBUG_VALUE: PDMA_SetTransferMode:pdma <- $r0
	.loc	2 260 40                        @ ../../../../Library/StdDriver/src/pdma.c:260:40
	ldr.w	r12, [r0, #1164]
	.loc	2 260 52 is_stmt 0              @ ../../../../Library/StdDriver/src/pdma.c:260:52
	bic	r12, r12, #127
	.loc	2 260 86                        @ ../../../../Library/StdDriver/src/pdma.c:260:86
	orr.w	r2, r2, r12
.Ltmp49:
	@DEBUG_VALUE: PDMA_SetTransferMode:u32Peripheral <- [DW_OP_LLVM_entry_value 1] $r2
	.loc	2 260 31                        @ ../../../../Library/StdDriver/src/pdma.c:260:31
	b	.LBB4_16
.Ltmp50:
.LBB4_8:
	@DEBUG_VALUE: PDMA_SetTransferMode:u32DescAddr <- [$sp+0]
	@DEBUG_VALUE: PDMA_SetTransferMode:u32ScatterEn <- $r3
	@DEBUG_VALUE: PDMA_SetTransferMode:u32Peripheral <- $r2
	@DEBUG_VALUE: PDMA_SetTransferMode:u32Ch <- $r1
	@DEBUG_VALUE: PDMA_SetTransferMode:pdma <- $r0
	.loc	2 248 39 is_stmt 1              @ ../../../../Library/StdDriver/src/pdma.c:248:39
	ldr.w	r12, [r0, #1160]
	.loc	2 248 50 is_stmt 0              @ ../../../../Library/StdDriver/src/pdma.c:248:50
	bic	r12, r12, #32512
	.loc	2 248 82                        @ ../../../../Library/StdDriver/src/pdma.c:248:82
	orr.w	r2, r12, r2, lsl #8
.Ltmp51:
	@DEBUG_VALUE: PDMA_SetTransferMode:u32Peripheral <- [DW_OP_LLVM_entry_value 1] $r2
	.loc	2 248 30                        @ ../../../../Library/StdDriver/src/pdma.c:248:30
	str.w	r2, [r0, #1160]
	.loc	2 257 13 is_stmt 1              @ ../../../../Library/StdDriver/src/pdma.c:257:13
	b	.LBB4_17
.Ltmp52:
.LBB4_9:
	@DEBUG_VALUE: PDMA_SetTransferMode:u32DescAddr <- [$sp+0]
	@DEBUG_VALUE: PDMA_SetTransferMode:u32ScatterEn <- $r3
	@DEBUG_VALUE: PDMA_SetTransferMode:u32Peripheral <- $r2
	@DEBUG_VALUE: PDMA_SetTransferMode:u32Ch <- $r1
	@DEBUG_VALUE: PDMA_SetTransferMode:pdma <- $r0
	.loc	2 220 38                        @ ../../../../Library/StdDriver/src/pdma.c:220:38
	ldr.w	r12, [r0, #1152]
	.loc	2 220 48 is_stmt 0              @ ../../../../Library/StdDriver/src/pdma.c:220:48
	bic	r12, r12, #8323072
	.loc	2 220 79                        @ ../../../../Library/StdDriver/src/pdma.c:220:79
	orr.w	r2, r12, r2, lsl #16
.Ltmp53:
	@DEBUG_VALUE: PDMA_SetTransferMode:u32Peripheral <- [DW_OP_LLVM_entry_value 1] $r2
	.loc	2 220 29                        @ ../../../../Library/StdDriver/src/pdma.c:220:29
	str.w	r2, [r0, #1152]
	.loc	2 225 13 is_stmt 1              @ ../../../../Library/StdDriver/src/pdma.c:225:13
	b	.LBB4_17
.Ltmp54:
.LBB4_10:
	@DEBUG_VALUE: PDMA_SetTransferMode:u32DescAddr <- [$sp+0]
	@DEBUG_VALUE: PDMA_SetTransferMode:u32ScatterEn <- $r3
	@DEBUG_VALUE: PDMA_SetTransferMode:u32Peripheral <- $r2
	@DEBUG_VALUE: PDMA_SetTransferMode:u32Ch <- $r1
	@DEBUG_VALUE: PDMA_SetTransferMode:pdma <- $r0
	.loc	2 272 40                        @ ../../../../Library/StdDriver/src/pdma.c:272:40
	ldr.w	r12, [r0, #1164]
	.loc	2 272 52 is_stmt 0              @ ../../../../Library/StdDriver/src/pdma.c:272:52
	bic	r12, r12, #2130706432
	.loc	2 272 86                        @ ../../../../Library/StdDriver/src/pdma.c:272:86
	orr.w	r2, r12, r2, lsl #24
.Ltmp55:
	@DEBUG_VALUE: PDMA_SetTransferMode:u32Peripheral <- [DW_OP_LLVM_entry_value 1] $r2
	.loc	2 0 86                          @ ../../../../Library/StdDriver/src/pdma.c:0:86
	b	.LBB4_16
.Ltmp56:
.LBB4_11:
	@DEBUG_VALUE: PDMA_SetTransferMode:u32DescAddr <- [$sp+0]
	@DEBUG_VALUE: PDMA_SetTransferMode:u32ScatterEn <- $r3
	@DEBUG_VALUE: PDMA_SetTransferMode:u32Peripheral <- $r2
	@DEBUG_VALUE: PDMA_SetTransferMode:u32Ch <- $r1
	@DEBUG_VALUE: PDMA_SetTransferMode:pdma <- $r0
	.loc	2 224 38 is_stmt 1              @ ../../../../Library/StdDriver/src/pdma.c:224:38
	ldr.w	r12, [r0, #1152]
	.loc	2 224 48 is_stmt 0              @ ../../../../Library/StdDriver/src/pdma.c:224:48
	bic	r12, r12, #2130706432
	.loc	2 224 79                        @ ../../../../Library/StdDriver/src/pdma.c:224:79
	orr.w	r2, r12, r2, lsl #24
.Ltmp57:
	@DEBUG_VALUE: PDMA_SetTransferMode:u32Peripheral <- [DW_OP_LLVM_entry_value 1] $r2
	.loc	2 224 29                        @ ../../../../Library/StdDriver/src/pdma.c:224:29
	str.w	r2, [r0, #1152]
	.loc	2 225 13 is_stmt 1              @ ../../../../Library/StdDriver/src/pdma.c:225:13
	b	.LBB4_17
.Ltmp58:
.LBB4_12:
	@DEBUG_VALUE: PDMA_SetTransferMode:u32DescAddr <- [$sp+0]
	@DEBUG_VALUE: PDMA_SetTransferMode:u32ScatterEn <- $r3
	@DEBUG_VALUE: PDMA_SetTransferMode:u32Peripheral <- $r2
	@DEBUG_VALUE: PDMA_SetTransferMode:u32Ch <- $r1
	@DEBUG_VALUE: PDMA_SetTransferMode:pdma <- $r0
	.loc	2 240 38                        @ ../../../../Library/StdDriver/src/pdma.c:240:38
	ldr.w	r12, [r0, #1156]
	.loc	2 240 48 is_stmt 0              @ ../../../../Library/StdDriver/src/pdma.c:240:48
	bic	r12, r12, #2130706432
	.loc	2 240 79                        @ ../../../../Library/StdDriver/src/pdma.c:240:79
	orr.w	r2, r12, r2, lsl #24
.Ltmp59:
	@DEBUG_VALUE: PDMA_SetTransferMode:u32Peripheral <- [DW_OP_LLVM_entry_value 1] $r2
	.loc	2 240 29                        @ ../../../../Library/StdDriver/src/pdma.c:240:29
	str.w	r2, [r0, #1156]
	.loc	2 241 13 is_stmt 1              @ ../../../../Library/StdDriver/src/pdma.c:241:13
	b	.LBB4_17
.Ltmp60:
.LBB4_13:
	@DEBUG_VALUE: PDMA_SetTransferMode:u32DescAddr <- [$sp+0]
	@DEBUG_VALUE: PDMA_SetTransferMode:u32ScatterEn <- $r3
	@DEBUG_VALUE: PDMA_SetTransferMode:u32Peripheral <- $r2
	@DEBUG_VALUE: PDMA_SetTransferMode:u32Ch <- $r1
	@DEBUG_VALUE: PDMA_SetTransferMode:pdma <- $r0
	.loc	2 216 38                        @ ../../../../Library/StdDriver/src/pdma.c:216:38
	ldr.w	r12, [r0, #1152]
	.loc	2 216 48 is_stmt 0              @ ../../../../Library/StdDriver/src/pdma.c:216:48
	bic	r12, r12, #32512
	.loc	2 216 79                        @ ../../../../Library/StdDriver/src/pdma.c:216:79
	orr.w	r2, r12, r2, lsl #8
.Ltmp61:
	@DEBUG_VALUE: PDMA_SetTransferMode:u32Peripheral <- [DW_OP_LLVM_entry_value 1] $r2
	.loc	2 216 29                        @ ../../../../Library/StdDriver/src/pdma.c:216:29
	str.w	r2, [r0, #1152]
	.loc	2 225 13 is_stmt 1              @ ../../../../Library/StdDriver/src/pdma.c:225:13
	b	.LBB4_17
.Ltmp62:
.LBB4_14:
	@DEBUG_VALUE: PDMA_SetTransferMode:u32DescAddr <- [$sp+0]
	@DEBUG_VALUE: PDMA_SetTransferMode:u32ScatterEn <- $r3
	@DEBUG_VALUE: PDMA_SetTransferMode:u32Peripheral <- $r2
	@DEBUG_VALUE: PDMA_SetTransferMode:u32Ch <- $r1
	@DEBUG_VALUE: PDMA_SetTransferMode:pdma <- $r0
	.loc	2 232 38                        @ ../../../../Library/StdDriver/src/pdma.c:232:38
	ldr.w	r12, [r0, #1156]
	.loc	2 232 48 is_stmt 0              @ ../../../../Library/StdDriver/src/pdma.c:232:48
	bic	r12, r12, #32512
	.loc	2 232 79                        @ ../../../../Library/StdDriver/src/pdma.c:232:79
	orr.w	r2, r12, r2, lsl #8
.Ltmp63:
	@DEBUG_VALUE: PDMA_SetTransferMode:u32Peripheral <- [DW_OP_LLVM_entry_value 1] $r2
	.loc	2 232 29                        @ ../../../../Library/StdDriver/src/pdma.c:232:29
	str.w	r2, [r0, #1156]
	.loc	2 241 13 is_stmt 1              @ ../../../../Library/StdDriver/src/pdma.c:241:13
	b	.LBB4_17
.Ltmp64:
.LBB4_15:
	@DEBUG_VALUE: PDMA_SetTransferMode:u32DescAddr <- [$sp+0]
	@DEBUG_VALUE: PDMA_SetTransferMode:u32ScatterEn <- $r3
	@DEBUG_VALUE: PDMA_SetTransferMode:u32Peripheral <- $r2
	@DEBUG_VALUE: PDMA_SetTransferMode:u32Ch <- $r1
	@DEBUG_VALUE: PDMA_SetTransferMode:pdma <- $r0
	.loc	2 264 40                        @ ../../../../Library/StdDriver/src/pdma.c:264:40
	ldr.w	r12, [r0, #1164]
	.loc	2 264 52 is_stmt 0              @ ../../../../Library/StdDriver/src/pdma.c:264:52
	bic	r12, r12, #32512
	.loc	2 264 86                        @ ../../../../Library/StdDriver/src/pdma.c:264:86
	orr.w	r2, r12, r2, lsl #8
.Ltmp65:
	@DEBUG_VALUE: PDMA_SetTransferMode:u32Peripheral <- [DW_OP_LLVM_entry_value 1] $r2
.LBB4_16:
	@DEBUG_VALUE: PDMA_SetTransferMode:u32Peripheral <- [DW_OP_LLVM_entry_value 1] $r2
	@DEBUG_VALUE: PDMA_SetTransferMode:u32DescAddr <- [$sp+0]
	@DEBUG_VALUE: PDMA_SetTransferMode:u32ScatterEn <- $r3
	@DEBUG_VALUE: PDMA_SetTransferMode:u32Ch <- $r1
	@DEBUG_VALUE: PDMA_SetTransferMode:pdma <- $r0
	.loc	2 0 0                           @ ../../../../Library/StdDriver/src/pdma.c:0:0
	str.w	r2, [r0, #1164]
.Ltmp66:
.LBB4_17:
	@DEBUG_VALUE: PDMA_SetTransferMode:u32DescAddr <- [$sp+0]
	@DEBUG_VALUE: PDMA_SetTransferMode:u32ScatterEn <- $r3
	@DEBUG_VALUE: PDMA_SetTransferMode:u32Ch <- $r1
	@DEBUG_VALUE: PDMA_SetTransferMode:pdma <- $r0
	add.w	r0, r0, r1, lsl #4
.Ltmp67:
	@DEBUG_VALUE: PDMA_SetTransferMode:pdma <- [DW_OP_LLVM_entry_value 1] $r0
	.loc	2 279 9 is_stmt 1               @ ../../../../Library/StdDriver/src/pdma.c:279:9
	cmp	r3, #0
	iteee	eq
	moveq	r1, #1
.Ltmp68:
	@DEBUG_VALUE: PDMA_SetTransferMode:u32Ch <- [DW_OP_LLVM_entry_value 1] $r1
	.loc	2 0 9 is_stmt 0                 @ ../../../../Library/StdDriver/src/pdma.c:0:9
	ldrne	r1, [sp]
.Ltmp69:
	.loc	2 281 32 is_stmt 1              @ ../../../../Library/StdDriver/src/pdma.c:281:32
	strne	r1, [r0, #12]
	movne	r1, #2
.Ltmp70:
	.loc	2 0 0 is_stmt 0                 @ ../../../../Library/StdDriver/src/pdma.c:0:0
	ldr	r2, [r0]
	bic	r2, r2, #3
	add	r1, r2
	str	r1, [r0]
.Ltmp71:
	.loc	2 288 1 is_stmt 1               @ ../../../../Library/StdDriver/src/pdma.c:288:1
	bx	lr
.Ltmp72:
.LBB4_18:
	@DEBUG_VALUE: PDMA_SetTransferMode:u32DescAddr <- [$sp+0]
	@DEBUG_VALUE: PDMA_SetTransferMode:u32ScatterEn <- $r3
	@DEBUG_VALUE: PDMA_SetTransferMode:u32Peripheral <- $r2
	@DEBUG_VALUE: PDMA_SetTransferMode:u32Ch <- $r1
	@DEBUG_VALUE: PDMA_SetTransferMode:pdma <- $r0
	.loc	2 236 38                        @ ../../../../Library/StdDriver/src/pdma.c:236:38
	ldr.w	r12, [r0, #1156]
	.loc	2 236 48 is_stmt 0              @ ../../../../Library/StdDriver/src/pdma.c:236:48
	bic	r12, r12, #8323072
	.loc	2 236 79                        @ ../../../../Library/StdDriver/src/pdma.c:236:79
	orr.w	r2, r12, r2, lsl #16
.Ltmp73:
	@DEBUG_VALUE: PDMA_SetTransferMode:u32Peripheral <- [DW_OP_LLVM_entry_value 1] $r2
	.loc	2 236 29                        @ ../../../../Library/StdDriver/src/pdma.c:236:29
	str.w	r2, [r0, #1156]
	.loc	2 241 13 is_stmt 1              @ ../../../../Library/StdDriver/src/pdma.c:241:13
	b	.LBB4_17
.Ltmp74:
.LBB4_19:
	@DEBUG_VALUE: PDMA_SetTransferMode:u32DescAddr <- [$sp+0]
	@DEBUG_VALUE: PDMA_SetTransferMode:u32ScatterEn <- $r3
	@DEBUG_VALUE: PDMA_SetTransferMode:u32Peripheral <- $r2
	@DEBUG_VALUE: PDMA_SetTransferMode:u32Ch <- $r1
	@DEBUG_VALUE: PDMA_SetTransferMode:pdma <- $r0
	.loc	2 252 39                        @ ../../../../Library/StdDriver/src/pdma.c:252:39
	ldr.w	r12, [r0, #1160]
	.loc	2 252 50 is_stmt 0              @ ../../../../Library/StdDriver/src/pdma.c:252:50
	bic	r12, r12, #8323072
	.loc	2 252 83                        @ ../../../../Library/StdDriver/src/pdma.c:252:83
	orr.w	r2, r12, r2, lsl #16
.Ltmp75:
	@DEBUG_VALUE: PDMA_SetTransferMode:u32Peripheral <- [DW_OP_LLVM_entry_value 1] $r2
	.loc	2 252 30                        @ ../../../../Library/StdDriver/src/pdma.c:252:30
	str.w	r2, [r0, #1160]
	.loc	2 257 13 is_stmt 1              @ ../../../../Library/StdDriver/src/pdma.c:257:13
	b	.LBB4_17
.Ltmp76:
.LBB4_20:
	@DEBUG_VALUE: PDMA_SetTransferMode:u32DescAddr <- [$sp+0]
	@DEBUG_VALUE: PDMA_SetTransferMode:u32ScatterEn <- $r3
	@DEBUG_VALUE: PDMA_SetTransferMode:u32Peripheral <- $r2
	@DEBUG_VALUE: PDMA_SetTransferMode:u32Ch <- $r1
	@DEBUG_VALUE: PDMA_SetTransferMode:pdma <- $r0
	.loc	2 244 39                        @ ../../../../Library/StdDriver/src/pdma.c:244:39
	ldr.w	r12, [r0, #1160]
	.loc	2 244 50 is_stmt 0              @ ../../../../Library/StdDriver/src/pdma.c:244:50
	bic	r12, r12, #127
	.loc	2 244 82                        @ ../../../../Library/StdDriver/src/pdma.c:244:82
	orr.w	r2, r2, r12
.Ltmp77:
	@DEBUG_VALUE: PDMA_SetTransferMode:u32Peripheral <- [DW_OP_LLVM_entry_value 1] $r2
	.loc	2 244 30                        @ ../../../../Library/StdDriver/src/pdma.c:244:30
	str.w	r2, [r0, #1160]
	.loc	2 257 13 is_stmt 1              @ ../../../../Library/StdDriver/src/pdma.c:257:13
	b	.LBB4_17
.Ltmp78:
.Lfunc_end4:
	.size	PDMA_SetTransferMode, .Lfunc_end4-PDMA_SetTransferMode
	.cfi_endproc
	.cantunwind
	.fnend
                                        @ -- End function
	.section	.text.PDMA_SetBurstType,"ax",%progbits
	.hidden	PDMA_SetBurstType               @ -- Begin function PDMA_SetBurstType
	.globl	PDMA_SetBurstType
	.p2align	2
	.type	PDMA_SetBurstType,%function
	.code	16                              @ @PDMA_SetBurstType
	.thumb_func
PDMA_SetBurstType:
.Lfunc_begin5:
	.loc	2 311 0                         @ ../../../../Library/StdDriver/src/pdma.c:311:0
	.fnstart
	.cfi_startproc
@ %bb.0:
	@DEBUG_VALUE: PDMA_SetBurstType:pdma <- $r0
	@DEBUG_VALUE: PDMA_SetBurstType:u32Ch <- $r1
	@DEBUG_VALUE: PDMA_SetBurstType:u32BurstType <- $r2
	@DEBUG_VALUE: PDMA_SetBurstType:u32BurstSize <- $r3
	.save	{r7, lr}
	push	{r7, lr}
	.cfi_def_cfa_offset 8
	.cfi_offset lr, -4
	.cfi_offset r7, -8
.Ltmp79:
	.loc	2 312 5 prologue_end            @ ../../../../Library/StdDriver/src/pdma.c:312:5
	lsl.w	lr, r1, #4
	.loc	2 312 27 is_stmt 0              @ ../../../../Library/StdDriver/src/pdma.c:312:27
	ldr.w	r12, [r0, lr]
	.loc	2 313 44 is_stmt 1              @ ../../../../Library/StdDriver/src/pdma.c:313:44
	orrs	r2, r3
.Ltmp80:
	@DEBUG_VALUE: PDMA_SetBurstType:u32BurstType <- [DW_OP_LLVM_entry_value 1] $r2
	.loc	2 312 27                        @ ../../../../Library/StdDriver/src/pdma.c:312:27
	bic	r1, r12, #116
.Ltmp81:
	@DEBUG_VALUE: PDMA_SetBurstType:u32Ch <- [DW_OP_LLVM_entry_value 1] $r1
	str.w	r1, [r0, lr]
	.loc	2 313 27                        @ ../../../../Library/StdDriver/src/pdma.c:313:27
	ldr.w	r1, [r0, lr]
	orrs	r1, r2
	str.w	r1, [r0, lr]
	.loc	2 314 1 epilogue_begin          @ ../../../../Library/StdDriver/src/pdma.c:314:1
	pop	{r7, pc}
.Ltmp82:
.Lfunc_end5:
	.size	PDMA_SetBurstType, .Lfunc_end5-PDMA_SetBurstType
	.cfi_endproc
	.cantunwind
	.fnend
                                        @ -- End function
	.section	.text.PDMA_EnableTimeout,"ax",%progbits
	.hidden	PDMA_EnableTimeout              @ -- Begin function PDMA_EnableTimeout
	.globl	PDMA_EnableTimeout
	.p2align	2
	.type	PDMA_EnableTimeout,%function
	.code	16                              @ @PDMA_EnableTimeout
	.thumb_func
PDMA_EnableTimeout:
.Lfunc_begin6:
	.fnstart
	.cfi_startproc
@ %bb.0:
	@DEBUG_VALUE: PDMA_EnableTimeout:pdma <- $r0
	@DEBUG_VALUE: PDMA_EnableTimeout:u32Mask <- $r1
	.loc	2 326 18 prologue_end           @ ../../../../Library/StdDriver/src/pdma.c:326:18
	ldr.w	r2, [r0, #1076]
	orrs	r1, r2
.Ltmp83:
	@DEBUG_VALUE: PDMA_EnableTimeout:u32Mask <- [DW_OP_LLVM_entry_value 1] $r1
	str.w	r1, [r0, #1076]
	.loc	2 327 1                         @ ../../../../Library/StdDriver/src/pdma.c:327:1
	bx	lr
.Ltmp84:
.Lfunc_end6:
	.size	PDMA_EnableTimeout, .Lfunc_end6-PDMA_EnableTimeout
	.cfi_endproc
	.cantunwind
	.fnend
                                        @ -- End function
	.section	.text.PDMA_DisableTimeout,"ax",%progbits
	.hidden	PDMA_DisableTimeout             @ -- Begin function PDMA_DisableTimeout
	.globl	PDMA_DisableTimeout
	.p2align	2
	.type	PDMA_DisableTimeout,%function
	.code	16                              @ @PDMA_DisableTimeout
	.thumb_func
PDMA_DisableTimeout:
.Lfunc_begin7:
	.fnstart
	.cfi_startproc
@ %bb.0:
	@DEBUG_VALUE: PDMA_DisableTimeout:pdma <- $r0
	@DEBUG_VALUE: PDMA_DisableTimeout:u32Mask <- $r1
	.loc	2 339 18 prologue_end           @ ../../../../Library/StdDriver/src/pdma.c:339:18
	ldr.w	r2, [r0, #1076]
	bic.w	r1, r2, r1
.Ltmp85:
	@DEBUG_VALUE: PDMA_DisableTimeout:u32Mask <- [DW_OP_LLVM_entry_value 1] $r1
	str.w	r1, [r0, #1076]
	.loc	2 340 1                         @ ../../../../Library/StdDriver/src/pdma.c:340:1
	bx	lr
.Ltmp86:
.Lfunc_end7:
	.size	PDMA_DisableTimeout, .Lfunc_end7-PDMA_DisableTimeout
	.cfi_endproc
	.cantunwind
	.fnend
                                        @ -- End function
	.section	.text.PDMA_SetTimeOut,"ax",%progbits
	.hidden	PDMA_SetTimeOut                 @ -- Begin function PDMA_SetTimeOut
	.globl	PDMA_SetTimeOut
	.p2align	2
	.type	PDMA_SetTimeOut,%function
	.code	16                              @ @PDMA_SetTimeOut
	.thumb_func
PDMA_SetTimeOut:
.Lfunc_begin8:
	.loc	2 353 0                         @ ../../../../Library/StdDriver/src/pdma.c:353:0
	.fnstart
	.cfi_startproc
@ %bb.0:
	@DEBUG_VALUE: PDMA_SetTimeOut:pdma <- $r0
	@DEBUG_VALUE: PDMA_SetTimeOut:u32Ch <- $r1
	@DEBUG_VALUE: PDMA_SetTimeOut:u32OnOff <- $r2
	@DEBUG_VALUE: PDMA_SetTimeOut:u32TimeOutCnt <- $r3
	.save	{r7, lr}
	push	{r7, lr}
	.cfi_def_cfa_offset 8
	.cfi_offset lr, -4
	.cfi_offset r7, -8
.Ltmp87:
	.loc	2 354 5 prologue_end            @ ../../../../Library/StdDriver/src/pdma.c:354:5
	cmp	r1, #15
	bhi.w	.LBB8_21
.Ltmp88:
@ %bb.1:
	@DEBUG_VALUE: PDMA_SetTimeOut:u32TimeOutCnt <- $r3
	@DEBUG_VALUE: PDMA_SetTimeOut:u32OnOff <- $r2
	@DEBUG_VALUE: PDMA_SetTimeOut:u32Ch <- $r1
	@DEBUG_VALUE: PDMA_SetTimeOut:pdma <- $r0
.LCPI8_0:
	tbb	[pc, r1]
.Ltmp89:
@ %bb.2:
	.loc	2 0 5 is_stmt 0                 @ ../../../../Library/StdDriver/src/pdma.c:0:5
.LJTI8_0:
	.byte	(.LBB8_3-(.LCPI8_0+4))/2
	.byte	(.LBB8_14-(.LCPI8_0+4))/2
	.byte	(.LBB8_9-(.LCPI8_0+4))/2
	.byte	(.LBB8_12-(.LCPI8_0+4))/2
	.byte	(.LBB8_6-(.LCPI8_0+4))/2
	.byte	(.LBB8_15-(.LCPI8_0+4))/2
	.byte	(.LBB8_17-(.LCPI8_0+4))/2
	.byte	(.LBB8_13-(.LCPI8_0+4))/2
	.byte	(.LBB8_19-(.LCPI8_0+4))/2
	.byte	(.LBB8_8-(.LCPI8_0+4))/2
	.byte	(.LBB8_18-(.LCPI8_0+4))/2
	.byte	(.LBB8_5-(.LCPI8_0+4))/2
	.byte	(.LBB8_7-(.LCPI8_0+4))/2
	.byte	(.LBB8_16-(.LCPI8_0+4))/2
	.byte	(.LBB8_4-(.LCPI8_0+4))/2
	.byte	(.LBB8_10-(.LCPI8_0+4))/2
	.p2align	1
.LBB8_3:
.Ltmp90:
	@DEBUG_VALUE: PDMA_SetTimeOut:u32TimeOutCnt <- $r3
	@DEBUG_VALUE: PDMA_SetTimeOut:u32OnOff <- $r2
	@DEBUG_VALUE: PDMA_SetTimeOut:u32Ch <- $r1
	@DEBUG_VALUE: PDMA_SetTimeOut:pdma <- $r0
	.loc	2 357 39 is_stmt 1              @ ../../../../Library/StdDriver/src/pdma.c:357:39
	ldr.w	r12, [r0, #1088]
	movw	lr, #65535
	.loc	2 357 46 is_stmt 0              @ ../../../../Library/StdDriver/src/pdma.c:357:46
	bic.w	r12, r12, lr
	.loc	2 357 71                        @ ../../../../Library/StdDriver/src/pdma.c:357:71
	orr.w	r3, r3, r12
.Ltmp91:
	@DEBUG_VALUE: PDMA_SetTimeOut:u32TimeOutCnt <- [DW_OP_LLVM_entry_value 1] $r3
	.loc	2 357 28                        @ ../../../../Library/StdDriver/src/pdma.c:357:28
	str.w	r3, [r0, #1088]
	.loc	2 362 13 is_stmt 1              @ ../../../../Library/StdDriver/src/pdma.c:362:13
	b	.LBB8_21
.Ltmp92:
.LBB8_4:
	@DEBUG_VALUE: PDMA_SetTimeOut:u32TimeOutCnt <- $r3
	@DEBUG_VALUE: PDMA_SetTimeOut:u32OnOff <- $r2
	@DEBUG_VALUE: PDMA_SetTimeOut:u32Ch <- $r1
	@DEBUG_VALUE: PDMA_SetTimeOut:pdma <- $r0
	.loc	2 413 41                        @ ../../../../Library/StdDriver/src/pdma.c:413:41
	ldr.w	r12, [r0, #1116]
	movw	lr, #65535
	.loc	2 413 50 is_stmt 0              @ ../../../../Library/StdDriver/src/pdma.c:413:50
	bic.w	r12, r12, lr
	.loc	2 413 78                        @ ../../../../Library/StdDriver/src/pdma.c:413:78
	orr.w	r3, r3, r12
.Ltmp93:
	@DEBUG_VALUE: PDMA_SetTimeOut:u32TimeOutCnt <- [DW_OP_LLVM_entry_value 1] $r3
	.loc	2 413 30                        @ ../../../../Library/StdDriver/src/pdma.c:413:30
	b	.LBB8_11
.Ltmp94:
.LBB8_5:
	@DEBUG_VALUE: PDMA_SetTimeOut:u32TimeOutCnt <- $r3
	@DEBUG_VALUE: PDMA_SetTimeOut:u32OnOff <- $r2
	@DEBUG_VALUE: PDMA_SetTimeOut:u32Ch <- $r1
	@DEBUG_VALUE: PDMA_SetTimeOut:pdma <- $r0
	.loc	2 401 41 is_stmt 1              @ ../../../../Library/StdDriver/src/pdma.c:401:41
	ldr.w	r12, [r0, #1108]
	.loc	2 401 78 is_stmt 0              @ ../../../../Library/StdDriver/src/pdma.c:401:78
	pkhbt	r3, r12, r3, lsl #16
.Ltmp95:
	@DEBUG_VALUE: PDMA_SetTimeOut:u32TimeOutCnt <- [DW_OP_LLVM_entry_value 1] $r3
	.loc	2 401 30                        @ ../../../../Library/StdDriver/src/pdma.c:401:30
	str.w	r3, [r0, #1108]
	.loc	2 402 13 is_stmt 1              @ ../../../../Library/StdDriver/src/pdma.c:402:13
	b	.LBB8_21
.Ltmp96:
.LBB8_6:
	@DEBUG_VALUE: PDMA_SetTimeOut:u32TimeOutCnt <- $r3
	@DEBUG_VALUE: PDMA_SetTimeOut:u32OnOff <- $r2
	@DEBUG_VALUE: PDMA_SetTimeOut:u32Ch <- $r1
	@DEBUG_VALUE: PDMA_SetTimeOut:pdma <- $r0
	.loc	2 373 39                        @ ../../../../Library/StdDriver/src/pdma.c:373:39
	ldr.w	r12, [r0, #1096]
	movw	lr, #65535
	.loc	2 373 46 is_stmt 0              @ ../../../../Library/StdDriver/src/pdma.c:373:46
	bic.w	r12, r12, lr
	.loc	2 373 71                        @ ../../../../Library/StdDriver/src/pdma.c:373:71
	orr.w	r3, r3, r12
.Ltmp97:
	@DEBUG_VALUE: PDMA_SetTimeOut:u32TimeOutCnt <- [DW_OP_LLVM_entry_value 1] $r3
	.loc	2 373 28                        @ ../../../../Library/StdDriver/src/pdma.c:373:28
	str.w	r3, [r0, #1096]
	.loc	2 378 13 is_stmt 1              @ ../../../../Library/StdDriver/src/pdma.c:378:13
	b	.LBB8_21
.Ltmp98:
.LBB8_7:
	@DEBUG_VALUE: PDMA_SetTimeOut:u32TimeOutCnt <- $r3
	@DEBUG_VALUE: PDMA_SetTimeOut:u32OnOff <- $r2
	@DEBUG_VALUE: PDMA_SetTimeOut:u32Ch <- $r1
	@DEBUG_VALUE: PDMA_SetTimeOut:pdma <- $r0
	.loc	2 405 41                        @ ../../../../Library/StdDriver/src/pdma.c:405:41
	ldr.w	r12, [r0, #1112]
	movw	lr, #65535
	.loc	2 405 50 is_stmt 0              @ ../../../../Library/StdDriver/src/pdma.c:405:50
	bic.w	r12, r12, lr
	.loc	2 405 78                        @ ../../../../Library/StdDriver/src/pdma.c:405:78
	orr.w	r3, r3, r12
.Ltmp99:
	@DEBUG_VALUE: PDMA_SetTimeOut:u32TimeOutCnt <- [DW_OP_LLVM_entry_value 1] $r3
	.loc	2 405 30                        @ ../../../../Library/StdDriver/src/pdma.c:405:30
	str.w	r3, [r0, #1112]
	.loc	2 410 13 is_stmt 1              @ ../../../../Library/StdDriver/src/pdma.c:410:13
	b	.LBB8_21
.Ltmp100:
.LBB8_8:
	@DEBUG_VALUE: PDMA_SetTimeOut:u32TimeOutCnt <- $r3
	@DEBUG_VALUE: PDMA_SetTimeOut:u32OnOff <- $r2
	@DEBUG_VALUE: PDMA_SetTimeOut:u32Ch <- $r1
	@DEBUG_VALUE: PDMA_SetTimeOut:pdma <- $r0
	.loc	2 393 39                        @ ../../../../Library/StdDriver/src/pdma.c:393:39
	ldr.w	r12, [r0, #1104]
	.loc	2 393 71 is_stmt 0              @ ../../../../Library/StdDriver/src/pdma.c:393:71
	pkhbt	r3, r12, r3, lsl #16
.Ltmp101:
	@DEBUG_VALUE: PDMA_SetTimeOut:u32TimeOutCnt <- [DW_OP_LLVM_entry_value 1] $r3
	.loc	2 393 28                        @ ../../../../Library/StdDriver/src/pdma.c:393:28
	b	.LBB8_20
.Ltmp102:
.LBB8_9:
	@DEBUG_VALUE: PDMA_SetTimeOut:u32TimeOutCnt <- $r3
	@DEBUG_VALUE: PDMA_SetTimeOut:u32OnOff <- $r2
	@DEBUG_VALUE: PDMA_SetTimeOut:u32Ch <- $r1
	@DEBUG_VALUE: PDMA_SetTimeOut:pdma <- $r0
	.loc	2 365 39 is_stmt 1              @ ../../../../Library/StdDriver/src/pdma.c:365:39
	ldr.w	r12, [r0, #1092]
	movw	lr, #65535
	.loc	2 365 46 is_stmt 0              @ ../../../../Library/StdDriver/src/pdma.c:365:46
	bic.w	r12, r12, lr
	.loc	2 365 71                        @ ../../../../Library/StdDriver/src/pdma.c:365:71
	orr.w	r3, r3, r12
.Ltmp103:
	@DEBUG_VALUE: PDMA_SetTimeOut:u32TimeOutCnt <- [DW_OP_LLVM_entry_value 1] $r3
	.loc	2 365 28                        @ ../../../../Library/StdDriver/src/pdma.c:365:28
	str.w	r3, [r0, #1092]
	.loc	2 370 13 is_stmt 1              @ ../../../../Library/StdDriver/src/pdma.c:370:13
	b	.LBB8_21
.Ltmp104:
.LBB8_10:
	@DEBUG_VALUE: PDMA_SetTimeOut:u32TimeOutCnt <- $r3
	@DEBUG_VALUE: PDMA_SetTimeOut:u32OnOff <- $r2
	@DEBUG_VALUE: PDMA_SetTimeOut:u32Ch <- $r1
	@DEBUG_VALUE: PDMA_SetTimeOut:pdma <- $r0
	.loc	2 417 41                        @ ../../../../Library/StdDriver/src/pdma.c:417:41
	ldr.w	r12, [r0, #1116]
	.loc	2 417 78 is_stmt 0              @ ../../../../Library/StdDriver/src/pdma.c:417:78
	pkhbt	r3, r12, r3, lsl #16
.Ltmp105:
	@DEBUG_VALUE: PDMA_SetTimeOut:u32TimeOutCnt <- [DW_OP_LLVM_entry_value 1] $r3
.LBB8_11:
	@DEBUG_VALUE: PDMA_SetTimeOut:u32TimeOutCnt <- [DW_OP_LLVM_entry_value 1] $r3
	@DEBUG_VALUE: PDMA_SetTimeOut:u32OnOff <- $r2
	@DEBUG_VALUE: PDMA_SetTimeOut:u32Ch <- $r1
	@DEBUG_VALUE: PDMA_SetTimeOut:pdma <- $r0
	.loc	2 0 0                           @ ../../../../Library/StdDriver/src/pdma.c:0:0
	str.w	r3, [r0, #1116]
	b	.LBB8_21
.Ltmp106:
.LBB8_12:
	@DEBUG_VALUE: PDMA_SetTimeOut:u32TimeOutCnt <- $r3
	@DEBUG_VALUE: PDMA_SetTimeOut:u32OnOff <- $r2
	@DEBUG_VALUE: PDMA_SetTimeOut:u32Ch <- $r1
	@DEBUG_VALUE: PDMA_SetTimeOut:pdma <- $r0
	.loc	2 369 39 is_stmt 1              @ ../../../../Library/StdDriver/src/pdma.c:369:39
	ldr.w	r12, [r0, #1092]
	.loc	2 369 71 is_stmt 0              @ ../../../../Library/StdDriver/src/pdma.c:369:71
	pkhbt	r3, r12, r3, lsl #16
.Ltmp107:
	@DEBUG_VALUE: PDMA_SetTimeOut:u32TimeOutCnt <- [DW_OP_LLVM_entry_value 1] $r3
	.loc	2 369 28                        @ ../../../../Library/StdDriver/src/pdma.c:369:28
	str.w	r3, [r0, #1092]
	.loc	2 370 13 is_stmt 1              @ ../../../../Library/StdDriver/src/pdma.c:370:13
	b	.LBB8_21
.Ltmp108:
.LBB8_13:
	@DEBUG_VALUE: PDMA_SetTimeOut:u32TimeOutCnt <- $r3
	@DEBUG_VALUE: PDMA_SetTimeOut:u32OnOff <- $r2
	@DEBUG_VALUE: PDMA_SetTimeOut:u32Ch <- $r1
	@DEBUG_VALUE: PDMA_SetTimeOut:pdma <- $r0
	.loc	2 385 39                        @ ../../../../Library/StdDriver/src/pdma.c:385:39
	ldr.w	r12, [r0, #1100]
	.loc	2 385 71 is_stmt 0              @ ../../../../Library/StdDriver/src/pdma.c:385:71
	pkhbt	r3, r12, r3, lsl #16
.Ltmp109:
	@DEBUG_VALUE: PDMA_SetTimeOut:u32TimeOutCnt <- [DW_OP_LLVM_entry_value 1] $r3
	.loc	2 385 28                        @ ../../../../Library/StdDriver/src/pdma.c:385:28
	str.w	r3, [r0, #1100]
	.loc	2 386 13 is_stmt 1              @ ../../../../Library/StdDriver/src/pdma.c:386:13
	b	.LBB8_21
.Ltmp110:
.LBB8_14:
	@DEBUG_VALUE: PDMA_SetTimeOut:u32TimeOutCnt <- $r3
	@DEBUG_VALUE: PDMA_SetTimeOut:u32OnOff <- $r2
	@DEBUG_VALUE: PDMA_SetTimeOut:u32Ch <- $r1
	@DEBUG_VALUE: PDMA_SetTimeOut:pdma <- $r0
	.loc	2 361 39                        @ ../../../../Library/StdDriver/src/pdma.c:361:39
	ldr.w	r12, [r0, #1088]
	.loc	2 361 71 is_stmt 0              @ ../../../../Library/StdDriver/src/pdma.c:361:71
	pkhbt	r3, r12, r3, lsl #16
.Ltmp111:
	@DEBUG_VALUE: PDMA_SetTimeOut:u32TimeOutCnt <- [DW_OP_LLVM_entry_value 1] $r3
	.loc	2 361 28                        @ ../../../../Library/StdDriver/src/pdma.c:361:28
	str.w	r3, [r0, #1088]
	.loc	2 362 13 is_stmt 1              @ ../../../../Library/StdDriver/src/pdma.c:362:13
	b	.LBB8_21
.Ltmp112:
.LBB8_15:
	@DEBUG_VALUE: PDMA_SetTimeOut:u32TimeOutCnt <- $r3
	@DEBUG_VALUE: PDMA_SetTimeOut:u32OnOff <- $r2
	@DEBUG_VALUE: PDMA_SetTimeOut:u32Ch <- $r1
	@DEBUG_VALUE: PDMA_SetTimeOut:pdma <- $r0
	.loc	2 377 39                        @ ../../../../Library/StdDriver/src/pdma.c:377:39
	ldr.w	r12, [r0, #1096]
	.loc	2 377 71 is_stmt 0              @ ../../../../Library/StdDriver/src/pdma.c:377:71
	pkhbt	r3, r12, r3, lsl #16
.Ltmp113:
	@DEBUG_VALUE: PDMA_SetTimeOut:u32TimeOutCnt <- [DW_OP_LLVM_entry_value 1] $r3
	.loc	2 377 28                        @ ../../../../Library/StdDriver/src/pdma.c:377:28
	str.w	r3, [r0, #1096]
	.loc	2 378 13 is_stmt 1              @ ../../../../Library/StdDriver/src/pdma.c:378:13
	b	.LBB8_21
.Ltmp114:
.LBB8_16:
	@DEBUG_VALUE: PDMA_SetTimeOut:u32TimeOutCnt <- $r3
	@DEBUG_VALUE: PDMA_SetTimeOut:u32OnOff <- $r2
	@DEBUG_VALUE: PDMA_SetTimeOut:u32Ch <- $r1
	@DEBUG_VALUE: PDMA_SetTimeOut:pdma <- $r0
	.loc	2 409 41                        @ ../../../../Library/StdDriver/src/pdma.c:409:41
	ldr.w	r12, [r0, #1112]
	.loc	2 409 78 is_stmt 0              @ ../../../../Library/StdDriver/src/pdma.c:409:78
	pkhbt	r3, r12, r3, lsl #16
.Ltmp115:
	@DEBUG_VALUE: PDMA_SetTimeOut:u32TimeOutCnt <- [DW_OP_LLVM_entry_value 1] $r3
	.loc	2 409 30                        @ ../../../../Library/StdDriver/src/pdma.c:409:30
	str.w	r3, [r0, #1112]
	.loc	2 410 13 is_stmt 1              @ ../../../../Library/StdDriver/src/pdma.c:410:13
	b	.LBB8_21
.Ltmp116:
.LBB8_17:
	@DEBUG_VALUE: PDMA_SetTimeOut:u32TimeOutCnt <- $r3
	@DEBUG_VALUE: PDMA_SetTimeOut:u32OnOff <- $r2
	@DEBUG_VALUE: PDMA_SetTimeOut:u32Ch <- $r1
	@DEBUG_VALUE: PDMA_SetTimeOut:pdma <- $r0
	.loc	2 381 39                        @ ../../../../Library/StdDriver/src/pdma.c:381:39
	ldr.w	r12, [r0, #1100]
	movw	lr, #65535
	.loc	2 381 46 is_stmt 0              @ ../../../../Library/StdDriver/src/pdma.c:381:46
	bic.w	r12, r12, lr
	.loc	2 381 71                        @ ../../../../Library/StdDriver/src/pdma.c:381:71
	orr.w	r3, r3, r12
.Ltmp117:
	@DEBUG_VALUE: PDMA_SetTimeOut:u32TimeOutCnt <- [DW_OP_LLVM_entry_value 1] $r3
	.loc	2 381 28                        @ ../../../../Library/StdDriver/src/pdma.c:381:28
	str.w	r3, [r0, #1100]
	.loc	2 386 13 is_stmt 1              @ ../../../../Library/StdDriver/src/pdma.c:386:13
	b	.LBB8_21
.Ltmp118:
.LBB8_18:
	@DEBUG_VALUE: PDMA_SetTimeOut:u32TimeOutCnt <- $r3
	@DEBUG_VALUE: PDMA_SetTimeOut:u32OnOff <- $r2
	@DEBUG_VALUE: PDMA_SetTimeOut:u32Ch <- $r1
	@DEBUG_VALUE: PDMA_SetTimeOut:pdma <- $r0
	.loc	2 397 41                        @ ../../../../Library/StdDriver/src/pdma.c:397:41
	ldr.w	r12, [r0, #1108]
	movw	lr, #65535
	.loc	2 397 50 is_stmt 0              @ ../../../../Library/StdDriver/src/pdma.c:397:50
	bic.w	r12, r12, lr
	.loc	2 397 78                        @ ../../../../Library/StdDriver/src/pdma.c:397:78
	orr.w	r3, r3, r12
.Ltmp119:
	@DEBUG_VALUE: PDMA_SetTimeOut:u32TimeOutCnt <- [DW_OP_LLVM_entry_value 1] $r3
	.loc	2 397 30                        @ ../../../../Library/StdDriver/src/pdma.c:397:30
	str.w	r3, [r0, #1108]
	.loc	2 402 13 is_stmt 1              @ ../../../../Library/StdDriver/src/pdma.c:402:13
	b	.LBB8_21
.Ltmp120:
.LBB8_19:
	@DEBUG_VALUE: PDMA_SetTimeOut:u32TimeOutCnt <- $r3
	@DEBUG_VALUE: PDMA_SetTimeOut:u32OnOff <- $r2
	@DEBUG_VALUE: PDMA_SetTimeOut:u32Ch <- $r1
	@DEBUG_VALUE: PDMA_SetTimeOut:pdma <- $r0
	.loc	2 389 39                        @ ../../../../Library/StdDriver/src/pdma.c:389:39
	ldr.w	r12, [r0, #1104]
	movw	lr, #65535
	.loc	2 389 46 is_stmt 0              @ ../../../../Library/StdDriver/src/pdma.c:389:46
	bic.w	r12, r12, lr
	.loc	2 389 71                        @ ../../../../Library/StdDriver/src/pdma.c:389:71
	orr.w	r3, r3, r12
.Ltmp121:
	@DEBUG_VALUE: PDMA_SetTimeOut:u32TimeOutCnt <- [DW_OP_LLVM_entry_value 1] $r3
.LBB8_20:
	@DEBUG_VALUE: PDMA_SetTimeOut:u32TimeOutCnt <- [DW_OP_LLVM_entry_value 1] $r3
	@DEBUG_VALUE: PDMA_SetTimeOut:u32OnOff <- $r2
	@DEBUG_VALUE: PDMA_SetTimeOut:u32Ch <- $r1
	@DEBUG_VALUE: PDMA_SetTimeOut:pdma <- $r0
	.loc	2 0 0                           @ ../../../../Library/StdDriver/src/pdma.c:0:0
	str.w	r3, [r0, #1104]
.Ltmp122:
.LBB8_21:
	@DEBUG_VALUE: PDMA_SetTimeOut:u32OnOff <- $r2
	@DEBUG_VALUE: PDMA_SetTimeOut:u32Ch <- $r1
	@DEBUG_VALUE: PDMA_SetTimeOut:pdma <- $r0
	movs	r3, #1
	.loc	2 424 9 is_stmt 1               @ ../../../../Library/StdDriver/src/pdma.c:424:9
	cmp	r2, #0
.Ltmp123:
	.loc	2 0 0 is_stmt 0                 @ ../../../../Library/StdDriver/src/pdma.c:0:0
	lsl.w	r1, r3, r1
.Ltmp124:
	@DEBUG_VALUE: PDMA_SetTimeOut:u32Ch <- [DW_OP_LLVM_entry_value 1] $r1
	.loc	2 427 22 is_stmt 1              @ ../../../../Library/StdDriver/src/pdma.c:427:22
	ldr.w	r2, [r0, #1076]
.Ltmp125:
	@DEBUG_VALUE: PDMA_SetTimeOut:u32OnOff <- [DW_OP_LLVM_entry_value 1] $r2
	ite	eq
	biceq.w	r1, r2, r1
	.loc	2 425 22                        @ ../../../../Library/StdDriver/src/pdma.c:425:22
	orrne	r1, r2
	.loc	2 0 0 is_stmt 0                 @ ../../../../Library/StdDriver/src/pdma.c:0:0
	str.w	r1, [r0, #1076]
.Ltmp126:
	.loc	2 428 1 epilogue_begin is_stmt 1 @ ../../../../Library/StdDriver/src/pdma.c:428:1
	pop	{r7, pc}
.Ltmp127:
.Lfunc_end8:
	.size	PDMA_SetTimeOut, .Lfunc_end8-PDMA_SetTimeOut
	.cfi_endproc
	.cantunwind
	.fnend
                                        @ -- End function
	.section	.text.PDMA_Trigger,"ax",%progbits
	.hidden	PDMA_Trigger                    @ -- Begin function PDMA_Trigger
	.globl	PDMA_Trigger
	.p2align	2
	.type	PDMA_Trigger,%function
	.code	16                              @ @PDMA_Trigger
	.thumb_func
PDMA_Trigger:
.Lfunc_begin9:
	.fnstart
	.cfi_startproc
@ %bb.0:
	@DEBUG_VALUE: PDMA_Trigger:pdma <- $r0
	@DEBUG_VALUE: PDMA_Trigger:u32Ch <- $r1
	.loc	2 440 9 prologue_end            @ ../../../../Library/StdDriver/src/pdma.c:440:9
	movw	r2, :lower16:u32ChSelect
	movt	r2, :upper16:u32ChSelect
	ldr.w	r2, [r2, r1, lsl #2]
.Ltmp128:
	.loc	2 440 9 is_stmt 0               @ ../../../../Library/StdDriver/src/pdma.c:440:9
	cmp	r2, #0
	.loc	2 447 1 is_stmt 1               @ ../../../../Library/StdDriver/src/pdma.c:447:1
	it	ne
	bxne	lr
.Ltmp129:
.LBB9_1:
	@DEBUG_VALUE: PDMA_Trigger:u32Ch <- $r1
	@DEBUG_VALUE: PDMA_Trigger:pdma <- $r0
	.loc	2 0 1 is_stmt 0                 @ ../../../../Library/StdDriver/src/pdma.c:0:1
	movs	r2, #1
.Ltmp130:
	.loc	2 443 9 is_stmt 1               @ ../../../../Library/StdDriver/src/pdma.c:443:9
	dsb	sy
	.loc	2 444 28                        @ ../../../../Library/StdDriver/src/pdma.c:444:28
	lsl.w	r1, r2, r1
.Ltmp131:
	@DEBUG_VALUE: PDMA_Trigger:u32Ch <- [DW_OP_LLVM_entry_value 1] $r1
	.loc	2 444 21 is_stmt 0              @ ../../../../Library/StdDriver/src/pdma.c:444:21
	str.w	r1, [r0, #1032]
.Ltmp132:
	.loc	2 447 1 is_stmt 1               @ ../../../../Library/StdDriver/src/pdma.c:447:1
	bx	lr
.Ltmp133:
.Lfunc_end9:
	.size	PDMA_Trigger, .Lfunc_end9-PDMA_Trigger
	.cfi_endproc
	.cantunwind
	.fnend
                                        @ -- End function
	.section	.text.PDMA_EnableInt,"ax",%progbits
	.hidden	PDMA_EnableInt                  @ -- Begin function PDMA_EnableInt
	.globl	PDMA_EnableInt
	.p2align	2
	.type	PDMA_EnableInt,%function
	.code	16                              @ @PDMA_EnableInt
	.thumb_func
PDMA_EnableInt:
.Lfunc_begin10:
	.fnstart
	.cfi_startproc
@ %bb.0:
	@DEBUG_VALUE: PDMA_EnableInt:pdma <- $r0
	@DEBUG_VALUE: PDMA_EnableInt:u32Ch <- $r1
	@DEBUG_VALUE: PDMA_EnableInt:u32Mask <- $r2
	.loc	2 463 9 prologue_end            @ ../../../../Library/StdDriver/src/pdma.c:463:9
	lsls	r3, r2, #31
	beq	.LBB10_2
.Ltmp134:
@ %bb.1:
	@DEBUG_VALUE: PDMA_EnableInt:u32Mask <- $r2
	@DEBUG_VALUE: PDMA_EnableInt:u32Ch <- $r1
	@DEBUG_VALUE: PDMA_EnableInt:pdma <- $r0
	.save	{r7, lr}
	push	{r7, lr}
	.cfi_def_cfa_offset 8
	.cfi_offset lr, -4
	.cfi_offset r7, -8
	mov.w	r12, #1
.Ltmp135:
	.loc	2 465 23                        @ ../../../../Library/StdDriver/src/pdma.c:465:23
	ldr.w	lr, [r0, #1048]
	.loc	2 465 31 is_stmt 0              @ ../../../../Library/StdDriver/src/pdma.c:465:31
	lsl.w	r3, r12, r1
	.loc	2 465 23                        @ ../../../../Library/StdDriver/src/pdma.c:465:23
	orr.w	r3, r3, lr
	str.w	r3, [r0, #1048]
	pop.w	{r7, lr}
.Ltmp136:
.LBB10_2:
	@DEBUG_VALUE: PDMA_EnableInt:u32Mask <- $r2
	@DEBUG_VALUE: PDMA_EnableInt:u32Ch <- $r1
	@DEBUG_VALUE: PDMA_EnableInt:pdma <- $r0
	.loc	2 468 9 is_stmt 1               @ ../../../../Library/StdDriver/src/pdma.c:468:9
	lsls	r3, r2, #30
	bpl	.LBB10_4
.Ltmp137:
@ %bb.3:
	@DEBUG_VALUE: PDMA_EnableInt:u32Mask <- $r2
	@DEBUG_VALUE: PDMA_EnableInt:u32Ch <- $r1
	@DEBUG_VALUE: PDMA_EnableInt:pdma <- $r0
	.loc	2 470 9                         @ ../../../../Library/StdDriver/src/pdma.c:470:9
	lsl.w	r12, r1, #4
	.loc	2 470 33 is_stmt 0              @ ../../../../Library/StdDriver/src/pdma.c:470:33
	ldr.w	r3, [r0, r12]
	bic	r3, r3, #128
	str.w	r3, [r0, r12]
.Ltmp138:
.LBB10_4:
	@DEBUG_VALUE: PDMA_EnableInt:u32Mask <- $r2
	@DEBUG_VALUE: PDMA_EnableInt:u32Ch <- $r1
	@DEBUG_VALUE: PDMA_EnableInt:pdma <- $r0
	.loc	2 473 9 is_stmt 1               @ ../../../../Library/StdDriver/src/pdma.c:473:9
	lsls	r2, r2, #29
.Ltmp139:
	@DEBUG_VALUE: PDMA_EnableInt:u32Mask <- [DW_OP_LLVM_entry_value 1] $r2
	.loc	2 477 1                         @ ../../../../Library/StdDriver/src/pdma.c:477:1
	it	pl
	bxpl	lr
.Ltmp140:
.LBB10_5:
	@DEBUG_VALUE: PDMA_EnableInt:u32Mask <- [DW_OP_LLVM_entry_value 1] $r2
	@DEBUG_VALUE: PDMA_EnableInt:u32Ch <- $r1
	@DEBUG_VALUE: PDMA_EnableInt:pdma <- $r0
	.loc	2 0 1 is_stmt 0                 @ ../../../../Library/StdDriver/src/pdma.c:0:1
	movs	r2, #1
.Ltmp141:
	.loc	2 475 25 is_stmt 1              @ ../../../../Library/StdDriver/src/pdma.c:475:25
	ldr.w	r3, [r0, #1080]
	.loc	2 475 33 is_stmt 0              @ ../../../../Library/StdDriver/src/pdma.c:475:33
	lsl.w	r1, r2, r1
.Ltmp142:
	@DEBUG_VALUE: PDMA_EnableInt:u32Ch <- [DW_OP_LLVM_entry_value 1] $r1
	.loc	2 475 25                        @ ../../../../Library/StdDriver/src/pdma.c:475:25
	orrs	r1, r3
	str.w	r1, [r0, #1080]
.Ltmp143:
	.loc	2 477 1 is_stmt 1               @ ../../../../Library/StdDriver/src/pdma.c:477:1
	bx	lr
.Ltmp144:
.Lfunc_end10:
	.size	PDMA_EnableInt, .Lfunc_end10-PDMA_EnableInt
	.cfi_endproc
	.cantunwind
	.fnend
                                        @ -- End function
	.section	.text.PDMA_DisableInt,"ax",%progbits
	.hidden	PDMA_DisableInt                 @ -- Begin function PDMA_DisableInt
	.globl	PDMA_DisableInt
	.p2align	2
	.type	PDMA_DisableInt,%function
	.code	16                              @ @PDMA_DisableInt
	.thumb_func
PDMA_DisableInt:
.Lfunc_begin11:
	.fnstart
	.cfi_startproc
@ %bb.0:
	@DEBUG_VALUE: PDMA_DisableInt:pdma <- $r0
	@DEBUG_VALUE: PDMA_DisableInt:u32Ch <- $r1
	@DEBUG_VALUE: PDMA_DisableInt:u32Mask <- $r2
	.loc	2 493 9 prologue_end            @ ../../../../Library/StdDriver/src/pdma.c:493:9
	lsls	r3, r2, #31
	beq	.LBB11_2
.Ltmp145:
@ %bb.1:
	@DEBUG_VALUE: PDMA_DisableInt:u32Mask <- $r2
	@DEBUG_VALUE: PDMA_DisableInt:u32Ch <- $r1
	@DEBUG_VALUE: PDMA_DisableInt:pdma <- $r0
	.save	{r7, lr}
	push	{r7, lr}
	.cfi_def_cfa_offset 8
	.cfi_offset lr, -4
	.cfi_offset r7, -8
	mov.w	r12, #1
.Ltmp146:
	.loc	2 495 23                        @ ../../../../Library/StdDriver/src/pdma.c:495:23
	ldr.w	lr, [r0, #1048]
	.loc	2 495 32 is_stmt 0              @ ../../../../Library/StdDriver/src/pdma.c:495:32
	lsl.w	r3, r12, r1
	.loc	2 495 23                        @ ../../../../Library/StdDriver/src/pdma.c:495:23
	bic.w	r3, lr, r3
	str.w	r3, [r0, #1048]
	pop.w	{r7, lr}
.Ltmp147:
.LBB11_2:
	@DEBUG_VALUE: PDMA_DisableInt:u32Mask <- $r2
	@DEBUG_VALUE: PDMA_DisableInt:u32Ch <- $r1
	@DEBUG_VALUE: PDMA_DisableInt:pdma <- $r0
	.loc	2 498 9 is_stmt 1               @ ../../../../Library/StdDriver/src/pdma.c:498:9
	lsls	r3, r2, #30
	bpl	.LBB11_4
.Ltmp148:
@ %bb.3:
	@DEBUG_VALUE: PDMA_DisableInt:u32Mask <- $r2
	@DEBUG_VALUE: PDMA_DisableInt:u32Ch <- $r1
	@DEBUG_VALUE: PDMA_DisableInt:pdma <- $r0
	.loc	2 500 9                         @ ../../../../Library/StdDriver/src/pdma.c:500:9
	lsl.w	r12, r1, #4
	.loc	2 500 33 is_stmt 0              @ ../../../../Library/StdDriver/src/pdma.c:500:33
	ldr.w	r3, [r0, r12]
	orr	r3, r3, #128
	str.w	r3, [r0, r12]
.Ltmp149:
.LBB11_4:
	@DEBUG_VALUE: PDMA_DisableInt:u32Mask <- $r2
	@DEBUG_VALUE: PDMA_DisableInt:u32Ch <- $r1
	@DEBUG_VALUE: PDMA_DisableInt:pdma <- $r0
	.loc	2 503 9 is_stmt 1               @ ../../../../Library/StdDriver/src/pdma.c:503:9
	lsls	r2, r2, #29
.Ltmp150:
	@DEBUG_VALUE: PDMA_DisableInt:u32Mask <- [DW_OP_LLVM_entry_value 1] $r2
	.loc	2 507 1                         @ ../../../../Library/StdDriver/src/pdma.c:507:1
	it	pl
	bxpl	lr
.Ltmp151:
.LBB11_5:
	@DEBUG_VALUE: PDMA_DisableInt:u32Mask <- [DW_OP_LLVM_entry_value 1] $r2
	@DEBUG_VALUE: PDMA_DisableInt:u32Ch <- $r1
	@DEBUG_VALUE: PDMA_DisableInt:pdma <- $r0
	.loc	2 0 1 is_stmt 0                 @ ../../../../Library/StdDriver/src/pdma.c:0:1
	movs	r2, #1
.Ltmp152:
	.loc	2 505 25 is_stmt 1              @ ../../../../Library/StdDriver/src/pdma.c:505:25
	ldr.w	r3, [r0, #1080]
	.loc	2 505 34 is_stmt 0              @ ../../../../Library/StdDriver/src/pdma.c:505:34
	lsl.w	r1, r2, r1
.Ltmp153:
	@DEBUG_VALUE: PDMA_DisableInt:u32Ch <- [DW_OP_LLVM_entry_value 1] $r1
	.loc	2 505 25                        @ ../../../../Library/StdDriver/src/pdma.c:505:25
	bic.w	r1, r3, r1
	str.w	r1, [r0, #1080]
.Ltmp154:
	.loc	2 507 1 is_stmt 1               @ ../../../../Library/StdDriver/src/pdma.c:507:1
	bx	lr
.Ltmp155:
.Lfunc_end11:
	.size	PDMA_DisableInt, .Lfunc_end11-PDMA_DisableInt
	.cfi_endproc
	.cantunwind
	.fnend
                                        @ -- End function
	.type	u32ChSelect,%object             @ @u32ChSelect
	.section	.bss.u32ChSelect,"aw",%nobits
	.p2align	2, 0x0
u32ChSelect:
	.zero	64
	.size	u32ChSelect, 64

	.file	4 "C:\\Users\\jimmy\\Desktop\\Nuvoton\\Nuvoton-Team-2\\repos\\m55m1-ElevatorCounting-YOLOv8n\\KEIL" "../../../../Library/Device/Nuvoton/M55M1/Include\\pdma_reg.h"
	.section	".note.GNU-stack","",%progbits
	.eabi_attribute	30, 1	@ Tag_ABI_optimization_goals
	.ARM_attribute	16, 1	@ Tag_AV_eba