	.text
	.syntax unified
	.eabi_attribute	67, "2.09"	@ Tag_conformance
	.cpu	cortex-m55
	.eabi_attribute	6, 21	@ Tag_CPU_arch
	.eabi_attribute	7, 77	@ Tag_CPU_arch_profile
	.eabi_attribute	8, 0	@ Tag_ARM_ISA_use
	.eabi_attribute	9, 3	@ Tag_THUMB_ISA_use
	.fpu	fpv5-d16
	.arch_extension	mve.fp
	.eabi_attribute	36, 1	@ Tag_FP_HP_extension
	.eabi_attribute	48, 2	@ Tag_MVE_arch
	.eabi_attribute	46, 1	@ Tag_DSP_extension
	.eabi_attribute	34, 1	@ Tag_CPU_unaligned_access
	.eabi_attribute	17, 1	@ Tag_ABI_PCS_GOT_use
	.eabi_attribute	20, 2	@ Tag_ABI_FP_denormal
	.eabi_attribute	21, 0	@ Tag_ABI_FP_exceptions
	.eabi_attribute	23, 1	@ Tag_ABI_FP_number_model
	.eabi_attribute	24, 1	@ Tag_ABI_align_needed
	.eabi_attribute	25, 1	@ Tag_ABI_align_preserved
	.eabi_attribute	28, 1	@ Tag_ABI_VFP_args
	.eabi_attribute	38, 1	@ Tag_ABI_FP_16bit_format
	.eabi_attribute	18, 2	@ Tag_ABI_PCS_wchar_t
	.eabi_attribute	26, 1	@ Tag_ABI_enum_size
	.eabi_attribute	14, 0	@ Tag_ABI_PCS_R9_use
	.file	"pmu_counter.c"
	.file	1 "C:\\Users\\jimmy\\Desktop\\Nuvoton\\Nuvoton-Team-2\\repos\\m55m1-ElevatorCounting-YOLOv8n\\KEIL" "../ProfilerCounter/pmu_counter.c"
	.file	2 "C:\\Users\\jimmy" "AppData\\Local\\Keil_v5\\ARM\\ARMCLANG\\bin\\..\\include\\stdint.h"
	.file	3 "C:\\Users\\jimmy\\Desktop\\Nuvoton\\Nuvoton-Team-2\\repos\\m55m1-ElevatorCounting-YOLOv8n\\KEIL" "../../../../Library/StdDriver/inc/npu\\pmu_ethosu.h"
	.file	4 "C:\\Users\\jimmy\\Desktop\\Nuvoton\\Nuvoton-Team-2\\repos\\m55m1-ElevatorCounting-YOLOv8n\\KEIL" "../../../../Library/Device/Nuvoton/M55M1/Include\\M55M1.h"
	.file	5 "C:\\Users\\jimmy\\Desktop\\Nuvoton\\Nuvoton-Team-2\\repos\\m55m1-ElevatorCounting-YOLOv8n\\KEIL" "../../../../Library/CMSIS/Core/Include\\core_cm55.h"
	.file	6 "C:\\Users\\jimmy\\Desktop\\Nuvoton\\Nuvoton-Team-2\\repos\\m55m1-ElevatorCounting-YOLOv8n\\KEIL" "../../../../Library/Device/Nuvoton/M55M1/Include\\ccap_reg.h"
	.section	.text.SysTick_Handler,"ax",%progbits
	.hidden	SysTick_Handler                 @ -- Begin function SysTick_Handler
	.globl	SysTick_Handler
	.p2align	2
	.type	SysTick_Handler,%function
	.code	16                              @ @SysTick_Handler
	.thumb_func
SysTick_Handler:
.Lfunc_begin0:
	.loc	1 112 0                         @ ../ProfilerCounter/pmu_counter.c:112:0
	.fnstart
	.cfi_sections .debug_frame
	.cfi_startproc
@ %bb.0:
	movw	r0, #57364
.Ltmp0:
	.loc	1 114 24 prologue_end           @ ../ProfilerCounter/pmu_counter.c:114:24
	movw	r1, :lower16:s_u64CPUCycleCount
	movt	r0, #57344
	movt	r1, :upper16:s_u64CPUCycleCount
	.loc	1 114 36 is_stmt 0              @ ../ProfilerCounter/pmu_counter.c:114:36
	ldr	r0, [r0]
	.loc	1 114 24                        @ ../ProfilerCounter/pmu_counter.c:114:24
	ldrd	r2, r3, [r1]
	.loc	1 114 41                        @ ../ProfilerCounter/pmu_counter.c:114:41
	adds	r0, #1
	.loc	1 114 24                        @ ../ProfilerCounter/pmu_counter.c:114:24
	adds	r0, r0, r2
	adc	r2, r3, #0
	strd	r0, r2, [r1]
	.loc	1 115 5 is_stmt 1               @ ../ProfilerCounter/pmu_counter.c:115:5
	dsb	sy
	.loc	1 116 5                         @ ../ProfilerCounter/pmu_counter.c:116:5
	isb	sy
	.loc	1 117 1                         @ ../ProfilerCounter/pmu_counter.c:117:1
	bx	lr
.Ltmp1:
.Lfunc_end0:
	.size	SysTick_Handler, .Lfunc_end0-SysTick_Handler
	.cfi_endproc
	.cantunwind
	.fnend
                                        @ -- End function
	.section	.text.FreeRTOS_TickHook,"ax",%progbits
	.hidden	FreeRTOS_TickHook               @ -- Begin function FreeRTOS_TickHook
	.globl	FreeRTOS_TickHook
	.p2align	2
	.type	FreeRTOS_TickHook,%function
	.code	16                              @ @FreeRTOS_TickHook
	.thumb_func
FreeRTOS_TickHook:
.Lfunc_begin1:
	.loc	1 121 0                         @ ../ProfilerCounter/pmu_counter.c:121:0
	.fnstart
	.cfi_startproc
@ %bb.0:
	@DEBUG_VALUE: FreeRTOS_TickHook:u32CurrentTickCnt <- $r0
	movw	r1, #57364
.Ltmp2:
	.loc	1 122 24 prologue_end           @ ../ProfilerCounter/pmu_counter.c:122:24
	movw	r2, :lower16:s_u64CPUCycleCount
	movt	r1, #57344
	.loc	1 122 66 is_stmt 0              @ ../ProfilerCounter/pmu_counter.c:122:66
	ldr	r1, [r1]
	.loc	1 122 24                        @ ../ProfilerCounter/pmu_counter.c:122:24
	movt	r2, :upper16:s_u64CPUCycleCount
	.loc	1 122 71                        @ ../ProfilerCounter/pmu_counter.c:122:71
	adds	r1, #1
	.loc	1 122 54                        @ ../ProfilerCounter/pmu_counter.c:122:54
	umull	r0, r1, r1, r0
.Ltmp3:
	@DEBUG_VALUE: FreeRTOS_TickHook:u32CurrentTickCnt <- [DW_OP_LLVM_entry_value 1] $r0
	.loc	1 122 24                        @ ../ProfilerCounter/pmu_counter.c:122:24
	strd	r0, r1, [r2]
	.loc	1 123 1 is_stmt 1               @ ../ProfilerCounter/pmu_counter.c:123:1
	bx	lr
.Ltmp4:
.Lfunc_end1:
	.size	FreeRTOS_TickHook, .Lfunc_end1-FreeRTOS_TickHook
	.cfi_endproc
	.cantunwind
	.fnend
                                        @ -- End function
	.section	.text.pmu_reset_counters,"ax",%progbits
	.hidden	pmu_reset_counters              @ -- Begin function pmu_reset_counters
	.globl	pmu_reset_counters
	.p2align	2
	.type	pmu_reset_counters,%function
	.code	16                              @ @pmu_reset_counters
	.thumb_func
pmu_reset_counters:
.Lfunc_begin2:
	.loc	1 127 0                         @ ../ProfilerCounter/pmu_counter.c:127:0
	.fnstart
	.cfi_startproc
@ %bb.0:
	.save	{r7, lr}
	push	{r7, lr}
	.cfi_def_cfa_offset 8
	.cfi_offset lr, -4
	.cfi_offset r7, -8
.Ltmp5:
	@DEBUG_VALUE: Init_SysTick:err <- 0
	.loc	1 83 9 prologue_end             @ ../ProfilerCounter/pmu_counter.c:83:9
	movw	r0, :lower16:s_bSysTickInit
	movt	r0, :upper16:s_bSysTickInit
	ldrb	r1, [r0]
.Ltmp6:
	.loc	1 83 9 is_stmt 0                @ ../ProfilerCounter/pmu_counter.c:83:9
	cmp	r1, #0
	bne	.LBB2_10
.Ltmp7:
@ %bb.1:
	@DEBUG_VALUE: Init_SysTick:err <- 0
	.loc	1 80 33 is_stmt 1               @ ../ProfilerCounter/pmu_counter.c:80:33
	movw	r1, :lower16:SystemCoreClock
	.loc	1 87 24                         @ ../ProfilerCounter/pmu_counter.c:87:24
	movw	r3, :lower16:s_u64CPUCycleCount
	.loc	1 80 33                         @ ../ProfilerCounter/pmu_counter.c:80:33
	movt	r1, :upper16:SystemCoreClock
	ldr	r1, [r1]
.Ltmp8:
	@DEBUG_VALUE: Init_SysTick:ticks_10ms <- undef
	.loc	1 87 24                         @ ../ProfilerCounter/pmu_counter.c:87:24
	movt	r3, :upper16:s_u64CPUCycleCount
.Ltmp9:
	.loc	5 4760 7                        @ ../../../../Library/CMSIS/Core/Include\core_cm55.h:4760:7
	lsrs	r2, r1, #26
	cmp	r2, #24
	mov.w	r2, #0
.Ltmp10:
	@DEBUG_VALUE: SysTick_Config:ticks <- undef
	.loc	1 87 24                         @ ../ProfilerCounter/pmu_counter.c:87:24
	strd	r2, r2, [r3]
.Ltmp11:
	.loc	5 4760 7                        @ ../../../../Library/CMSIS/Core/Include\core_cm55.h:4760:7
	bhi	.LBB2_8
.Ltmp12:
@ %bb.2:
	@DEBUG_VALUE: Init_SysTick:err <- 0
	.loc	5 0 7 is_stmt 0                 @ ../../../../Library/CMSIS/Core/Include\core_cm55.h:0:7
	movw	r3, #34079
	movw	r12, #60707
	movt	r3, #20971
	.loc	1 80 49 is_stmt 1               @ ../ProfilerCounter/pmu_counter.c:80:49
	umull	r1, r3, r1, r3
	movw	r1, #57368
	movt	r12, #57344
	movt	r1, #57344
	lsrs	r3, r3, #5
.Ltmp13:
	@DEBUG_VALUE: SysTick_Config:ticks <- [DW_OP_plus_uconst 1, DW_OP_stack_value] $r3
	@DEBUG_VALUE: Init_SysTick:ticks_10ms <- [DW_OP_plus_uconst 1, DW_OP_stack_value] $r3
	.loc	5 4765 18                       @ ../../../../Library/CMSIS/Core/Include\core_cm55.h:4765:18
	str	r3, [r1, #-4]
	movs	r3, #224
.Ltmp14:
	@DEBUG_VALUE: __NVIC_SetPriority:priority <- 7
	@DEBUG_VALUE: __NVIC_SetPriority:IRQn <- -1
	.loc	5 4110 47                       @ ../../../../Library/CMSIS/Core/Include\core_cm55.h:4110:47
	strb.w	r3, [r12]
.Ltmp15:
	.loc	5 4767 18                       @ ../../../../Library/CMSIS/Core/Include\core_cm55.h:4767:18
	str	r2, [r1]
	movs	r2, #7
	.loc	5 4768 18                       @ ../../../../Library/CMSIS/Core/Include\core_cm55.h:4768:18
	str	r2, [r1, #-8]
.Ltmp16:
	@DEBUG_VALUE: Init_SysTick:err <- 0
.LBB2_3:                                @ =>This Inner Loop Header: Depth=1
	@DEBUG_VALUE: Init_SysTick:err <- 0
	.loc	1 97 30                         @ ../ProfilerCounter/pmu_counter.c:97:30
	ldr	r2, [r1]
	.loc	1 97 5 is_stmt 0                @ ../ProfilerCounter/pmu_counter.c:97:5
	cbnz	r2, .LBB2_9
.Ltmp17:
@ %bb.4:                                @   in Loop: Header=BB2_3 Depth=1
	@DEBUG_VALUE: Init_SysTick:err <- 0
	.loc	1 99 9 is_stmt 1                @ ../ProfilerCounter/pmu_counter.c:99:9
	nop
.Ltmp18:
	.loc	1 97 30                         @ ../ProfilerCounter/pmu_counter.c:97:30
	ldr	r2, [r1]
	.loc	1 97 5 is_stmt 0                @ ../ProfilerCounter/pmu_counter.c:97:5
	cbnz	r2, .LBB2_9
.Ltmp19:
@ %bb.5:                                @   in Loop: Header=BB2_3 Depth=1
	@DEBUG_VALUE: Init_SysTick:err <- 0
	.loc	1 99 9 is_stmt 1                @ ../ProfilerCounter/pmu_counter.c:99:9
	nop
.Ltmp20:
	.loc	1 97 30                         @ ../ProfilerCounter/pmu_counter.c:97:30
	ldr	r2, [r1]
	.loc	1 97 5 is_stmt 0                @ ../ProfilerCounter/pmu_counter.c:97:5
	cbnz	r2, .LBB2_9
.Ltmp21:
@ %bb.6:                                @   in Loop: Header=BB2_3 Depth=1
	@DEBUG_VALUE: Init_SysTick:err <- 0
	.loc	1 99 9 is_stmt 1                @ ../ProfilerCounter/pmu_counter.c:99:9
	nop
.Ltmp22:
	.loc	1 97 30                         @ ../ProfilerCounter/pmu_counter.c:97:30
	ldr	r2, [r1]
	.loc	1 97 5 is_stmt 0                @ ../ProfilerCounter/pmu_counter.c:97:5
	cbnz	r2, .LBB2_9
.Ltmp23:
@ %bb.7:                                @   in Loop: Header=BB2_3 Depth=1
	@DEBUG_VALUE: Init_SysTick:err <- 0
	.loc	1 99 9 is_stmt 1                @ ../ProfilerCounter/pmu_counter.c:99:9
	nop
.Ltmp24:
	.loc	1 97 30                         @ ../ProfilerCounter/pmu_counter.c:97:30
	b	.LBB2_3
.Ltmp25:
.LBB2_8:
	@DEBUG_VALUE: Init_SysTick:err <- 0
	.loc	1 0 30 is_stmt 0                @ ../ProfilerCounter/pmu_counter.c:0:30
	movs	r1, #1
	.loc	1 102 20 is_stmt 1              @ ../ProfilerCounter/pmu_counter.c:102:20
	strb	r1, [r0]
.Ltmp26:
	.loc	1 130 9                         @ ../ProfilerCounter/pmu_counter.c:130:9
	movw	r0, :lower16:.L.str
	movt	r0, :upper16:.L.str
	bl	__2printf
.Ltmp27:
	adr	r0, .LCPI2_0
	.loc	1 130 9 epilogue_begin is_stmt 0 @ ../ProfilerCounter/pmu_counter.c:130:9
	pop.w	{r7, lr}
.Ltmp28:
	b	puts
.Ltmp29:
.LBB2_9:
	@DEBUG_VALUE: Init_SysTick:err <- 0
	.loc	1 0 9                           @ ../ProfilerCounter/pmu_counter.c:0:9
	movs	r1, #1
.Ltmp30:
	.loc	1 102 20 is_stmt 1              @ ../ProfilerCounter/pmu_counter.c:102:20
	strb	r1, [r0]
.Ltmp31:
.LBB2_10:
	.loc	1 135 5 epilogue_begin          @ ../ProfilerCounter/pmu_counter.c:135:5
	pop.w	{r7, lr}
.Ltmp32:
	b	ethosu_pmu_init
.Ltmp33:
	.loc	1 0 5 is_stmt 0                 @ :0:5
.Ltmp34:
	.p2align	2
@ %bb.11:
.LCPI2_0:
.Lstr:
	.asciz	"Failed to initialise system tick config"
.Lfunc_end2:
	.size	pmu_reset_counters, .Lfunc_end2-pmu_reset_counters
	.cfi_endproc
	.file	7 "C:\\Users\\jimmy\\Desktop\\Nuvoton\\Nuvoton-Team-2\\repos\\m55m1-ElevatorCounting-YOLOv8n\\KEIL" "../NPU/include\\ethosu_profiler.h"
	.cantunwind
	.fnend
                                        @ -- End function
	.section	.text.pmu_get_counters,"ax",%progbits
	.hidden	pmu_get_counters                @ -- Begin function pmu_get_counters
	.globl	pmu_get_counters
	.p2align	2
	.type	pmu_get_counters,%function
	.code	16                              @ @pmu_get_counters
	.thumb_func
pmu_get_counters:
.Lfunc_begin3:
	.loc	1 141 0 is_stmt 1               @ ../ProfilerCounter/pmu_counter.c:141:0
	.fnstart
	.cfi_startproc
@ %bb.0:
	@DEBUG_VALUE: pmu_get_counters:counters <- $r0
	.save	{r4, r5, r6, r7, lr}
	push	{r4, r5, r6, r7, lr}
	.cfi_def_cfa_offset 20
	.cfi_offset lr, -4
	.cfi_offset r7, -8
	.cfi_offset r6, -12
	.cfi_offset r5, -16
	.cfi_offset r4, -20
	.pad	#108
	sub	sp, #108
	.cfi_def_cfa_offset 128
	movs	r7, #0
	mov	r4, r0
.Ltmp35:
	@DEBUG_VALUE: pmu_get_counters:counters <- $r4
	.loc	1 142 28 prologue_end           @ ../ProfilerCounter/pmu_counter.c:142:28
	str.w	r7, [r0, #160]
	movs	r0, #1
	.loc	1 143 27                        @ ../ProfilerCounter/pmu_counter.c:143:27
	strb.w	r0, [r4, #164]
.Ltmp36:
	@DEBUG_VALUE: pmu_get_counters:i <- 0
	.loc	1 0 27 is_stmt 0                @ ../ProfilerCounter/pmu_counter.c:0:27
	mov	r0, sp
	.loc	1 146 40 is_stmt 1              @ ../ProfilerCounter/pmu_counter.c:146:40
	bl	ethosu_get_pmu_counters
.Ltmp37:
	@DEBUG_VALUE: add_pmu_counter:counters <- $r4
	.loc	1 48 36                         @ ../ProfilerCounter/pmu_counter.c:48:36
	ldr.w	r0, [r4, #160]
.Ltmp38:
	@DEBUG_VALUE: add_pmu_counter:idx <- $r0
	.loc	1 50 9                          @ ../ProfilerCounter/pmu_counter.c:50:9
	cmp	r0, #9
	bhi	.LBB3_6
.Ltmp39:
@ %bb.1:
	@DEBUG_VALUE: add_pmu_counter:idx <- $r0
	@DEBUG_VALUE: add_pmu_counter:counters <- $r4
	@DEBUG_VALUE: pmu_get_counters:i <- 0
	@DEBUG_VALUE: pmu_get_counters:counters <- $r4
	.loc	1 151 46                        @ ../ProfilerCounter/pmu_counter.c:151:46
	add	r3, sp, #16
.Ltmp40:
	.loc	1 52 9                          @ ../ProfilerCounter/pmu_counter.c:52:9
	lsls	r5, r0, #4
.Ltmp41:
	.loc	1 151 46                        @ ../ProfilerCounter/pmu_counter.c:151:46
	ldm	r3, {r1, r2, r3}
.Ltmp42:
	@DEBUG_VALUE: add_pmu_counter:value <- [DW_OP_LLVM_fragment 0 32] $r1
	@DEBUG_VALUE: add_pmu_counter:name <- $r3
	@DEBUG_VALUE: add_pmu_counter:unit <- $r2
	.loc	1 52 9                          @ ../ProfilerCounter/pmu_counter.c:52:9
	add.w	r6, r4, r0, lsl #4
	.loc	1 55 9                          @ ../ProfilerCounter/pmu_counter.c:55:9
	adds	r0, #1
.Ltmp43:
	.loc	1 52 39                         @ ../ProfilerCounter/pmu_counter.c:52:39
	str	r1, [r4, r5]
.Ltmp44:
	@DEBUG_VALUE: add_pmu_counter:value <- [DW_OP_LLVM_fragment 32 32] $r7
	@DEBUG_VALUE: add_pmu_counter:value <- undef
	strd	r7, r3, [r6, #4]
	.loc	1 54 38                         @ ../ProfilerCounter/pmu_counter.c:54:38
	str	r2, [r6, #12]
	.loc	1 55 9                          @ ../ProfilerCounter/pmu_counter.c:55:9
	str.w	r0, [r4, #160]
.Ltmp45:
	@DEBUG_VALUE: pmu_get_counters:i <- 1
	@DEBUG_VALUE: add_pmu_counter:counters <- $r4
	@DEBUG_VALUE: add_pmu_counter:idx <- $r0
	@DEBUG_VALUE: add_pmu_counter:unit <- undef
	@DEBUG_VALUE: add_pmu_counter:name <- undef
	@DEBUG_VALUE: add_pmu_counter:value <- undef
	.loc	1 50 9                          @ ../ProfilerCounter/pmu_counter.c:50:9
	cmp	r0, #10
	blo	.LBB3_7
.Ltmp46:
.LBB3_2:
	@DEBUG_VALUE: pmu_get_counters:i <- 1
	@DEBUG_VALUE: add_pmu_counter:idx <- $r0
	@DEBUG_VALUE: add_pmu_counter:counters <- $r4
	@DEBUG_VALUE: pmu_get_counters:counters <- $r4
	.loc	1 59 5                          @ ../ProfilerCounter/pmu_counter.c:59:5
	movw	r0, :lower16:.L.str
.Ltmp47:
	movt	r0, :upper16:.L.str
	bl	__2printf
.Ltmp48:
	movw	r0, :lower16:.Lstr.6
	movt	r0, :upper16:.Lstr.6
	bl	puts
.Ltmp49:
	.loc	1 48 36                         @ ../ProfilerCounter/pmu_counter.c:48:36
	ldr.w	r0, [r4, #160]
.Ltmp50:
	@DEBUG_VALUE: pmu_get_counters:i <- 2
	@DEBUG_VALUE: add_pmu_counter:counters <- $r4
	@DEBUG_VALUE: add_pmu_counter:idx <- $r0
	@DEBUG_VALUE: add_pmu_counter:unit <- undef
	@DEBUG_VALUE: add_pmu_counter:name <- undef
	@DEBUG_VALUE: add_pmu_counter:value <- undef
	.loc	1 50 9                          @ ../ProfilerCounter/pmu_counter.c:50:9
	cmp	r0, #10
	blo	.LBB3_8
.Ltmp51:
.LBB3_3:
	@DEBUG_VALUE: pmu_get_counters:i <- 2
	@DEBUG_VALUE: add_pmu_counter:idx <- $r0
	@DEBUG_VALUE: add_pmu_counter:counters <- $r4
	@DEBUG_VALUE: pmu_get_counters:counters <- $r4
	.loc	1 59 5                          @ ../ProfilerCounter/pmu_counter.c:59:5
	movw	r0, :lower16:.L.str
.Ltmp52:
	movt	r0, :upper16:.L.str
	bl	__2printf
.Ltmp53:
	movw	r0, :lower16:.Lstr.6
	movt	r0, :upper16:.Lstr.6
	bl	puts
.Ltmp54:
	.loc	1 48 36                         @ ../ProfilerCounter/pmu_counter.c:48:36
	ldr.w	r0, [r4, #160]
.Ltmp55:
	@DEBUG_VALUE: pmu_get_counters:i <- 3
	@DEBUG_VALUE: add_pmu_counter:counters <- $r4
	@DEBUG_VALUE: add_pmu_counter:idx <- $r0
	@DEBUG_VALUE: add_pmu_counter:unit <- undef
	@DEBUG_VALUE: add_pmu_counter:name <- undef
	@DEBUG_VALUE: add_pmu_counter:value <- undef
	.loc	1 50 9                          @ ../ProfilerCounter/pmu_counter.c:50:9
	cmp	r0, #10
	blo	.LBB3_9
.Ltmp56:
.LBB3_4:
	@DEBUG_VALUE: pmu_get_counters:i <- 3
	@DEBUG_VALUE: add_pmu_counter:idx <- $r0
	@DEBUG_VALUE: add_pmu_counter:counters <- $r4
	@DEBUG_VALUE: pmu_get_counters:counters <- $r4
	.loc	1 59 5                          @ ../ProfilerCounter/pmu_counter.c:59:5
	movw	r0, :lower16:.L.str
.Ltmp57:
	movt	r0, :upper16:.L.str
	bl	__2printf
.Ltmp58:
	movw	r0, :lower16:.Lstr.6
	movt	r0, :upper16:.Lstr.6
	bl	puts
.Ltmp59:
	.loc	1 48 36                         @ ../ProfilerCounter/pmu_counter.c:48:36
	ldr.w	r0, [r4, #160]
.Ltmp60:
	@DEBUG_VALUE: pmu_get_counters:i <- undef
	@DEBUG_VALUE: add_pmu_counter:value <- undef
	@DEBUG_VALUE: add_pmu_counter:name <- undef
	@DEBUG_VALUE: add_pmu_counter:unit <- undef
	@DEBUG_VALUE: add_pmu_counter:counters <- $r4
	@DEBUG_VALUE: add_pmu_counter:idx <- $r0
	.loc	1 50 9                          @ ../ProfilerCounter/pmu_counter.c:50:9
	cmp	r0, #9
	bls	.LBB3_10
.Ltmp61:
.LBB3_5:
	@DEBUG_VALUE: add_pmu_counter:idx <- $r0
	@DEBUG_VALUE: add_pmu_counter:counters <- $r4
	@DEBUG_VALUE: pmu_get_counters:counters <- $r4
	.loc	1 59 5                          @ ../ProfilerCounter/pmu_counter.c:59:5
	movw	r0, :lower16:.L.str
.Ltmp62:
	movt	r0, :upper16:.L.str
	bl	__2printf
.Ltmp63:
	movw	r0, :lower16:.Lstr.6
	movt	r0, :upper16:.Lstr.6
	bl	puts
.Ltmp64:
	.loc	1 48 36                         @ ../ProfilerCounter/pmu_counter.c:48:36
	ldr.w	r0, [r4, #160]
	b	.LBB3_11
.Ltmp65:
.LBB3_6:
	@DEBUG_VALUE: add_pmu_counter:idx <- $r0
	@DEBUG_VALUE: add_pmu_counter:counters <- $r4
	@DEBUG_VALUE: pmu_get_counters:i <- 0
	@DEBUG_VALUE: pmu_get_counters:counters <- $r4
	.loc	1 59 5                          @ ../ProfilerCounter/pmu_counter.c:59:5
	movw	r0, :lower16:.L.str
.Ltmp66:
	movt	r0, :upper16:.L.str
	bl	__2printf
.Ltmp67:
	movw	r0, :lower16:.Lstr.6
	movt	r0, :upper16:.Lstr.6
	bl	puts
.Ltmp68:
	.loc	1 48 36                         @ ../ProfilerCounter/pmu_counter.c:48:36
	ldr.w	r0, [r4, #160]
.Ltmp69:
	@DEBUG_VALUE: pmu_get_counters:i <- 1
	@DEBUG_VALUE: add_pmu_counter:counters <- $r4
	@DEBUG_VALUE: add_pmu_counter:idx <- $r0
	@DEBUG_VALUE: add_pmu_counter:unit <- undef
	@DEBUG_VALUE: add_pmu_counter:name <- undef
	@DEBUG_VALUE: add_pmu_counter:value <- undef
	.loc	1 50 9                          @ ../ProfilerCounter/pmu_counter.c:50:9
	cmp	r0, #10
	bhs	.LBB3_2
.Ltmp70:
.LBB3_7:
	@DEBUG_VALUE: pmu_get_counters:i <- 1
	@DEBUG_VALUE: add_pmu_counter:idx <- $r0
	@DEBUG_VALUE: add_pmu_counter:counters <- $r4
	@DEBUG_VALUE: pmu_get_counters:counters <- $r4
	.loc	1 151 46                        @ ../ProfilerCounter/pmu_counter.c:151:46
	add	r3, sp, #36
.Ltmp71:
	.loc	1 52 9                          @ ../ProfilerCounter/pmu_counter.c:52:9
	lsls	r6, r0, #4
.Ltmp72:
	.loc	1 151 46                        @ ../ProfilerCounter/pmu_counter.c:151:46
	ldm	r3, {r1, r2, r3}
.Ltmp73:
	@DEBUG_VALUE: add_pmu_counter:value <- [DW_OP_LLVM_fragment 0 32] $r1
	@DEBUG_VALUE: add_pmu_counter:name <- $r3
	@DEBUG_VALUE: add_pmu_counter:unit <- $r2
	.loc	1 52 9                          @ ../ProfilerCounter/pmu_counter.c:52:9
	add.w	r7, r4, r0, lsl #4
	.loc	1 52 39 is_stmt 0               @ ../ProfilerCounter/pmu_counter.c:52:39
	str	r1, [r4, r6]
	movs	r1, #0
.Ltmp74:
	@DEBUG_VALUE: add_pmu_counter:value <- [DW_OP_LLVM_fragment 32 32] $r1
	@DEBUG_VALUE: add_pmu_counter:value <- undef
	.loc	1 55 9 is_stmt 1                @ ../ProfilerCounter/pmu_counter.c:55:9
	adds	r0, #1
.Ltmp75:
	.loc	1 54 38                         @ ../ProfilerCounter/pmu_counter.c:54:38
	str	r2, [r7, #12]
	.loc	1 52 39                         @ ../ProfilerCounter/pmu_counter.c:52:39
	strd	r1, r3, [r7, #4]
	.loc	1 55 9                          @ ../ProfilerCounter/pmu_counter.c:55:9
	str.w	r0, [r4, #160]
.Ltmp76:
	@DEBUG_VALUE: pmu_get_counters:i <- 2
	@DEBUG_VALUE: add_pmu_counter:counters <- $r4
	@DEBUG_VALUE: add_pmu_counter:idx <- $r0
	@DEBUG_VALUE: add_pmu_counter:unit <- undef
	@DEBUG_VALUE: add_pmu_counter:name <- undef
	@DEBUG_VALUE: add_pmu_counter:value <- undef
	.loc	1 50 9                          @ ../ProfilerCounter/pmu_counter.c:50:9
	cmp	r0, #10
	bhs	.LBB3_3
.Ltmp77:
.LBB3_8:
	@DEBUG_VALUE: pmu_get_counters:i <- 2
	@DEBUG_VALUE: add_pmu_counter:idx <- $r0
	@DEBUG_VALUE: add_pmu_counter:counters <- $r4
	@DEBUG_VALUE: pmu_get_counters:counters <- $r4
	.loc	1 151 46                        @ ../ProfilerCounter/pmu_counter.c:151:46
	add	r3, sp, #56
.Ltmp78:
	.loc	1 52 9                          @ ../ProfilerCounter/pmu_counter.c:52:9
	lsls	r6, r0, #4
.Ltmp79:
	.loc	1 151 46                        @ ../ProfilerCounter/pmu_counter.c:151:46
	ldm	r3, {r1, r2, r3}
.Ltmp80:
	@DEBUG_VALUE: add_pmu_counter:value <- [DW_OP_LLVM_fragment 0 32] $r1
	@DEBUG_VALUE: add_pmu_counter:name <- $r3
	@DEBUG_VALUE: add_pmu_counter:unit <- $r2
	.loc	1 52 9                          @ ../ProfilerCounter/pmu_counter.c:52:9
	add.w	r7, r4, r0, lsl #4
	.loc	1 52 39 is_stmt 0               @ ../ProfilerCounter/pmu_counter.c:52:39
	str	r1, [r4, r6]
	movs	r1, #0
.Ltmp81:
	@DEBUG_VALUE: add_pmu_counter:value <- [DW_OP_LLVM_fragment 32 32] $r1
	@DEBUG_VALUE: add_pmu_counter:value <- undef
	.loc	1 55 9 is_stmt 1                @ ../ProfilerCounter/pmu_counter.c:55:9
	adds	r0, #1
.Ltmp82:
	.loc	1 54 38                         @ ../ProfilerCounter/pmu_counter.c:54:38
	str	r2, [r7, #12]
	.loc	1 52 39                         @ ../ProfilerCounter/pmu_counter.c:52:39
	strd	r1, r3, [r7, #4]
	.loc	1 55 9                          @ ../ProfilerCounter/pmu_counter.c:55:9
	str.w	r0, [r4, #160]
.Ltmp83:
	@DEBUG_VALUE: pmu_get_counters:i <- 3
	@DEBUG_VALUE: add_pmu_counter:counters <- $r4
	@DEBUG_VALUE: add_pmu_counter:idx <- $r0
	@DEBUG_VALUE: add_pmu_counter:unit <- undef
	@DEBUG_VALUE: add_pmu_counter:name <- undef
	@DEBUG_VALUE: add_pmu_counter:value <- undef
	.loc	1 50 9                          @ ../ProfilerCounter/pmu_counter.c:50:9
	cmp	r0, #10
	bhs	.LBB3_4
.Ltmp84:
.LBB3_9:
	@DEBUG_VALUE: pmu_get_counters:i <- 3
	@DEBUG_VALUE: add_pmu_counter:idx <- $r0
	@DEBUG_VALUE: add_pmu_counter:counters <- $r4
	@DEBUG_VALUE: pmu_get_counters:counters <- $r4
	.loc	1 151 46                        @ ../ProfilerCounter/pmu_counter.c:151:46
	add	r3, sp, #76
.Ltmp85:
	.loc	1 52 9                          @ ../ProfilerCounter/pmu_counter.c:52:9
	lsls	r6, r0, #4
.Ltmp86:
	.loc	1 151 46                        @ ../ProfilerCounter/pmu_counter.c:151:46
	ldm	r3, {r1, r2, r3}
.Ltmp87:
	@DEBUG_VALUE: add_pmu_counter:value <- [DW_OP_LLVM_fragment 0 32] $r1
	@DEBUG_VALUE: add_pmu_counter:name <- $r3
	@DEBUG_VALUE: add_pmu_counter:unit <- $r2
	.loc	1 52 9                          @ ../ProfilerCounter/pmu_counter.c:52:9
	add.w	r7, r4, r0, lsl #4
	.loc	1 52 39 is_stmt 0               @ ../ProfilerCounter/pmu_counter.c:52:39
	str	r1, [r4, r6]
	movs	r1, #0
.Ltmp88:
	@DEBUG_VALUE: add_pmu_counter:value <- [DW_OP_LLVM_fragment 32 32] $r1
	@DEBUG_VALUE: add_pmu_counter:value <- undef
	.loc	1 55 9 is_stmt 1                @ ../ProfilerCounter/pmu_counter.c:55:9
	adds	r0, #1
.Ltmp89:
	.loc	1 54 38                         @ ../ProfilerCounter/pmu_counter.c:54:38
	str	r2, [r7, #12]
	.loc	1 52 39                         @ ../ProfilerCounter/pmu_counter.c:52:39
	strd	r1, r3, [r7, #4]
	.loc	1 55 9                          @ ../ProfilerCounter/pmu_counter.c:55:9
	str.w	r0, [r4, #160]
.Ltmp90:
	@DEBUG_VALUE: pmu_get_counters:i <- undef
	@DEBUG_VALUE: add_pmu_counter:value <- undef
	@DEBUG_VALUE: add_pmu_counter:name <- undef
	@DEBUG_VALUE: add_pmu_counter:unit <- undef
	@DEBUG_VALUE: add_pmu_counter:counters <- $r4
	@DEBUG_VALUE: add_pmu_counter:idx <- $r0
	.loc	1 50 9                          @ ../ProfilerCounter/pmu_counter.c:50:9
	cmp	r0, #9
	bhi	.LBB3_5
.Ltmp91:
.LBB3_10:
	@DEBUG_VALUE: add_pmu_counter:idx <- $r0
	@DEBUG_VALUE: add_pmu_counter:counters <- $r4
	@DEBUG_VALUE: pmu_get_counters:counters <- $r4
	.loc	1 160 50                        @ ../ProfilerCounter/pmu_counter.c:160:50
	add	r3, sp, #88
.Ltmp92:
	.loc	1 52 9                          @ ../ProfilerCounter/pmu_counter.c:52:9
	lsls	r6, r0, #4
.Ltmp93:
	.loc	1 160 50                        @ ../ProfilerCounter/pmu_counter.c:160:50
	ldm	r3, {r1, r2, r3}
.Ltmp94:
	@DEBUG_VALUE: add_pmu_counter:value <- [DW_OP_LLVM_fragment 0 32] $r1
	@DEBUG_VALUE: add_pmu_counter:unit <- $r2
	@DEBUG_VALUE: add_pmu_counter:name <- $r3
	.loc	1 52 9                          @ ../ProfilerCounter/pmu_counter.c:52:9
	add.w	r7, r4, r0, lsl #4
	.loc	1 52 39 is_stmt 0               @ ../ProfilerCounter/pmu_counter.c:52:39
	str	r1, [r4, r6]
	movs	r1, #0
.Ltmp95:
	@DEBUG_VALUE: add_pmu_counter:value <- [DW_OP_LLVM_fragment 32 32] $r1
	@DEBUG_VALUE: add_pmu_counter:value <- undef
	.loc	1 55 9 is_stmt 1                @ ../ProfilerCounter/pmu_counter.c:55:9
	adds	r0, #1
.Ltmp96:
	.loc	1 54 38                         @ ../ProfilerCounter/pmu_counter.c:54:38
	str	r2, [r7, #12]
	.loc	1 52 39                         @ ../ProfilerCounter/pmu_counter.c:52:39
	strd	r1, r3, [r7, #4]
	.loc	1 55 9                          @ ../ProfilerCounter/pmu_counter.c:55:9
	str.w	r0, [r4, #160]
.Ltmp97:
.LBB3_11:
	@DEBUG_VALUE: pmu_get_counters:counters <- $r4
	@DEBUG_VALUE: pmu_get_counters:i <- undef
	@DEBUG_VALUE: add_pmu_counter:value <- undef
	@DEBUG_VALUE: add_pmu_counter:counters <- $r4
	@DEBUG_VALUE: add_pmu_counter:idx <- $r0
	.loc	1 0 9 is_stmt 0                 @ ../ProfilerCounter/pmu_counter.c:0:9
	movw	r6, :lower16:.L.str.3
.Ltmp98:
	.loc	1 50 9 is_stmt 1                @ ../ProfilerCounter/pmu_counter.c:50:9
	cmp	r0, #9
.Ltmp99:
	@DEBUG_VALUE: add_pmu_counter:unit <- undef
	@DEBUG_VALUE: add_pmu_counter:name <- undef
	.loc	1 0 9 is_stmt 0                 @ ../ProfilerCounter/pmu_counter.c:0:9
	movt	r6, :upper16:.L.str.3
	.loc	1 50 9                          @ ../ProfilerCounter/pmu_counter.c:50:9
	bhi	.LBB3_13
.Ltmp100:
@ %bb.12:
	@DEBUG_VALUE: add_pmu_counter:idx <- $r0
	@DEBUG_VALUE: add_pmu_counter:counters <- $r4
	@DEBUG_VALUE: pmu_get_counters:counters <- $r4
	.loc	1 167 22 is_stmt 1              @ ../ProfilerCounter/pmu_counter.c:167:22
	ldrd	r1, r2, [sp]
.Ltmp101:
	@DEBUG_VALUE: add_pmu_counter:value <- [DW_OP_LLVM_fragment 32 32] $r2
	@DEBUG_VALUE: add_pmu_counter:value <- [DW_OP_LLVM_fragment 0 32] $r1
	.loc	1 52 9                          @ ../ProfilerCounter/pmu_counter.c:52:9
	add.w	r3, r4, r0, lsl #4
	lsls	r7, r0, #4
	.loc	1 55 9                          @ ../ProfilerCounter/pmu_counter.c:55:9
	adds	r0, #1
.Ltmp102:
	.loc	1 52 39                         @ ../ProfilerCounter/pmu_counter.c:52:39
	str	r1, [r4, r7]
	.loc	1 53 38                         @ ../ProfilerCounter/pmu_counter.c:53:38
	adr	r1, .LCPI3_0
.Ltmp103:
	.loc	1 52 39                         @ ../ProfilerCounter/pmu_counter.c:52:39
	strd	r2, r1, [r3, #4]
	.loc	1 54 38                         @ ../ProfilerCounter/pmu_counter.c:54:38
	str	r6, [r3, #12]
	.loc	1 55 9                          @ ../ProfilerCounter/pmu_counter.c:55:9
	str.w	r0, [r4, #160]
	.loc	1 56 9                          @ ../ProfilerCounter/pmu_counter.c:56:9
	b	.LBB3_14
.Ltmp104:
.LBB3_13:
	@DEBUG_VALUE: add_pmu_counter:idx <- $r0
	@DEBUG_VALUE: add_pmu_counter:counters <- $r4
	@DEBUG_VALUE: pmu_get_counters:counters <- $r4
	.loc	1 59 5                          @ ../ProfilerCounter/pmu_counter.c:59:5
	movw	r0, :lower16:.L.str
.Ltmp105:
	movt	r0, :upper16:.L.str
	bl	__2printf
.Ltmp106:
	movw	r0, :lower16:.Lstr.6
	movt	r0, :upper16:.Lstr.6
	bl	puts
.Ltmp107:
	.loc	1 48 36                         @ ../ProfilerCounter/pmu_counter.c:48:36
	ldr.w	r0, [r4, #160]
.Ltmp108:
.LBB3_14:
	@DEBUG_VALUE: pmu_get_counters:counters <- $r4
	.loc	1 0 36 is_stmt 0                @ ../ProfilerCounter/pmu_counter.c:0:36
	movw	r7, #57364
.Ltmp109:
	.loc	1 72 12 is_stmt 1               @ ../ProfilerCounter/pmu_counter.c:72:12
	movw	r1, :lower16:s_u64CPUCycleCount
	movt	r7, #57344
	movt	r1, :upper16:s_u64CPUCycleCount
	.loc	1 70 28                         @ ../ProfilerCounter/pmu_counter.c:70:28
	ldr	r2, [r7, #4]
.Ltmp110:
	@DEBUG_VALUE: Get_SysTick_Cycle_Count:systick_val <- [DW_OP_constu 16777215, DW_OP_and, DW_OP_stack_value] $r2
	.loc	1 72 12                         @ ../ProfilerCounter/pmu_counter.c:72:12
	ldrd	r3, r1, [r1]
	.loc	1 72 43 is_stmt 0               @ ../ProfilerCounter/pmu_counter.c:72:43
	ldr	r5, [r7]
.Ltmp111:
	@DEBUG_VALUE: add_pmu_counter:idx <- $r0
	@DEBUG_VALUE: add_pmu_counter:counters <- $r4
	@DEBUG_VALUE: add_pmu_counter:value <- undef
	.loc	1 50 9 is_stmt 1                @ ../ProfilerCounter/pmu_counter.c:50:9
	cmp	r0, #9
.Ltmp112:
	@DEBUG_VALUE: add_pmu_counter:unit <- undef
	@DEBUG_VALUE: add_pmu_counter:name <- undef
	bhi	.LBB3_16
.Ltmp113:
@ %bb.15:
	@DEBUG_VALUE: add_pmu_counter:counters <- $r4
	@DEBUG_VALUE: add_pmu_counter:idx <- $r0
	@DEBUG_VALUE: Get_SysTick_Cycle_Count:systick_val <- [DW_OP_constu 16777215, DW_OP_and, DW_OP_stack_value] $r2
	@DEBUG_VALUE: pmu_get_counters:counters <- $r4
	.loc	1 70 32                         @ ../ProfilerCounter/pmu_counter.c:70:32
	bic	r2, r2, #-16777216
.Ltmp114:
	@DEBUG_VALUE: add_pmu_counter:value <- [DW_OP_LLVM_arg 0, DW_OP_LLVM_arg 0, DW_OP_LLVM_arg 0, DW_OP_minus, DW_OP_LLVM_convert 32 7, DW_OP_LLVM_convert 64 7, DW_OP_plus, DW_OP_stack_value] undef
	@DEBUG_VALUE: Get_SysTick_Cycle_Count:systick_val <- $r2
	.loc	1 72 48                         @ ../ProfilerCounter/pmu_counter.c:72:48
	subs	r2, r5, r2
.Ltmp115:
	@DEBUG_VALUE: add_pmu_counter:value <- [DW_OP_LLVM_arg 0, DW_OP_LLVM_arg 0, DW_OP_plus, DW_OP_stack_value] undef
	.loc	1 72 31 is_stmt 0               @ ../ProfilerCounter/pmu_counter.c:72:31
	adds	r2, r2, r3
.Ltmp116:
	.loc	1 52 9 is_stmt 1                @ ../ProfilerCounter/pmu_counter.c:52:9
	add.w	r3, r4, r0, lsl #4
.Ltmp117:
	.loc	1 72 31                         @ ../ProfilerCounter/pmu_counter.c:72:31
	adc	r1, r1, #0
.Ltmp118:
	@DEBUG_VALUE: add_pmu_counter:value <- [DW_OP_LLVM_fragment 32 32] $r1
	@DEBUG_VALUE: add_pmu_counter:value <- [DW_OP_LLVM_fragment 0 32] $r2
	.loc	1 52 9                          @ ../ProfilerCounter/pmu_counter.c:52:9
	lsls	r7, r0, #4
	.loc	1 52 39 is_stmt 0               @ ../ProfilerCounter/pmu_counter.c:52:39
	adds	r3, #4
	.loc	1 55 9 is_stmt 1                @ ../ProfilerCounter/pmu_counter.c:55:9
	adds	r0, #1
.Ltmp119:
	.loc	1 52 39                         @ ../ProfilerCounter/pmu_counter.c:52:39
	str	r2, [r4, r7]
	.loc	1 53 38                         @ ../ProfilerCounter/pmu_counter.c:53:38
	adr	r2, .LCPI3_1
.Ltmp120:
	.loc	1 52 39                         @ ../ProfilerCounter/pmu_counter.c:52:39
	stm	r3!, {r1, r2, r6}
	.loc	1 55 9                          @ ../ProfilerCounter/pmu_counter.c:55:9
	str.w	r0, [r4, #160]
.Ltmp121:
	.loc	1 187 1 epilogue_begin          @ ../ProfilerCounter/pmu_counter.c:187:1
	add	sp, #108
	pop	{r4, r5, r6, r7, pc}
.Ltmp122:
.LBB3_16:
	@DEBUG_VALUE: add_pmu_counter:counters <- $r4
	@DEBUG_VALUE: add_pmu_counter:idx <- $r0
	@DEBUG_VALUE: pmu_get_counters:counters <- $r4
	.loc	1 59 5                          @ ../ProfilerCounter/pmu_counter.c:59:5
	movw	r0, :lower16:.L.str
.Ltmp123:
	movt	r0, :upper16:.L.str
	bl	__2printf
.Ltmp124:
	movw	r0, :lower16:.Lstr.6
	movt	r0, :upper16:.Lstr.6
	bl	puts
.Ltmp125:
	.loc	1 187 1 epilogue_begin          @ ../ProfilerCounter/pmu_counter.c:187:1
	add	sp, #108
	pop	{r4, r5, r6, r7, pc}
.Ltmp126:
	.loc	1 0 1 is_stmt 0                 @ :0:1
.Ltmp127:
	.p2align	2
@ %bb.17:
.LCPI3_0:
.L.str.2:
	.asciz	"NPU TOTAL\000\000"
.LCPI3_1:
.L.str.4:
	.asciz	"CPU TOTAL\000\000"
.Lfunc_end3:
	.size	pmu_get_counters, .Lfunc_end3-pmu_get_counters
	.cfi_endproc
	.file	8 "C:\\Users\\jimmy\\Desktop\\Nuvoton\\Nuvoton-Team-2\\repos\\m55m1-ElevatorCounting-YOLOv8n\\KEIL" "../ProfilerCounter/include\\pmu_counter.h"
	.cantunwind
	.fnend
                                        @ -- End function
	.section	.text.pmu_get_systick_Count,"ax",%progbits
	.hidden	pmu_get_systick_Count           @ -- Begin function pmu_get_systick_Count
	.globl	pmu_get_systick_Count
	.p2align	2
	.type	pmu_get_systick_Count,%function
	.code	16                              @ @pmu_get_systick_Count
	.thumb_func
pmu_get_systick_Count:
.Lfunc_begin4:
	.loc	1 190 0 is_stmt 1               @ ../ProfilerCounter/pmu_counter.c:190:0
	.fnstart
	.cfi_startproc
@ %bb.0:
	movw	r0, #57364
.Ltmp128:
	.loc	1 72 12 prologue_end            @ ../ProfilerCounter/pmu_counter.c:72:12
	movw	r2, :lower16:s_u64CPUCycleCount
	movt	r0, #57344
	.loc	1 70 28                         @ ../ProfilerCounter/pmu_counter.c:70:28
	ldr	r1, [r0, #4]
	.loc	1 72 12                         @ ../ProfilerCounter/pmu_counter.c:72:12
	movt	r2, :upper16:s_u64CPUCycleCount
	ldrd	r2, r3, [r2]
	.loc	1 72 43 is_stmt 0               @ ../ProfilerCounter/pmu_counter.c:72:43
	ldr	r0, [r0]
	.loc	1 70 32 is_stmt 1               @ ../ProfilerCounter/pmu_counter.c:70:32
	bic	r1, r1, #-16777216
.Ltmp129:
	@DEBUG_VALUE: Get_SysTick_Cycle_Count:systick_val <- $r1
	.loc	1 72 48                         @ ../ProfilerCounter/pmu_counter.c:72:48
	subs	r0, r0, r1
	.loc	1 72 31 is_stmt 0               @ ../ProfilerCounter/pmu_counter.c:72:31
	adds	r0, r0, r2
	adc	r1, r3, #0
.Ltmp130:
	.loc	1 191 5 is_stmt 1               @ ../ProfilerCounter/pmu_counter.c:191:5
	bx	lr
.Ltmp131:
.Lfunc_end4:
	.size	pmu_get_systick_Count, .Lfunc_end4-pmu_get_systick_Count
	.cfi_endproc
	.cantunwind
	.fnend
                                        @ -- End function
	.type	s_u64CPUCycleCount,%object      @ @s_u64CPUCycleCount
	.section	.bss.s_u64CPUCycleCount,"aw",%nobits
	.p2align	3, 0x0
s_u64CPUCycleCount:
	.long	0                               @ 0x0
	.long	0
	.size	s_u64CPUCycleCount, 8

	.type	.L.str,%object                  @ @.str
	.section	.rodata.str1.1,"aMS",%progbits,1
.L.str:
	.asciz	"ERROR - "
	.size	.L.str, 9

	.type	.L.str.3,%object                @ @.str.3
.L.str.3:
	.asciz	"cycles"
	.size	.L.str.3, 7

	.type	s_bSysTickInit,%object          @ @s_bSysTickInit
	.section	.bss.s_bSysTickInit,"aw",%nobits
s_bSysTickInit:
	.byte	0                               @ 0x0
	.size	s_bSysTickInit, 1

	.type	.Lstr.6,%object                 @ @str.6
	.section	.rodata.str1.1,"aMS",%progbits,1
.Lstr.6:
	.asciz	"Failed to add PMU counter!"
	.size	.Lstr.6, 27

	.section	".note.GNU-stack","",%progbits
	.eabi_attribute	30, 1	@ Tag_ABI_optimization_goals
	.ARM_attribute	16, 1	@ Tag_AV_eba