	.text
	.syntax unified
	.eabi_attribute	67, "2.09"	@ Tag_conformance
	.cpu	cortex-m55
	.eabi_attribute	6, 21	@ Tag_CPU_arch
	.eabi_attribute	7, 77	@ Tag_CPU_arch_profile
	.eabi_attribute	8, 0	@ Tag_ARM_ISA_use
	.eabi_attribute	9, 3	@ Tag_THUMB_ISA_use
	.fpu	fpv5-d16
	.arch_extension	mve.fp
	.eabi_attribute	36, 1	@ Tag_FP_HP_extension
	.eabi_attribute	48, 2	@ Tag_MVE_arch
	.eabi_attribute	46, 1	@ Tag_DSP_extension
	.eabi_attribute	34, 1	@ Tag_CPU_unaligned_access
	.eabi_attribute	17, 1	@ Tag_ABI_PCS_GOT_use
	.eabi_attribute	20, 2	@ Tag_ABI_FP_denormal
	.eabi_attribute	21, 0	@ Tag_ABI_FP_exceptions
	.eabi_attribute	23, 1	@ Tag_ABI_FP_number_model
	.eabi_attribute	24, 1	@ Tag_ABI_align_needed
	.eabi_attribute	25, 1	@ Tag_ABI_align_preserved
	.eabi_attribute	28, 1	@ Tag_ABI_VFP_args
	.eabi_attribute	38, 1	@ Tag_ABI_FP_16bit_format
	.eabi_attribute	18, 2	@ Tag_ABI_PCS_wchar_t
	.eabi_attribute	26, 1	@ Tag_ABI_enum_size
	.eabi_attribute	14, 0	@ Tag_ABI_PCS_R9_use
	.file	"sdglue.c"
	.file	1 "C:\\Users\\jimmy\\Desktop\\Nuvoton\\Nuvoton-Team-2\\repos\\m55m1-ElevatorCounting-YOLOv8n\\KEIL" "../Device/SDCard/sdglue.c"
	.file	2 "C:\\Users\\jimmy\\Desktop\\Nuvoton\\Nuvoton-Team-2\\repos\\m55m1-ElevatorCounting-YOLOv8n\\KEIL" "../../../../ThirdParty/FatFs/source\\ff.h"
	.file	3 "C:\\Users\\jimmy" "AppData\\Local\\Keil_v5\\ARM\\ARMCLANG\\bin\\..\\include\\stdint.h"
	.file	4 "C:\\Users\\jimmy\\Desktop\\Nuvoton\\Nuvoton-Team-2\\repos\\m55m1-ElevatorCounting-YOLOv8n\\KEIL" "../../../../Library/Device/Nuvoton/M55M1/Include\\sdh_reg.h"
	.file	5 "C:\\Users\\jimmy\\Desktop\\Nuvoton\\Nuvoton-Team-2\\repos\\m55m1-ElevatorCounting-YOLOv8n\\KEIL" "../../../../Library/Device/Nuvoton/M55M1/Include\\ccap_reg.h"
	.section	.text.SDH0_IRQHandler,"ax",%progbits
	.hidden	SDH0_IRQHandler                 @ -- Begin function SDH0_IRQHandler
	.globl	SDH0_IRQHandler
	.p2align	2
	.type	SDH0_IRQHandler,%function
	.code	16                              @ @SDH0_IRQHandler
	.thumb_func
SDH0_IRQHandler:
.Lfunc_begin0:
	.loc	1 22 0                          @ ../Device/SDCard/sdglue.c:22:0
	.fnstart
	.cfi_sections .debug_frame
	.cfi_startproc
@ %bb.0:
	.save	{r4, lr}
	push	{r4, lr}
	.cfi_def_cfa_offset 8
	.cfi_offset lr, -4
	.cfi_offset r4, -8
	.pad	#16
	sub	sp, #16
	.cfi_def_cfa_offset 24
	movw	r4, #26668
	movt	r4, #16416
	@DEBUG_VALUE: i <- [DW_OP_plus_uconst 4, DW_OP_deref] $sp
.Ltmp0:
	.loc	1 27 15 prologue_end            @ ../Device/SDCard/sdglue.c:27:15
	ldr	r0, [r4, #-36]
.Ltmp1:
	.loc	1 27 9 is_stmt 0                @ ../Device/SDCard/sdglue.c:27:9
	lsls	r0, r0, #31
.Ltmp2:
	.loc	1 30 20 is_stmt 1               @ ../Device/SDCard/sdglue.c:30:20
	ittt	ne
	ldrne	r0, [r4, #-44]
	orrne	r0, r0, #1
	strne	r0, [r4, #-44]
.Ltmp3:
	.loc	1 34 17                         @ ../Device/SDCard/sdglue.c:34:17
	ldr	r0, [r4]
	.loc	1 34 9 is_stmt 0                @ ../Device/SDCard/sdglue.c:34:9
	str	r0, [sp, #12]
	.loc	1 35 17 is_stmt 1               @ ../Device/SDCard/sdglue.c:35:17
	ldr	r0, [r4, #-4]
	.loc	1 35 9 is_stmt 0                @ ../Device/SDCard/sdglue.c:35:9
	str	r0, [sp, #8]
.Ltmp4:
	.loc	1 37 9 is_stmt 1                @ ../Device/SDCard/sdglue.c:37:9
	ldr	r0, [sp, #12]
.Ltmp5:
	.loc	1 37 9 is_stmt 0                @ ../Device/SDCard/sdglue.c:37:9
	lsls	r0, r0, #31
	beq	.LBB0_2
@ %bb.1:
.Ltmp6:
	.loc	1 40 27 is_stmt 1               @ ../Device/SDCard/sdglue.c:40:27
	movw	r0, :lower16:SD0
	movs	r1, #1
	movt	r0, :upper16:SD0
	strb	r1, [r0, #3]
	.loc	1 41 22                         @ ../Device/SDCard/sdglue.c:41:22
	str	r1, [r4]
.Ltmp7:
.LBB0_2:
	.loc	1 45 10                         @ ../Device/SDCard/sdglue.c:45:10
	ldr	r0, [sp, #8]
	.loc	1 45 37 is_stmt 0               @ ../Device/SDCard/sdglue.c:45:37
	lsls	r0, r0, #23
	.loc	1 46 14 is_stmt 1               @ ../Device/SDCard/sdglue.c:46:14
	itt	mi
	ldrmi	r0, [sp, #12]
.Ltmp8:
	.loc	1 45 9                          @ ../Device/SDCard/sdglue.c:45:9
	lslsmi.w	r0, r0, #23
	bmi	.LBB0_10
.LBB0_3:
.Ltmp9:
	.loc	1 80 9                          @ ../Device/SDCard/sdglue.c:80:9
	ldr	r0, [sp, #12]
.Ltmp10:
	.loc	1 80 9 is_stmt 0                @ ../Device/SDCard/sdglue.c:80:9
	lsls	r0, r0, #30
	bpl	.LBB0_5
@ %bb.4:
.Ltmp11:
	.loc	1 82 15 is_stmt 1               @ ../Device/SDCard/sdglue.c:82:15
	ldr	r0, [sp, #12]
.Ltmp12:
	.loc	1 82 13 is_stmt 0               @ ../Device/SDCard/sdglue.c:82:13
	lsls	r0, r0, #28
.Ltmp13:
	.loc	1 87 20 is_stmt 1               @ ../Device/SDCard/sdglue.c:87:20
	it	mi
	ldrmi	r0, [sp, #12]
	movs	r0, #2
.Ltmp14:
	.loc	1 96 22                         @ ../Device/SDCard/sdglue.c:96:22
	str	r0, [r4]
.Ltmp15:
.LBB0_5:
	.loc	1 99 9                          @ ../Device/SDCard/sdglue.c:99:9
	ldr	r0, [sp, #12]
.Ltmp16:
	.loc	1 99 9 is_stmt 0                @ ../Device/SDCard/sdglue.c:99:9
	lsls	r0, r0, #18
	bpl	.LBB0_7
@ %bb.6:
.Ltmp17:
	.loc	1 101 9 is_stmt 1               @ ../Device/SDCard/sdglue.c:101:9
	adr	r0, .LCPI0_2
	bl	puts
.Ltmp18:
	.loc	1 102 22                        @ ../Device/SDCard/sdglue.c:102:22
	ldr	r0, [r4]
	orr	r0, r0, #8192
	str	r0, [r4]
.Ltmp19:
.LBB0_7:
	.loc	1 106 9                         @ ../Device/SDCard/sdglue.c:106:9
	ldr	r0, [sp, #12]
.Ltmp20:
	.loc	1 106 9 is_stmt 0               @ ../Device/SDCard/sdglue.c:106:9
	lsls	r0, r0, #19
	bpl	.LBB0_9
@ %bb.8:
.Ltmp21:
	.loc	1 108 9 is_stmt 1               @ ../Device/SDCard/sdglue.c:108:9
	adr	r0, .LCPI0_3
	bl	puts
.Ltmp22:
	.loc	1 109 22                        @ ../Device/SDCard/sdglue.c:109:22
	ldr	r0, [r4]
	orr	r0, r0, #4096
	str	r0, [r4]
.Ltmp23:
.LBB0_9:
	.loc	1 112 5                         @ ../Device/SDCard/sdglue.c:112:5
	dsb	sy
	.loc	1 113 5                         @ ../Device/SDCard/sdglue.c:113:5
	isb	sy
	.loc	1 114 1 epilogue_begin          @ ../Device/SDCard/sdglue.c:114:1
	add	sp, #16
	pop	{r4, pc}
.LBB0_10:
	.loc	1 0 1 is_stmt 0                 @ ../Device/SDCard/sdglue.c:0:1
	movs	r0, #0
.LBB0_11:                               @ =>This Inner Loop Header: Depth=1
.Ltmp24:
	.loc	1 53 0 is_stmt 1                @ ../Device/SDCard/sdglue.c:53:0
	str	r0, [sp, #4]
.Ltmp25:
	@DEBUG_VALUE: i <- [DW_OP_plus_uconst 4, DW_OP_deref] $sp
	.loc	1 53 25 is_stmt 0               @ ../Device/SDCard/sdglue.c:53:25
	ldr	r0, [sp, #4]
.Ltmp26:
	.loc	1 53 13                         @ ../Device/SDCard/sdglue.c:53:13
	cmp.w	r0, #1280
	bge	.LBB0_16
.Ltmp27:
@ %bb.12:                               @   in Loop: Header=BB0_11 Depth=1
	@DEBUG_VALUE: i <- [DW_OP_plus_uconst 4, DW_OP_deref] $sp
	.loc	1 53 37                         @ ../Device/SDCard/sdglue.c:53:37
	ldr	r0, [sp, #4]
	adds	r0, #1
	str	r0, [sp, #4]
	.loc	1 53 25                         @ ../Device/SDCard/sdglue.c:53:25
	ldr	r0, [sp, #4]
.Ltmp28:
	.loc	1 53 13                         @ ../Device/SDCard/sdglue.c:53:13
	cmp.w	r0, #1280
.Ltmp29:
	@DEBUG_VALUE: i <- [DW_OP_plus_uconst 1, DW_OP_stack_value] undef
	bge	.LBB0_16
.Ltmp30:
@ %bb.13:                               @   in Loop: Header=BB0_11 Depth=1
	.loc	1 53 37                         @ ../Device/SDCard/sdglue.c:53:37
	ldr	r0, [sp, #4]
	adds	r0, #1
	str	r0, [sp, #4]
	.loc	1 53 25                         @ ../Device/SDCard/sdglue.c:53:25
	ldr	r0, [sp, #4]
.Ltmp31:
	.loc	1 53 13                         @ ../Device/SDCard/sdglue.c:53:13
	cmp.w	r0, #1280
.Ltmp32:
	@DEBUG_VALUE: i <- [DW_OP_plus_uconst 1, DW_OP_stack_value] undef
	bge	.LBB0_16
.Ltmp33:
@ %bb.14:                               @   in Loop: Header=BB0_11 Depth=1
	.loc	1 53 37                         @ ../Device/SDCard/sdglue.c:53:37
	ldr	r0, [sp, #4]
	adds	r0, #1
	str	r0, [sp, #4]
	.loc	1 53 25                         @ ../Device/SDCard/sdglue.c:53:25
	ldr	r0, [sp, #4]
.Ltmp34:
	.loc	1 53 13                         @ ../Device/SDCard/sdglue.c:53:13
	cmp.w	r0, #1280
.Ltmp35:
	@DEBUG_VALUE: i <- [DW_OP_plus_uconst 1, DW_OP_stack_value] undef
	bge	.LBB0_16
.Ltmp36:
@ %bb.15:                               @   in Loop: Header=BB0_11 Depth=1
	.loc	1 53 37                         @ ../Device/SDCard/sdglue.c:53:37
	ldr	r0, [sp, #4]
	adds	r0, #1
	b	.LBB0_11
.Ltmp37:
.LBB0_16:
	.loc	1 55 25 is_stmt 1               @ ../Device/SDCard/sdglue.c:55:25
	ldr	r0, [r4]
	.loc	1 55 17 is_stmt 0               @ ../Device/SDCard/sdglue.c:55:17
	str	r0, [sp, #12]
.Ltmp38:
	.loc	1 62 13 is_stmt 1               @ ../Device/SDCard/sdglue.c:62:13
	ldr	r0, [sp, #12]
.Ltmp39:
	.loc	1 62 13 is_stmt 0               @ ../Device/SDCard/sdglue.c:62:13
	lsls	r0, r0, #15
	bmi	.LBB0_18
@ %bb.17:
.Ltmp40:
	.loc	1 71 13 is_stmt 1               @ ../Device/SDCard/sdglue.c:71:13
	adr	r0, .LCPI0_1
	bl	puts
.Ltmp41:
	.loc	1 0 13 is_stmt 0                @ ../Device/SDCard/sdglue.c:0:13
	b	.LBB0_19
.Ltmp42:
.LBB0_18:
	.loc	1 65 13 is_stmt 1               @ ../Device/SDCard/sdglue.c:65:13
	adr	r0, .LCPI0_0
	bl	puts
.Ltmp43:
	.loc	1 66 30                         @ ../Device/SDCard/sdglue.c:66:30
	movw	r0, :lower16:SD0
	movs	r1, #0
	movt	r0, :upper16:SD0
	strb	r1, [r0]
.Ltmp44:
.LBB0_19:
	.loc	1 0 30 is_stmt 0                @ ../Device/SDCard/sdglue.c:0:30
	mov.w	r0, #256
	.loc	1 76 22 is_stmt 1               @ ../Device/SDCard/sdglue.c:76:22
	str	r0, [r4]
	b	.LBB0_3
.Ltmp45:
	.loc	1 0 22 is_stmt 0                @ :0:22
.Ltmp46:
	.p2align	2
@ %bb.20:
.LCPI0_0:
.Lstr.5:
	.asciz	"\n***** card remove !\000\000\000"
.LCPI0_1:
.Lstr:
	.asciz	"***** card insert !"
.LCPI0_2:
.Lstr.6:
	.asciz	"***** ISR: data in timeout !\000\000\000"
.LCPI0_3:
.Lstr.7:
	.asciz	"***** ISR: response in timeout !\000\000\000"
.Lfunc_end0:
	.size	SDH0_IRQHandler, .Lfunc_end0-SDH0_IRQHandler
	.cfi_endproc
	.cantunwind
	.fnend
                                        @ -- End function
	.section	.text.SDH_Open_Disk,"ax",%progbits
	.hidden	SDH_Open_Disk                   @ -- Begin function SDH_Open_Disk
	.globl	SDH_Open_Disk
	.p2align	2
	.type	SDH_Open_Disk,%function
	.code	16                              @ @SDH_Open_Disk
	.thumb_func
SDH_Open_Disk:
.Lfunc_begin1:
	.loc	1 117 0 is_stmt 1               @ ../Device/SDCard/sdglue.c:117:0
	.fnstart
	.cfi_startproc
@ %bb.0:
	@DEBUG_VALUE: SDH_Open_Disk:sdh <- $r0
	@DEBUG_VALUE: SDH_Open_Disk:u32CardDetSrc <- $r1
	.save	{r4, lr}
	push	{r4, lr}
	.cfi_def_cfa_offset 8
	.cfi_offset lr, -4
	.cfi_offset r4, -8
	mov	r4, r0
.Ltmp47:
	@DEBUG_VALUE: SDH_Open_Disk:sdh <- $r4
	.loc	1 118 5 prologue_end            @ ../Device/SDCard/sdglue.c:118:5
	bl	SDH_Open
.Ltmp48:
	@DEBUG_VALUE: SDH_Open_Disk:u32CardDetSrc <- [DW_OP_LLVM_entry_value 1] $r1
	.loc	1 120 9                         @ ../Device/SDCard/sdglue.c:120:9
	mov	r0, r4
	bl	SDH_Probe
.Ltmp49:
	.loc	1 120 9 is_stmt 0               @ ../Device/SDCard/sdglue.c:120:9
	cbz	r0, .LBB1_2
.Ltmp50:
@ %bb.1:
	@DEBUG_VALUE: SDH_Open_Disk:u32CardDetSrc <- [DW_OP_LLVM_entry_value 1] $r1
	@DEBUG_VALUE: SDH_Open_Disk:sdh <- $r4
	.loc	1 122 9 is_stmt 1               @ ../Device/SDCard/sdglue.c:122:9
	adr	r0, .LCPI1_0
	bl	puts
.Ltmp51:
	.loc	1 0 9 is_stmt 0                 @ ../Device/SDCard/sdglue.c:0:9
	movw	r0, #273
	movt	r0, #65535
.Ltmp52:
	.loc	1 141 1 epilogue_begin is_stmt 1 @ ../Device/SDCard/sdglue.c:141:1
	pop	{r4, pc}
.Ltmp53:
.LBB1_2:
	@DEBUG_VALUE: SDH_Open_Disk:u32CardDetSrc <- [DW_OP_LLVM_entry_value 1] $r1
	@DEBUG_VALUE: SDH_Open_Disk:sdh <- $r4
	.loc	1 0 1 is_stmt 0                 @ ../Device/SDCard/sdglue.c:0:1
	movw	r0, #24576
	.loc	1 126 14 is_stmt 1              @ ../Device/SDCard/sdglue.c:126:14
	movw	r1, :lower16:_Path
	movt	r0, #16416
	movs	r2, #58
	movt	r1, :upper16:_Path
	.loc	1 129 9                         @ ../Device/SDCard/sdglue.c:129:9
	cmp	r4, r0
	.loc	1 126 14                        @ ../Device/SDCard/sdglue.c:126:14
	strh.w	r2, [r1, #1]
	.loc	1 129 9                         @ ../Device/SDCard/sdglue.c:129:9
	beq	.LBB1_4
.Ltmp54:
@ %bb.3:
	@DEBUG_VALUE: SDH_Open_Disk:u32CardDetSrc <- [DW_OP_LLVM_entry_value 1] $r1
	@DEBUG_VALUE: SDH_Open_Disk:sdh <- $r4
	.loc	1 0 9 is_stmt 0                 @ ../Device/SDCard/sdglue.c:0:9
	movs	r0, #49
.Ltmp55:
	.loc	1 136 18 is_stmt 1              @ ../Device/SDCard/sdglue.c:136:18
	strb	r0, [r1]
	.loc	1 137 9                         @ ../Device/SDCard/sdglue.c:137:9
	movw	r0, :lower16:_FatfsVolSd1
	movt	r0, :upper16:_FatfsVolSd1
	b	.LBB1_5
.Ltmp56:
.LBB1_4:
	@DEBUG_VALUE: SDH_Open_Disk:u32CardDetSrc <- [DW_OP_LLVM_entry_value 1] $r1
	@DEBUG_VALUE: SDH_Open_Disk:sdh <- $r4
	.loc	1 0 9 is_stmt 0                 @ ../Device/SDCard/sdglue.c:0:9
	movs	r0, #48
.Ltmp57:
	.loc	1 131 18 is_stmt 1              @ ../Device/SDCard/sdglue.c:131:18
	strb	r0, [r1]
	.loc	1 132 9                         @ ../Device/SDCard/sdglue.c:132:9
	movw	r0, :lower16:_FatfsVolSd0
	movt	r0, :upper16:_FatfsVolSd0
.Ltmp58:
.LBB1_5:
	@DEBUG_VALUE: SDH_Open_Disk:u32CardDetSrc <- [DW_OP_LLVM_entry_value 1] $r1
	@DEBUG_VALUE: SDH_Open_Disk:sdh <- $r4
	.loc	1 0 0 is_stmt 0                 @ ../Device/SDCard/sdglue.c:0:0
	movs	r2, #1
	bl	f_mount
.Ltmp59:
	movs	r0, #0
.Ltmp60:
	.loc	1 141 1 epilogue_begin is_stmt 1 @ ../Device/SDCard/sdglue.c:141:1
	pop	{r4, pc}
.Ltmp61:
	.loc	1 0 1 is_stmt 0                 @ :0:1
.Ltmp62:
	.p2align	2
@ %bb.6:
.LCPI1_0:
.Lstr.8:
	.asciz	"SD initial fail!!\000\000"
.Lfunc_end1:
	.size	SDH_Open_Disk, .Lfunc_end1-SDH_Open_Disk
	.cfi_endproc
	.cantunwind
	.fnend
                                        @ -- End function
	.section	.text.SDH_Close_Disk,"ax",%progbits
	.hidden	SDH_Close_Disk                  @ -- Begin function SDH_Close_Disk
	.globl	SDH_Close_Disk
	.p2align	2
	.type	SDH_Close_Disk,%function
	.code	16                              @ @SDH_Close_Disk
	.thumb_func
SDH_Close_Disk:
.Lfunc_begin2:
	.loc	1 144 0 is_stmt 1               @ ../Device/SDCard/sdglue.c:144:0
	.fnstart
	.cfi_startproc
@ %bb.0:
	@DEBUG_VALUE: SDH_Close_Disk:sdh <- $r0
	.save	{r7, lr}
	push	{r7, lr}
	.cfi_def_cfa_offset 8
	.cfi_offset lr, -4
	.cfi_offset r7, -8
	movw	r1, #24576
	movt	r1, #16416
.Ltmp63:
	.loc	1 145 9 prologue_end            @ ../Device/SDCard/sdglue.c:145:9
	cmp	r0, r1
	beq	.LBB2_2
.Ltmp64:
@ %bb.1:
	@DEBUG_VALUE: SDH_Close_Disk:sdh <- $r0
	.loc	1 153 9                         @ ../Device/SDCard/sdglue.c:153:9
	movw	r0, :lower16:SD1
.Ltmp65:
	@DEBUG_VALUE: SDH_Close_Disk:sdh <- [DW_OP_LLVM_entry_value 1] $r0
	.loc	1 0 9 is_stmt 0                 @ ../Device/SDCard/sdglue.c:0:9
	movs	r1, #0
	.loc	1 153 9                         @ ../Device/SDCard/sdglue.c:153:9
	movt	r0, :upper16:SD1
	.loc	1 154 9 is_stmt 1               @ ../Device/SDCard/sdglue.c:154:9
	movs	r2, #1
	.loc	1 153 9                         @ ../Device/SDCard/sdglue.c:153:9
	strd	r1, r1, [r0]
	strd	r1, r1, [r0, #8]
	strd	r1, r1, [r0, #16]
	strd	r1, r1, [r0, #24]
	.loc	1 154 9                         @ ../Device/SDCard/sdglue.c:154:9
	movw	r1, :lower16:_Path
	movs	r0, #0
	movt	r1, :upper16:_Path
	bl	f_mount
.Ltmp66:
	.loc	1 155 9                         @ ../Device/SDCard/sdglue.c:155:9
	movw	r0, :lower16:_FatfsVolSd1
	movt	r0, :upper16:_FatfsVolSd1
	b	.LBB2_3
.Ltmp67:
.LBB2_2:
	@DEBUG_VALUE: SDH_Close_Disk:sdh <- $r0
	.loc	1 147 9                         @ ../Device/SDCard/sdglue.c:147:9
	movw	r0, :lower16:SD0
.Ltmp68:
	@DEBUG_VALUE: SDH_Close_Disk:sdh <- [DW_OP_LLVM_entry_value 1] $r0
	.loc	1 0 9 is_stmt 0                 @ ../Device/SDCard/sdglue.c:0:9
	movs	r1, #0
	.loc	1 147 9                         @ ../Device/SDCard/sdglue.c:147:9
	movt	r0, :upper16:SD0
	.loc	1 148 9 is_stmt 1               @ ../Device/SDCard/sdglue.c:148:9
	movs	r2, #1
	.loc	1 147 9                         @ ../Device/SDCard/sdglue.c:147:9
	strd	r1, r1, [r0]
	strd	r1, r1, [r0, #8]
	strd	r1, r1, [r0, #16]
	strd	r1, r1, [r0, #24]
	.loc	1 148 9                         @ ../Device/SDCard/sdglue.c:148:9
	movw	r1, :lower16:_Path
	movs	r0, #0
	movt	r1, :upper16:_Path
	bl	f_mount
.Ltmp69:
	.loc	1 149 9                         @ ../Device/SDCard/sdglue.c:149:9
	movw	r0, :lower16:_FatfsVolSd0
	movt	r0, :upper16:_FatfsVolSd0
.Ltmp70:
.LBB2_3:
	@DEBUG_VALUE: SDH_Close_Disk:sdh <- [DW_OP_LLVM_entry_value 1] $r0
	.loc	1 0 0 is_stmt 0                 @ ../Device/SDCard/sdglue.c:0:0
	mov.w	r1, #568
	bl	__aeabi_memclr4
.Ltmp71:
	.loc	1 157 1 epilogue_begin is_stmt 1 @ ../Device/SDCard/sdglue.c:157:1
	pop	{r7, pc}
.Ltmp72:
.Lfunc_end2:
	.size	SDH_Close_Disk, .Lfunc_end2-SDH_Close_Disk
	.cfi_endproc
	.cantunwind
	.fnend
                                        @ -- End function
	.section	.text.get_fattime,"ax",%progbits
	.hidden	get_fattime                     @ -- Begin function get_fattime
	.globl	get_fattime
	.p2align	2
	.type	get_fattime,%function
	.code	16                              @ @get_fattime
	.thumb_func
get_fattime:
.Lfunc_begin3:
	.fnstart
	.cfi_startproc
@ %bb.0:
	@DEBUG_VALUE: get_fattime:g_u64Tmr <- 0
	.loc	1 165 5 prologue_end            @ ../Device/SDCard/sdglue.c:165:5
	movs	r0, #0
	bx	lr
.Ltmp73:
.Lfunc_end3:
	.size	get_fattime, .Lfunc_end3-get_fattime
	.cfi_endproc
	.cantunwind
	.fnend
                                        @ -- End function
	.type	_Path,%object                   @ @_Path
	.section	.bss._Path,"aw",%nobits
_Path:
	.zero	3
	.size	_Path, 3

	.type	_FatfsVolSd0,%object            @ @_FatfsVolSd0
	.section	.bss._FatfsVolSd0,"aw",%nobits
	.p2align	2, 0x0
_FatfsVolSd0:
	.zero	568
	.size	_FatfsVolSd0, 568

	.type	_FatfsVolSd1,%object            @ @_FatfsVolSd1
	.section	.bss._FatfsVolSd1,"aw",%nobits
	.p2align	2, 0x0
_FatfsVolSd1:
	.zero	568
	.size	_FatfsVolSd1, 568

	.section	".note.GNU-stack","",%progbits
	.eabi_attribute	30, 1	@ Tag_ABI_optimization_goals
	.ARM_attribute	16, 1	@ Tag_AV_eba