	.text
	.syntax unified
	.eabi_attribute	67, "2.09"	@ Tag_conformance
	.cpu	cortex-m55
	.eabi_attribute	6, 21	@ Tag_CPU_arch
	.eabi_attribute	7, 77	@ Tag_CPU_arch_profile
	.eabi_attribute	8, 0	@ Tag_ARM_ISA_use
	.eabi_attribute	9, 3	@ Tag_THUMB_ISA_use
	.fpu	fpv5-d16
	.arch_extension	mve.fp
	.eabi_attribute	36, 1	@ Tag_FP_HP_extension
	.eabi_attribute	48, 2	@ Tag_MVE_arch
	.eabi_attribute	46, 1	@ Tag_DSP_extension
	.eabi_attribute	34, 1	@ Tag_CPU_unaligned_access
	.eabi_attribute	17, 1	@ Tag_ABI_PCS_GOT_use
	.eabi_attribute	20, 2	@ Tag_ABI_FP_denormal
	.eabi_attribute	21, 0	@ Tag_ABI_FP_exceptions
	.eabi_attribute	23, 1	@ Tag_ABI_FP_number_model
	.eabi_attribute	24, 1	@ Tag_ABI_align_needed
	.eabi_attribute	25, 1	@ Tag_ABI_align_preserved
	.eabi_attribute	28, 1	@ Tag_ABI_VFP_args
	.eabi_attribute	38, 1	@ Tag_ABI_FP_16bit_format
	.eabi_attribute	18, 2	@ Tag_ABI_PCS_wchar_t
	.eabi_attribute	26, 1	@ Tag_ABI_enum_size
	.eabi_attribute	14, 0	@ Tag_ABI_PCS_R9_use
	.file	"spim_hyper.c"
	.file	1 "C:\\Users\\jimmy" "AppData\\Local\\Keil_v5\\ARM\\ARMCLANG\\bin\\..\\include\\stdint.h"
	.file	2 "C:\\Users\\jimmy\\Desktop\\Nuvoton\\Nuvoton-Team\\repos\\m55m1-ElevatorCounting-YOLOv8n\\KEIL" "../../../../Library/Device/Nuvoton/M55M1/Include\\ccap_reg.h"
	.file	3 "C:\\Users\\jimmy\\Desktop\\Nuvoton\\Nuvoton-Team\\repos\\m55m1-ElevatorCounting-YOLOv8n\\KEIL" "../../../../Library/Device/Nuvoton/M55M1/Include\\sys_reg.h"
	.section	.text.SPIM_HYPER_Init,"ax",%progbits
	.hidden	SPIM_HYPER_Init                 @ -- Begin function SPIM_HYPER_Init
	.globl	SPIM_HYPER_Init
	.p2align	2
	.type	SPIM_HYPER_Init,%function
	.code	16                              @ @SPIM_HYPER_Init
	.thumb_func
SPIM_HYPER_Init:
.Lfunc_begin0:
	.file	4 "C:\\Users\\jimmy\\Desktop\\Nuvoton\\Nuvoton-Team\\repos\\m55m1-ElevatorCounting-YOLOv8n\\KEIL" "../../../../Library/StdDriver/src/spim_hyper.c"
	.loc	4 201 0                         @ ../../../../Library/StdDriver/src/spim_hyper.c:201:0
	.fnstart
	.cfi_sections .debug_frame
	.cfi_startproc
@ %bb.0:
	@DEBUG_VALUE: SPIM_HYPER_Init:spim <- $r0
	@DEBUG_VALUE: SPIM_HYPER_Init:u32HyperMode <- $r1
	@DEBUG_VALUE: SPIM_HYPER_Init:u32Div <- $r2
	.pad	#4
	sub	sp, #4
	.cfi_def_cfa_offset 4
.Ltmp0:
	.loc	4 208 5 prologue_end            @ ../../../../Library/StdDriver/src/spim_hyper.c:208:5
	ldr	r3, [r0]
	bic	r3, r3, #12
	orr.w	r1, r3, r1, lsl #2
.Ltmp1:
	@DEBUG_VALUE: SPIM_HYPER_Init:u32HyperMode <- [DW_OP_LLVM_entry_value 1] $r1
	str	r1, [r0]
.Ltmp2:
	@DEBUG_VALUE: SPIM_HYPER_WAIT_DMMDONE:spim <- $r0
	@DEBUG_VALUE: SPIM_HYPER_WAIT_DMMDONE:i32TimeOutCount <- [DW_OP_deref] $sp
	@DEBUG_VALUE: SPIM_HYPER_DISABLE_CIPHER:spim <- $r0
	.file	5 "C:\\Users\\jimmy\\Desktop\\Nuvoton\\Nuvoton-Team\\repos\\m55m1-ElevatorCounting-YOLOv8n\\KEIL" "../../../../Library/StdDriver/inc\\spim_hyper.h"
	.loc	5 642 49                        @ ../../../../Library/StdDriver/inc\spim_hyper.h:642:49
	movw	r1, :lower16:SystemCoreClock
	movt	r1, :upper16:SystemCoreClock
	ldr.w	r12, [r1]
	.loc	5 642 22 is_stmt 0              @ ../../../../Library/StdDriver/inc\spim_hyper.h:642:22
	str.w	r12, [sp]
	.loc	5 644 5 is_stmt 1               @ ../../../../Library/StdDriver/inc\spim_hyper.h:644:5
	ldr	r3, [r0, #68]
	orr	r3, r3, #134217728
	str	r3, [r0, #68]
.Ltmp3:
.LBB0_1:                                @ =>This Inner Loop Header: Depth=1
	@DEBUG_VALUE: SPIM_HYPER_DISABLE_CIPHER:spim <- $r0
	@DEBUG_VALUE: SPIM_HYPER_WAIT_DMMDONE:i32TimeOutCount <- [DW_OP_deref] $sp
	@DEBUG_VALUE: SPIM_HYPER_WAIT_DMMDONE:spim <- $r0
	@DEBUG_VALUE: SPIM_HYPER_Init:u32HyperMode <- [DW_OP_LLVM_entry_value 1] $r1
	@DEBUG_VALUE: SPIM_HYPER_Init:u32Div <- $r2
	@DEBUG_VALUE: SPIM_HYPER_Init:spim <- $r0
	.loc	5 646 12                        @ ../../../../Library/StdDriver/inc\spim_hyper.h:646:12
	ldr	r3, [r0, #68]
	.loc	5 646 5 is_stmt 0               @ ../../../../Library/StdDriver/inc\spim_hyper.h:646:5
	lsls	r3, r3, #4
	bpl	.LBB0_9
.Ltmp4:
@ %bb.2:                                @   in Loop: Header=BB0_1 Depth=1
	@DEBUG_VALUE: SPIM_HYPER_DISABLE_CIPHER:spim <- $r0
	@DEBUG_VALUE: SPIM_HYPER_WAIT_DMMDONE:i32TimeOutCount <- [DW_OP_deref] $sp
	@DEBUG_VALUE: SPIM_HYPER_WAIT_DMMDONE:spim <- $r0
	@DEBUG_VALUE: SPIM_HYPER_Init:u32HyperMode <- [DW_OP_LLVM_entry_value 1] $r1
	@DEBUG_VALUE: SPIM_HYPER_Init:u32Div <- $r2
	@DEBUG_VALUE: SPIM_HYPER_Init:spim <- $r0
	.loc	5 648 13 is_stmt 1              @ ../../../../Library/StdDriver/inc\spim_hyper.h:648:13
	ldr	r3, [sp]
	subs	r1, r3, #1
.Ltmp5:
	.loc	5 648 13 is_stmt 0              @ ../../../../Library/StdDriver/inc\spim_hyper.h:648:13
	cmp	r3, #2
.Ltmp6:
	@DEBUG_VALUE: SPIM_HYPER_WAIT_DMMDONE:i32TimeOutCount <- [DW_OP_constu 1, DW_OP_minus, DW_OP_stack_value] undef
	.loc	5 648 13                        @ ../../../../Library/StdDriver/inc\spim_hyper.h:648:13
	str	r1, [sp]
.Ltmp7:
	.loc	5 648 13                        @ ../../../../Library/StdDriver/inc\spim_hyper.h:648:13
	blt	.LBB0_9
.Ltmp8:
@ %bb.3:                                @   in Loop: Header=BB0_1 Depth=1
	@DEBUG_VALUE: SPIM_HYPER_DISABLE_CIPHER:spim <- $r0
	@DEBUG_VALUE: SPIM_HYPER_WAIT_DMMDONE:spim <- $r0
	@DEBUG_VALUE: SPIM_HYPER_Init:u32HyperMode <- [DW_OP_LLVM_entry_value 1] $r1
	@DEBUG_VALUE: SPIM_HYPER_Init:u32Div <- $r2
	@DEBUG_VALUE: SPIM_HYPER_Init:spim <- $r0
	.loc	5 646 12 is_stmt 1              @ ../../../../Library/StdDriver/inc\spim_hyper.h:646:12
	ldr	r1, [r0, #68]
	.loc	5 646 5 is_stmt 0               @ ../../../../Library/StdDriver/inc\spim_hyper.h:646:5
	lsls	r1, r1, #4
	bpl	.LBB0_9
.Ltmp9:
@ %bb.4:                                @   in Loop: Header=BB0_1 Depth=1
	@DEBUG_VALUE: SPIM_HYPER_DISABLE_CIPHER:spim <- $r0
	@DEBUG_VALUE: SPIM_HYPER_WAIT_DMMDONE:spim <- $r0
	@DEBUG_VALUE: SPIM_HYPER_Init:u32HyperMode <- [DW_OP_LLVM_entry_value 1] $r1
	@DEBUG_VALUE: SPIM_HYPER_Init:u32Div <- $r2
	@DEBUG_VALUE: SPIM_HYPER_Init:spim <- $r0
	.loc	5 648 13 is_stmt 1              @ ../../../../Library/StdDriver/inc\spim_hyper.h:648:13
	ldr	r1, [sp]
	subs	r3, r1, #1
.Ltmp10:
	.loc	5 648 13 is_stmt 0              @ ../../../../Library/StdDriver/inc\spim_hyper.h:648:13
	cmp	r1, #2
.Ltmp11:
	@DEBUG_VALUE: SPIM_HYPER_WAIT_DMMDONE:i32TimeOutCount <- [DW_OP_constu 1, DW_OP_minus, DW_OP_stack_value] undef
	.loc	5 648 13                        @ ../../../../Library/StdDriver/inc\spim_hyper.h:648:13
	str	r3, [sp]
.Ltmp12:
	.loc	5 648 13                        @ ../../../../Library/StdDriver/inc\spim_hyper.h:648:13
	blt	.LBB0_9
.Ltmp13:
@ %bb.5:                                @   in Loop: Header=BB0_1 Depth=1
	@DEBUG_VALUE: SPIM_HYPER_DISABLE_CIPHER:spim <- $r0
	@DEBUG_VALUE: SPIM_HYPER_WAIT_DMMDONE:spim <- $r0
	@DEBUG_VALUE: SPIM_HYPER_Init:u32HyperMode <- [DW_OP_LLVM_entry_value 1] $r1
	@DEBUG_VALUE: SPIM_HYPER_Init:u32Div <- $r2
	@DEBUG_VALUE: SPIM_HYPER_Init:spim <- $r0
	.loc	5 646 12 is_stmt 1              @ ../../../../Library/StdDriver/inc\spim_hyper.h:646:12
	ldr	r1, [r0, #68]
	.loc	5 646 5 is_stmt 0               @ ../../../../Library/StdDriver/inc\spim_hyper.h:646:5
	lsls	r1, r1, #4
	bpl	.LBB0_9
.Ltmp14:
@ %bb.6:                                @   in Loop: Header=BB0_1 Depth=1
	@DEBUG_VALUE: SPIM_HYPER_DISABLE_CIPHER:spim <- $r0
	@DEBUG_VALUE: SPIM_HYPER_WAIT_DMMDONE:spim <- $r0
	@DEBUG_VALUE: SPIM_HYPER_Init:u32HyperMode <- [DW_OP_LLVM_entry_value 1] $r1
	@DEBUG_VALUE: SPIM_HYPER_Init:u32Div <- $r2
	@DEBUG_VALUE: SPIM_HYPER_Init:spim <- $r0
	.loc	5 648 13 is_stmt 1              @ ../../../../Library/StdDriver/inc\spim_hyper.h:648:13
	ldr	r1, [sp]
	subs	r3, r1, #1
.Ltmp15:
	.loc	5 648 13 is_stmt 0              @ ../../../../Library/StdDriver/inc\spim_hyper.h:648:13
	cmp	r1, #2
.Ltmp16:
	@DEBUG_VALUE: SPIM_HYPER_WAIT_DMMDONE:i32TimeOutCount <- [DW_OP_constu 1, DW_OP_minus, DW_OP_stack_value] undef
	.loc	5 648 13                        @ ../../../../Library/StdDriver/inc\spim_hyper.h:648:13
	str	r3, [sp]
.Ltmp17:
	.loc	5 648 13                        @ ../../../../Library/StdDriver/inc\spim_hyper.h:648:13
	blt	.LBB0_9
.Ltmp18:
@ %bb.7:                                @   in Loop: Header=BB0_1 Depth=1
	@DEBUG_VALUE: SPIM_HYPER_DISABLE_CIPHER:spim <- $r0
	@DEBUG_VALUE: SPIM_HYPER_WAIT_DMMDONE:spim <- $r0
	@DEBUG_VALUE: SPIM_HYPER_Init:u32HyperMode <- [DW_OP_LLVM_entry_value 1] $r1
	@DEBUG_VALUE: SPIM_HYPER_Init:u32Div <- $r2
	@DEBUG_VALUE: SPIM_HYPER_Init:spim <- $r0
	.loc	5 646 12 is_stmt 1              @ ../../../../Library/StdDriver/inc\spim_hyper.h:646:12
	ldr	r1, [r0, #68]
	.loc	5 646 5 is_stmt 0               @ ../../../../Library/StdDriver/inc\spim_hyper.h:646:5
	lsls	r1, r1, #4
	bpl	.LBB0_9
.Ltmp19:
@ %bb.8:                                @   in Loop: Header=BB0_1 Depth=1
	@DEBUG_VALUE: SPIM_HYPER_DISABLE_CIPHER:spim <- $r0
	@DEBUG_VALUE: SPIM_HYPER_WAIT_DMMDONE:spim <- $r0
	@DEBUG_VALUE: SPIM_HYPER_Init:u32HyperMode <- [DW_OP_LLVM_entry_value 1] $r1
	@DEBUG_VALUE: SPIM_HYPER_Init:u32Div <- $r2
	@DEBUG_VALUE: SPIM_HYPER_Init:spim <- $r0
	.loc	5 648 13 is_stmt 1              @ ../../../../Library/StdDriver/inc\spim_hyper.h:648:13
	ldr	r1, [sp]
	subs	r1, #1
	str	r1, [sp]
.Ltmp20:
	@DEBUG_VALUE: SPIM_HYPER_WAIT_DMMDONE:i32TimeOutCount <- [DW_OP_deref] $sp
	.loc	5 648 13 is_stmt 0              @ ../../../../Library/StdDriver/inc\spim_hyper.h:648:13
	bgt	.LBB0_1
.Ltmp21:
.LBB0_9:
	@DEBUG_VALUE: SPIM_HYPER_DISABLE_CIPHER:spim <- $r0
	@DEBUG_VALUE: SPIM_HYPER_WAIT_DMMDONE:spim <- $r0
	@DEBUG_VALUE: SPIM_HYPER_Init:u32HyperMode <- [DW_OP_LLVM_entry_value 1] $r1
	@DEBUG_VALUE: SPIM_HYPER_Init:u32Div <- $r2
	@DEBUG_VALUE: SPIM_HYPER_Init:spim <- $r0
	.loc	5 654 21 is_stmt 1              @ ../../../../Library/StdDriver/inc\spim_hyper.h:654:21
	str.w	r12, [sp]
.Ltmp22:
	@DEBUG_VALUE: SPIM_HYPER_WAIT_DMMDONE:i32TimeOutCount <- [DW_OP_deref] $sp
.LBB0_10:                               @ =>This Inner Loop Header: Depth=1
	@DEBUG_VALUE: SPIM_HYPER_DISABLE_CIPHER:spim <- $r0
	@DEBUG_VALUE: SPIM_HYPER_WAIT_DMMDONE:i32TimeOutCount <- [DW_OP_deref] $sp
	@DEBUG_VALUE: SPIM_HYPER_WAIT_DMMDONE:spim <- $r0
	@DEBUG_VALUE: SPIM_HYPER_Init:u32HyperMode <- [DW_OP_LLVM_entry_value 1] $r1
	@DEBUG_VALUE: SPIM_HYPER_Init:u32Div <- $r2
	@DEBUG_VALUE: SPIM_HYPER_Init:spim <- $r0
	.loc	5 657 12                        @ ../../../../Library/StdDriver/inc\spim_hyper.h:657:12
	ldr	r1, [r0, #68]
	.loc	5 657 5 is_stmt 0               @ ../../../../Library/StdDriver/inc\spim_hyper.h:657:5
	cmp	r1, #0
	bmi	.LBB0_18
.Ltmp23:
@ %bb.11:                               @   in Loop: Header=BB0_10 Depth=1
	@DEBUG_VALUE: SPIM_HYPER_DISABLE_CIPHER:spim <- $r0
	@DEBUG_VALUE: SPIM_HYPER_WAIT_DMMDONE:i32TimeOutCount <- [DW_OP_deref] $sp
	@DEBUG_VALUE: SPIM_HYPER_WAIT_DMMDONE:spim <- $r0
	@DEBUG_VALUE: SPIM_HYPER_Init:u32HyperMode <- [DW_OP_LLVM_entry_value 1] $r1
	@DEBUG_VALUE: SPIM_HYPER_Init:u32Div <- $r2
	@DEBUG_VALUE: SPIM_HYPER_Init:spim <- $r0
	.loc	5 659 13 is_stmt 1              @ ../../../../Library/StdDriver/inc\spim_hyper.h:659:13
	ldr	r1, [sp]
	subs	r3, r1, #1
.Ltmp24:
	.loc	5 659 13 is_stmt 0              @ ../../../../Library/StdDriver/inc\spim_hyper.h:659:13
	cmp	r1, #2
.Ltmp25:
	@DEBUG_VALUE: SPIM_HYPER_WAIT_DMMDONE:i32TimeOutCount <- [DW_OP_constu 1, DW_OP_minus, DW_OP_stack_value] undef
	.loc	5 659 13                        @ ../../../../Library/StdDriver/inc\spim_hyper.h:659:13
	str	r3, [sp]
.Ltmp26:
	.loc	5 659 13                        @ ../../../../Library/StdDriver/inc\spim_hyper.h:659:13
	blt	.LBB0_18
.Ltmp27:
@ %bb.12:                               @   in Loop: Header=BB0_10 Depth=1
	@DEBUG_VALUE: SPIM_HYPER_DISABLE_CIPHER:spim <- $r0
	@DEBUG_VALUE: SPIM_HYPER_WAIT_DMMDONE:spim <- $r0
	@DEBUG_VALUE: SPIM_HYPER_Init:u32HyperMode <- [DW_OP_LLVM_entry_value 1] $r1
	@DEBUG_VALUE: SPIM_HYPER_Init:u32Div <- $r2
	@DEBUG_VALUE: SPIM_HYPER_Init:spim <- $r0
	.loc	5 657 12 is_stmt 1              @ ../../../../Library/StdDriver/inc\spim_hyper.h:657:12
	ldr	r1, [r0, #68]
	.loc	5 657 5 is_stmt 0               @ ../../../../Library/StdDriver/inc\spim_hyper.h:657:5
	cmp	r1, #0
	bmi	.LBB0_18
.Ltmp28:
@ %bb.13:                               @   in Loop: Header=BB0_10 Depth=1
	@DEBUG_VALUE: SPIM_HYPER_DISABLE_CIPHER:spim <- $r0
	@DEBUG_VALUE: SPIM_HYPER_WAIT_DMMDONE:spim <- $r0
	@DEBUG_VALUE: SPIM_HYPER_Init:u32HyperMode <- [DW_OP_LLVM_entry_value 1] $r1
	@DEBUG_VALUE: SPIM_HYPER_Init:u32Div <- $r2
	@DEBUG_VALUE: SPIM_HYPER_Init:spim <- $r0
	.loc	5 659 13 is_stmt 1              @ ../../../../Library/StdDriver/inc\spim_hyper.h:659:13
	ldr	r1, [sp]
	subs	r3, r1, #1
.Ltmp29:
	.loc	5 659 13 is_stmt 0              @ ../../../../Library/StdDriver/inc\spim_hyper.h:659:13
	cmp	r1, #2
.Ltmp30:
	@DEBUG_VALUE: SPIM_HYPER_WAIT_DMMDONE:i32TimeOutCount <- [DW_OP_constu 1, DW_OP_minus, DW_OP_stack_value] undef
	.loc	5 659 13                        @ ../../../../Library/StdDriver/inc\spim_hyper.h:659:13
	str	r3, [sp]
.Ltmp31:
	.loc	5 659 13                        @ ../../../../Library/StdDriver/inc\spim_hyper.h:659:13
	blt	.LBB0_18
.Ltmp32:
@ %bb.14:                               @   in Loop: Header=BB0_10 Depth=1
	@DEBUG_VALUE: SPIM_HYPER_DISABLE_CIPHER:spim <- $r0
	@DEBUG_VALUE: SPIM_HYPER_WAIT_DMMDONE:spim <- $r0
	@DEBUG_VALUE: SPIM_HYPER_Init:u32HyperMode <- [DW_OP_LLVM_entry_value 1] $r1
	@DEBUG_VALUE: SPIM_HYPER_Init:u32Div <- $r2
	@DEBUG_VALUE: SPIM_HYPER_Init:spim <- $r0
	.loc	5 657 12 is_stmt 1              @ ../../../../Library/StdDriver/inc\spim_hyper.h:657:12
	ldr	r1, [r0, #68]
	.loc	5 657 5 is_stmt 0               @ ../../../../Library/StdDriver/inc\spim_hyper.h:657:5
	cmp	r1, #0
	bmi	.LBB0_18
.Ltmp33:
@ %bb.15:                               @   in Loop: Header=BB0_10 Depth=1
	@DEBUG_VALUE: SPIM_HYPER_DISABLE_CIPHER:spim <- $r0
	@DEBUG_VALUE: SPIM_HYPER_WAIT_DMMDONE:spim <- $r0
	@DEBUG_VALUE: SPIM_HYPER_Init:u32HyperMode <- [DW_OP_LLVM_entry_value 1] $r1
	@DEBUG_VALUE: SPIM_HYPER_Init:u32Div <- $r2
	@DEBUG_VALUE: SPIM_HYPER_Init:spim <- $r0
	.loc	5 659 13 is_stmt 1              @ ../../../../Library/StdDriver/inc\spim_hyper.h:659:13
	ldr	r1, [sp]
	subs	r3, r1, #1
.Ltmp34:
	.loc	5 659 13 is_stmt 0              @ ../../../../Library/StdDriver/inc\spim_hyper.h:659:13
	cmp	r1, #2
.Ltmp35:
	@DEBUG_VALUE: SPIM_HYPER_WAIT_DMMDONE:i32TimeOutCount <- [DW_OP_constu 1, DW_OP_minus, DW_OP_stack_value] undef
	.loc	5 659 13                        @ ../../../../Library/StdDriver/inc\spim_hyper.h:659:13
	str	r3, [sp]
.Ltmp36:
	.loc	5 659 13                        @ ../../../../Library/StdDriver/inc\spim_hyper.h:659:13
	blt	.LBB0_18
.Ltmp37:
@ %bb.16:                               @   in Loop: Header=BB0_10 Depth=1
	@DEBUG_VALUE: SPIM_HYPER_DISABLE_CIPHER:spim <- $r0
	@DEBUG_VALUE: SPIM_HYPER_WAIT_DMMDONE:spim <- $r0
	@DEBUG_VALUE: SPIM_HYPER_Init:u32HyperMode <- [DW_OP_LLVM_entry_value 1] $r1
	@DEBUG_VALUE: SPIM_HYPER_Init:u32Div <- $r2
	@DEBUG_VALUE: SPIM_HYPER_Init:spim <- $r0
	.loc	5 657 12 is_stmt 1              @ ../../../../Library/StdDriver/inc\spim_hyper.h:657:12
	ldr	r1, [r0, #68]
	.loc	5 657 5 is_stmt 0               @ ../../../../Library/StdDriver/inc\spim_hyper.h:657:5
	cmp	r1, #0
	bmi	.LBB0_18
.Ltmp38:
@ %bb.17:                               @   in Loop: Header=BB0_10 Depth=1
	@DEBUG_VALUE: SPIM_HYPER_DISABLE_CIPHER:spim <- $r0
	@DEBUG_VALUE: SPIM_HYPER_WAIT_DMMDONE:spim <- $r0
	@DEBUG_VALUE: SPIM_HYPER_Init:u32HyperMode <- [DW_OP_LLVM_entry_value 1] $r1
	@DEBUG_VALUE: SPIM_HYPER_Init:u32Div <- $r2
	@DEBUG_VALUE: SPIM_HYPER_Init:spim <- $r0
	.loc	5 659 13 is_stmt 1              @ ../../../../Library/StdDriver/inc\spim_hyper.h:659:13
	ldr	r1, [sp]
	subs	r1, #1
	str	r1, [sp]
.Ltmp39:
	@DEBUG_VALUE: SPIM_HYPER_WAIT_DMMDONE:i32TimeOutCount <- [DW_OP_deref] $sp
	.loc	5 659 13 is_stmt 0              @ ../../../../Library/StdDriver/inc\spim_hyper.h:659:13
	bgt	.LBB0_10
.Ltmp40:
.LBB0_18:
	@DEBUG_VALUE: SPIM_HYPER_DISABLE_CIPHER:spim <- $r0
	@DEBUG_VALUE: SPIM_HYPER_Init:u32HyperMode <- [DW_OP_LLVM_entry_value 1] $r1
	@DEBUG_VALUE: SPIM_HYPER_Init:u32Div <- $r2
	@DEBUG_VALUE: SPIM_HYPER_Init:spim <- $r0
	.loc	5 677 16 is_stmt 1              @ ../../../../Library/StdDriver/inc\spim_hyper.h:677:16
	ldr	r1, [r0]
.Ltmp41:
	.loc	4 211 5                         @ ../../../../Library/StdDriver/src/spim_hyper.c:211:5
	subs	r3, r2, #3
	lsls	r2, r2, #16
.Ltmp42:
	@DEBUG_VALUE: SPIM_HYPER_Init:u32Div <- [DW_OP_LLVM_entry_value 1] $r2
	.loc	5 677 16                        @ ../../../../Library/StdDriver/inc\spim_hyper.h:677:16
	orr	r1, r1, #1
	str	r1, [r0]
.Ltmp43:
	.loc	4 211 5                         @ ../../../../Library/StdDriver/src/spim_hyper.c:211:5
	ldr	r1, [r0, #4]
	cmn.w	r3, #2
	it	lo
	movlo.w	r2, #65536
	uxth	r1, r1
	add	r1, r2
	str	r1, [r0, #4]
	.loc	4 212 1 epilogue_begin          @ ../../../../Library/StdDriver/src/spim_hyper.c:212:1
	add	sp, #4
	bx	lr
.Ltmp44:
.Lfunc_end0:
	.size	SPIM_HYPER_Init, .Lfunc_end0-SPIM_HYPER_Init
	.cfi_endproc
	.file	6 "C:\\Users\\jimmy\\Desktop\\Nuvoton\\Nuvoton-Team\\repos\\m55m1-ElevatorCounting-YOLOv8n\\KEIL" "../../../../Library/Device/Nuvoton/M55M1/Include\\spim_reg.h"
	.cantunwind
	.fnend
                                        @ -- End function
	.section	.text.SPIM_HYPER_WaitSPIMENDone,"ax",%progbits
	.hidden	SPIM_HYPER_WaitSPIMENDone       @ -- Begin function SPIM_HYPER_WaitSPIMENDone
	.globl	SPIM_HYPER_WaitSPIMENDone
	.p2align	2
	.type	SPIM_HYPER_WaitSPIMENDone,%function
	.code	16                              @ @SPIM_HYPER_WaitSPIMENDone
	.thumb_func
SPIM_HYPER_WaitSPIMENDone:
.Lfunc_begin1:
	.loc	4 222 0                         @ ../../../../Library/StdDriver/src/spim_hyper.c:222:0
	.fnstart
	.cfi_startproc
@ %bb.0:
	@DEBUG_VALUE: SPIM_HYPER_WaitSPIMENDone:spim <- $r0
	@DEBUG_VALUE: SPIM_HYPER_WaitSPIMENDone:u32IsSync <- $r1
	.pad	#4
	sub	sp, #4
	.cfi_def_cfa_offset 4
.Ltmp45:
	.loc	4 223 49 prologue_end           @ ../../../../Library/StdDriver/src/spim_hyper.c:223:49
	movw	r2, :lower16:SystemCoreClock
	movt	r2, :upper16:SystemCoreClock
	ldr	r2, [r2]
	.loc	4 223 22 is_stmt 0              @ ../../../../Library/StdDriver/src/spim_hyper.c:223:22
	str	r2, [sp]
	.loc	4 226 5 is_stmt 1               @ ../../../../Library/StdDriver/src/spim_hyper.c:226:5
	mov	r2, r0
	ldr	r3, [r2, #4]!
	orr	r3, r3, #1
	str	r3, [r2]
	.loc	4 228 9                         @ ../../../../Library/StdDriver/src/spim_hyper.c:228:9
	cbz	r1, .LBB1_4
.Ltmp46:
@ %bb.1:
	@DEBUG_VALUE: SPIM_HYPER_WaitSPIMENDone:u32IsSync <- $r1
	@DEBUG_VALUE: SPIM_HYPER_WaitSPIMENDone:spim <- $r0
	.loc	4 0 9 is_stmt 0                 @ ../../../../Library/StdDriver/src/spim_hyper.c:0:9
	adds	r0, #152
.Ltmp47:
	@DEBUG_VALUE: SPIM_HYPER_WaitSPIMENDone:spim <- [DW_OP_LLVM_entry_value 1] $r0
	.p2align	2
.LBB1_2:                                @ =>This Inner Loop Header: Depth=1
	@DEBUG_VALUE: SPIM_HYPER_WaitSPIMENDone:spim <- [DW_OP_LLVM_entry_value 1] $r0
	.loc	4 230 17 is_stmt 1              @ ../../../../Library/StdDriver/src/spim_hyper.c:230:17
	ldr	r1, [r0]
.Ltmp48:
	@DEBUG_VALUE: SPIM_HYPER_WaitSPIMENDone:u32IsSync <- [DW_OP_LLVM_entry_value 1] $r1
	lsls	r1, r1, #31
	csel	r1, r2, r0, eq
	.loc	4 230 0 is_stmt 0               @ ../../../../Library/StdDriver/src/spim_hyper.c:230:0
	ldr	r1, [r1]
	.loc	4 230 9                         @ ../../../../Library/StdDriver/src/spim_hyper.c:230:9
	lsls	r1, r1, #31
	beq	.LBB1_4
.Ltmp49:
@ %bb.3:                                @   in Loop: Header=BB1_2 Depth=1
	@DEBUG_VALUE: SPIM_HYPER_WaitSPIMENDone:spim <- [DW_OP_LLVM_entry_value 1] $r0
	.loc	4 232 17 is_stmt 1              @ ../../../../Library/StdDriver/src/spim_hyper.c:232:17
	ldr	r1, [sp]
	subs	r1, #1
	str	r1, [sp]
	ittt	le
	mvnle	r0, #1
.Ltmp50:
	.loc	4 240 1 epilogue_begin          @ ../../../../Library/StdDriver/src/spim_hyper.c:240:1
	addle	sp, #4
	bxle	lr
	b	.LBB1_2
.Ltmp51:
.LBB1_4:
	.loc	4 0 1 is_stmt 0                 @ ../../../../Library/StdDriver/src/spim_hyper.c:0:1
	movs	r0, #0
	.loc	4 240 1 epilogue_begin          @ ../../../../Library/StdDriver/src/spim_hyper.c:240:1
	add	sp, #4
	bx	lr
.Ltmp52:
.Lfunc_end1:
	.size	SPIM_HYPER_WaitSPIMENDone, .Lfunc_end1-SPIM_HYPER_WaitSPIMENDone
	.cfi_endproc
	.cantunwind
	.fnend
                                        @ -- End function
	.section	.text.SPIM_HYPER_Reset,"ax",%progbits
	.hidden	SPIM_HYPER_Reset                @ -- Begin function SPIM_HYPER_Reset
	.globl	SPIM_HYPER_Reset
	.p2align	2
	.type	SPIM_HYPER_Reset,%function
	.code	16                              @ @SPIM_HYPER_Reset
	.thumb_func
SPIM_HYPER_Reset:
.Lfunc_begin2:
	.loc	4 250 0 is_stmt 1               @ ../../../../Library/StdDriver/src/spim_hyper.c:250:0
	.fnstart
	.cfi_startproc
@ %bb.0:
	@DEBUG_VALUE: SPIM_HYPER_Reset:spim <- $r0
	.pad	#8
	sub	sp, #8
	.cfi_def_cfa_offset 8
.Ltmp53:
	@DEBUG_VALUE: SPIM_HYPER_Reset:u32Delay <- [DW_OP_deref] $sp
	movs	r1, #0
.Ltmp54:
	.loc	4 251 23 prologue_end           @ ../../../../Library/StdDriver/src/spim_hyper.c:251:23
	str	r1, [sp]
	movs	r1, #1
.Ltmp55:
	@DEBUG_VALUE: SPIM_HYPER_Reset:i32Ret <- -1
	.loc	4 254 21                        @ ../../../../Library/StdDriver/src/spim_hyper.c:254:21
	str.w	r1, [r0, #128]
.Ltmp56:
	@DEBUG_VALUE: spim_hyper_wait_cmdidle:spim <- $r0
	@DEBUG_VALUE: spim_hyper_wait_cmdidle:i32TimeOutCnt <- [DW_OP_plus_uconst 4, DW_OP_deref] $sp
	.loc	4 113 47                        @ ../../../../Library/StdDriver/src/spim_hyper.c:113:47
	movw	r1, :lower16:SystemCoreClock
	movt	r1, :upper16:SystemCoreClock
	ldr	r1, [r1]
	.loc	4 113 22 is_stmt 0              @ ../../../../Library/StdDriver/src/spim_hyper.c:113:22
	str	r1, [sp, #4]
.Ltmp57:
.LBB2_1:                                @ =>This Inner Loop Header: Depth=1
	@DEBUG_VALUE: spim_hyper_wait_cmdidle:i32TimeOutCnt <- [DW_OP_plus_uconst 4, DW_OP_deref] $sp
	@DEBUG_VALUE: spim_hyper_wait_cmdidle:spim <- $r0
	@DEBUG_VALUE: SPIM_HYPER_Reset:i32Ret <- -1
	@DEBUG_VALUE: SPIM_HYPER_Reset:u32Delay <- [DW_OP_deref] $sp
	@DEBUG_VALUE: SPIM_HYPER_Reset:spim <- $r0
	.loc	4 115 18 is_stmt 1              @ ../../../../Library/StdDriver/src/spim_hyper.c:115:18
	ldr.w	r1, [r0, #128]
	.loc	4 115 5 is_stmt 0               @ ../../../../Library/StdDriver/src/spim_hyper.c:115:5
	cmp	r1, #0
	mov.w	r1, #0
	beq	.LBB2_10
.Ltmp58:
@ %bb.2:                                @   in Loop: Header=BB2_1 Depth=1
	@DEBUG_VALUE: spim_hyper_wait_cmdidle:i32TimeOutCnt <- [DW_OP_plus_uconst 4, DW_OP_deref] $sp
	@DEBUG_VALUE: spim_hyper_wait_cmdidle:spim <- $r0
	@DEBUG_VALUE: SPIM_HYPER_Reset:i32Ret <- -1
	@DEBUG_VALUE: SPIM_HYPER_Reset:u32Delay <- [DW_OP_deref] $sp
	@DEBUG_VALUE: SPIM_HYPER_Reset:spim <- $r0
	.loc	4 117 13 is_stmt 1              @ ../../../../Library/StdDriver/src/spim_hyper.c:117:13
	ldr	r2, [sp, #4]
	subs	r3, r2, #1
.Ltmp59:
	.loc	4 117 13 is_stmt 0              @ ../../../../Library/StdDriver/src/spim_hyper.c:117:13
	cmp	r2, #2
.Ltmp60:
	@DEBUG_VALUE: spim_hyper_wait_cmdidle:i32TimeOutCnt <- [DW_OP_constu 1, DW_OP_minus, DW_OP_stack_value] undef
	.loc	4 117 13                        @ ../../../../Library/StdDriver/src/spim_hyper.c:117:13
	str	r3, [sp, #4]
.Ltmp61:
	.loc	4 117 13                        @ ../../../../Library/StdDriver/src/spim_hyper.c:117:13
	blt	.LBB2_9
.Ltmp62:
@ %bb.3:                                @   in Loop: Header=BB2_1 Depth=1
	@DEBUG_VALUE: spim_hyper_wait_cmdidle:spim <- $r0
	@DEBUG_VALUE: SPIM_HYPER_Reset:i32Ret <- -1
	@DEBUG_VALUE: SPIM_HYPER_Reset:u32Delay <- [DW_OP_deref] $sp
	@DEBUG_VALUE: SPIM_HYPER_Reset:spim <- $r0
	.loc	4 115 18 is_stmt 1              @ ../../../../Library/StdDriver/src/spim_hyper.c:115:18
	ldr.w	r2, [r0, #128]
	.loc	4 115 5 is_stmt 0               @ ../../../../Library/StdDriver/src/spim_hyper.c:115:5
	cbz	r2, .LBB2_10
.Ltmp63:
@ %bb.4:                                @   in Loop: Header=BB2_1 Depth=1
	@DEBUG_VALUE: spim_hyper_wait_cmdidle:spim <- $r0
	@DEBUG_VALUE: SPIM_HYPER_Reset:i32Ret <- -1
	@DEBUG_VALUE: SPIM_HYPER_Reset:u32Delay <- [DW_OP_deref] $sp
	@DEBUG_VALUE: SPIM_HYPER_Reset:spim <- $r0
	.loc	4 117 13 is_stmt 1              @ ../../../../Library/StdDriver/src/spim_hyper.c:117:13
	ldr	r2, [sp, #4]
	subs	r3, r2, #1
.Ltmp64:
	.loc	4 117 13 is_stmt 0              @ ../../../../Library/StdDriver/src/spim_hyper.c:117:13
	cmp	r2, #2
.Ltmp65:
	@DEBUG_VALUE: spim_hyper_wait_cmdidle:i32TimeOutCnt <- [DW_OP_constu 1, DW_OP_minus, DW_OP_stack_value] undef
	.loc	4 117 13                        @ ../../../../Library/StdDriver/src/spim_hyper.c:117:13
	str	r3, [sp, #4]
.Ltmp66:
	.loc	4 117 13                        @ ../../../../Library/StdDriver/src/spim_hyper.c:117:13
	blt	.LBB2_9
.Ltmp67:
@ %bb.5:                                @   in Loop: Header=BB2_1 Depth=1
	@DEBUG_VALUE: spim_hyper_wait_cmdidle:spim <- $r0
	@DEBUG_VALUE: SPIM_HYPER_Reset:i32Ret <- -1
	@DEBUG_VALUE: SPIM_HYPER_Reset:u32Delay <- [DW_OP_deref] $sp
	@DEBUG_VALUE: SPIM_HYPER_Reset:spim <- $r0
	.loc	4 115 18 is_stmt 1              @ ../../../../Library/StdDriver/src/spim_hyper.c:115:18
	ldr.w	r2, [r0, #128]
	.loc	4 115 5 is_stmt 0               @ ../../../../Library/StdDriver/src/spim_hyper.c:115:5
	cbz	r2, .LBB2_10
.Ltmp68:
@ %bb.6:                                @   in Loop: Header=BB2_1 Depth=1
	@DEBUG_VALUE: spim_hyper_wait_cmdidle:spim <- $r0
	@DEBUG_VALUE: SPIM_HYPER_Reset:i32Ret <- -1
	@DEBUG_VALUE: SPIM_HYPER_Reset:u32Delay <- [DW_OP_deref] $sp
	@DEBUG_VALUE: SPIM_HYPER_Reset:spim <- $r0
	.loc	4 117 13 is_stmt 1              @ ../../../../Library/StdDriver/src/spim_hyper.c:117:13
	ldr	r2, [sp, #4]
	subs	r3, r2, #1
.Ltmp69:
	.loc	4 117 13 is_stmt 0              @ ../../../../Library/StdDriver/src/spim_hyper.c:117:13
	cmp	r2, #2
.Ltmp70:
	@DEBUG_VALUE: spim_hyper_wait_cmdidle:i32TimeOutCnt <- [DW_OP_constu 1, DW_OP_minus, DW_OP_stack_value] undef
	.loc	4 117 13                        @ ../../../../Library/StdDriver/src/spim_hyper.c:117:13
	str	r3, [sp, #4]
.Ltmp71:
	.loc	4 117 13                        @ ../../../../Library/StdDriver/src/spim_hyper.c:117:13
	blt	.LBB2_9
.Ltmp72:
@ %bb.7:                                @   in Loop: Header=BB2_1 Depth=1
	@DEBUG_VALUE: spim_hyper_wait_cmdidle:spim <- $r0
	@DEBUG_VALUE: SPIM_HYPER_Reset:i32Ret <- -1
	@DEBUG_VALUE: SPIM_HYPER_Reset:u32Delay <- [DW_OP_deref] $sp
	@DEBUG_VALUE: SPIM_HYPER_Reset:spim <- $r0
	.loc	4 115 18 is_stmt 1              @ ../../../../Library/StdDriver/src/spim_hyper.c:115:18
	ldr.w	r2, [r0, #128]
	.loc	4 115 5 is_stmt 0               @ ../../../../Library/StdDriver/src/spim_hyper.c:115:5
	cbz	r2, .LBB2_10
.Ltmp73:
@ %bb.8:                                @   in Loop: Header=BB2_1 Depth=1
	@DEBUG_VALUE: spim_hyper_wait_cmdidle:spim <- $r0
	@DEBUG_VALUE: SPIM_HYPER_Reset:i32Ret <- -1
	@DEBUG_VALUE: SPIM_HYPER_Reset:u32Delay <- [DW_OP_deref] $sp
	@DEBUG_VALUE: SPIM_HYPER_Reset:spim <- $r0
	.loc	4 117 13 is_stmt 1              @ ../../../../Library/StdDriver/src/spim_hyper.c:117:13
	ldr	r2, [sp, #4]
	subs	r2, #1
	str	r2, [sp, #4]
.Ltmp74:
	@DEBUG_VALUE: spim_hyper_wait_cmdidle:i32TimeOutCnt <- [DW_OP_plus_uconst 4, DW_OP_deref] $sp
	.loc	4 117 13 is_stmt 0              @ ../../../../Library/StdDriver/src/spim_hyper.c:117:13
	bgt	.LBB2_1
.Ltmp75:
.LBB2_9:
	@DEBUG_VALUE: spim_hyper_wait_cmdidle:spim <- $r0
	@DEBUG_VALUE: SPIM_HYPER_Reset:i32Ret <- -1
	@DEBUG_VALUE: SPIM_HYPER_Reset:u32Delay <- [DW_OP_deref] $sp
	@DEBUG_VALUE: SPIM_HYPER_Reset:spim <- $r0
	.loc	4 0 13                          @ ../../../../Library/StdDriver/src/spim_hyper.c:0:13
	mvn	r0, #1
.Ltmp76:
	@DEBUG_VALUE: SPIM_HYPER_Reset:spim <- [DW_OP_LLVM_entry_value 1] $r0
	b	.LBB2_11
.Ltmp77:
.LBB2_10:
	@DEBUG_VALUE: spim_hyper_wait_cmdidle:spim <- $r0
	@DEBUG_VALUE: SPIM_HYPER_Reset:i32Ret <- -1
	@DEBUG_VALUE: SPIM_HYPER_Reset:u32Delay <- [DW_OP_deref] $sp
	@DEBUG_VALUE: SPIM_HYPER_Reset:spim <- $r0
	movs	r0, #0
.Ltmp78:
	@DEBUG_VALUE: SPIM_HYPER_Reset:spim <- [DW_OP_LLVM_entry_value 1] $r0
.LBB2_11:
	@DEBUG_VALUE: SPIM_HYPER_Reset:spim <- [DW_OP_LLVM_entry_value 1] $r0
	@DEBUG_VALUE: SPIM_HYPER_Reset:i32Ret <- -1
	@DEBUG_VALUE: SPIM_HYPER_Reset:u32Delay <- [DW_OP_deref] $sp
	@DEBUG_VALUE: SPIM_HYPER_Reset:i32Ret <- $r0
	.loc	4 259 19 is_stmt 1              @ ../../../../Library/StdDriver/src/spim_hyper.c:259:19
	str	r1, [sp]
	@DEBUG_VALUE: SPIM_HYPER_Reset:u32Delay <- [DW_OP_deref] $sp
.Ltmp79:
	.loc	4 259 24 is_stmt 0              @ ../../../../Library/StdDriver/src/spim_hyper.c:259:24
	ldr	r1, [sp]
.Ltmp80:
	.loc	4 259 5                         @ ../../../../Library/StdDriver/src/spim_hyper.c:259:5
	lsrs	r1, r1, #12
	cmp	r1, #2
	bhi	.LBB2_16
.Ltmp81:
	.loc	4 0 5                           @ :0:5
.Ltmp82:
	.p2align	2
.LBB2_12:                               @ =>This Inner Loop Header: Depth=1
	@DEBUG_VALUE: SPIM_HYPER_Reset:i32Ret <- $r0
	@DEBUG_VALUE: SPIM_HYPER_Reset:spim <- [DW_OP_LLVM_entry_value 1] $r0
	@DEBUG_VALUE: SPIM_HYPER_Reset:u32Delay <- [DW_OP_deref] $sp
	.loc	4 259 51                        @ ../../../../Library/StdDriver/src/spim_hyper.c:259:51
	ldr	r1, [sp]
	adds	r1, #1
	str	r1, [sp]
	.loc	4 259 24                        @ ../../../../Library/StdDriver/src/spim_hyper.c:259:24
	ldr	r1, [sp]
.Ltmp83:
	.loc	4 259 5                         @ ../../../../Library/StdDriver/src/spim_hyper.c:259:5
	lsrs	r1, r1, #12
	cmp	r1, #2
.Ltmp84:
	@DEBUG_VALUE: SPIM_HYPER_Reset:u32Delay <- [DW_OP_plus_uconst 1, DW_OP_stack_value] undef
	bhi	.LBB2_16
.Ltmp85:
@ %bb.13:                               @   in Loop: Header=BB2_12 Depth=1
	@DEBUG_VALUE: SPIM_HYPER_Reset:i32Ret <- $r0
	@DEBUG_VALUE: SPIM_HYPER_Reset:spim <- [DW_OP_LLVM_entry_value 1] $r0
	.loc	4 259 51                        @ ../../../../Library/StdDriver/src/spim_hyper.c:259:51
	ldr	r1, [sp]
	adds	r1, #1
	str	r1, [sp]
	.loc	4 259 24                        @ ../../../../Library/StdDriver/src/spim_hyper.c:259:24
	ldr	r1, [sp]
.Ltmp86:
	.loc	4 259 5                         @ ../../../../Library/StdDriver/src/spim_hyper.c:259:5
	lsrs	r1, r1, #12
	cmp	r1, #2
.Ltmp87:
	@DEBUG_VALUE: SPIM_HYPER_Reset:u32Delay <- [DW_OP_plus_uconst 1, DW_OP_stack_value] undef
	bhi	.LBB2_16
.Ltmp88:
@ %bb.14:                               @   in Loop: Header=BB2_12 Depth=1
	@DEBUG_VALUE: SPIM_HYPER_Reset:i32Ret <- $r0
	@DEBUG_VALUE: SPIM_HYPER_Reset:spim <- [DW_OP_LLVM_entry_value 1] $r0
	.loc	4 259 51                        @ ../../../../Library/StdDriver/src/spim_hyper.c:259:51
	ldr	r1, [sp]
	adds	r1, #1
	str	r1, [sp]
	.loc	4 259 24                        @ ../../../../Library/StdDriver/src/spim_hyper.c:259:24
	ldr	r1, [sp]
.Ltmp89:
	.loc	4 259 5                         @ ../../../../Library/StdDriver/src/spim_hyper.c:259:5
	lsrs	r1, r1, #12
	cmp	r1, #2
.Ltmp90:
	@DEBUG_VALUE: SPIM_HYPER_Reset:u32Delay <- [DW_OP_plus_uconst 1, DW_OP_stack_value] undef
	bhi	.LBB2_16
.Ltmp91:
@ %bb.15:                               @   in Loop: Header=BB2_12 Depth=1
	@DEBUG_VALUE: SPIM_HYPER_Reset:i32Ret <- $r0
	@DEBUG_VALUE: SPIM_HYPER_Reset:spim <- [DW_OP_LLVM_entry_value 1] $r0
	.loc	4 259 51                        @ ../../../../Library/StdDriver/src/spim_hyper.c:259:51
	ldr	r1, [sp]
	adds	r1, #1
	str	r1, [sp]
.Ltmp92:
	@DEBUG_VALUE: SPIM_HYPER_Reset:u32Delay <- [DW_OP_deref] $sp
	.loc	4 259 24                        @ ../../../../Library/StdDriver/src/spim_hyper.c:259:24
	ldr	r1, [sp]
.Ltmp93:
	.loc	4 259 5                         @ ../../../../Library/StdDriver/src/spim_hyper.c:259:5
	cmp.w	r1, #12288
	blo	.LBB2_12
.Ltmp94:
.LBB2_16:
	@DEBUG_VALUE: SPIM_HYPER_Reset:i32Ret <- $r0
	@DEBUG_VALUE: SPIM_HYPER_Reset:spim <- [DW_OP_LLVM_entry_value 1] $r0
	.loc	4 261 5 epilogue_begin is_stmt 1 @ ../../../../Library/StdDriver/src/spim_hyper.c:261:5
	add	sp, #8
	bx	lr
.Ltmp95:
.Lfunc_end2:
	.size	SPIM_HYPER_Reset, .Lfunc_end2-SPIM_HYPER_Reset
	.cfi_endproc
	.cantunwind
	.fnend
                                        @ -- End function
	.section	.text.SPIM_HYPER_ExitHSAndDPD,"ax",%progbits
	.hidden	SPIM_HYPER_ExitHSAndDPD         @ -- Begin function SPIM_HYPER_ExitHSAndDPD
	.globl	SPIM_HYPER_ExitHSAndDPD
	.p2align	2
	.type	SPIM_HYPER_ExitHSAndDPD,%function
	.code	16                              @ @SPIM_HYPER_ExitHSAndDPD
	.thumb_func
SPIM_HYPER_ExitHSAndDPD:
.Lfunc_begin3:
	.loc	4 272 0                         @ ../../../../Library/StdDriver/src/spim_hyper.c:272:0
	.fnstart
	.cfi_startproc
@ %bb.0:
	@DEBUG_VALUE: SPIM_HYPER_ExitHSAndDPD:spim <- $r0
	.pad	#4
	sub	sp, #4
	.cfi_def_cfa_offset 4
	movs	r1, #5
.Ltmp96:
	.loc	4 273 21 prologue_end           @ ../../../../Library/StdDriver/src/spim_hyper.c:273:21
	str.w	r1, [r0, #128]
.Ltmp97:
	@DEBUG_VALUE: spim_hyper_wait_cmdidle:spim <- $r0
	@DEBUG_VALUE: spim_hyper_wait_cmdidle:i32TimeOutCnt <- [DW_OP_deref] $sp
	.loc	4 113 47                        @ ../../../../Library/StdDriver/src/spim_hyper.c:113:47
	movw	r1, :lower16:SystemCoreClock
	movt	r1, :upper16:SystemCoreClock
	ldr	r1, [r1]
	.loc	4 113 22 is_stmt 0              @ ../../../../Library/StdDriver/src/spim_hyper.c:113:22
	str	r1, [sp]
.Ltmp98:
.LBB3_1:                                @ =>This Inner Loop Header: Depth=1
	@DEBUG_VALUE: spim_hyper_wait_cmdidle:i32TimeOutCnt <- [DW_OP_deref] $sp
	@DEBUG_VALUE: spim_hyper_wait_cmdidle:spim <- $r0
	@DEBUG_VALUE: SPIM_HYPER_ExitHSAndDPD:spim <- $r0
	.loc	4 115 18 is_stmt 1              @ ../../../../Library/StdDriver/src/spim_hyper.c:115:18
	ldr.w	r1, [r0, #128]
	.loc	4 115 5 is_stmt 0               @ ../../../../Library/StdDriver/src/spim_hyper.c:115:5
	cbz	r1, .LBB3_10
.Ltmp99:
@ %bb.2:                                @   in Loop: Header=BB3_1 Depth=1
	@DEBUG_VALUE: spim_hyper_wait_cmdidle:i32TimeOutCnt <- [DW_OP_deref] $sp
	@DEBUG_VALUE: spim_hyper_wait_cmdidle:spim <- $r0
	@DEBUG_VALUE: SPIM_HYPER_ExitHSAndDPD:spim <- $r0
	.loc	4 117 13 is_stmt 1              @ ../../../../Library/StdDriver/src/spim_hyper.c:117:13
	ldr	r1, [sp]
	subs	r2, r1, #1
.Ltmp100:
	.loc	4 117 13 is_stmt 0              @ ../../../../Library/StdDriver/src/spim_hyper.c:117:13
	cmp	r1, #2
.Ltmp101:
	@DEBUG_VALUE: spim_hyper_wait_cmdidle:i32TimeOutCnt <- [DW_OP_constu 1, DW_OP_minus, DW_OP_stack_value] undef
	.loc	4 117 13                        @ ../../../../Library/StdDriver/src/spim_hyper.c:117:13
	str	r2, [sp]
.Ltmp102:
	.loc	4 117 13                        @ ../../../../Library/StdDriver/src/spim_hyper.c:117:13
	blt	.LBB3_9
.Ltmp103:
@ %bb.3:                                @   in Loop: Header=BB3_1 Depth=1
	@DEBUG_VALUE: spim_hyper_wait_cmdidle:spim <- $r0
	@DEBUG_VALUE: SPIM_HYPER_ExitHSAndDPD:spim <- $r0
	.loc	4 115 18 is_stmt 1              @ ../../../../Library/StdDriver/src/spim_hyper.c:115:18
	ldr.w	r1, [r0, #128]
	.loc	4 115 5 is_stmt 0               @ ../../../../Library/StdDriver/src/spim_hyper.c:115:5
	cbz	r1, .LBB3_10
.Ltmp104:
@ %bb.4:                                @   in Loop: Header=BB3_1 Depth=1
	@DEBUG_VALUE: spim_hyper_wait_cmdidle:spim <- $r0
	@DEBUG_VALUE: SPIM_HYPER_ExitHSAndDPD:spim <- $r0
	.loc	4 117 13 is_stmt 1              @ ../../../../Library/StdDriver/src/spim_hyper.c:117:13
	ldr	r1, [sp]
	subs	r2, r1, #1
.Ltmp105:
	.loc	4 117 13 is_stmt 0              @ ../../../../Library/StdDriver/src/spim_hyper.c:117:13
	cmp	r1, #2
.Ltmp106:
	@DEBUG_VALUE: spim_hyper_wait_cmdidle:i32TimeOutCnt <- [DW_OP_constu 1, DW_OP_minus, DW_OP_stack_value] undef
	.loc	4 117 13                        @ ../../../../Library/StdDriver/src/spim_hyper.c:117:13
	str	r2, [sp]
.Ltmp107:
	.loc	4 117 13                        @ ../../../../Library/StdDriver/src/spim_hyper.c:117:13
	blt	.LBB3_9
.Ltmp108:
@ %bb.5:                                @   in Loop: Header=BB3_1 Depth=1
	@DEBUG_VALUE: spim_hyper_wait_cmdidle:spim <- $r0
	@DEBUG_VALUE: SPIM_HYPER_ExitHSAndDPD:spim <- $r0
	.loc	4 115 18 is_stmt 1              @ ../../../../Library/StdDriver/src/spim_hyper.c:115:18
	ldr.w	r1, [r0, #128]
	.loc	4 115 5 is_stmt 0               @ ../../../../Library/StdDriver/src/spim_hyper.c:115:5
	cbz	r1, .LBB3_10
.Ltmp109:
@ %bb.6:                                @   in Loop: Header=BB3_1 Depth=1
	@DEBUG_VALUE: spim_hyper_wait_cmdidle:spim <- $r0
	@DEBUG_VALUE: SPIM_HYPER_ExitHSAndDPD:spim <- $r0
	.loc	4 117 13 is_stmt 1              @ ../../../../Library/StdDriver/src/spim_hyper.c:117:13
	ldr	r1, [sp]
	subs	r2, r1, #1
.Ltmp110:
	.loc	4 117 13 is_stmt 0              @ ../../../../Library/StdDriver/src/spim_hyper.c:117:13
	cmp	r1, #2
.Ltmp111:
	@DEBUG_VALUE: spim_hyper_wait_cmdidle:i32TimeOutCnt <- [DW_OP_constu 1, DW_OP_minus, DW_OP_stack_value] undef
	.loc	4 117 13                        @ ../../../../Library/StdDriver/src/spim_hyper.c:117:13
	str	r2, [sp]
.Ltmp112:
	.loc	4 117 13                        @ ../../../../Library/StdDriver/src/spim_hyper.c:117:13
	blt	.LBB3_9
.Ltmp113:
@ %bb.7:                                @   in Loop: Header=BB3_1 Depth=1
	@DEBUG_VALUE: spim_hyper_wait_cmdidle:spim <- $r0
	@DEBUG_VALUE: SPIM_HYPER_ExitHSAndDPD:spim <- $r0
	.loc	4 115 18 is_stmt 1              @ ../../../../Library/StdDriver/src/spim_hyper.c:115:18
	ldr.w	r1, [r0, #128]
	.loc	4 115 5 is_stmt 0               @ ../../../../Library/StdDriver/src/spim_hyper.c:115:5
	cbz	r1, .LBB3_10
.Ltmp114:
@ %bb.8:                                @   in Loop: Header=BB3_1 Depth=1
	@DEBUG_VALUE: spim_hyper_wait_cmdidle:spim <- $r0
	@DEBUG_VALUE: SPIM_HYPER_ExitHSAndDPD:spim <- $r0
	.loc	4 117 13 is_stmt 1              @ ../../../../Library/StdDriver/src/spim_hyper.c:117:13
	ldr	r1, [sp]
	subs	r1, #1
	str	r1, [sp]
.Ltmp115:
	@DEBUG_VALUE: spim_hyper_wait_cmdidle:i32TimeOutCnt <- [DW_OP_deref] $sp
	.loc	4 117 13 is_stmt 0              @ ../../../../Library/StdDriver/src/spim_hyper.c:117:13
	bgt	.LBB3_1
.Ltmp116:
.LBB3_9:
	@DEBUG_VALUE: SPIM_HYPER_ExitHSAndDPD:spim <- $r0
	.loc	4 0 13                          @ ../../../../Library/StdDriver/src/spim_hyper.c:0:13
	mvn	r0, #1
.Ltmp117:
	@DEBUG_VALUE: SPIM_HYPER_ExitHSAndDPD:spim <- [DW_OP_LLVM_entry_value 1] $r0
	.loc	4 275 5 epilogue_begin is_stmt 1 @ ../../../../Library/StdDriver/src/spim_hyper.c:275:5
	add	sp, #4
	bx	lr
.Ltmp118:
.LBB3_10:
	@DEBUG_VALUE: SPIM_HYPER_ExitHSAndDPD:spim <- $r0
	.loc	4 0 5 is_stmt 0                 @ ../../../../Library/StdDriver/src/spim_hyper.c:0:5
	movs	r0, #0
.Ltmp119:
	@DEBUG_VALUE: SPIM_HYPER_ExitHSAndDPD:spim <- [DW_OP_LLVM_entry_value 1] $r0
	.loc	4 275 5 epilogue_begin          @ ../../../../Library/StdDriver/src/spim_hyper.c:275:5
	add	sp, #4
	bx	lr
.Ltmp120:
.Lfunc_end3:
	.size	SPIM_HYPER_ExitHSAndDPD, .Lfunc_end3-SPIM_HYPER_ExitHSAndDPD
	.cfi_endproc
	.cantunwind
	.fnend
                                        @ -- End function
	.section	.text.SPIM_HYPER_ReadHyperRAMReg,"ax",%progbits
	.hidden	SPIM_HYPER_ReadHyperRAMReg      @ -- Begin function SPIM_HYPER_ReadHyperRAMReg
	.globl	SPIM_HYPER_ReadHyperRAMReg
	.p2align	2
	.type	SPIM_HYPER_ReadHyperRAMReg,%function
	.code	16                              @ @SPIM_HYPER_ReadHyperRAMReg
	.thumb_func
SPIM_HYPER_ReadHyperRAMReg:
.Lfunc_begin4:
	.fnstart
	.cfi_startproc
@ %bb.0:
	@DEBUG_VALUE: SPIM_HYPER_ReadHyperRAMReg:spim <- $r0
	@DEBUG_VALUE: SPIM_HYPER_ReadHyperRAMReg:u32Addr <- $r1
	.loc	4 293 46 prologue_end is_stmt 1 @ ../../../../Library/StdDriver/src/spim_hyper.c:293:46
	cmp.w	r1, #4096
	mov.w	r2, #-1
	bge	.LBB4_4
.Ltmp121:
@ %bb.1:
	@DEBUG_VALUE: SPIM_HYPER_ReadHyperRAMReg:u32Addr <- $r1
	@DEBUG_VALUE: SPIM_HYPER_ReadHyperRAMReg:spim <- $r0
	cbz	r1, .LBB4_5
.Ltmp122:
@ %bb.2:
	@DEBUG_VALUE: SPIM_HYPER_ReadHyperRAMReg:u32Addr <- $r1
	@DEBUG_VALUE: SPIM_HYPER_ReadHyperRAMReg:spim <- $r0
	cmp	r1, #2
	beq	.LBB4_5
.Ltmp123:
.LBB4_3:
	@DEBUG_VALUE: SPIM_HYPER_ReadHyperRAMReg:u32Addr <- $r1
	@DEBUG_VALUE: SPIM_HYPER_ReadHyperRAMReg:spim <- $r0
	.loc	4 308 1                         @ ../../../../Library/StdDriver/src/spim_hyper.c:308:1
	mov	r0, r2
.Ltmp124:
	@DEBUG_VALUE: SPIM_HYPER_ReadHyperRAMReg:spim <- [DW_OP_LLVM_entry_value 1] $r0
	bx	lr
.Ltmp125:
.LBB4_4:
	@DEBUG_VALUE: SPIM_HYPER_ReadHyperRAMReg:u32Addr <- $r1
	@DEBUG_VALUE: SPIM_HYPER_ReadHyperRAMReg:spim <- $r0
	.loc	4 0 1 is_stmt 0                 @ ../../../../Library/StdDriver/src/spim_hyper.c:0:1
	movw	r3, #4098
.Ltmp126:
	.loc	4 293 46 is_stmt 1              @ ../../../../Library/StdDriver/src/spim_hyper.c:293:46
	cmp	r1, r3
	it	ne
	cmpne.w	r1, #4096
	bne	.LBB4_3
.Ltmp127:
.LBB4_5:
	@DEBUG_VALUE: SPIM_HYPER_ReadHyperRAMReg:u32Addr <- $r1
	@DEBUG_VALUE: SPIM_HYPER_ReadHyperRAMReg:spim <- $r0
	.pad	#4
	sub	sp, #4
	.cfi_def_cfa_offset 4
	.loc	4 301 21                        @ ../../../../Library/StdDriver/src/spim_hyper.c:301:21
	str.w	r1, [r0, #140]
	movs	r1, #2
.Ltmp128:
	@DEBUG_VALUE: SPIM_HYPER_ReadHyperRAMReg:u32Addr <- [DW_OP_LLVM_entry_value 1] $r1
	.loc	4 303 21                        @ ../../../../Library/StdDriver/src/spim_hyper.c:303:21
	str.w	r1, [r0, #128]
.Ltmp129:
	@DEBUG_VALUE: spim_hyper_wait_cmdidle:spim <- $r0
	@DEBUG_VALUE: spim_hyper_wait_cmdidle:i32TimeOutCnt <- [DW_OP_deref] $sp
	.loc	4 113 47                        @ ../../../../Library/StdDriver/src/spim_hyper.c:113:47
	movw	r1, :lower16:SystemCoreClock
	movt	r1, :upper16:SystemCoreClock
	ldr	r1, [r1]
	.loc	4 113 22 is_stmt 0              @ ../../../../Library/StdDriver/src/spim_hyper.c:113:22
	str	r1, [sp]
.Ltmp130:
.LBB4_6:                                @ =>This Inner Loop Header: Depth=1
	@DEBUG_VALUE: spim_hyper_wait_cmdidle:i32TimeOutCnt <- [DW_OP_deref] $sp
	@DEBUG_VALUE: spim_hyper_wait_cmdidle:spim <- $r0
	@DEBUG_VALUE: SPIM_HYPER_ReadHyperRAMReg:u32Addr <- [DW_OP_LLVM_entry_value 1] $r1
	@DEBUG_VALUE: SPIM_HYPER_ReadHyperRAMReg:spim <- $r0
	.loc	4 115 18 is_stmt 1              @ ../../../../Library/StdDriver/src/spim_hyper.c:115:18
	ldr.w	r1, [r0, #128]
	.loc	4 115 5 is_stmt 0               @ ../../../../Library/StdDriver/src/spim_hyper.c:115:5
	cbz	r1, .LBB4_14
.Ltmp131:
@ %bb.7:                                @   in Loop: Header=BB4_6 Depth=1
	@DEBUG_VALUE: spim_hyper_wait_cmdidle:i32TimeOutCnt <- [DW_OP_deref] $sp
	@DEBUG_VALUE: spim_hyper_wait_cmdidle:spim <- $r0
	@DEBUG_VALUE: SPIM_HYPER_ReadHyperRAMReg:u32Addr <- [DW_OP_LLVM_entry_value 1] $r1
	@DEBUG_VALUE: SPIM_HYPER_ReadHyperRAMReg:spim <- $r0
	.loc	4 117 13 is_stmt 1              @ ../../../../Library/StdDriver/src/spim_hyper.c:117:13
	ldr	r1, [sp]
	subs	r2, r1, #1
.Ltmp132:
	.loc	4 117 13 is_stmt 0              @ ../../../../Library/StdDriver/src/spim_hyper.c:117:13
	cmp	r1, #2
.Ltmp133:
	@DEBUG_VALUE: spim_hyper_wait_cmdidle:i32TimeOutCnt <- [DW_OP_constu 1, DW_OP_minus, DW_OP_stack_value] undef
	.loc	4 117 13                        @ ../../../../Library/StdDriver/src/spim_hyper.c:117:13
	str	r2, [sp]
.Ltmp134:
	.loc	4 117 13                        @ ../../../../Library/StdDriver/src/spim_hyper.c:117:13
	blt	.LBB4_14
.Ltmp135:
@ %bb.8:                                @   in Loop: Header=BB4_6 Depth=1
	@DEBUG_VALUE: spim_hyper_wait_cmdidle:spim <- $r0
	@DEBUG_VALUE: SPIM_HYPER_ReadHyperRAMReg:u32Addr <- [DW_OP_LLVM_entry_value 1] $r1
	@DEBUG_VALUE: SPIM_HYPER_ReadHyperRAMReg:spim <- $r0
	.loc	4 115 18 is_stmt 1              @ ../../../../Library/StdDriver/src/spim_hyper.c:115:18
	ldr.w	r1, [r0, #128]
	.loc	4 115 5 is_stmt 0               @ ../../../../Library/StdDriver/src/spim_hyper.c:115:5
	cbz	r1, .LBB4_14
.Ltmp136:
@ %bb.9:                                @   in Loop: Header=BB4_6 Depth=1
	@DEBUG_VALUE: spim_hyper_wait_cmdidle:spim <- $r0
	@DEBUG_VALUE: SPIM_HYPER_ReadHyperRAMReg:u32Addr <- [DW_OP_LLVM_entry_value 1] $r1
	@DEBUG_VALUE: SPIM_HYPER_ReadHyperRAMReg:spim <- $r0
	.loc	4 117 13 is_stmt 1              @ ../../../../Library/StdDriver/src/spim_hyper.c:117:13
	ldr	r1, [sp]
	subs	r2, r1, #1
.Ltmp137:
	.loc	4 117 13 is_stmt 0              @ ../../../../Library/StdDriver/src/spim_hyper.c:117:13
	cmp	r1, #2
.Ltmp138:
	@DEBUG_VALUE: spim_hyper_wait_cmdidle:i32TimeOutCnt <- [DW_OP_constu 1, DW_OP_minus, DW_OP_stack_value] undef
	.loc	4 117 13                        @ ../../../../Library/StdDriver/src/spim_hyper.c:117:13
	str	r2, [sp]
.Ltmp139:
	.loc	4 117 13                        @ ../../../../Library/StdDriver/src/spim_hyper.c:117:13
	blt	.LBB4_14
.Ltmp140:
@ %bb.10:                               @   in Loop: Header=BB4_6 Depth=1
	@DEBUG_VALUE: spim_hyper_wait_cmdidle:spim <- $r0
	@DEBUG_VALUE: SPIM_HYPER_ReadHyperRAMReg:u32Addr <- [DW_OP_LLVM_entry_value 1] $r1
	@DEBUG_VALUE: SPIM_HYPER_ReadHyperRAMReg:spim <- $r0
	.loc	4 115 18 is_stmt 1              @ ../../../../Library/StdDriver/src/spim_hyper.c:115:18
	ldr.w	r1, [r0, #128]
	.loc	4 115 5 is_stmt 0               @ ../../../../Library/StdDriver/src/spim_hyper.c:115:5
	cbz	r1, .LBB4_14
.Ltmp141:
@ %bb.11:                               @   in Loop: Header=BB4_6 Depth=1
	@DEBUG_VALUE: spim_hyper_wait_cmdidle:spim <- $r0
	@DEBUG_VALUE: SPIM_HYPER_ReadHyperRAMReg:u32Addr <- [DW_OP_LLVM_entry_value 1] $r1
	@DEBUG_VALUE: SPIM_HYPER_ReadHyperRAMReg:spim <- $r0
	.loc	4 117 13 is_stmt 1              @ ../../../../Library/StdDriver/src/spim_hyper.c:117:13
	ldr	r1, [sp]
	subs	r2, r1, #1
.Ltmp142:
	.loc	4 117 13 is_stmt 0              @ ../../../../Library/StdDriver/src/spim_hyper.c:117:13
	cmp	r1, #2
.Ltmp143:
	@DEBUG_VALUE: spim_hyper_wait_cmdidle:i32TimeOutCnt <- [DW_OP_constu 1, DW_OP_minus, DW_OP_stack_value] undef
	.loc	4 117 13                        @ ../../../../Library/StdDriver/src/spim_hyper.c:117:13
	str	r2, [sp]
.Ltmp144:
	.loc	4 117 13                        @ ../../../../Library/StdDriver/src/spim_hyper.c:117:13
	blt	.LBB4_14
.Ltmp145:
@ %bb.12:                               @   in Loop: Header=BB4_6 Depth=1
	@DEBUG_VALUE: spim_hyper_wait_cmdidle:spim <- $r0
	@DEBUG_VALUE: SPIM_HYPER_ReadHyperRAMReg:u32Addr <- [DW_OP_LLVM_entry_value 1] $r1
	@DEBUG_VALUE: SPIM_HYPER_ReadHyperRAMReg:spim <- $r0
	.loc	4 115 18 is_stmt 1              @ ../../../../Library/StdDriver/src/spim_hyper.c:115:18
	ldr.w	r1, [r0, #128]
	.loc	4 115 5 is_stmt 0               @ ../../../../Library/StdDriver/src/spim_hyper.c:115:5
	cbz	r1, .LBB4_14
.Ltmp146:
@ %bb.13:                               @   in Loop: Header=BB4_6 Depth=1
	@DEBUG_VALUE: spim_hyper_wait_cmdidle:spim <- $r0
	@DEBUG_VALUE: SPIM_HYPER_ReadHyperRAMReg:u32Addr <- [DW_OP_LLVM_entry_value 1] $r1
	@DEBUG_VALUE: SPIM_HYPER_ReadHyperRAMReg:spim <- $r0
	.loc	4 117 13 is_stmt 1              @ ../../../../Library/StdDriver/src/spim_hyper.c:117:13
	ldr	r1, [sp]
	subs	r1, #1
	str	r1, [sp]
.Ltmp147:
	@DEBUG_VALUE: spim_hyper_wait_cmdidle:i32TimeOutCnt <- [DW_OP_deref] $sp
	.loc	4 117 13 is_stmt 0              @ ../../../../Library/StdDriver/src/spim_hyper.c:117:13
	bgt	.LBB4_6
.Ltmp148:
.LBB4_14:
	@DEBUG_VALUE: SPIM_HYPER_ReadHyperRAMReg:u32Addr <- [DW_OP_LLVM_entry_value 1] $r1
	@DEBUG_VALUE: SPIM_HYPER_ReadHyperRAMReg:spim <- $r0
	.loc	4 307 19 is_stmt 1              @ ../../../../Library/StdDriver/src/spim_hyper.c:307:19
	ldr.w	r0, [r0, #148]
.Ltmp149:
	@DEBUG_VALUE: SPIM_HYPER_ReadHyperRAMReg:spim <- [DW_OP_LLVM_entry_value 1] $r0
	.loc	4 307 31 is_stmt 0              @ ../../../../Library/StdDriver/src/spim_hyper.c:307:31
	uxth	r2, r0
	add	sp, #4
	.loc	4 308 1 is_stmt 1               @ ../../../../Library/StdDriver/src/spim_hyper.c:308:1
	mov	r0, r2
	bx	lr
.Ltmp150:
.Lfunc_end4:
	.size	SPIM_HYPER_ReadHyperRAMReg, .Lfunc_end4-SPIM_HYPER_ReadHyperRAMReg
	.cfi_endproc
	.cantunwind
	.fnend
                                        @ -- End function
	.section	.text.SPIM_HYPER_WriteHyperRAMReg,"ax",%progbits
	.hidden	SPIM_HYPER_WriteHyperRAMReg     @ -- Begin function SPIM_HYPER_WriteHyperRAMReg
	.globl	SPIM_HYPER_WriteHyperRAMReg
	.p2align	2
	.type	SPIM_HYPER_WriteHyperRAMReg,%function
	.code	16                              @ @SPIM_HYPER_WriteHyperRAMReg
	.thumb_func
SPIM_HYPER_WriteHyperRAMReg:
.Lfunc_begin5:
	.fnstart
	.cfi_startproc
@ %bb.0:
	@DEBUG_VALUE: SPIM_HYPER_WriteHyperRAMReg:spim <- $r0
	@DEBUG_VALUE: SPIM_HYPER_WriteHyperRAMReg:u32Addr <- $r1
	@DEBUG_VALUE: SPIM_HYPER_WriteHyperRAMReg:u32Value <- $r2
	.loc	4 326 46 prologue_end           @ ../../../../Library/StdDriver/src/spim_hyper.c:326:46
	cmp.w	r1, #4096
	mov.w	r12, #-1
	bge	.LBB5_4
.Ltmp151:
@ %bb.1:
	@DEBUG_VALUE: SPIM_HYPER_WriteHyperRAMReg:u32Value <- $r2
	@DEBUG_VALUE: SPIM_HYPER_WriteHyperRAMReg:u32Addr <- $r1
	@DEBUG_VALUE: SPIM_HYPER_WriteHyperRAMReg:spim <- $r0
	cbz	r1, .LBB5_5
.Ltmp152:
@ %bb.2:
	@DEBUG_VALUE: SPIM_HYPER_WriteHyperRAMReg:u32Value <- $r2
	@DEBUG_VALUE: SPIM_HYPER_WriteHyperRAMReg:u32Addr <- $r1
	@DEBUG_VALUE: SPIM_HYPER_WriteHyperRAMReg:spim <- $r0
	cmp	r1, #2
	beq	.LBB5_5
.Ltmp153:
.LBB5_3:
	@DEBUG_VALUE: SPIM_HYPER_WriteHyperRAMReg:u32Value <- $r2
	@DEBUG_VALUE: SPIM_HYPER_WriteHyperRAMReg:u32Addr <- $r1
	@DEBUG_VALUE: SPIM_HYPER_WriteHyperRAMReg:spim <- $r0
	.loc	4 344 1                         @ ../../../../Library/StdDriver/src/spim_hyper.c:344:1
	mov	r0, r12
.Ltmp154:
	@DEBUG_VALUE: SPIM_HYPER_WriteHyperRAMReg:spim <- [DW_OP_LLVM_entry_value 1] $r0
	bx	lr
.Ltmp155:
.LBB5_4:
	@DEBUG_VALUE: SPIM_HYPER_WriteHyperRAMReg:u32Value <- $r2
	@DEBUG_VALUE: SPIM_HYPER_WriteHyperRAMReg:u32Addr <- $r1
	@DEBUG_VALUE: SPIM_HYPER_WriteHyperRAMReg:spim <- $r0
	.loc	4 0 1 is_stmt 0                 @ ../../../../Library/StdDriver/src/spim_hyper.c:0:1
	movw	r3, #4098
.Ltmp156:
	.loc	4 326 46 is_stmt 1              @ ../../../../Library/StdDriver/src/spim_hyper.c:326:46
	cmp	r1, r3
	it	ne
	cmpne.w	r1, #4096
	bne	.LBB5_3
.Ltmp157:
.LBB5_5:
	@DEBUG_VALUE: SPIM_HYPER_WriteHyperRAMReg:u32Value <- $r2
	@DEBUG_VALUE: SPIM_HYPER_WriteHyperRAMReg:u32Addr <- $r1
	@DEBUG_VALUE: SPIM_HYPER_WriteHyperRAMReg:spim <- $r0
	.pad	#4
	sub	sp, #4
	.cfi_def_cfa_offset 4
	.loc	4 334 5                         @ ../../../../Library/StdDriver/src/spim_hyper.c:334:5
	ldr.w	r3, [r0, #144]
	movs	r3, #0
	str.w	r3, [r0, #144]
	.loc	4 336 21                        @ ../../../../Library/StdDriver/src/spim_hyper.c:336:21
	str.w	r1, [r0, #140]
	movs	r1, #7
.Ltmp158:
	@DEBUG_VALUE: SPIM_HYPER_WriteHyperRAMReg:u32Addr <- [DW_OP_LLVM_entry_value 1] $r1
	.loc	4 337 23                        @ ../../../../Library/StdDriver/src/spim_hyper.c:337:23
	str.w	r2, [r0, #144]
	.loc	4 339 21                        @ ../../../../Library/StdDriver/src/spim_hyper.c:339:21
	str.w	r1, [r0, #128]
.Ltmp159:
	@DEBUG_VALUE: spim_hyper_wait_cmdidle:spim <- $r0
	@DEBUG_VALUE: spim_hyper_wait_cmdidle:i32TimeOutCnt <- [DW_OP_deref] $sp
	.loc	4 113 47                        @ ../../../../Library/StdDriver/src/spim_hyper.c:113:47
	movw	r1, :lower16:SystemCoreClock
	movt	r1, :upper16:SystemCoreClock
	ldr	r1, [r1]
	.loc	4 113 22 is_stmt 0              @ ../../../../Library/StdDriver/src/spim_hyper.c:113:22
	str	r1, [sp]
.Ltmp160:
.LBB5_6:                                @ =>This Inner Loop Header: Depth=1
	@DEBUG_VALUE: spim_hyper_wait_cmdidle:i32TimeOutCnt <- [DW_OP_deref] $sp
	@DEBUG_VALUE: spim_hyper_wait_cmdidle:spim <- $r0
	@DEBUG_VALUE: SPIM_HYPER_WriteHyperRAMReg:u32Addr <- [DW_OP_LLVM_entry_value 1] $r1
	@DEBUG_VALUE: SPIM_HYPER_WriteHyperRAMReg:spim <- $r0
	.loc	4 115 18 is_stmt 1              @ ../../../../Library/StdDriver/src/spim_hyper.c:115:18
	ldr.w	r1, [r0, #128]
	.loc	4 115 5 is_stmt 0               @ ../../../../Library/StdDriver/src/spim_hyper.c:115:5
	cbz	r1, .LBB5_14
.Ltmp161:
@ %bb.7:                                @   in Loop: Header=BB5_6 Depth=1
	@DEBUG_VALUE: spim_hyper_wait_cmdidle:i32TimeOutCnt <- [DW_OP_deref] $sp
	@DEBUG_VALUE: spim_hyper_wait_cmdidle:spim <- $r0
	@DEBUG_VALUE: SPIM_HYPER_WriteHyperRAMReg:u32Addr <- [DW_OP_LLVM_entry_value 1] $r1
	@DEBUG_VALUE: SPIM_HYPER_WriteHyperRAMReg:spim <- $r0
	.loc	4 117 13 is_stmt 1              @ ../../../../Library/StdDriver/src/spim_hyper.c:117:13
	ldr	r1, [sp]
	subs	r2, r1, #1
.Ltmp162:
	@DEBUG_VALUE: SPIM_HYPER_WriteHyperRAMReg:u32Value <- [DW_OP_LLVM_entry_value 1] $r2
	.loc	4 117 13 is_stmt 0              @ ../../../../Library/StdDriver/src/spim_hyper.c:117:13
	cmp	r1, #2
.Ltmp163:
	@DEBUG_VALUE: spim_hyper_wait_cmdidle:i32TimeOutCnt <- [DW_OP_constu 1, DW_OP_minus, DW_OP_stack_value] undef
	.loc	4 117 13                        @ ../../../../Library/StdDriver/src/spim_hyper.c:117:13
	str	r2, [sp]
.Ltmp164:
	.loc	4 117 13                        @ ../../../../Library/StdDriver/src/spim_hyper.c:117:13
	blt	.LBB5_14
.Ltmp165:
@ %bb.8:                                @   in Loop: Header=BB5_6 Depth=1
	@DEBUG_VALUE: spim_hyper_wait_cmdidle:spim <- $r0
	@DEBUG_VALUE: SPIM_HYPER_WriteHyperRAMReg:u32Addr <- [DW_OP_LLVM_entry_value 1] $r1
	@DEBUG_VALUE: SPIM_HYPER_WriteHyperRAMReg:spim <- $r0
	.loc	4 115 18 is_stmt 1              @ ../../../../Library/StdDriver/src/spim_hyper.c:115:18
	ldr.w	r1, [r0, #128]
	.loc	4 115 5 is_stmt 0               @ ../../../../Library/StdDriver/src/spim_hyper.c:115:5
	cbz	r1, .LBB5_14
.Ltmp166:
@ %bb.9:                                @   in Loop: Header=BB5_6 Depth=1
	@DEBUG_VALUE: spim_hyper_wait_cmdidle:spim <- $r0
	@DEBUG_VALUE: SPIM_HYPER_WriteHyperRAMReg:u32Addr <- [DW_OP_LLVM_entry_value 1] $r1
	@DEBUG_VALUE: SPIM_HYPER_WriteHyperRAMReg:spim <- $r0
	.loc	4 117 13 is_stmt 1              @ ../../../../Library/StdDriver/src/spim_hyper.c:117:13
	ldr	r1, [sp]
	subs	r2, r1, #1
.Ltmp167:
	.loc	4 117 13 is_stmt 0              @ ../../../../Library/StdDriver/src/spim_hyper.c:117:13
	cmp	r1, #2
.Ltmp168:
	@DEBUG_VALUE: spim_hyper_wait_cmdidle:i32TimeOutCnt <- [DW_OP_constu 1, DW_OP_minus, DW_OP_stack_value] undef
	.loc	4 117 13                        @ ../../../../Library/StdDriver/src/spim_hyper.c:117:13
	str	r2, [sp]
.Ltmp169:
	.loc	4 117 13                        @ ../../../../Library/StdDriver/src/spim_hyper.c:117:13
	blt	.LBB5_14
.Ltmp170:
@ %bb.10:                               @   in Loop: Header=BB5_6 Depth=1
	@DEBUG_VALUE: spim_hyper_wait_cmdidle:spim <- $r0
	@DEBUG_VALUE: SPIM_HYPER_WriteHyperRAMReg:u32Addr <- [DW_OP_LLVM_entry_value 1] $r1
	@DEBUG_VALUE: SPIM_HYPER_WriteHyperRAMReg:spim <- $r0
	.loc	4 115 18 is_stmt 1              @ ../../../../Library/StdDriver/src/spim_hyper.c:115:18
	ldr.w	r1, [r0, #128]
	.loc	4 115 5 is_stmt 0               @ ../../../../Library/StdDriver/src/spim_hyper.c:115:5
	cbz	r1, .LBB5_14
.Ltmp171:
@ %bb.11:                               @   in Loop: Header=BB5_6 Depth=1
	@DEBUG_VALUE: spim_hyper_wait_cmdidle:spim <- $r0
	@DEBUG_VALUE: SPIM_HYPER_WriteHyperRAMReg:u32Addr <- [DW_OP_LLVM_entry_value 1] $r1
	@DEBUG_VALUE: SPIM_HYPER_WriteHyperRAMReg:spim <- $r0
	.loc	4 117 13 is_stmt 1              @ ../../../../Library/StdDriver/src/spim_hyper.c:117:13
	ldr	r1, [sp]
	subs	r2, r1, #1
.Ltmp172:
	.loc	4 117 13 is_stmt 0              @ ../../../../Library/StdDriver/src/spim_hyper.c:117:13
	cmp	r1, #2
.Ltmp173:
	@DEBUG_VALUE: spim_hyper_wait_cmdidle:i32TimeOutCnt <- [DW_OP_constu 1, DW_OP_minus, DW_OP_stack_value] undef
	.loc	4 117 13                        @ ../../../../Library/StdDriver/src/spim_hyper.c:117:13
	str	r2, [sp]
.Ltmp174:
	.loc	4 117 13                        @ ../../../../Library/StdDriver/src/spim_hyper.c:117:13
	blt	.LBB5_14
.Ltmp175:
@ %bb.12:                               @   in Loop: Header=BB5_6 Depth=1
	@DEBUG_VALUE: spim_hyper_wait_cmdidle:spim <- $r0
	@DEBUG_VALUE: SPIM_HYPER_WriteHyperRAMReg:u32Addr <- [DW_OP_LLVM_entry_value 1] $r1
	@DEBUG_VALUE: SPIM_HYPER_WriteHyperRAMReg:spim <- $r0
	.loc	4 115 18 is_stmt 1              @ ../../../../Library/StdDriver/src/spim_hyper.c:115:18
	ldr.w	r1, [r0, #128]
	.loc	4 115 5 is_stmt 0               @ ../../../../Library/StdDriver/src/spim_hyper.c:115:5
	cbz	r1, .LBB5_14
.Ltmp176:
@ %bb.13:                               @   in Loop: Header=BB5_6 Depth=1
	@DEBUG_VALUE: spim_hyper_wait_cmdidle:spim <- $r0
	@DEBUG_VALUE: SPIM_HYPER_WriteHyperRAMReg:u32Addr <- [DW_OP_LLVM_entry_value 1] $r1
	@DEBUG_VALUE: SPIM_HYPER_WriteHyperRAMReg:spim <- $r0
	.loc	4 117 13 is_stmt 1              @ ../../../../Library/StdDriver/src/spim_hyper.c:117:13
	ldr	r1, [sp]
	subs	r1, #1
	str	r1, [sp]
.Ltmp177:
	@DEBUG_VALUE: spim_hyper_wait_cmdidle:i32TimeOutCnt <- [DW_OP_deref] $sp
	.loc	4 117 13 is_stmt 0              @ ../../../../Library/StdDriver/src/spim_hyper.c:117:13
	bgt	.LBB5_6
.Ltmp178:
.LBB5_14:
	@DEBUG_VALUE: SPIM_HYPER_WriteHyperRAMReg:u32Addr <- [DW_OP_LLVM_entry_value 1] $r1
	@DEBUG_VALUE: SPIM_HYPER_WriteHyperRAMReg:spim <- $r0
	.loc	4 0 13                          @ ../../../../Library/StdDriver/src/spim_hyper.c:0:13
	mov.w	r12, #0
	add	sp, #4
	.loc	4 344 1 is_stmt 1               @ ../../../../Library/StdDriver/src/spim_hyper.c:344:1
	mov	r0, r12
.Ltmp179:
	@DEBUG_VALUE: SPIM_HYPER_WriteHyperRAMReg:spim <- [DW_OP_LLVM_entry_value 1] $r0
	bx	lr
.Ltmp180:
.Lfunc_end5:
	.size	SPIM_HYPER_WriteHyperRAMReg, .Lfunc_end5-SPIM_HYPER_WriteHyperRAMReg
	.cfi_endproc
	.cantunwind
	.fnend
                                        @ -- End function
	.section	.text.SPIM_HYPER_Read1Word,"ax",%progbits
	.hidden	SPIM_HYPER_Read1Word            @ -- Begin function SPIM_HYPER_Read1Word
	.globl	SPIM_HYPER_Read1Word
	.p2align	2
	.type	SPIM_HYPER_Read1Word,%function
	.code	16                              @ @SPIM_HYPER_Read1Word
	.thumb_func
SPIM_HYPER_Read1Word:
.Lfunc_begin6:
	.loc	4 354 0                         @ ../../../../Library/StdDriver/src/spim_hyper.c:354:0
	.fnstart
	.cfi_startproc
@ %bb.0:
	@DEBUG_VALUE: SPIM_HYPER_Read1Word:spim <- $r0
	@DEBUG_VALUE: SPIM_HYPER_Read1Word:u32Addr <- $r1
	.pad	#4
	sub	sp, #4
	.cfi_def_cfa_offset 4
.Ltmp181:
	.loc	4 355 21 prologue_end           @ ../../../../Library/StdDriver/src/spim_hyper.c:355:21
	str.w	r1, [r0, #140]
	movs	r1, #8
.Ltmp182:
	@DEBUG_VALUE: SPIM_HYPER_Read1Word:u32Addr <- [DW_OP_LLVM_entry_value 1] $r1
	.loc	4 357 21                        @ ../../../../Library/StdDriver/src/spim_hyper.c:357:21
	str.w	r1, [r0, #128]
.Ltmp183:
	@DEBUG_VALUE: spim_hyper_wait_cmdidle:spim <- $r0
	@DEBUG_VALUE: spim_hyper_wait_cmdidle:i32TimeOutCnt <- [DW_OP_deref] $sp
	.loc	4 113 47                        @ ../../../../Library/StdDriver/src/spim_hyper.c:113:47
	movw	r1, :lower16:SystemCoreClock
	movt	r1, :upper16:SystemCoreClock
	ldr	r1, [r1]
	.loc	4 113 22 is_stmt 0              @ ../../../../Library/StdDriver/src/spim_hyper.c:113:22
	str	r1, [sp]
.Ltmp184:
.LBB6_1:                                @ =>This Inner Loop Header: Depth=1
	@DEBUG_VALUE: spim_hyper_wait_cmdidle:i32TimeOutCnt <- [DW_OP_deref] $sp
	@DEBUG_VALUE: spim_hyper_wait_cmdidle:spim <- $r0
	@DEBUG_VALUE: SPIM_HYPER_Read1Word:u32Addr <- [DW_OP_LLVM_entry_value 1] $r1
	@DEBUG_VALUE: SPIM_HYPER_Read1Word:spim <- $r0
	.loc	4 115 18 is_stmt 1              @ ../../../../Library/StdDriver/src/spim_hyper.c:115:18
	ldr.w	r1, [r0, #128]
	.loc	4 115 5 is_stmt 0               @ ../../../../Library/StdDriver/src/spim_hyper.c:115:5
	cbz	r1, .LBB6_9
.Ltmp185:
@ %bb.2:                                @   in Loop: Header=BB6_1 Depth=1
	@DEBUG_VALUE: spim_hyper_wait_cmdidle:i32TimeOutCnt <- [DW_OP_deref] $sp
	@DEBUG_VALUE: spim_hyper_wait_cmdidle:spim <- $r0
	@DEBUG_VALUE: SPIM_HYPER_Read1Word:u32Addr <- [DW_OP_LLVM_entry_value 1] $r1
	@DEBUG_VALUE: SPIM_HYPER_Read1Word:spim <- $r0
	.loc	4 117 13 is_stmt 1              @ ../../../../Library/StdDriver/src/spim_hyper.c:117:13
	ldr	r1, [sp]
	subs	r2, r1, #1
.Ltmp186:
	.loc	4 117 13 is_stmt 0              @ ../../../../Library/StdDriver/src/spim_hyper.c:117:13
	cmp	r1, #2
.Ltmp187:
	@DEBUG_VALUE: spim_hyper_wait_cmdidle:i32TimeOutCnt <- [DW_OP_constu 1, DW_OP_minus, DW_OP_stack_value] undef
	.loc	4 117 13                        @ ../../../../Library/StdDriver/src/spim_hyper.c:117:13
	str	r2, [sp]
.Ltmp188:
	.loc	4 117 13                        @ ../../../../Library/StdDriver/src/spim_hyper.c:117:13
	blt	.LBB6_9
.Ltmp189:
@ %bb.3:                                @   in Loop: Header=BB6_1 Depth=1
	@DEBUG_VALUE: spim_hyper_wait_cmdidle:spim <- $r0
	@DEBUG_VALUE: SPIM_HYPER_Read1Word:u32Addr <- [DW_OP_LLVM_entry_value 1] $r1
	@DEBUG_VALUE: SPIM_HYPER_Read1Word:spim <- $r0
	.loc	4 115 18 is_stmt 1              @ ../../../../Library/StdDriver/src/spim_hyper.c:115:18
	ldr.w	r1, [r0, #128]
	.loc	4 115 5 is_stmt 0               @ ../../../../Library/StdDriver/src/spim_hyper.c:115:5
	cbz	r1, .LBB6_9
.Ltmp190:
@ %bb.4:                                @   in Loop: Header=BB6_1 Depth=1
	@DEBUG_VALUE: spim_hyper_wait_cmdidle:spim <- $r0
	@DEBUG_VALUE: SPIM_HYPER_Read1Word:u32Addr <- [DW_OP_LLVM_entry_value 1] $r1
	@DEBUG_VALUE: SPIM_HYPER_Read1Word:spim <- $r0
	.loc	4 117 13 is_stmt 1              @ ../../../../Library/StdDriver/src/spim_hyper.c:117:13
	ldr	r1, [sp]
	subs	r2, r1, #1
.Ltmp191:
	.loc	4 117 13 is_stmt 0              @ ../../../../Library/StdDriver/src/spim_hyper.c:117:13
	cmp	r1, #2
.Ltmp192:
	@DEBUG_VALUE: spim_hyper_wait_cmdidle:i32TimeOutCnt <- [DW_OP_constu 1, DW_OP_minus, DW_OP_stack_value] undef
	.loc	4 117 13                        @ ../../../../Library/StdDriver/src/spim_hyper.c:117:13
	str	r2, [sp]
.Ltmp193:
	.loc	4 117 13                        @ ../../../../Library/StdDriver/src/spim_hyper.c:117:13
	blt	.LBB6_9
.Ltmp194:
@ %bb.5:                                @   in Loop: Header=BB6_1 Depth=1
	@DEBUG_VALUE: spim_hyper_wait_cmdidle:spim <- $r0
	@DEBUG_VALUE: SPIM_HYPER_Read1Word:u32Addr <- [DW_OP_LLVM_entry_value 1] $r1
	@DEBUG_VALUE: SPIM_HYPER_Read1Word:spim <- $r0
	.loc	4 115 18 is_stmt 1              @ ../../../../Library/StdDriver/src/spim_hyper.c:115:18
	ldr.w	r1, [r0, #128]
	.loc	4 115 5 is_stmt 0               @ ../../../../Library/StdDriver/src/spim_hyper.c:115:5
	cbz	r1, .LBB6_9
.Ltmp195:
@ %bb.6:                                @   in Loop: Header=BB6_1 Depth=1
	@DEBUG_VALUE: spim_hyper_wait_cmdidle:spim <- $r0
	@DEBUG_VALUE: SPIM_HYPER_Read1Word:u32Addr <- [DW_OP_LLVM_entry_value 1] $r1
	@DEBUG_VALUE: SPIM_HYPER_Read1Word:spim <- $r0
	.loc	4 117 13 is_stmt 1              @ ../../../../Library/StdDriver/src/spim_hyper.c:117:13
	ldr	r1, [sp]
	subs	r2, r1, #1
.Ltmp196:
	.loc	4 117 13 is_stmt 0              @ ../../../../Library/StdDriver/src/spim_hyper.c:117:13
	cmp	r1, #2
.Ltmp197:
	@DEBUG_VALUE: spim_hyper_wait_cmdidle:i32TimeOutCnt <- [DW_OP_constu 1, DW_OP_minus, DW_OP_stack_value] undef
	.loc	4 117 13                        @ ../../../../Library/StdDriver/src/spim_hyper.c:117:13
	str	r2, [sp]
.Ltmp198:
	.loc	4 117 13                        @ ../../../../Library/StdDriver/src/spim_hyper.c:117:13
	blt	.LBB6_9
.Ltmp199:
@ %bb.7:                                @   in Loop: Header=BB6_1 Depth=1
	@DEBUG_VALUE: spim_hyper_wait_cmdidle:spim <- $r0
	@DEBUG_VALUE: SPIM_HYPER_Read1Word:u32Addr <- [DW_OP_LLVM_entry_value 1] $r1
	@DEBUG_VALUE: SPIM_HYPER_Read1Word:spim <- $r0
	.loc	4 115 18 is_stmt 1              @ ../../../../Library/StdDriver/src/spim_hyper.c:115:18
	ldr.w	r1, [r0, #128]
	.loc	4 115 5 is_stmt 0               @ ../../../../Library/StdDriver/src/spim_hyper.c:115:5
	cbz	r1, .LBB6_9
.Ltmp200:
@ %bb.8:                                @   in Loop: Header=BB6_1 Depth=1
	@DEBUG_VALUE: spim_hyper_wait_cmdidle:spim <- $r0
	@DEBUG_VALUE: SPIM_HYPER_Read1Word:u32Addr <- [DW_OP_LLVM_entry_value 1] $r1
	@DEBUG_VALUE: SPIM_HYPER_Read1Word:spim <- $r0
	.loc	4 117 13 is_stmt 1              @ ../../../../Library/StdDriver/src/spim_hyper.c:117:13
	ldr	r1, [sp]
	subs	r1, #1
	str	r1, [sp]
.Ltmp201:
	@DEBUG_VALUE: spim_hyper_wait_cmdidle:i32TimeOutCnt <- [DW_OP_deref] $sp
	.loc	4 117 13 is_stmt 0              @ ../../../../Library/StdDriver/src/spim_hyper.c:117:13
	bgt	.LBB6_1
.Ltmp202:
.LBB6_9:
	@DEBUG_VALUE: SPIM_HYPER_Read1Word:u32Addr <- [DW_OP_LLVM_entry_value 1] $r1
	@DEBUG_VALUE: SPIM_HYPER_Read1Word:spim <- $r0
	.loc	4 361 29 is_stmt 1              @ ../../../../Library/StdDriver/src/spim_hyper.c:361:29
	ldr.w	r0, [r0, #148]
.Ltmp203:
	@DEBUG_VALUE: SPIM_HYPER_Read1Word:spim <- [DW_OP_LLVM_entry_value 1] $r0
	.loc	4 361 5 is_stmt 0               @ ../../../../Library/StdDriver/src/spim_hyper.c:361:5
	uxth	r0, r0
	.loc	4 361 5 epilogue_begin          @ ../../../../Library/StdDriver/src/spim_hyper.c:361:5
	add	sp, #4
	bx	lr
.Ltmp204:
.Lfunc_end6:
	.size	SPIM_HYPER_Read1Word, .Lfunc_end6-SPIM_HYPER_Read1Word
	.cfi_endproc
	.cantunwind
	.fnend
                                        @ -- End function
	.section	.text.SPIM_HYPER_Read2Word,"ax",%progbits
	.hidden	SPIM_HYPER_Read2Word            @ -- Begin function SPIM_HYPER_Read2Word
	.globl	SPIM_HYPER_Read2Word
	.p2align	2
	.type	SPIM_HYPER_Read2Word,%function
	.code	16                              @ @SPIM_HYPER_Read2Word
	.thumb_func
SPIM_HYPER_Read2Word:
.Lfunc_begin7:
	.loc	4 371 0 is_stmt 1               @ ../../../../Library/StdDriver/src/spim_hyper.c:371:0
	.fnstart
	.cfi_startproc
@ %bb.0:
	@DEBUG_VALUE: SPIM_HYPER_Read2Word:spim <- $r0
	@DEBUG_VALUE: SPIM_HYPER_Read2Word:u32Addr <- $r1
	.pad	#4
	sub	sp, #4
	.cfi_def_cfa_offset 4
.Ltmp205:
	.loc	4 372 21 prologue_end           @ ../../../../Library/StdDriver/src/spim_hyper.c:372:21
	str.w	r1, [r0, #140]
	movs	r1, #9
.Ltmp206:
	@DEBUG_VALUE: SPIM_HYPER_Read2Word:u32Addr <- [DW_OP_LLVM_entry_value 1] $r1
	.loc	4 374 21                        @ ../../../../Library/StdDriver/src/spim_hyper.c:374:21
	str.w	r1, [r0, #128]
.Ltmp207:
	@DEBUG_VALUE: spim_hyper_wait_cmdidle:spim <- $r0
	@DEBUG_VALUE: spim_hyper_wait_cmdidle:i32TimeOutCnt <- [DW_OP_deref] $sp
	.loc	4 113 47                        @ ../../../../Library/StdDriver/src/spim_hyper.c:113:47
	movw	r1, :lower16:SystemCoreClock
	movt	r1, :upper16:SystemCoreClock
	ldr	r1, [r1]
	.loc	4 113 22 is_stmt 0              @ ../../../../Library/StdDriver/src/spim_hyper.c:113:22
	str	r1, [sp]
.Ltmp208:
.LBB7_1:                                @ =>This Inner Loop Header: Depth=1
	@DEBUG_VALUE: spim_hyper_wait_cmdidle:i32TimeOutCnt <- [DW_OP_deref] $sp
	@DEBUG_VALUE: spim_hyper_wait_cmdidle:spim <- $r0
	@DEBUG_VALUE: SPIM_HYPER_Read2Word:u32Addr <- [DW_OP_LLVM_entry_value 1] $r1
	@DEBUG_VALUE: SPIM_HYPER_Read2Word:spim <- $r0
	.loc	4 115 18 is_stmt 1              @ ../../../../Library/StdDriver/src/spim_hyper.c:115:18
	ldr.w	r1, [r0, #128]
	.loc	4 115 5 is_stmt 0               @ ../../../../Library/StdDriver/src/spim_hyper.c:115:5
	cbz	r1, .LBB7_9
.Ltmp209:
@ %bb.2:                                @   in Loop: Header=BB7_1 Depth=1
	@DEBUG_VALUE: spim_hyper_wait_cmdidle:i32TimeOutCnt <- [DW_OP_deref] $sp
	@DEBUG_VALUE: spim_hyper_wait_cmdidle:spim <- $r0
	@DEBUG_VALUE: SPIM_HYPER_Read2Word:u32Addr <- [DW_OP_LLVM_entry_value 1] $r1
	@DEBUG_VALUE: SPIM_HYPER_Read2Word:spim <- $r0
	.loc	4 117 13 is_stmt 1              @ ../../../../Library/StdDriver/src/spim_hyper.c:117:13
	ldr	r1, [sp]
	subs	r2, r1, #1
.Ltmp210:
	.loc	4 117 13 is_stmt 0              @ ../../../../Library/StdDriver/src/spim_hyper.c:117:13
	cmp	r1, #2
.Ltmp211:
	@DEBUG_VALUE: spim_hyper_wait_cmdidle:i32TimeOutCnt <- [DW_OP_constu 1, DW_OP_minus, DW_OP_stack_value] undef
	.loc	4 117 13                        @ ../../../../Library/StdDriver/src/spim_hyper.c:117:13
	str	r2, [sp]
.Ltmp212:
	.loc	4 117 13                        @ ../../../../Library/StdDriver/src/spim_hyper.c:117:13
	blt	.LBB7_9
.Ltmp213:
@ %bb.3:                                @   in Loop: Header=BB7_1 Depth=1
	@DEBUG_VALUE: spim_hyper_wait_cmdidle:spim <- $r0
	@DEBUG_VALUE: SPIM_HYPER_Read2Word:u32Addr <- [DW_OP_LLVM_entry_value 1] $r1
	@DEBUG_VALUE: SPIM_HYPER_Read2Word:spim <- $r0
	.loc	4 115 18 is_stmt 1              @ ../../../../Library/StdDriver/src/spim_hyper.c:115:18
	ldr.w	r1, [r0, #128]
	.loc	4 115 5 is_stmt 0               @ ../../../../Library/StdDriver/src/spim_hyper.c:115:5
	cbz	r1, .LBB7_9
.Ltmp214:
@ %bb.4:                                @   in Loop: Header=BB7_1 Depth=1
	@DEBUG_VALUE: spim_hyper_wait_cmdidle:spim <- $r0
	@DEBUG_VALUE: SPIM_HYPER_Read2Word:u32Addr <- [DW_OP_LLVM_entry_value 1] $r1
	@DEBUG_VALUE: SPIM_HYPER_Read2Word:spim <- $r0
	.loc	4 117 13 is_stmt 1              @ ../../../../Library/StdDriver/src/spim_hyper.c:117:13
	ldr	r1, [sp]
	subs	r2, r1, #1
.Ltmp215:
	.loc	4 117 13 is_stmt 0              @ ../../../../Library/StdDriver/src/spim_hyper.c:117:13
	cmp	r1, #2
.Ltmp216:
	@DEBUG_VALUE: spim_hyper_wait_cmdidle:i32TimeOutCnt <- [DW_OP_constu 1, DW_OP_minus, DW_OP_stack_value] undef
	.loc	4 117 13                        @ ../../../../Library/StdDriver/src/spim_hyper.c:117:13
	str	r2, [sp]
.Ltmp217:
	.loc	4 117 13                        @ ../../../../Library/StdDriver/src/spim_hyper.c:117:13
	blt	.LBB7_9
.Ltmp218:
@ %bb.5:                                @   in Loop: Header=BB7_1 Depth=1
	@DEBUG_VALUE: spim_hyper_wait_cmdidle:spim <- $r0
	@DEBUG_VALUE: SPIM_HYPER_Read2Word:u32Addr <- [DW_OP_LLVM_entry_value 1] $r1
	@DEBUG_VALUE: SPIM_HYPER_Read2Word:spim <- $r0
	.loc	4 115 18 is_stmt 1              @ ../../../../Library/StdDriver/src/spim_hyper.c:115:18
	ldr.w	r1, [r0, #128]
	.loc	4 115 5 is_stmt 0               @ ../../../../Library/StdDriver/src/spim_hyper.c:115:5
	cbz	r1, .LBB7_9
.Ltmp219:
@ %bb.6:                                @   in Loop: Header=BB7_1 Depth=1
	@DEBUG_VALUE: spim_hyper_wait_cmdidle:spim <- $r0
	@DEBUG_VALUE: SPIM_HYPER_Read2Word:u32Addr <- [DW_OP_LLVM_entry_value 1] $r1
	@DEBUG_VALUE: SPIM_HYPER_Read2Word:spim <- $r0
	.loc	4 117 13 is_stmt 1              @ ../../../../Library/StdDriver/src/spim_hyper.c:117:13
	ldr	r1, [sp]
	subs	r2, r1, #1
.Ltmp220:
	.loc	4 117 13 is_stmt 0              @ ../../../../Library/StdDriver/src/spim_hyper.c:117:13
	cmp	r1, #2
.Ltmp221:
	@DEBUG_VALUE: spim_hyper_wait_cmdidle:i32TimeOutCnt <- [DW_OP_constu 1, DW_OP_minus, DW_OP_stack_value] undef
	.loc	4 117 13                        @ ../../../../Library/StdDriver/src/spim_hyper.c:117:13
	str	r2, [sp]
.Ltmp222:
	.loc	4 117 13                        @ ../../../../Library/StdDriver/src/spim_hyper.c:117:13
	blt	.LBB7_9
.Ltmp223:
@ %bb.7:                                @   in Loop: Header=BB7_1 Depth=1
	@DEBUG_VALUE: spim_hyper_wait_cmdidle:spim <- $r0
	@DEBUG_VALUE: SPIM_HYPER_Read2Word:u32Addr <- [DW_OP_LLVM_entry_value 1] $r1
	@DEBUG_VALUE: SPIM_HYPER_Read2Word:spim <- $r0
	.loc	4 115 18 is_stmt 1              @ ../../../../Library/StdDriver/src/spim_hyper.c:115:18
	ldr.w	r1, [r0, #128]
	.loc	4 115 5 is_stmt 0               @ ../../../../Library/StdDriver/src/spim_hyper.c:115:5
	cbz	r1, .LBB7_9
.Ltmp224:
@ %bb.8:                                @   in Loop: Header=BB7_1 Depth=1
	@DEBUG_VALUE: spim_hyper_wait_cmdidle:spim <- $r0
	@DEBUG_VALUE: SPIM_HYPER_Read2Word:u32Addr <- [DW_OP_LLVM_entry_value 1] $r1
	@DEBUG_VALUE: SPIM_HYPER_Read2Word:spim <- $r0
	.loc	4 117 13 is_stmt 1              @ ../../../../Library/StdDriver/src/spim_hyper.c:117:13
	ldr	r1, [sp]
	subs	r1, #1
	str	r1, [sp]
.Ltmp225:
	@DEBUG_VALUE: spim_hyper_wait_cmdidle:i32TimeOutCnt <- [DW_OP_deref] $sp
	.loc	4 117 13 is_stmt 0              @ ../../../../Library/StdDriver/src/spim_hyper.c:117:13
	bgt	.LBB7_1
.Ltmp226:
.LBB7_9:
	@DEBUG_VALUE: SPIM_HYPER_Read2Word:u32Addr <- [DW_OP_LLVM_entry_value 1] $r1
	@DEBUG_VALUE: SPIM_HYPER_Read2Word:spim <- $r0
	.loc	4 378 29 is_stmt 1              @ ../../../../Library/StdDriver/src/spim_hyper.c:378:29
	ldr.w	r0, [r0, #148]
.Ltmp227:
	@DEBUG_VALUE: SPIM_HYPER_Read2Word:spim <- [DW_OP_LLVM_entry_value 1] $r0
	.loc	4 378 5 epilogue_begin is_stmt 0 @ ../../../../Library/StdDriver/src/spim_hyper.c:378:5
	add	sp, #4
	bx	lr
.Ltmp228:
.Lfunc_end7:
	.size	SPIM_HYPER_Read2Word, .Lfunc_end7-SPIM_HYPER_Read2Word
	.cfi_endproc
	.cantunwind
	.fnend
                                        @ -- End function
	.section	.text.SPIM_HYPER_Write1Byte,"ax",%progbits
	.hidden	SPIM_HYPER_Write1Byte           @ -- Begin function SPIM_HYPER_Write1Byte
	.globl	SPIM_HYPER_Write1Byte
	.p2align	2
	.type	SPIM_HYPER_Write1Byte,%function
	.code	16                              @ @SPIM_HYPER_Write1Byte
	.thumb_func
SPIM_HYPER_Write1Byte:
.Lfunc_begin8:
	.loc	4 391 0 is_stmt 1               @ ../../../../Library/StdDriver/src/spim_hyper.c:391:0
	.fnstart
	.cfi_startproc
@ %bb.0:
	@DEBUG_VALUE: SPIM_HYPER_Write1Byte:spim <- $r0
	@DEBUG_VALUE: SPIM_HYPER_Write1Byte:u32Addr <- $r1
	@DEBUG_VALUE: SPIM_HYPER_Write1Byte:u8Data <- $r2
	.pad	#4
	sub	sp, #4
	.cfi_def_cfa_offset 4
.Ltmp229:
	.loc	4 392 5 prologue_end            @ ../../../../Library/StdDriver/src/spim_hyper.c:392:5
	ldr.w	r3, [r0, #144]
	movs	r3, #0
	str.w	r3, [r0, #144]
	.loc	4 394 21                        @ ../../../../Library/StdDriver/src/spim_hyper.c:394:21
	str.w	r1, [r0, #140]
	movs	r1, #12
.Ltmp230:
	@DEBUG_VALUE: SPIM_HYPER_Write1Byte:u32Addr <- [DW_OP_LLVM_entry_value 1] $r1
	.loc	4 395 23                        @ ../../../../Library/StdDriver/src/spim_hyper.c:395:23
	str.w	r2, [r0, #144]
	.loc	4 397 21                        @ ../../../../Library/StdDriver/src/spim_hyper.c:397:21
	str.w	r1, [r0, #128]
.Ltmp231:
	@DEBUG_VALUE: spim_hyper_wait_cmdidle:spim <- $r0
	@DEBUG_VALUE: spim_hyper_wait_cmdidle:i32TimeOutCnt <- [DW_OP_deref] $sp
	.loc	4 113 47                        @ ../../../../Library/StdDriver/src/spim_hyper.c:113:47
	movw	r1, :lower16:SystemCoreClock
	movt	r1, :upper16:SystemCoreClock
	ldr	r1, [r1]
	.loc	4 113 22 is_stmt 0              @ ../../../../Library/StdDriver/src/spim_hyper.c:113:22
	str	r1, [sp]
.Ltmp232:
.LBB8_1:                                @ =>This Inner Loop Header: Depth=1
	@DEBUG_VALUE: spim_hyper_wait_cmdidle:i32TimeOutCnt <- [DW_OP_deref] $sp
	@DEBUG_VALUE: spim_hyper_wait_cmdidle:spim <- $r0
	@DEBUG_VALUE: SPIM_HYPER_Write1Byte:u32Addr <- [DW_OP_LLVM_entry_value 1] $r1
	@DEBUG_VALUE: SPIM_HYPER_Write1Byte:spim <- $r0
	.loc	4 115 18 is_stmt 1              @ ../../../../Library/StdDriver/src/spim_hyper.c:115:18
	ldr.w	r1, [r0, #128]
	.loc	4 115 5 is_stmt 0               @ ../../../../Library/StdDriver/src/spim_hyper.c:115:5
	cbz	r1, .LBB8_10
.Ltmp233:
@ %bb.2:                                @   in Loop: Header=BB8_1 Depth=1
	@DEBUG_VALUE: spim_hyper_wait_cmdidle:i32TimeOutCnt <- [DW_OP_deref] $sp
	@DEBUG_VALUE: spim_hyper_wait_cmdidle:spim <- $r0
	@DEBUG_VALUE: SPIM_HYPER_Write1Byte:u32Addr <- [DW_OP_LLVM_entry_value 1] $r1
	@DEBUG_VALUE: SPIM_HYPER_Write1Byte:spim <- $r0
	.loc	4 117 13 is_stmt 1              @ ../../../../Library/StdDriver/src/spim_hyper.c:117:13
	ldr	r1, [sp]
	subs	r2, r1, #1
.Ltmp234:
	@DEBUG_VALUE: SPIM_HYPER_Write1Byte:u8Data <- [DW_OP_LLVM_entry_value 1] $r2
	.loc	4 117 13 is_stmt 0              @ ../../../../Library/StdDriver/src/spim_hyper.c:117:13
	cmp	r1, #2
.Ltmp235:
	@DEBUG_VALUE: spim_hyper_wait_cmdidle:i32TimeOutCnt <- [DW_OP_constu 1, DW_OP_minus, DW_OP_stack_value] undef
	.loc	4 117 13                        @ ../../../../Library/StdDriver/src/spim_hyper.c:117:13
	str	r2, [sp]
.Ltmp236:
	.loc	4 117 13                        @ ../../../../Library/StdDriver/src/spim_hyper.c:117:13
	blt	.LBB8_9
.Ltmp237:
@ %bb.3:                                @   in Loop: Header=BB8_1 Depth=1
	@DEBUG_VALUE: spim_hyper_wait_cmdidle:spim <- $r0
	@DEBUG_VALUE: SPIM_HYPER_Write1Byte:u32Addr <- [DW_OP_LLVM_entry_value 1] $r1
	@DEBUG_VALUE: SPIM_HYPER_Write1Byte:spim <- $r0
	.loc	4 115 18 is_stmt 1              @ ../../../../Library/StdDriver/src/spim_hyper.c:115:18
	ldr.w	r1, [r0, #128]
	.loc	4 115 5 is_stmt 0               @ ../../../../Library/StdDriver/src/spim_hyper.c:115:5
	cbz	r1, .LBB8_10
.Ltmp238:
@ %bb.4:                                @   in Loop: Header=BB8_1 Depth=1
	@DEBUG_VALUE: spim_hyper_wait_cmdidle:spim <- $r0
	@DEBUG_VALUE: SPIM_HYPER_Write1Byte:u32Addr <- [DW_OP_LLVM_entry_value 1] $r1
	@DEBUG_VALUE: SPIM_HYPER_Write1Byte:spim <- $r0
	.loc	4 117 13 is_stmt 1              @ ../../../../Library/StdDriver/src/spim_hyper.c:117:13
	ldr	r1, [sp]
	subs	r2, r1, #1
.Ltmp239:
	.loc	4 117 13 is_stmt 0              @ ../../../../Library/StdDriver/src/spim_hyper.c:117:13
	cmp	r1, #2
.Ltmp240:
	@DEBUG_VALUE: spim_hyper_wait_cmdidle:i32TimeOutCnt <- [DW_OP_constu 1, DW_OP_minus, DW_OP_stack_value] undef
	.loc	4 117 13                        @ ../../../../Library/StdDriver/src/spim_hyper.c:117:13
	str	r2, [sp]
.Ltmp241:
	.loc	4 117 13                        @ ../../../../Library/StdDriver/src/spim_hyper.c:117:13
	blt	.LBB8_9
.Ltmp242:
@ %bb.5:                                @   in Loop: Header=BB8_1 Depth=1
	@DEBUG_VALUE: spim_hyper_wait_cmdidle:spim <- $r0
	@DEBUG_VALUE: SPIM_HYPER_Write1Byte:u32Addr <- [DW_OP_LLVM_entry_value 1] $r1
	@DEBUG_VALUE: SPIM_HYPER_Write1Byte:spim <- $r0
	.loc	4 115 18 is_stmt 1              @ ../../../../Library/StdDriver/src/spim_hyper.c:115:18
	ldr.w	r1, [r0, #128]
	.loc	4 115 5 is_stmt 0               @ ../../../../Library/StdDriver/src/spim_hyper.c:115:5
	cbz	r1, .LBB8_10
.Ltmp243:
@ %bb.6:                                @   in Loop: Header=BB8_1 Depth=1
	@DEBUG_VALUE: spim_hyper_wait_cmdidle:spim <- $r0
	@DEBUG_VALUE: SPIM_HYPER_Write1Byte:u32Addr <- [DW_OP_LLVM_entry_value 1] $r1
	@DEBUG_VALUE: SPIM_HYPER_Write1Byte:spim <- $r0
	.loc	4 117 13 is_stmt 1              @ ../../../../Library/StdDriver/src/spim_hyper.c:117:13
	ldr	r1, [sp]
	subs	r2, r1, #1
.Ltmp244:
	.loc	4 117 13 is_stmt 0              @ ../../../../Library/StdDriver/src/spim_hyper.c:117:13
	cmp	r1, #2
.Ltmp245:
	@DEBUG_VALUE: spim_hyper_wait_cmdidle:i32TimeOutCnt <- [DW_OP_constu 1, DW_OP_minus, DW_OP_stack_value] undef
	.loc	4 117 13                        @ ../../../../Library/StdDriver/src/spim_hyper.c:117:13
	str	r2, [sp]
.Ltmp246:
	.loc	4 117 13                        @ ../../../../Library/StdDriver/src/spim_hyper.c:117:13
	blt	.LBB8_9
.Ltmp247:
@ %bb.7:                                @   in Loop: Header=BB8_1 Depth=1
	@DEBUG_VALUE: spim_hyper_wait_cmdidle:spim <- $r0
	@DEBUG_VALUE: SPIM_HYPER_Write1Byte:u32Addr <- [DW_OP_LLVM_entry_value 1] $r1
	@DEBUG_VALUE: SPIM_HYPER_Write1Byte:spim <- $r0
	.loc	4 115 18 is_stmt 1              @ ../../../../Library/StdDriver/src/spim_hyper.c:115:18
	ldr.w	r1, [r0, #128]
	.loc	4 115 5 is_stmt 0               @ ../../../../Library/StdDriver/src/spim_hyper.c:115:5
	cbz	r1, .LBB8_10
.Ltmp248:
@ %bb.8:                                @   in Loop: Header=BB8_1 Depth=1
	@DEBUG_VALUE: spim_hyper_wait_cmdidle:spim <- $r0
	@DEBUG_VALUE: SPIM_HYPER_Write1Byte:u32Addr <- [DW_OP_LLVM_entry_value 1] $r1
	@DEBUG_VALUE: SPIM_HYPER_Write1Byte:spim <- $r0
	.loc	4 117 13 is_stmt 1              @ ../../../../Library/StdDriver/src/spim_hyper.c:117:13
	ldr	r1, [sp]
	subs	r1, #1
	str	r1, [sp]
.Ltmp249:
	@DEBUG_VALUE: spim_hyper_wait_cmdidle:i32TimeOutCnt <- [DW_OP_deref] $sp
	.loc	4 117 13 is_stmt 0              @ ../../../../Library/StdDriver/src/spim_hyper.c:117:13
	bgt	.LBB8_1
.Ltmp250:
.LBB8_9:
	@DEBUG_VALUE: SPIM_HYPER_Write1Byte:u32Addr <- [DW_OP_LLVM_entry_value 1] $r1
	@DEBUG_VALUE: SPIM_HYPER_Write1Byte:spim <- $r0
	.loc	4 0 13                          @ ../../../../Library/StdDriver/src/spim_hyper.c:0:13
	mvn	r0, #1
.Ltmp251:
	@DEBUG_VALUE: SPIM_HYPER_Write1Byte:spim <- [DW_OP_LLVM_entry_value 1] $r0
	@DEBUG_VALUE: SPIM_HYPER_Write1Byte:spim <- [DW_OP_LLVM_entry_value 1] $r0
	.loc	4 399 5 epilogue_begin is_stmt 1 @ ../../../../Library/StdDriver/src/spim_hyper.c:399:5
	add	sp, #4
	bx	lr
.Ltmp252:
.LBB8_10:
	@DEBUG_VALUE: SPIM_HYPER_Write1Byte:u32Addr <- [DW_OP_LLVM_entry_value 1] $r1
	@DEBUG_VALUE: SPIM_HYPER_Write1Byte:spim <- $r0
	.loc	4 0 5 is_stmt 0                 @ ../../../../Library/StdDriver/src/spim_hyper.c:0:5
	movs	r0, #0
.Ltmp253:
	@DEBUG_VALUE: SPIM_HYPER_Write1Byte:spim <- [DW_OP_LLVM_entry_value 1] $r0
	.loc	4 399 5 epilogue_begin          @ ../../../../Library/StdDriver/src/spim_hyper.c:399:5
	add	sp, #4
	bx	lr
.Ltmp254:
.Lfunc_end8:
	.size	SPIM_HYPER_Write1Byte, .Lfunc_end8-SPIM_HYPER_Write1Byte
	.cfi_endproc
	.cantunwind
	.fnend
                                        @ -- End function
	.section	.text.SPIM_HYPER_Write2Byte,"ax",%progbits
	.hidden	SPIM_HYPER_Write2Byte           @ -- Begin function SPIM_HYPER_Write2Byte
	.globl	SPIM_HYPER_Write2Byte
	.p2align	2
	.type	SPIM_HYPER_Write2Byte,%function
	.code	16                              @ @SPIM_HYPER_Write2Byte
	.thumb_func
SPIM_HYPER_Write2Byte:
.Lfunc_begin9:
	.loc	4 412 0 is_stmt 1               @ ../../../../Library/StdDriver/src/spim_hyper.c:412:0
	.fnstart
	.cfi_startproc
@ %bb.0:
	@DEBUG_VALUE: SPIM_HYPER_Write2Byte:spim <- $r0
	@DEBUG_VALUE: SPIM_HYPER_Write2Byte:u32Addr <- $r1
	@DEBUG_VALUE: SPIM_HYPER_Write2Byte:u16Data <- $r2
	.pad	#4
	sub	sp, #4
	.cfi_def_cfa_offset 4
.Ltmp255:
	.loc	4 413 5 prologue_end            @ ../../../../Library/StdDriver/src/spim_hyper.c:413:5
	ldr.w	r3, [r0, #144]
	movs	r3, #0
	str.w	r3, [r0, #144]
	.loc	4 415 21                        @ ../../../../Library/StdDriver/src/spim_hyper.c:415:21
	str.w	r1, [r0, #140]
	movs	r1, #13
.Ltmp256:
	@DEBUG_VALUE: SPIM_HYPER_Write2Byte:u32Addr <- [DW_OP_LLVM_entry_value 1] $r1
	.loc	4 416 23                        @ ../../../../Library/StdDriver/src/spim_hyper.c:416:23
	str.w	r2, [r0, #144]
	.loc	4 418 21                        @ ../../../../Library/StdDriver/src/spim_hyper.c:418:21
	str.w	r1, [r0, #128]
.Ltmp257:
	@DEBUG_VALUE: spim_hyper_wait_cmdidle:spim <- $r0
	@DEBUG_VALUE: spim_hyper_wait_cmdidle:i32TimeOutCnt <- [DW_OP_deref] $sp
	.loc	4 113 47                        @ ../../../../Library/StdDriver/src/spim_hyper.c:113:47
	movw	r1, :lower16:SystemCoreClock
	movt	r1, :upper16:SystemCoreClock
	ldr	r1, [r1]
	.loc	4 113 22 is_stmt 0              @ ../../../../Library/StdDriver/src/spim_hyper.c:113:22
	str	r1, [sp]
.Ltmp258:
.LBB9_1:                                @ =>This Inner Loop Header: Depth=1
	@DEBUG_VALUE: spim_hyper_wait_cmdidle:i32TimeOutCnt <- [DW_OP_deref] $sp
	@DEBUG_VALUE: spim_hyper_wait_cmdidle:spim <- $r0
	@DEBUG_VALUE: SPIM_HYPER_Write2Byte:u32Addr <- [DW_OP_LLVM_entry_value 1] $r1
	@DEBUG_VALUE: SPIM_HYPER_Write2Byte:spim <- $r0
	.loc	4 115 18 is_stmt 1              @ ../../../../Library/StdDriver/src/spim_hyper.c:115:18
	ldr.w	r1, [r0, #128]
	.loc	4 115 5 is_stmt 0               @ ../../../../Library/StdDriver/src/spim_hyper.c:115:5
	cbz	r1, .LBB9_10
.Ltmp259:
@ %bb.2:                                @   in Loop: Header=BB9_1 Depth=1
	@DEBUG_VALUE: spim_hyper_wait_cmdidle:i32TimeOutCnt <- [DW_OP_deref] $sp
	@DEBUG_VALUE: spim_hyper_wait_cmdidle:spim <- $r0
	@DEBUG_VALUE: SPIM_HYPER_Write2Byte:u32Addr <- [DW_OP_LLVM_entry_value 1] $r1
	@DEBUG_VALUE: SPIM_HYPER_Write2Byte:spim <- $r0
	.loc	4 117 13 is_stmt 1              @ ../../../../Library/StdDriver/src/spim_hyper.c:117:13
	ldr	r1, [sp]
	subs	r2, r1, #1
.Ltmp260:
	@DEBUG_VALUE: SPIM_HYPER_Write2Byte:u16Data <- [DW_OP_LLVM_entry_value 1] $r2
	.loc	4 117 13 is_stmt 0              @ ../../../../Library/StdDriver/src/spim_hyper.c:117:13
	cmp	r1, #2
.Ltmp261:
	@DEBUG_VALUE: spim_hyper_wait_cmdidle:i32TimeOutCnt <- [DW_OP_constu 1, DW_OP_minus, DW_OP_stack_value] undef
	.loc	4 117 13                        @ ../../../../Library/StdDriver/src/spim_hyper.c:117:13
	str	r2, [sp]
.Ltmp262:
	.loc	4 117 13                        @ ../../../../Library/StdDriver/src/spim_hyper.c:117:13
	blt	.LBB9_9
.Ltmp263:
@ %bb.3:                                @   in Loop: Header=BB9_1 Depth=1
	@DEBUG_VALUE: spim_hyper_wait_cmdidle:spim <- $r0
	@DEBUG_VALUE: SPIM_HYPER_Write2Byte:u32Addr <- [DW_OP_LLVM_entry_value 1] $r1
	@DEBUG_VALUE: SPIM_HYPER_Write2Byte:spim <- $r0
	.loc	4 115 18 is_stmt 1              @ ../../../../Library/StdDriver/src/spim_hyper.c:115:18
	ldr.w	r1, [r0, #128]
	.loc	4 115 5 is_stmt 0               @ ../../../../Library/StdDriver/src/spim_hyper.c:115:5
	cbz	r1, .LBB9_10
.Ltmp264:
@ %bb.4:                                @   in Loop: Header=BB9_1 Depth=1
	@DEBUG_VALUE: spim_hyper_wait_cmdidle:spim <- $r0
	@DEBUG_VALUE: SPIM_HYPER_Write2Byte:u32Addr <- [DW_OP_LLVM_entry_value 1] $r1
	@DEBUG_VALUE: SPIM_HYPER_Write2Byte:spim <- $r0
	.loc	4 117 13 is_stmt 1              @ ../../../../Library/StdDriver/src/spim_hyper.c:117:13
	ldr	r1, [sp]
	subs	r2, r1, #1
.Ltmp265:
	.loc	4 117 13 is_stmt 0              @ ../../../../Library/StdDriver/src/spim_hyper.c:117:13
	cmp	r1, #2
.Ltmp266:
	@DEBUG_VALUE: spim_hyper_wait_cmdidle:i32TimeOutCnt <- [DW_OP_constu 1, DW_OP_minus, DW_OP_stack_value] undef
	.loc	4 117 13                        @ ../../../../Library/StdDriver/src/spim_hyper.c:117:13
	str	r2, [sp]
.Ltmp267:
	.loc	4 117 13                        @ ../../../../Library/StdDriver/src/spim_hyper.c:117:13
	blt	.LBB9_9
.Ltmp268:
@ %bb.5:                                @   in Loop: Header=BB9_1 Depth=1
	@DEBUG_VALUE: spim_hyper_wait_cmdidle:spim <- $r0
	@DEBUG_VALUE: SPIM_HYPER_Write2Byte:u32Addr <- [DW_OP_LLVM_entry_value 1] $r1
	@DEBUG_VALUE: SPIM_HYPER_Write2Byte:spim <- $r0
	.loc	4 115 18 is_stmt 1              @ ../../../../Library/StdDriver/src/spim_hyper.c:115:18
	ldr.w	r1, [r0, #128]
	.loc	4 115 5 is_stmt 0               @ ../../../../Library/StdDriver/src/spim_hyper.c:115:5
	cbz	r1, .LBB9_10
.Ltmp269:
@ %bb.6:                                @   in Loop: Header=BB9_1 Depth=1
	@DEBUG_VALUE: spim_hyper_wait_cmdidle:spim <- $r0
	@DEBUG_VALUE: SPIM_HYPER_Write2Byte:u32Addr <- [DW_OP_LLVM_entry_value 1] $r1
	@DEBUG_VALUE: SPIM_HYPER_Write2Byte:spim <- $r0
	.loc	4 117 13 is_stmt 1              @ ../../../../Library/StdDriver/src/spim_hyper.c:117:13
	ldr	r1, [sp]
	subs	r2, r1, #1
.Ltmp270:
	.loc	4 117 13 is_stmt 0              @ ../../../../Library/StdDriver/src/spim_hyper.c:117:13
	cmp	r1, #2
.Ltmp271:
	@DEBUG_VALUE: spim_hyper_wait_cmdidle:i32TimeOutCnt <- [DW_OP_constu 1, DW_OP_minus, DW_OP_stack_value] undef
	.loc	4 117 13                        @ ../../../../Library/StdDriver/src/spim_hyper.c:117:13
	str	r2, [sp]
.Ltmp272:
	.loc	4 117 13                        @ ../../../../Library/StdDriver/src/spim_hyper.c:117:13
	blt	.LBB9_9
.Ltmp273:
@ %bb.7:                                @   in Loop: Header=BB9_1 Depth=1
	@DEBUG_VALUE: spim_hyper_wait_cmdidle:spim <- $r0
	@DEBUG_VALUE: SPIM_HYPER_Write2Byte:u32Addr <- [DW_OP_LLVM_entry_value 1] $r1
	@DEBUG_VALUE: SPIM_HYPER_Write2Byte:spim <- $r0
	.loc	4 115 18 is_stmt 1              @ ../../../../Library/StdDriver/src/spim_hyper.c:115:18
	ldr.w	r1, [r0, #128]
	.loc	4 115 5 is_stmt 0               @ ../../../../Library/StdDriver/src/spim_hyper.c:115:5
	cbz	r1, .LBB9_10
.Ltmp274:
@ %bb.8:                                @   in Loop: Header=BB9_1 Depth=1
	@DEBUG_VALUE: spim_hyper_wait_cmdidle:spim <- $r0
	@DEBUG_VALUE: SPIM_HYPER_Write2Byte:u32Addr <- [DW_OP_LLVM_entry_value 1] $r1
	@DEBUG_VALUE: SPIM_HYPER_Write2Byte:spim <- $r0
	.loc	4 117 13 is_stmt 1              @ ../../../../Library/StdDriver/src/spim_hyper.c:117:13
	ldr	r1, [sp]
	subs	r1, #1
	str	r1, [sp]
.Ltmp275:
	@DEBUG_VALUE: spim_hyper_wait_cmdidle:i32TimeOutCnt <- [DW_OP_deref] $sp
	.loc	4 117 13 is_stmt 0              @ ../../../../Library/StdDriver/src/spim_hyper.c:117:13
	bgt	.LBB9_1
.Ltmp276:
.LBB9_9:
	@DEBUG_VALUE: SPIM_HYPER_Write2Byte:u32Addr <- [DW_OP_LLVM_entry_value 1] $r1
	@DEBUG_VALUE: SPIM_HYPER_Write2Byte:spim <- $r0
	.loc	4 0 13                          @ ../../../../Library/StdDriver/src/spim_hyper.c:0:13
	mvn	r0, #1
.Ltmp277:
	@DEBUG_VALUE: SPIM_HYPER_Write2Byte:spim <- [DW_OP_LLVM_entry_value 1] $r0
	@DEBUG_VALUE: SPIM_HYPER_Write2Byte:spim <- [DW_OP_LLVM_entry_value 1] $r0
	.loc	4 420 5 epilogue_begin is_stmt 1 @ ../../../../Library/StdDriver/src/spim_hyper.c:420:5
	add	sp, #4
	bx	lr
.Ltmp278:
.LBB9_10:
	@DEBUG_VALUE: SPIM_HYPER_Write2Byte:u32Addr <- [DW_OP_LLVM_entry_value 1] $r1
	@DEBUG_VALUE: SPIM_HYPER_Write2Byte:spim <- $r0
	.loc	4 0 5 is_stmt 0                 @ ../../../../Library/StdDriver/src/spim_hyper.c:0:5
	movs	r0, #0
.Ltmp279:
	@DEBUG_VALUE: SPIM_HYPER_Write2Byte:spim <- [DW_OP_LLVM_entry_value 1] $r0
	.loc	4 420 5 epilogue_begin          @ ../../../../Library/StdDriver/src/spim_hyper.c:420:5
	add	sp, #4
	bx	lr
.Ltmp280:
.Lfunc_end9:
	.size	SPIM_HYPER_Write2Byte, .Lfunc_end9-SPIM_HYPER_Write2Byte
	.cfi_endproc
	.cantunwind
	.fnend
                                        @ -- End function
	.section	.text.SPIM_HYPER_Write3Byte,"ax",%progbits
	.hidden	SPIM_HYPER_Write3Byte           @ -- Begin function SPIM_HYPER_Write3Byte
	.globl	SPIM_HYPER_Write3Byte
	.p2align	2
	.type	SPIM_HYPER_Write3Byte,%function
	.code	16                              @ @SPIM_HYPER_Write3Byte
	.thumb_func
SPIM_HYPER_Write3Byte:
.Lfunc_begin10:
	.loc	4 433 0 is_stmt 1               @ ../../../../Library/StdDriver/src/spim_hyper.c:433:0
	.fnstart
	.cfi_startproc
@ %bb.0:
	@DEBUG_VALUE: SPIM_HYPER_Write3Byte:spim <- $r0
	@DEBUG_VALUE: SPIM_HYPER_Write3Byte:u32Addr <- $r1
	@DEBUG_VALUE: SPIM_HYPER_Write3Byte:u32Data <- $r2
	.pad	#4
	sub	sp, #4
	.cfi_def_cfa_offset 4
.Ltmp281:
	.loc	4 434 5 prologue_end            @ ../../../../Library/StdDriver/src/spim_hyper.c:434:5
	ldr.w	r3, [r0, #144]
	movs	r3, #0
	str.w	r3, [r0, #144]
	.loc	4 436 21                        @ ../../../../Library/StdDriver/src/spim_hyper.c:436:21
	str.w	r1, [r0, #140]
	.loc	4 437 34                        @ ../../../../Library/StdDriver/src/spim_hyper.c:437:34
	bic	r1, r2, #-16777216
.Ltmp282:
	@DEBUG_VALUE: SPIM_HYPER_Write3Byte:u32Addr <- [DW_OP_LLVM_entry_value 1] $r1
	.loc	4 437 23 is_stmt 0              @ ../../../../Library/StdDriver/src/spim_hyper.c:437:23
	str.w	r1, [r0, #144]
	movs	r1, #14
	.loc	4 439 21 is_stmt 1              @ ../../../../Library/StdDriver/src/spim_hyper.c:439:21
	str.w	r1, [r0, #128]
.Ltmp283:
	@DEBUG_VALUE: spim_hyper_wait_cmdidle:spim <- $r0
	@DEBUG_VALUE: spim_hyper_wait_cmdidle:i32TimeOutCnt <- [DW_OP_deref] $sp
	.loc	4 113 47                        @ ../../../../Library/StdDriver/src/spim_hyper.c:113:47
	movw	r1, :lower16:SystemCoreClock
	movt	r1, :upper16:SystemCoreClock
	ldr	r1, [r1]
	.loc	4 113 22 is_stmt 0              @ ../../../../Library/StdDriver/src/spim_hyper.c:113:22
	str	r1, [sp]
.Ltmp284:
.LBB10_1:                               @ =>This Inner Loop Header: Depth=1
	@DEBUG_VALUE: spim_hyper_wait_cmdidle:i32TimeOutCnt <- [DW_OP_deref] $sp
	@DEBUG_VALUE: spim_hyper_wait_cmdidle:spim <- $r0
	@DEBUG_VALUE: SPIM_HYPER_Write3Byte:u32Addr <- [DW_OP_LLVM_entry_value 1] $r1
	@DEBUG_VALUE: SPIM_HYPER_Write3Byte:spim <- $r0
	.loc	4 115 18 is_stmt 1              @ ../../../../Library/StdDriver/src/spim_hyper.c:115:18
	ldr.w	r1, [r0, #128]
	.loc	4 115 5 is_stmt 0               @ ../../../../Library/StdDriver/src/spim_hyper.c:115:5
	cbz	r1, .LBB10_10
.Ltmp285:
@ %bb.2:                                @   in Loop: Header=BB10_1 Depth=1
	@DEBUG_VALUE: spim_hyper_wait_cmdidle:i32TimeOutCnt <- [DW_OP_deref] $sp
	@DEBUG_VALUE: spim_hyper_wait_cmdidle:spim <- $r0
	@DEBUG_VALUE: SPIM_HYPER_Write3Byte:u32Addr <- [DW_OP_LLVM_entry_value 1] $r1
	@DEBUG_VALUE: SPIM_HYPER_Write3Byte:spim <- $r0
	.loc	4 117 13 is_stmt 1              @ ../../../../Library/StdDriver/src/spim_hyper.c:117:13
	ldr	r1, [sp]
	subs	r2, r1, #1
.Ltmp286:
	@DEBUG_VALUE: SPIM_HYPER_Write3Byte:u32Data <- [DW_OP_LLVM_entry_value 1] $r2
	.loc	4 117 13 is_stmt 0              @ ../../../../Library/StdDriver/src/spim_hyper.c:117:13
	cmp	r1, #2
.Ltmp287:
	@DEBUG_VALUE: spim_hyper_wait_cmdidle:i32TimeOutCnt <- [DW_OP_constu 1, DW_OP_minus, DW_OP_stack_value] undef
	.loc	4 117 13                        @ ../../../../Library/StdDriver/src/spim_hyper.c:117:13
	str	r2, [sp]
.Ltmp288:
	.loc	4 117 13                        @ ../../../../Library/StdDriver/src/spim_hyper.c:117:13
	blt	.LBB10_9
.Ltmp289:
@ %bb.3:                                @   in Loop: Header=BB10_1 Depth=1
	@DEBUG_VALUE: spim_hyper_wait_cmdidle:spim <- $r0
	@DEBUG_VALUE: SPIM_HYPER_Write3Byte:u32Addr <- [DW_OP_LLVM_entry_value 1] $r1
	@DEBUG_VALUE: SPIM_HYPER_Write3Byte:spim <- $r0
	.loc	4 115 18 is_stmt 1              @ ../../../../Library/StdDriver/src/spim_hyper.c:115:18
	ldr.w	r1, [r0, #128]
	.loc	4 115 5 is_stmt 0               @ ../../../../Library/StdDriver/src/spim_hyper.c:115:5
	cbz	r1, .LBB10_10
.Ltmp290:
@ %bb.4:                                @   in Loop: Header=BB10_1 Depth=1
	@DEBUG_VALUE: spim_hyper_wait_cmdidle:spim <- $r0
	@DEBUG_VALUE: SPIM_HYPER_Write3Byte:u32Addr <- [DW_OP_LLVM_entry_value 1] $r1
	@DEBUG_VALUE: SPIM_HYPER_Write3Byte:spim <- $r0
	.loc	4 117 13 is_stmt 1              @ ../../../../Library/StdDriver/src/spim_hyper.c:117:13
	ldr	r1, [sp]
	subs	r2, r1, #1
.Ltmp291:
	.loc	4 117 13 is_stmt 0              @ ../../../../Library/StdDriver/src/spim_hyper.c:117:13
	cmp	r1, #2
.Ltmp292:
	@DEBUG_VALUE: spim_hyper_wait_cmdidle:i32TimeOutCnt <- [DW_OP_constu 1, DW_OP_minus, DW_OP_stack_value] undef
	.loc	4 117 13                        @ ../../../../Library/StdDriver/src/spim_hyper.c:117:13
	str	r2, [sp]
.Ltmp293:
	.loc	4 117 13                        @ ../../../../Library/StdDriver/src/spim_hyper.c:117:13
	blt	.LBB10_9
.Ltmp294:
@ %bb.5:                                @   in Loop: Header=BB10_1 Depth=1
	@DEBUG_VALUE: spim_hyper_wait_cmdidle:spim <- $r0
	@DEBUG_VALUE: SPIM_HYPER_Write3Byte:u32Addr <- [DW_OP_LLVM_entry_value 1] $r1
	@DEBUG_VALUE: SPIM_HYPER_Write3Byte:spim <- $r0
	.loc	4 115 18 is_stmt 1              @ ../../../../Library/StdDriver/src/spim_hyper.c:115:18
	ldr.w	r1, [r0, #128]
	.loc	4 115 5 is_stmt 0               @ ../../../../Library/StdDriver/src/spim_hyper.c:115:5
	cbz	r1, .LBB10_10
.Ltmp295:
@ %bb.6:                                @   in Loop: Header=BB10_1 Depth=1
	@DEBUG_VALUE: spim_hyper_wait_cmdidle:spim <- $r0
	@DEBUG_VALUE: SPIM_HYPER_Write3Byte:u32Addr <- [DW_OP_LLVM_entry_value 1] $r1
	@DEBUG_VALUE: SPIM_HYPER_Write3Byte:spim <- $r0
	.loc	4 117 13 is_stmt 1              @ ../../../../Library/StdDriver/src/spim_hyper.c:117:13
	ldr	r1, [sp]
	subs	r2, r1, #1
.Ltmp296:
	.loc	4 117 13 is_stmt 0              @ ../../../../Library/StdDriver/src/spim_hyper.c:117:13
	cmp	r1, #2
.Ltmp297:
	@DEBUG_VALUE: spim_hyper_wait_cmdidle:i32TimeOutCnt <- [DW_OP_constu 1, DW_OP_minus, DW_OP_stack_value] undef
	.loc	4 117 13                        @ ../../../../Library/StdDriver/src/spim_hyper.c:117:13
	str	r2, [sp]
.Ltmp298:
	.loc	4 117 13                        @ ../../../../Library/StdDriver/src/spim_hyper.c:117:13
	blt	.LBB10_9
.Ltmp299:
@ %bb.7:                                @   in Loop: Header=BB10_1 Depth=1
	@DEBUG_VALUE: spim_hyper_wait_cmdidle:spim <- $r0
	@DEBUG_VALUE: SPIM_HYPER_Write3Byte:u32Addr <- [DW_OP_LLVM_entry_value 1] $r1
	@DEBUG_VALUE: SPIM_HYPER_Write3Byte:spim <- $r0
	.loc	4 115 18 is_stmt 1              @ ../../../../Library/StdDriver/src/spim_hyper.c:115:18
	ldr.w	r1, [r0, #128]
	.loc	4 115 5 is_stmt 0               @ ../../../../Library/StdDriver/src/spim_hyper.c:115:5
	cbz	r1, .LBB10_10
.Ltmp300:
@ %bb.8:                                @   in Loop: Header=BB10_1 Depth=1
	@DEBUG_VALUE: spim_hyper_wait_cmdidle:spim <- $r0
	@DEBUG_VALUE: SPIM_HYPER_Write3Byte:u32Addr <- [DW_OP_LLVM_entry_value 1] $r1
	@DEBUG_VALUE: SPIM_HYPER_Write3Byte:spim <- $r0
	.loc	4 117 13 is_stmt 1              @ ../../../../Library/StdDriver/src/spim_hyper.c:117:13
	ldr	r1, [sp]
	subs	r1, #1
	str	r1, [sp]
.Ltmp301:
	@DEBUG_VALUE: spim_hyper_wait_cmdidle:i32TimeOutCnt <- [DW_OP_deref] $sp
	.loc	4 117 13 is_stmt 0              @ ../../../../Library/StdDriver/src/spim_hyper.c:117:13
	bgt	.LBB10_1
.Ltmp302:
.LBB10_9:
	@DEBUG_VALUE: SPIM_HYPER_Write3Byte:u32Addr <- [DW_OP_LLVM_entry_value 1] $r1
	@DEBUG_VALUE: SPIM_HYPER_Write3Byte:spim <- $r0
	.loc	4 0 13                          @ ../../../../Library/StdDriver/src/spim_hyper.c:0:13
	mvn	r0, #1
.Ltmp303:
	@DEBUG_VALUE: SPIM_HYPER_Write3Byte:spim <- [DW_OP_LLVM_entry_value 1] $r0
	@DEBUG_VALUE: SPIM_HYPER_Write3Byte:spim <- [DW_OP_LLVM_entry_value 1] $r0
	.loc	4 441 5 epilogue_begin is_stmt 1 @ ../../../../Library/StdDriver/src/spim_hyper.c:441:5
	add	sp, #4
	bx	lr
.Ltmp304:
.LBB10_10:
	@DEBUG_VALUE: SPIM_HYPER_Write3Byte:u32Addr <- [DW_OP_LLVM_entry_value 1] $r1
	@DEBUG_VALUE: SPIM_HYPER_Write3Byte:spim <- $r0
	.loc	4 0 5 is_stmt 0                 @ ../../../../Library/StdDriver/src/spim_hyper.c:0:5
	movs	r0, #0
.Ltmp305:
	@DEBUG_VALUE: SPIM_HYPER_Write3Byte:spim <- [DW_OP_LLVM_entry_value 1] $r0
	.loc	4 441 5 epilogue_begin          @ ../../../../Library/StdDriver/src/spim_hyper.c:441:5
	add	sp, #4
	bx	lr
.Ltmp306:
.Lfunc_end10:
	.size	SPIM_HYPER_Write3Byte, .Lfunc_end10-SPIM_HYPER_Write3Byte
	.cfi_endproc
	.cantunwind
	.fnend
                                        @ -- End function
	.section	.text.SPIM_HYPER_Write4Byte,"ax",%progbits
	.hidden	SPIM_HYPER_Write4Byte           @ -- Begin function SPIM_HYPER_Write4Byte
	.globl	SPIM_HYPER_Write4Byte
	.p2align	2
	.type	SPIM_HYPER_Write4Byte,%function
	.code	16                              @ @SPIM_HYPER_Write4Byte
	.thumb_func
SPIM_HYPER_Write4Byte:
.Lfunc_begin11:
	.loc	4 454 0 is_stmt 1               @ ../../../../Library/StdDriver/src/spim_hyper.c:454:0
	.fnstart
	.cfi_startproc
@ %bb.0:
	@DEBUG_VALUE: SPIM_HYPER_Write4Byte:spim <- $r0
	@DEBUG_VALUE: SPIM_HYPER_Write4Byte:u32Addr <- $r1
	@DEBUG_VALUE: SPIM_HYPER_Write4Byte:u32Data <- $r2
	.pad	#4
	sub	sp, #4
	.cfi_def_cfa_offset 4
.Ltmp307:
	.loc	4 455 5 prologue_end            @ ../../../../Library/StdDriver/src/spim_hyper.c:455:5
	ldr.w	r3, [r0, #144]
	movs	r3, #0
	str.w	r3, [r0, #144]
	.loc	4 457 21                        @ ../../../../Library/StdDriver/src/spim_hyper.c:457:21
	str.w	r1, [r0, #140]
	movs	r1, #15
.Ltmp308:
	@DEBUG_VALUE: SPIM_HYPER_Write4Byte:u32Addr <- [DW_OP_LLVM_entry_value 1] $r1
	.loc	4 458 23                        @ ../../../../Library/StdDriver/src/spim_hyper.c:458:23
	str.w	r2, [r0, #144]
	.loc	4 460 21                        @ ../../../../Library/StdDriver/src/spim_hyper.c:460:21
	str.w	r1, [r0, #128]
.Ltmp309:
	@DEBUG_VALUE: spim_hyper_wait_cmdidle:spim <- $r0
	@DEBUG_VALUE: spim_hyper_wait_cmdidle:i32TimeOutCnt <- [DW_OP_deref] $sp
	.loc	4 113 47                        @ ../../../../Library/StdDriver/src/spim_hyper.c:113:47
	movw	r1, :lower16:SystemCoreClock
	movt	r1, :upper16:SystemCoreClock
	ldr	r1, [r1]
	.loc	4 113 22 is_stmt 0              @ ../../../../Library/StdDriver/src/spim_hyper.c:113:22
	str	r1, [sp]
.Ltmp310:
.LBB11_1:                               @ =>This Inner Loop Header: Depth=1
	@DEBUG_VALUE: spim_hyper_wait_cmdidle:i32TimeOutCnt <- [DW_OP_deref] $sp
	@DEBUG_VALUE: spim_hyper_wait_cmdidle:spim <- $r0
	@DEBUG_VALUE: SPIM_HYPER_Write4Byte:u32Addr <- [DW_OP_LLVM_entry_value 1] $r1
	@DEBUG_VALUE: SPIM_HYPER_Write4Byte:spim <- $r0
	.loc	4 115 18 is_stmt 1              @ ../../../../Library/StdDriver/src/spim_hyper.c:115:18
	ldr.w	r1, [r0, #128]
	.loc	4 115 5 is_stmt 0               @ ../../../../Library/StdDriver/src/spim_hyper.c:115:5
	cbz	r1, .LBB11_10
.Ltmp311:
@ %bb.2:                                @   in Loop: Header=BB11_1 Depth=1
	@DEBUG_VALUE: spim_hyper_wait_cmdidle:i32TimeOutCnt <- [DW_OP_deref] $sp
	@DEBUG_VALUE: spim_hyper_wait_cmdidle:spim <- $r0
	@DEBUG_VALUE: SPIM_HYPER_Write4Byte:u32Addr <- [DW_OP_LLVM_entry_value 1] $r1
	@DEBUG_VALUE: SPIM_HYPER_Write4Byte:spim <- $r0
	.loc	4 117 13 is_stmt 1              @ ../../../../Library/StdDriver/src/spim_hyper.c:117:13
	ldr	r1, [sp]
	subs	r2, r1, #1
.Ltmp312:
	@DEBUG_VALUE: SPIM_HYPER_Write4Byte:u32Data <- [DW_OP_LLVM_entry_value 1] $r2
	.loc	4 117 13 is_stmt 0              @ ../../../../Library/StdDriver/src/spim_hyper.c:117:13
	cmp	r1, #2
.Ltmp313:
	@DEBUG_VALUE: spim_hyper_wait_cmdidle:i32TimeOutCnt <- [DW_OP_constu 1, DW_OP_minus, DW_OP_stack_value] undef
	.loc	4 117 13                        @ ../../../../Library/StdDriver/src/spim_hyper.c:117:13
	str	r2, [sp]
.Ltmp314:
	.loc	4 117 13                        @ ../../../../Library/StdDriver/src/spim_hyper.c:117:13
	blt	.LBB11_9
.Ltmp315:
@ %bb.3:                                @   in Loop: Header=BB11_1 Depth=1
	@DEBUG_VALUE: spim_hyper_wait_cmdidle:spim <- $r0
	@DEBUG_VALUE: SPIM_HYPER_Write4Byte:u32Addr <- [DW_OP_LLVM_entry_value 1] $r1
	@DEBUG_VALUE: SPIM_HYPER_Write4Byte:spim <- $r0
	.loc	4 115 18 is_stmt 1              @ ../../../../Library/StdDriver/src/spim_hyper.c:115:18
	ldr.w	r1, [r0, #128]
	.loc	4 115 5 is_stmt 0               @ ../../../../Library/StdDriver/src/spim_hyper.c:115:5
	cbz	r1, .LBB11_10
.Ltmp316:
@ %bb.4:                                @   in Loop: Header=BB11_1 Depth=1
	@DEBUG_VALUE: spim_hyper_wait_cmdidle:spim <- $r0
	@DEBUG_VALUE: SPIM_HYPER_Write4Byte:u32Addr <- [DW_OP_LLVM_entry_value 1] $r1
	@DEBUG_VALUE: SPIM_HYPER_Write4Byte:spim <- $r0
	.loc	4 117 13 is_stmt 1              @ ../../../../Library/StdDriver/src/spim_hyper.c:117:13
	ldr	r1, [sp]
	subs	r2, r1, #1
.Ltmp317:
	.loc	4 117 13 is_stmt 0              @ ../../../../Library/StdDriver/src/spim_hyper.c:117:13
	cmp	r1, #2
.Ltmp318:
	@DEBUG_VALUE: spim_hyper_wait_cmdidle:i32TimeOutCnt <- [DW_OP_constu 1, DW_OP_minus, DW_OP_stack_value] undef
	.loc	4 117 13                        @ ../../../../Library/StdDriver/src/spim_hyper.c:117:13
	str	r2, [sp]
.Ltmp319:
	.loc	4 117 13                        @ ../../../../Library/StdDriver/src/spim_hyper.c:117:13
	blt	.LBB11_9
.Ltmp320:
@ %bb.5:                                @   in Loop: Header=BB11_1 Depth=1
	@DEBUG_VALUE: spim_hyper_wait_cmdidle:spim <- $r0
	@DEBUG_VALUE: SPIM_HYPER_Write4Byte:u32Addr <- [DW_OP_LLVM_entry_value 1] $r1
	@DEBUG_VALUE: SPIM_HYPER_Write4Byte:spim <- $r0
	.loc	4 115 18 is_stmt 1              @ ../../../../Library/StdDriver/src/spim_hyper.c:115:18
	ldr.w	r1, [r0, #128]
	.loc	4 115 5 is_stmt 0               @ ../../../../Library/StdDriver/src/spim_hyper.c:115:5
	cbz	r1, .LBB11_10
.Ltmp321:
@ %bb.6:                                @   in Loop: Header=BB11_1 Depth=1
	@DEBUG_VALUE: spim_hyper_wait_cmdidle:spim <- $r0
	@DEBUG_VALUE: SPIM_HYPER_Write4Byte:u32Addr <- [DW_OP_LLVM_entry_value 1] $r1
	@DEBUG_VALUE: SPIM_HYPER_Write4Byte:spim <- $r0
	.loc	4 117 13 is_stmt 1              @ ../../../../Library/StdDriver/src/spim_hyper.c:117:13
	ldr	r1, [sp]
	subs	r2, r1, #1
.Ltmp322:
	.loc	4 117 13 is_stmt 0              @ ../../../../Library/StdDriver/src/spim_hyper.c:117:13
	cmp	r1, #2
.Ltmp323:
	@DEBUG_VALUE: spim_hyper_wait_cmdidle:i32TimeOutCnt <- [DW_OP_constu 1, DW_OP_minus, DW_OP_stack_value] undef
	.loc	4 117 13                        @ ../../../../Library/StdDriver/src/spim_hyper.c:117:13
	str	r2, [sp]
.Ltmp324:
	.loc	4 117 13                        @ ../../../../Library/StdDriver/src/spim_hyper.c:117:13
	blt	.LBB11_9
.Ltmp325:
@ %bb.7:                                @   in Loop: Header=BB11_1 Depth=1
	@DEBUG_VALUE: spim_hyper_wait_cmdidle:spim <- $r0
	@DEBUG_VALUE: SPIM_HYPER_Write4Byte:u32Addr <- [DW_OP_LLVM_entry_value 1] $r1
	@DEBUG_VALUE: SPIM_HYPER_Write4Byte:spim <- $r0
	.loc	4 115 18 is_stmt 1              @ ../../../../Library/StdDriver/src/spim_hyper.c:115:18
	ldr.w	r1, [r0, #128]
	.loc	4 115 5 is_stmt 0               @ ../../../../Library/StdDriver/src/spim_hyper.c:115:5
	cbz	r1, .LBB11_10
.Ltmp326:
@ %bb.8:                                @   in Loop: Header=BB11_1 Depth=1
	@DEBUG_VALUE: spim_hyper_wait_cmdidle:spim <- $r0
	@DEBUG_VALUE: SPIM_HYPER_Write4Byte:u32Addr <- [DW_OP_LLVM_entry_value 1] $r1
	@DEBUG_VALUE: SPIM_HYPER_Write4Byte:spim <- $r0
	.loc	4 117 13 is_stmt 1              @ ../../../../Library/StdDriver/src/spim_hyper.c:117:13
	ldr	r1, [sp]
	subs	r1, #1
	str	r1, [sp]
.Ltmp327:
	@DEBUG_VALUE: spim_hyper_wait_cmdidle:i32TimeOutCnt <- [DW_OP_deref] $sp
	.loc	4 117 13 is_stmt 0              @ ../../../../Library/StdDriver/src/spim_hyper.c:117:13
	bgt	.LBB11_1
.Ltmp328:
.LBB11_9:
	@DEBUG_VALUE: SPIM_HYPER_Write4Byte:u32Addr <- [DW_OP_LLVM_entry_value 1] $r1
	@DEBUG_VALUE: SPIM_HYPER_Write4Byte:spim <- $r0
	.loc	4 0 13                          @ ../../../../Library/StdDriver/src/spim_hyper.c:0:13
	mvn	r0, #1
.Ltmp329:
	@DEBUG_VALUE: SPIM_HYPER_Write4Byte:spim <- [DW_OP_LLVM_entry_value 1] $r0
	@DEBUG_VALUE: SPIM_HYPER_Write4Byte:spim <- [DW_OP_LLVM_entry_value 1] $r0
	.loc	4 462 5 epilogue_begin is_stmt 1 @ ../../../../Library/StdDriver/src/spim_hyper.c:462:5
	add	sp, #4
	bx	lr
.Ltmp330:
.LBB11_10:
	@DEBUG_VALUE: SPIM_HYPER_Write4Byte:u32Addr <- [DW_OP_LLVM_entry_value 1] $r1
	@DEBUG_VALUE: SPIM_HYPER_Write4Byte:spim <- $r0
	.loc	4 0 5 is_stmt 0                 @ ../../../../Library/StdDriver/src/spim_hyper.c:0:5
	movs	r0, #0
.Ltmp331:
	@DEBUG_VALUE: SPIM_HYPER_Write4Byte:spim <- [DW_OP_LLVM_entry_value 1] $r0
	.loc	4 462 5 epilogue_begin          @ ../../../../Library/StdDriver/src/spim_hyper.c:462:5
	add	sp, #4
	bx	lr
.Ltmp332:
.Lfunc_end11:
	.size	SPIM_HYPER_Write4Byte, .Lfunc_end11-SPIM_HYPER_Write4Byte
	.cfi_endproc
	.cantunwind
	.fnend
                                        @ -- End function
	.section	.text.SPIM_HYPER_DMAWrite,"ax",%progbits
	.hidden	SPIM_HYPER_DMAWrite             @ -- Begin function SPIM_HYPER_DMAWrite
	.globl	SPIM_HYPER_DMAWrite
	.p2align	2
	.type	SPIM_HYPER_DMAWrite,%function
	.code	16                              @ @SPIM_HYPER_DMAWrite
	.thumb_func
SPIM_HYPER_DMAWrite:
.Lfunc_begin12:
	.loc	4 477 0 is_stmt 1               @ ../../../../Library/StdDriver/src/spim_hyper.c:477:0
	.fnstart
	.cfi_startproc
@ %bb.0:
	@DEBUG_VALUE: SPIM_HYPER_DMAWrite:spim <- $r0
	@DEBUG_VALUE: SPIM_HYPER_DMAWrite:u32Addr <- $r1
	@DEBUG_VALUE: SPIM_HYPER_DMAWrite:pu8WrBuf <- $r2
	@DEBUG_VALUE: SPIM_HYPER_DMAWrite:u32NTx <- $r3
	.save	{r4, r5, r7, lr}
	push	{r4, r5, r7, lr}
	.cfi_def_cfa_offset 16
	.cfi_offset lr, -4
	.cfi_offset r7, -8
	.cfi_offset r5, -12
	.cfi_offset r4, -16
	.pad	#8
	sub	sp, #8
	.cfi_def_cfa_offset 24
.Ltmp333:
	.loc	5 642 49 prologue_end           @ ../../../../Library/StdDriver/inc\spim_hyper.h:642:49
	movw	r12, :lower16:SystemCoreClock
	movt	r12, :upper16:SystemCoreClock
	ldr.w	lr, [r12]
.Ltmp334:
	@DEBUG_VALUE: SPIM_HYPER_WAIT_DMMDONE:spim <- $r0
	@DEBUG_VALUE: SPIM_HYPER_WAIT_DMMDONE:i32TimeOutCount <- [DW_OP_deref] $sp
	@DEBUG_VALUE: SPIM_HYPER_SET_OPMODE:x <- 1
	@DEBUG_VALUE: SPIM_HYPER_SET_OPMODE:spim <- $r0
	.loc	5 642 22 is_stmt 0              @ ../../../../Library/StdDriver/inc\spim_hyper.h:642:22
	str.w	lr, [sp]
	.loc	5 644 5 is_stmt 1               @ ../../../../Library/StdDriver/inc\spim_hyper.h:644:5
	ldr	r4, [r0, #68]
	orr	r4, r4, #134217728
	str	r4, [r0, #68]
.Ltmp335:
.LBB12_1:                               @ =>This Inner Loop Header: Depth=1
	@DEBUG_VALUE: SPIM_HYPER_SET_OPMODE:spim <- $r0
	@DEBUG_VALUE: SPIM_HYPER_SET_OPMODE:x <- 1
	@DEBUG_VALUE: SPIM_HYPER_WAIT_DMMDONE:i32TimeOutCount <- [DW_OP_deref] $sp
	@DEBUG_VALUE: SPIM_HYPER_WAIT_DMMDONE:spim <- $r0
	@DEBUG_VALUE: SPIM_HYPER_DMAWrite:u32NTx <- $r3
	@DEBUG_VALUE: SPIM_HYPER_DMAWrite:pu8WrBuf <- $r2
	@DEBUG_VALUE: SPIM_HYPER_DMAWrite:u32Addr <- $r1
	@DEBUG_VALUE: SPIM_HYPER_DMAWrite:spim <- $r0
	.loc	5 646 12                        @ ../../../../Library/StdDriver/inc\spim_hyper.h:646:12
	ldr	r4, [r0, #68]
	.loc	5 646 5 is_stmt 0               @ ../../../../Library/StdDriver/inc\spim_hyper.h:646:5
	lsls	r4, r4, #4
	bpl	.LBB12_9
.Ltmp336:
@ %bb.2:                                @   in Loop: Header=BB12_1 Depth=1
	@DEBUG_VALUE: SPIM_HYPER_SET_OPMODE:spim <- $r0
	@DEBUG_VALUE: SPIM_HYPER_SET_OPMODE:x <- 1
	@DEBUG_VALUE: SPIM_HYPER_WAIT_DMMDONE:i32TimeOutCount <- [DW_OP_deref] $sp
	@DEBUG_VALUE: SPIM_HYPER_WAIT_DMMDONE:spim <- $r0
	@DEBUG_VALUE: SPIM_HYPER_DMAWrite:u32NTx <- $r3
	@DEBUG_VALUE: SPIM_HYPER_DMAWrite:pu8WrBuf <- $r2
	@DEBUG_VALUE: SPIM_HYPER_DMAWrite:u32Addr <- $r1
	@DEBUG_VALUE: SPIM_HYPER_DMAWrite:spim <- $r0
	.loc	5 648 13 is_stmt 1              @ ../../../../Library/StdDriver/inc\spim_hyper.h:648:13
	ldr	r4, [sp]
	subs	r5, r4, #1
.Ltmp337:
	.loc	5 648 13 is_stmt 0              @ ../../../../Library/StdDriver/inc\spim_hyper.h:648:13
	cmp	r4, #2
.Ltmp338:
	@DEBUG_VALUE: SPIM_HYPER_WAIT_DMMDONE:i32TimeOutCount <- [DW_OP_constu 1, DW_OP_minus, DW_OP_stack_value] undef
	.loc	5 648 13                        @ ../../../../Library/StdDriver/inc\spim_hyper.h:648:13
	str	r5, [sp]
.Ltmp339:
	.loc	5 648 13                        @ ../../../../Library/StdDriver/inc\spim_hyper.h:648:13
	blt	.LBB12_9
.Ltmp340:
@ %bb.3:                                @   in Loop: Header=BB12_1 Depth=1
	@DEBUG_VALUE: SPIM_HYPER_SET_OPMODE:spim <- $r0
	@DEBUG_VALUE: SPIM_HYPER_SET_OPMODE:x <- 1
	@DEBUG_VALUE: SPIM_HYPER_WAIT_DMMDONE:spim <- $r0
	@DEBUG_VALUE: SPIM_HYPER_DMAWrite:u32NTx <- $r3
	@DEBUG_VALUE: SPIM_HYPER_DMAWrite:pu8WrBuf <- $r2
	@DEBUG_VALUE: SPIM_HYPER_DMAWrite:u32Addr <- $r1
	@DEBUG_VALUE: SPIM_HYPER_DMAWrite:spim <- $r0
	.loc	5 646 12 is_stmt 1              @ ../../../../Library/StdDriver/inc\spim_hyper.h:646:12
	ldr	r4, [r0, #68]
	.loc	5 646 5 is_stmt 0               @ ../../../../Library/StdDriver/inc\spim_hyper.h:646:5
	lsls	r4, r4, #4
	bpl	.LBB12_9
.Ltmp341:
@ %bb.4:                                @   in Loop: Header=BB12_1 Depth=1
	@DEBUG_VALUE: SPIM_HYPER_SET_OPMODE:spim <- $r0
	@DEBUG_VALUE: SPIM_HYPER_SET_OPMODE:x <- 1
	@DEBUG_VALUE: SPIM_HYPER_WAIT_DMMDONE:spim <- $r0
	@DEBUG_VALUE: SPIM_HYPER_DMAWrite:u32NTx <- $r3
	@DEBUG_VALUE: SPIM_HYPER_DMAWrite:pu8WrBuf <- $r2
	@DEBUG_VALUE: SPIM_HYPER_DMAWrite:u32Addr <- $r1
	@DEBUG_VALUE: SPIM_HYPER_DMAWrite:spim <- $r0
	.loc	5 648 13 is_stmt 1              @ ../../../../Library/StdDriver/inc\spim_hyper.h:648:13
	ldr	r4, [sp]
	subs	r5, r4, #1
.Ltmp342:
	.loc	5 648 13 is_stmt 0              @ ../../../../Library/StdDriver/inc\spim_hyper.h:648:13
	cmp	r4, #2
.Ltmp343:
	@DEBUG_VALUE: SPIM_HYPER_WAIT_DMMDONE:i32TimeOutCount <- [DW_OP_constu 1, DW_OP_minus, DW_OP_stack_value] undef
	.loc	5 648 13                        @ ../../../../Library/StdDriver/inc\spim_hyper.h:648:13
	str	r5, [sp]
.Ltmp344:
	.loc	5 648 13                        @ ../../../../Library/StdDriver/inc\spim_hyper.h:648:13
	blt	.LBB12_9
.Ltmp345:
@ %bb.5:                                @   in Loop: Header=BB12_1 Depth=1
	@DEBUG_VALUE: SPIM_HYPER_SET_OPMODE:spim <- $r0
	@DEBUG_VALUE: SPIM_HYPER_SET_OPMODE:x <- 1
	@DEBUG_VALUE: SPIM_HYPER_WAIT_DMMDONE:spim <- $r0
	@DEBUG_VALUE: SPIM_HYPER_DMAWrite:u32NTx <- $r3
	@DEBUG_VALUE: SPIM_HYPER_DMAWrite:pu8WrBuf <- $r2
	@DEBUG_VALUE: SPIM_HYPER_DMAWrite:u32Addr <- $r1
	@DEBUG_VALUE: SPIM_HYPER_DMAWrite:spim <- $r0
	.loc	5 646 12 is_stmt 1              @ ../../../../Library/StdDriver/inc\spim_hyper.h:646:12
	ldr	r4, [r0, #68]
	.loc	5 646 5 is_stmt 0               @ ../../../../Library/StdDriver/inc\spim_hyper.h:646:5
	lsls	r4, r4, #4
	bpl	.LBB12_9
.Ltmp346:
@ %bb.6:                                @   in Loop: Header=BB12_1 Depth=1
	@DEBUG_VALUE: SPIM_HYPER_SET_OPMODE:spim <- $r0
	@DEBUG_VALUE: SPIM_HYPER_SET_OPMODE:x <- 1
	@DEBUG_VALUE: SPIM_HYPER_WAIT_DMMDONE:spim <- $r0
	@DEBUG_VALUE: SPIM_HYPER_DMAWrite:u32NTx <- $r3
	@DEBUG_VALUE: SPIM_HYPER_DMAWrite:pu8WrBuf <- $r2
	@DEBUG_VALUE: SPIM_HYPER_DMAWrite:u32Addr <- $r1
	@DEBUG_VALUE: SPIM_HYPER_DMAWrite:spim <- $r0
	.loc	5 648 13 is_stmt 1              @ ../../../../Library/StdDriver/inc\spim_hyper.h:648:13
	ldr	r4, [sp]
	subs	r5, r4, #1
.Ltmp347:
	.loc	5 648 13 is_stmt 0              @ ../../../../Library/StdDriver/inc\spim_hyper.h:648:13
	cmp	r4, #2
.Ltmp348:
	@DEBUG_VALUE: SPIM_HYPER_WAIT_DMMDONE:i32TimeOutCount <- [DW_OP_constu 1, DW_OP_minus, DW_OP_stack_value] undef
	.loc	5 648 13                        @ ../../../../Library/StdDriver/inc\spim_hyper.h:648:13
	str	r5, [sp]
.Ltmp349:
	.loc	5 648 13                        @ ../../../../Library/StdDriver/inc\spim_hyper.h:648:13
	blt	.LBB12_9
.Ltmp350:
@ %bb.7:                                @   in Loop: Header=BB12_1 Depth=1
	@DEBUG_VALUE: SPIM_HYPER_SET_OPMODE:spim <- $r0
	@DEBUG_VALUE: SPIM_HYPER_SET_OPMODE:x <- 1
	@DEBUG_VALUE: SPIM_HYPER_WAIT_DMMDONE:spim <- $r0
	@DEBUG_VALUE: SPIM_HYPER_DMAWrite:u32NTx <- $r3
	@DEBUG_VALUE: SPIM_HYPER_DMAWrite:pu8WrBuf <- $r2
	@DEBUG_VALUE: SPIM_HYPER_DMAWrite:u32Addr <- $r1
	@DEBUG_VALUE: SPIM_HYPER_DMAWrite:spim <- $r0
	.loc	5 646 12 is_stmt 1              @ ../../../../Library/StdDriver/inc\spim_hyper.h:646:12
	ldr	r4, [r0, #68]
	.loc	5 646 5 is_stmt 0               @ ../../../../Library/StdDriver/inc\spim_hyper.h:646:5
	lsls	r4, r4, #4
	bpl	.LBB12_9
.Ltmp351:
@ %bb.8:                                @   in Loop: Header=BB12_1 Depth=1
	@DEBUG_VALUE: SPIM_HYPER_SET_OPMODE:spim <- $r0
	@DEBUG_VALUE: SPIM_HYPER_SET_OPMODE:x <- 1
	@DEBUG_VALUE: SPIM_HYPER_WAIT_DMMDONE:spim <- $r0
	@DEBUG_VALUE: SPIM_HYPER_DMAWrite:u32NTx <- $r3
	@DEBUG_VALUE: SPIM_HYPER_DMAWrite:pu8WrBuf <- $r2
	@DEBUG_VALUE: SPIM_HYPER_DMAWrite:u32Addr <- $r1
	@DEBUG_VALUE: SPIM_HYPER_DMAWrite:spim <- $r0
	.loc	5 648 13 is_stmt 1              @ ../../../../Library/StdDriver/inc\spim_hyper.h:648:13
	ldr	r4, [sp]
	subs	r4, #1
	str	r4, [sp]
.Ltmp352:
	@DEBUG_VALUE: SPIM_HYPER_WAIT_DMMDONE:i32TimeOutCount <- [DW_OP_deref] $sp
	.loc	5 648 13 is_stmt 0              @ ../../../../Library/StdDriver/inc\spim_hyper.h:648:13
	bgt	.LBB12_1
.Ltmp353:
.LBB12_9:
	@DEBUG_VALUE: SPIM_HYPER_SET_OPMODE:spim <- $r0
	@DEBUG_VALUE: SPIM_HYPER_SET_OPMODE:x <- 1
	@DEBUG_VALUE: SPIM_HYPER_WAIT_DMMDONE:spim <- $r0
	@DEBUG_VALUE: SPIM_HYPER_DMAWrite:u32NTx <- $r3
	@DEBUG_VALUE: SPIM_HYPER_DMAWrite:pu8WrBuf <- $r2
	@DEBUG_VALUE: SPIM_HYPER_DMAWrite:u32Addr <- $r1
	@DEBUG_VALUE: SPIM_HYPER_DMAWrite:spim <- $r0
	.loc	5 654 21 is_stmt 1              @ ../../../../Library/StdDriver/inc\spim_hyper.h:654:21
	str.w	lr, [sp]
.Ltmp354:
	@DEBUG_VALUE: SPIM_HYPER_WAIT_DMMDONE:i32TimeOutCount <- [DW_OP_deref] $sp
.LBB12_10:                              @ =>This Inner Loop Header: Depth=1
	@DEBUG_VALUE: SPIM_HYPER_SET_OPMODE:spim <- $r0
	@DEBUG_VALUE: SPIM_HYPER_SET_OPMODE:x <- 1
	@DEBUG_VALUE: SPIM_HYPER_WAIT_DMMDONE:i32TimeOutCount <- [DW_OP_deref] $sp
	@DEBUG_VALUE: SPIM_HYPER_WAIT_DMMDONE:spim <- $r0
	@DEBUG_VALUE: SPIM_HYPER_DMAWrite:u32NTx <- $r3
	@DEBUG_VALUE: SPIM_HYPER_DMAWrite:pu8WrBuf <- $r2
	@DEBUG_VALUE: SPIM_HYPER_DMAWrite:u32Addr <- $r1
	@DEBUG_VALUE: SPIM_HYPER_DMAWrite:spim <- $r0
	.loc	5 657 12                        @ ../../../../Library/StdDriver/inc\spim_hyper.h:657:12
	ldr	r5, [r0, #68]
	.loc	5 657 5 is_stmt 0               @ ../../../../Library/StdDriver/inc\spim_hyper.h:657:5
	cmp	r5, #0
	bmi	.LBB12_18
.Ltmp355:
@ %bb.11:                               @   in Loop: Header=BB12_10 Depth=1
	@DEBUG_VALUE: SPIM_HYPER_SET_OPMODE:spim <- $r0
	@DEBUG_VALUE: SPIM_HYPER_SET_OPMODE:x <- 1
	@DEBUG_VALUE: SPIM_HYPER_WAIT_DMMDONE:i32TimeOutCount <- [DW_OP_deref] $sp
	@DEBUG_VALUE: SPIM_HYPER_WAIT_DMMDONE:spim <- $r0
	@DEBUG_VALUE: SPIM_HYPER_DMAWrite:u32NTx <- $r3
	@DEBUG_VALUE: SPIM_HYPER_DMAWrite:pu8WrBuf <- $r2
	@DEBUG_VALUE: SPIM_HYPER_DMAWrite:u32Addr <- $r1
	@DEBUG_VALUE: SPIM_HYPER_DMAWrite:spim <- $r0
	.loc	5 659 13 is_stmt 1              @ ../../../../Library/StdDriver/inc\spim_hyper.h:659:13
	ldr	r5, [sp]
	subs	r4, r5, #1
.Ltmp356:
	.loc	5 659 13 is_stmt 0              @ ../../../../Library/StdDriver/inc\spim_hyper.h:659:13
	cmp	r5, #2
.Ltmp357:
	@DEBUG_VALUE: SPIM_HYPER_WAIT_DMMDONE:i32TimeOutCount <- [DW_OP_constu 1, DW_OP_minus, DW_OP_stack_value] undef
	.loc	5 659 13                        @ ../../../../Library/StdDriver/inc\spim_hyper.h:659:13
	str	r4, [sp]
.Ltmp358:
	.loc	5 659 13                        @ ../../../../Library/StdDriver/inc\spim_hyper.h:659:13
	blt	.LBB12_18
.Ltmp359:
@ %bb.12:                               @   in Loop: Header=BB12_10 Depth=1
	@DEBUG_VALUE: SPIM_HYPER_SET_OPMODE:spim <- $r0
	@DEBUG_VALUE: SPIM_HYPER_SET_OPMODE:x <- 1
	@DEBUG_VALUE: SPIM_HYPER_WAIT_DMMDONE:spim <- $r0
	@DEBUG_VALUE: SPIM_HYPER_DMAWrite:u32NTx <- $r3
	@DEBUG_VALUE: SPIM_HYPER_DMAWrite:pu8WrBuf <- $r2
	@DEBUG_VALUE: SPIM_HYPER_DMAWrite:u32Addr <- $r1
	@DEBUG_VALUE: SPIM_HYPER_DMAWrite:spim <- $r0
	.loc	5 657 12 is_stmt 1              @ ../../../../Library/StdDriver/inc\spim_hyper.h:657:12
	ldr	r5, [r0, #68]
	.loc	5 657 5 is_stmt 0               @ ../../../../Library/StdDriver/inc\spim_hyper.h:657:5
	cmp	r5, #0
	bmi	.LBB12_18
.Ltmp360:
@ %bb.13:                               @   in Loop: Header=BB12_10 Depth=1
	@DEBUG_VALUE: SPIM_HYPER_SET_OPMODE:spim <- $r0
	@DEBUG_VALUE: SPIM_HYPER_SET_OPMODE:x <- 1
	@DEBUG_VALUE: SPIM_HYPER_WAIT_DMMDONE:spim <- $r0
	@DEBUG_VALUE: SPIM_HYPER_DMAWrite:u32NTx <- $r3
	@DEBUG_VALUE: SPIM_HYPER_DMAWrite:pu8WrBuf <- $r2
	@DEBUG_VALUE: SPIM_HYPER_DMAWrite:u32Addr <- $r1
	@DEBUG_VALUE: SPIM_HYPER_DMAWrite:spim <- $r0
	.loc	5 659 13 is_stmt 1              @ ../../../../Library/StdDriver/inc\spim_hyper.h:659:13
	ldr	r5, [sp]
	subs	r4, r5, #1
.Ltmp361:
	.loc	5 659 13 is_stmt 0              @ ../../../../Library/StdDriver/inc\spim_hyper.h:659:13
	cmp	r5, #2
.Ltmp362:
	@DEBUG_VALUE: SPIM_HYPER_WAIT_DMMDONE:i32TimeOutCount <- [DW_OP_constu 1, DW_OP_minus, DW_OP_stack_value] undef
	.loc	5 659 13                        @ ../../../../Library/StdDriver/inc\spim_hyper.h:659:13
	str	r4, [sp]
.Ltmp363:
	.loc	5 659 13                        @ ../../../../Library/StdDriver/inc\spim_hyper.h:659:13
	blt	.LBB12_18
.Ltmp364:
@ %bb.14:                               @   in Loop: Header=BB12_10 Depth=1
	@DEBUG_VALUE: SPIM_HYPER_SET_OPMODE:spim <- $r0
	@DEBUG_VALUE: SPIM_HYPER_SET_OPMODE:x <- 1
	@DEBUG_VALUE: SPIM_HYPER_WAIT_DMMDONE:spim <- $r0
	@DEBUG_VALUE: SPIM_HYPER_DMAWrite:u32NTx <- $r3
	@DEBUG_VALUE: SPIM_HYPER_DMAWrite:pu8WrBuf <- $r2
	@DEBUG_VALUE: SPIM_HYPER_DMAWrite:u32Addr <- $r1
	@DEBUG_VALUE: SPIM_HYPER_DMAWrite:spim <- $r0
	.loc	5 657 12 is_stmt 1              @ ../../../../Library/StdDriver/inc\spim_hyper.h:657:12
	ldr	r5, [r0, #68]
	.loc	5 657 5 is_stmt 0               @ ../../../../Library/StdDriver/inc\spim_hyper.h:657:5
	cmp	r5, #0
	bmi	.LBB12_18
.Ltmp365:
@ %bb.15:                               @   in Loop: Header=BB12_10 Depth=1
	@DEBUG_VALUE: SPIM_HYPER_SET_OPMODE:spim <- $r0
	@DEBUG_VALUE: SPIM_HYPER_SET_OPMODE:x <- 1
	@DEBUG_VALUE: SPIM_HYPER_WAIT_DMMDONE:spim <- $r0
	@DEBUG_VALUE: SPIM_HYPER_DMAWrite:u32NTx <- $r3
	@DEBUG_VALUE: SPIM_HYPER_DMAWrite:pu8WrBuf <- $r2
	@DEBUG_VALUE: SPIM_HYPER_DMAWrite:u32Addr <- $r1
	@DEBUG_VALUE: SPIM_HYPER_DMAWrite:spim <- $r0
	.loc	5 659 13 is_stmt 1              @ ../../../../Library/StdDriver/inc\spim_hyper.h:659:13
	ldr	r5, [sp]
	subs	r4, r5, #1
.Ltmp366:
	.loc	5 659 13 is_stmt 0              @ ../../../../Library/StdDriver/inc\spim_hyper.h:659:13
	cmp	r5, #2
.Ltmp367:
	@DEBUG_VALUE: SPIM_HYPER_WAIT_DMMDONE:i32TimeOutCount <- [DW_OP_constu 1, DW_OP_minus, DW_OP_stack_value] undef
	.loc	5 659 13                        @ ../../../../Library/StdDriver/inc\spim_hyper.h:659:13
	str	r4, [sp]
.Ltmp368:
	.loc	5 659 13                        @ ../../../../Library/StdDriver/inc\spim_hyper.h:659:13
	blt	.LBB12_18
.Ltmp369:
@ %bb.16:                               @   in Loop: Header=BB12_10 Depth=1
	@DEBUG_VALUE: SPIM_HYPER_SET_OPMODE:spim <- $r0
	@DEBUG_VALUE: SPIM_HYPER_SET_OPMODE:x <- 1
	@DEBUG_VALUE: SPIM_HYPER_WAIT_DMMDONE:spim <- $r0
	@DEBUG_VALUE: SPIM_HYPER_DMAWrite:u32NTx <- $r3
	@DEBUG_VALUE: SPIM_HYPER_DMAWrite:pu8WrBuf <- $r2
	@DEBUG_VALUE: SPIM_HYPER_DMAWrite:u32Addr <- $r1
	@DEBUG_VALUE: SPIM_HYPER_DMAWrite:spim <- $r0
	.loc	5 657 12 is_stmt 1              @ ../../../../Library/StdDriver/inc\spim_hyper.h:657:12
	ldr	r5, [r0, #68]
	.loc	5 657 5 is_stmt 0               @ ../../../../Library/StdDriver/inc\spim_hyper.h:657:5
	cmp	r5, #0
	bmi	.LBB12_18
.Ltmp370:
@ %bb.17:                               @   in Loop: Header=BB12_10 Depth=1
	@DEBUG_VALUE: SPIM_HYPER_SET_OPMODE:spim <- $r0
	@DEBUG_VALUE: SPIM_HYPER_SET_OPMODE:x <- 1
	@DEBUG_VALUE: SPIM_HYPER_WAIT_DMMDONE:spim <- $r0
	@DEBUG_VALUE: SPIM_HYPER_DMAWrite:u32NTx <- $r3
	@DEBUG_VALUE: SPIM_HYPER_DMAWrite:pu8WrBuf <- $r2
	@DEBUG_VALUE: SPIM_HYPER_DMAWrite:u32Addr <- $r1
	@DEBUG_VALUE: SPIM_HYPER_DMAWrite:spim <- $r0
	.loc	5 659 13 is_stmt 1              @ ../../../../Library/StdDriver/inc\spim_hyper.h:659:13
	ldr	r5, [sp]
	subs	r5, #1
	str	r5, [sp]
.Ltmp371:
	@DEBUG_VALUE: SPIM_HYPER_WAIT_DMMDONE:i32TimeOutCount <- [DW_OP_deref] $sp
	.loc	5 659 13 is_stmt 0              @ ../../../../Library/StdDriver/inc\spim_hyper.h:659:13
	bgt	.LBB12_10
.Ltmp372:
.LBB12_18:
	@DEBUG_VALUE: SPIM_HYPER_SET_OPMODE:spim <- $r0
	@DEBUG_VALUE: SPIM_HYPER_SET_OPMODE:x <- 1
	@DEBUG_VALUE: SPIM_HYPER_DMAWrite:u32NTx <- $r3
	@DEBUG_VALUE: SPIM_HYPER_DMAWrite:pu8WrBuf <- $r2
	@DEBUG_VALUE: SPIM_HYPER_DMAWrite:u32Addr <- $r1
	@DEBUG_VALUE: SPIM_HYPER_DMAWrite:spim <- $r0
	.loc	5 716 27 is_stmt 1              @ ../../../../Library/StdDriver/inc\spim_hyper.h:716:27
	ldr	r5, [r0]
	movs	r4, #1
	.loc	5 716 59 is_stmt 0              @ ../../../../Library/StdDriver/inc\spim_hyper.h:716:59
	bfi	r5, r4, #22, #2
	.loc	5 716 17                        @ ../../../../Library/StdDriver/inc\spim_hyper.h:716:17
	str	r5, [r0]
.Ltmp373:
	.loc	4 480 20 is_stmt 1              @ ../../../../Library/StdDriver/src/spim_hyper.c:480:20
	str	r2, [r0, #48]
	.loc	4 481 20                        @ ../../../../Library/StdDriver/src/spim_hyper.c:481:20
	str	r3, [r0, #52]
	.loc	4 482 20                        @ ../../../../Library/StdDriver/src/spim_hyper.c:482:20
	str	r1, [r0, #56]
.Ltmp374:
	@DEBUG_VALUE: SPIM_HYPER_WaitSPIMENDone:u32IsSync <- 1
	@DEBUG_VALUE: SPIM_HYPER_WaitSPIMENDone:spim <- $r0
	@DEBUG_VALUE: SPIM_HYPER_WaitSPIMENDone:i32TimeOutCount <- [DW_OP_plus_uconst 4, DW_OP_deref] $sp
	.loc	4 223 49                        @ ../../../../Library/StdDriver/src/spim_hyper.c:223:49
	ldr.w	r1, [r12]
.Ltmp375:
	@DEBUG_VALUE: SPIM_HYPER_DMAWrite:u32Addr <- [DW_OP_LLVM_entry_value 1] $r1
	.loc	4 223 22 is_stmt 0              @ ../../../../Library/StdDriver/src/spim_hyper.c:223:22
	str	r1, [sp, #4]
	.loc	4 226 5 is_stmt 1               @ ../../../../Library/StdDriver/src/spim_hyper.c:226:5
	ldr	r1, [r0, #4]!
.Ltmp376:
	@DEBUG_VALUE: SPIM_HYPER_DMAWrite:spim <- [DW_OP_LLVM_entry_value 1] $r0
	orr	r1, r1, #1
	str	r1, [r0]
	add.w	r1, r0, #148
.Ltmp377:
	.loc	4 0 5 is_stmt 0                 @ :0:5
.Ltmp378:
	.p2align	2
.LBB12_19:                              @ =>This Inner Loop Header: Depth=1
	@DEBUG_VALUE: SPIM_HYPER_DMAWrite:spim <- [DW_OP_LLVM_entry_value 1] $r0
	@DEBUG_VALUE: SPIM_HYPER_DMAWrite:u32Addr <- [DW_OP_LLVM_entry_value 1] $r1
	@DEBUG_VALUE: SPIM_HYPER_WaitSPIMENDone:i32TimeOutCount <- [DW_OP_plus_uconst 4, DW_OP_deref] $sp
	@DEBUG_VALUE: SPIM_HYPER_WaitSPIMENDone:u32IsSync <- 1
	@DEBUG_VALUE: SPIM_HYPER_DMAWrite:u32NTx <- $r3
	.loc	4 230 17 is_stmt 1              @ ../../../../Library/StdDriver/src/spim_hyper.c:230:17
	ldr	r2, [r1]
.Ltmp379:
	@DEBUG_VALUE: SPIM_HYPER_DMAWrite:pu8WrBuf <- [DW_OP_LLVM_entry_value 1] $r2
	lsls	r2, r2, #31
	csel	r2, r0, r1, eq
	.loc	4 230 0 is_stmt 0               @ ../../../../Library/StdDriver/src/spim_hyper.c:230:0
	ldr	r2, [r2]
	.loc	4 230 9                         @ ../../../../Library/StdDriver/src/spim_hyper.c:230:9
	lsls	r2, r2, #31
	beq	.LBB12_22
.Ltmp380:
@ %bb.20:                               @   in Loop: Header=BB12_19 Depth=1
	@DEBUG_VALUE: SPIM_HYPER_DMAWrite:spim <- [DW_OP_LLVM_entry_value 1] $r0
	@DEBUG_VALUE: SPIM_HYPER_DMAWrite:u32Addr <- [DW_OP_LLVM_entry_value 1] $r1
	@DEBUG_VALUE: SPIM_HYPER_WaitSPIMENDone:i32TimeOutCount <- [DW_OP_plus_uconst 4, DW_OP_deref] $sp
	@DEBUG_VALUE: SPIM_HYPER_WaitSPIMENDone:u32IsSync <- 1
	@DEBUG_VALUE: SPIM_HYPER_DMAWrite:u32NTx <- $r3
	.loc	4 232 17 is_stmt 1              @ ../../../../Library/StdDriver/src/spim_hyper.c:232:17
	ldr	r2, [sp, #4]
	subs	r2, #1
	str	r2, [sp, #4]
.Ltmp381:
	@DEBUG_VALUE: SPIM_HYPER_WaitSPIMENDone:i32TimeOutCount <- [DW_OP_plus_uconst 4, DW_OP_deref] $sp
	.loc	4 232 17 is_stmt 0              @ ../../../../Library/StdDriver/src/spim_hyper.c:232:17
	bgt	.LBB12_19
.Ltmp382:
@ %bb.21:
	@DEBUG_VALUE: SPIM_HYPER_DMAWrite:spim <- [DW_OP_LLVM_entry_value 1] $r0
	@DEBUG_VALUE: SPIM_HYPER_DMAWrite:u32Addr <- [DW_OP_LLVM_entry_value 1] $r1
	@DEBUG_VALUE: SPIM_HYPER_DMAWrite:u32NTx <- $r3
	.loc	4 0 17                          @ ../../../../Library/StdDriver/src/spim_hyper.c:0:17
	mvn	r0, #1
	.loc	4 484 5 epilogue_begin is_stmt 1 @ ../../../../Library/StdDriver/src/spim_hyper.c:484:5
	add	sp, #8
	pop	{r4, r5, r7, pc}
.Ltmp383:
.LBB12_22:
	@DEBUG_VALUE: SPIM_HYPER_DMAWrite:spim <- [DW_OP_LLVM_entry_value 1] $r0
	@DEBUG_VALUE: SPIM_HYPER_DMAWrite:u32Addr <- [DW_OP_LLVM_entry_value 1] $r1
	@DEBUG_VALUE: SPIM_HYPER_DMAWrite:u32NTx <- $r3
	.loc	4 0 5 is_stmt 0                 @ ../../../../Library/StdDriver/src/spim_hyper.c:0:5
	movs	r0, #0
	.loc	4 484 5 epilogue_begin          @ ../../../../Library/StdDriver/src/spim_hyper.c:484:5
	add	sp, #8
	pop	{r4, r5, r7, pc}
.Ltmp384:
.Lfunc_end12:
	.size	SPIM_HYPER_DMAWrite, .Lfunc_end12-SPIM_HYPER_DMAWrite
	.cfi_endproc
	.cantunwind
	.fnend
                                        @ -- End function
	.section	.text.SPIM_HYPER_DMARead,"ax",%progbits
	.hidden	SPIM_HYPER_DMARead              @ -- Begin function SPIM_HYPER_DMARead
	.globl	SPIM_HYPER_DMARead
	.p2align	2
	.type	SPIM_HYPER_DMARead,%function
	.code	16                              @ @SPIM_HYPER_DMARead
	.thumb_func
SPIM_HYPER_DMARead:
.Lfunc_begin13:
	.loc	4 499 0 is_stmt 1               @ ../../../../Library/StdDriver/src/spim_hyper.c:499:0
	.fnstart
	.cfi_startproc
@ %bb.0:
	@DEBUG_VALUE: SPIM_HYPER_DMARead:spim <- $r0
	@DEBUG_VALUE: SPIM_HYPER_DMARead:u32Addr <- $r1
	@DEBUG_VALUE: SPIM_HYPER_DMARead:pu8RdBuf <- $r2
	@DEBUG_VALUE: SPIM_HYPER_DMARead:u32NRx <- $r3
	.save	{r4, r5, r7, lr}
	push	{r4, r5, r7, lr}
	.cfi_def_cfa_offset 16
	.cfi_offset lr, -4
	.cfi_offset r7, -8
	.cfi_offset r5, -12
	.cfi_offset r4, -16
	.pad	#8
	sub	sp, #8
	.cfi_def_cfa_offset 24
.Ltmp385:
	.loc	5 642 49 prologue_end           @ ../../../../Library/StdDriver/inc\spim_hyper.h:642:49
	movw	r12, :lower16:SystemCoreClock
	movt	r12, :upper16:SystemCoreClock
	ldr.w	lr, [r12]
.Ltmp386:
	@DEBUG_VALUE: SPIM_HYPER_WAIT_DMMDONE:spim <- $r0
	@DEBUG_VALUE: SPIM_HYPER_WAIT_DMMDONE:i32TimeOutCount <- [DW_OP_deref] $sp
	@DEBUG_VALUE: SPIM_HYPER_SET_OPMODE:x <- 2
	@DEBUG_VALUE: SPIM_HYPER_SET_OPMODE:spim <- $r0
	.loc	5 642 22 is_stmt 0              @ ../../../../Library/StdDriver/inc\spim_hyper.h:642:22
	str.w	lr, [sp]
	.loc	5 644 5 is_stmt 1               @ ../../../../Library/StdDriver/inc\spim_hyper.h:644:5
	ldr	r4, [r0, #68]
	orr	r4, r4, #134217728
	str	r4, [r0, #68]
.Ltmp387:
.LBB13_1:                               @ =>This Inner Loop Header: Depth=1
	@DEBUG_VALUE: SPIM_HYPER_SET_OPMODE:spim <- $r0
	@DEBUG_VALUE: SPIM_HYPER_SET_OPMODE:x <- 2
	@DEBUG_VALUE: SPIM_HYPER_WAIT_DMMDONE:i32TimeOutCount <- [DW_OP_deref] $sp
	@DEBUG_VALUE: SPIM_HYPER_WAIT_DMMDONE:spim <- $r0
	@DEBUG_VALUE: SPIM_HYPER_DMARead:u32NRx <- $r3
	@DEBUG_VALUE: SPIM_HYPER_DMARead:pu8RdBuf <- $r2
	@DEBUG_VALUE: SPIM_HYPER_DMARead:u32Addr <- $r1
	@DEBUG_VALUE: SPIM_HYPER_DMARead:spim <- $r0
	.loc	5 646 12                        @ ../../../../Library/StdDriver/inc\spim_hyper.h:646:12
	ldr	r4, [r0, #68]
	.loc	5 646 5 is_stmt 0               @ ../../../../Library/StdDriver/inc\spim_hyper.h:646:5
	lsls	r4, r4, #4
	bpl	.LBB13_9
.Ltmp388:
@ %bb.2:                                @   in Loop: Header=BB13_1 Depth=1
	@DEBUG_VALUE: SPIM_HYPER_SET_OPMODE:spim <- $r0
	@DEBUG_VALUE: SPIM_HYPER_SET_OPMODE:x <- 2
	@DEBUG_VALUE: SPIM_HYPER_WAIT_DMMDONE:i32TimeOutCount <- [DW_OP_deref] $sp
	@DEBUG_VALUE: SPIM_HYPER_WAIT_DMMDONE:spim <- $r0
	@DEBUG_VALUE: SPIM_HYPER_DMARead:u32NRx <- $r3
	@DEBUG_VALUE: SPIM_HYPER_DMARead:pu8RdBuf <- $r2
	@DEBUG_VALUE: SPIM_HYPER_DMARead:u32Addr <- $r1
	@DEBUG_VALUE: SPIM_HYPER_DMARead:spim <- $r0
	.loc	5 648 13 is_stmt 1              @ ../../../../Library/StdDriver/inc\spim_hyper.h:648:13
	ldr	r4, [sp]
	subs	r5, r4, #1
.Ltmp389:
	.loc	5 648 13 is_stmt 0              @ ../../../../Library/StdDriver/inc\spim_hyper.h:648:13
	cmp	r4, #2
.Ltmp390:
	@DEBUG_VALUE: SPIM_HYPER_WAIT_DMMDONE:i32TimeOutCount <- [DW_OP_constu 1, DW_OP_minus, DW_OP_stack_value] undef
	.loc	5 648 13                        @ ../../../../Library/StdDriver/inc\spim_hyper.h:648:13
	str	r5, [sp]
.Ltmp391:
	.loc	5 648 13                        @ ../../../../Library/StdDriver/inc\spim_hyper.h:648:13
	blt	.LBB13_9
.Ltmp392:
@ %bb.3:                                @   in Loop: Header=BB13_1 Depth=1
	@DEBUG_VALUE: SPIM_HYPER_SET_OPMODE:spim <- $r0
	@DEBUG_VALUE: SPIM_HYPER_SET_OPMODE:x <- 2
	@DEBUG_VALUE: SPIM_HYPER_WAIT_DMMDONE:spim <- $r0
	@DEBUG_VALUE: SPIM_HYPER_DMARead:u32NRx <- $r3
	@DEBUG_VALUE: SPIM_HYPER_DMARead:pu8RdBuf <- $r2
	@DEBUG_VALUE: SPIM_HYPER_DMARead:u32Addr <- $r1
	@DEBUG_VALUE: SPIM_HYPER_DMARead:spim <- $r0
	.loc	5 646 12 is_stmt 1              @ ../../../../Library/StdDriver/inc\spim_hyper.h:646:12
	ldr	r4, [r0, #68]
	.loc	5 646 5 is_stmt 0               @ ../../../../Library/StdDriver/inc\spim_hyper.h:646:5
	lsls	r4, r4, #4
	bpl	.LBB13_9
.Ltmp393:
@ %bb.4:                                @   in Loop: Header=BB13_1 Depth=1
	@DEBUG_VALUE: SPIM_HYPER_SET_OPMODE:spim <- $r0
	@DEBUG_VALUE: SPIM_HYPER_SET_OPMODE:x <- 2
	@DEBUG_VALUE: SPIM_HYPER_WAIT_DMMDONE:spim <- $r0
	@DEBUG_VALUE: SPIM_HYPER_DMARead:u32NRx <- $r3
	@DEBUG_VALUE: SPIM_HYPER_DMARead:pu8RdBuf <- $r2
	@DEBUG_VALUE: SPIM_HYPER_DMARead:u32Addr <- $r1
	@DEBUG_VALUE: SPIM_HYPER_DMARead:spim <- $r0
	.loc	5 648 13 is_stmt 1              @ ../../../../Library/StdDriver/inc\spim_hyper.h:648:13
	ldr	r4, [sp]
	subs	r5, r4, #1
.Ltmp394:
	.loc	5 648 13 is_stmt 0              @ ../../../../Library/StdDriver/inc\spim_hyper.h:648:13
	cmp	r4, #2
.Ltmp395:
	@DEBUG_VALUE: SPIM_HYPER_WAIT_DMMDONE:i32TimeOutCount <- [DW_OP_constu 1, DW_OP_minus, DW_OP_stack_value] undef
	.loc	5 648 13                        @ ../../../../Library/StdDriver/inc\spim_hyper.h:648:13
	str	r5, [sp]
.Ltmp396:
	.loc	5 648 13                        @ ../../../../Library/StdDriver/inc\spim_hyper.h:648:13
	blt	.LBB13_9
.Ltmp397:
@ %bb.5:                                @   in Loop: Header=BB13_1 Depth=1
	@DEBUG_VALUE: SPIM_HYPER_SET_OPMODE:spim <- $r0
	@DEBUG_VALUE: SPIM_HYPER_SET_OPMODE:x <- 2
	@DEBUG_VALUE: SPIM_HYPER_WAIT_DMMDONE:spim <- $r0
	@DEBUG_VALUE: SPIM_HYPER_DMARead:u32NRx <- $r3
	@DEBUG_VALUE: SPIM_HYPER_DMARead:pu8RdBuf <- $r2
	@DEBUG_VALUE: SPIM_HYPER_DMARead:u32Addr <- $r1
	@DEBUG_VALUE: SPIM_HYPER_DMARead:spim <- $r0
	.loc	5 646 12 is_stmt 1              @ ../../../../Library/StdDriver/inc\spim_hyper.h:646:12
	ldr	r4, [r0, #68]
	.loc	5 646 5 is_stmt 0               @ ../../../../Library/StdDriver/inc\spim_hyper.h:646:5
	lsls	r4, r4, #4
	bpl	.LBB13_9
.Ltmp398:
@ %bb.6:                                @   in Loop: Header=BB13_1 Depth=1
	@DEBUG_VALUE: SPIM_HYPER_SET_OPMODE:spim <- $r0
	@DEBUG_VALUE: SPIM_HYPER_SET_OPMODE:x <- 2
	@DEBUG_VALUE: SPIM_HYPER_WAIT_DMMDONE:spim <- $r0
	@DEBUG_VALUE: SPIM_HYPER_DMARead:u32NRx <- $r3
	@DEBUG_VALUE: SPIM_HYPER_DMARead:pu8RdBuf <- $r2
	@DEBUG_VALUE: SPIM_HYPER_DMARead:u32Addr <- $r1
	@DEBUG_VALUE: SPIM_HYPER_DMARead:spim <- $r0
	.loc	5 648 13 is_stmt 1              @ ../../../../Library/StdDriver/inc\spim_hyper.h:648:13
	ldr	r4, [sp]
	subs	r5, r4, #1
.Ltmp399:
	.loc	5 648 13 is_stmt 0              @ ../../../../Library/StdDriver/inc\spim_hyper.h:648:13
	cmp	r4, #2
.Ltmp400:
	@DEBUG_VALUE: SPIM_HYPER_WAIT_DMMDONE:i32TimeOutCount <- [DW_OP_constu 1, DW_OP_minus, DW_OP_stack_value] undef
	.loc	5 648 13                        @ ../../../../Library/StdDriver/inc\spim_hyper.h:648:13
	str	r5, [sp]
.Ltmp401:
	.loc	5 648 13                        @ ../../../../Library/StdDriver/inc\spim_hyper.h:648:13
	blt	.LBB13_9
.Ltmp402:
@ %bb.7:                                @   in Loop: Header=BB13_1 Depth=1
	@DEBUG_VALUE: SPIM_HYPER_SET_OPMODE:spim <- $r0
	@DEBUG_VALUE: SPIM_HYPER_SET_OPMODE:x <- 2
	@DEBUG_VALUE: SPIM_HYPER_WAIT_DMMDONE:spim <- $r0
	@DEBUG_VALUE: SPIM_HYPER_DMARead:u32NRx <- $r3
	@DEBUG_VALUE: SPIM_HYPER_DMARead:pu8RdBuf <- $r2
	@DEBUG_VALUE: SPIM_HYPER_DMARead:u32Addr <- $r1
	@DEBUG_VALUE: SPIM_HYPER_DMARead:spim <- $r0
	.loc	5 646 12 is_stmt 1              @ ../../../../Library/StdDriver/inc\spim_hyper.h:646:12
	ldr	r4, [r0, #68]
	.loc	5 646 5 is_stmt 0               @ ../../../../Library/StdDriver/inc\spim_hyper.h:646:5
	lsls	r4, r4, #4
	bpl	.LBB13_9
.Ltmp403:
@ %bb.8:                                @   in Loop: Header=BB13_1 Depth=1
	@DEBUG_VALUE: SPIM_HYPER_SET_OPMODE:spim <- $r0
	@DEBUG_VALUE: SPIM_HYPER_SET_OPMODE:x <- 2
	@DEBUG_VALUE: SPIM_HYPER_WAIT_DMMDONE:spim <- $r0
	@DEBUG_VALUE: SPIM_HYPER_DMARead:u32NRx <- $r3
	@DEBUG_VALUE: SPIM_HYPER_DMARead:pu8RdBuf <- $r2
	@DEBUG_VALUE: SPIM_HYPER_DMARead:u32Addr <- $r1
	@DEBUG_VALUE: SPIM_HYPER_DMARead:spim <- $r0
	.loc	5 648 13 is_stmt 1              @ ../../../../Library/StdDriver/inc\spim_hyper.h:648:13
	ldr	r4, [sp]
	subs	r4, #1
	str	r4, [sp]
.Ltmp404:
	@DEBUG_VALUE: SPIM_HYPER_WAIT_DMMDONE:i32TimeOutCount <- [DW_OP_deref] $sp
	.loc	5 648 13 is_stmt 0              @ ../../../../Library/StdDriver/inc\spim_hyper.h:648:13
	bgt	.LBB13_1
.Ltmp405:
.LBB13_9:
	@DEBUG_VALUE: SPIM_HYPER_SET_OPMODE:spim <- $r0
	@DEBUG_VALUE: SPIM_HYPER_SET_OPMODE:x <- 2
	@DEBUG_VALUE: SPIM_HYPER_WAIT_DMMDONE:spim <- $r0
	@DEBUG_VALUE: SPIM_HYPER_DMARead:u32NRx <- $r3
	@DEBUG_VALUE: SPIM_HYPER_DMARead:pu8RdBuf <- $r2
	@DEBUG_VALUE: SPIM_HYPER_DMARead:u32Addr <- $r1
	@DEBUG_VALUE: SPIM_HYPER_DMARead:spim <- $r0
	.loc	5 654 21 is_stmt 1              @ ../../../../Library/StdDriver/inc\spim_hyper.h:654:21
	str.w	lr, [sp]
.Ltmp406:
	@DEBUG_VALUE: SPIM_HYPER_WAIT_DMMDONE:i32TimeOutCount <- [DW_OP_deref] $sp
.LBB13_10:                              @ =>This Inner Loop Header: Depth=1
	@DEBUG_VALUE: SPIM_HYPER_SET_OPMODE:spim <- $r0
	@DEBUG_VALUE: SPIM_HYPER_SET_OPMODE:x <- 2
	@DEBUG_VALUE: SPIM_HYPER_WAIT_DMMDONE:i32TimeOutCount <- [DW_OP_deref] $sp
	@DEBUG_VALUE: SPIM_HYPER_WAIT_DMMDONE:spim <- $r0
	@DEBUG_VALUE: SPIM_HYPER_DMARead:u32NRx <- $r3
	@DEBUG_VALUE: SPIM_HYPER_DMARead:pu8RdBuf <- $r2
	@DEBUG_VALUE: SPIM_HYPER_DMARead:u32Addr <- $r1
	@DEBUG_VALUE: SPIM_HYPER_DMARead:spim <- $r0
	.loc	5 657 12                        @ ../../../../Library/StdDriver/inc\spim_hyper.h:657:12
	ldr	r5, [r0, #68]
	.loc	5 657 5 is_stmt 0               @ ../../../../Library/StdDriver/inc\spim_hyper.h:657:5
	cmp	r5, #0
	bmi	.LBB13_18
.Ltmp407:
@ %bb.11:                               @   in Loop: Header=BB13_10 Depth=1
	@DEBUG_VALUE: SPIM_HYPER_SET_OPMODE:spim <- $r0
	@DEBUG_VALUE: SPIM_HYPER_SET_OPMODE:x <- 2
	@DEBUG_VALUE: SPIM_HYPER_WAIT_DMMDONE:i32TimeOutCount <- [DW_OP_deref] $sp
	@DEBUG_VALUE: SPIM_HYPER_WAIT_DMMDONE:spim <- $r0
	@DEBUG_VALUE: SPIM_HYPER_DMARead:u32NRx <- $r3
	@DEBUG_VALUE: SPIM_HYPER_DMARead:pu8RdBuf <- $r2
	@DEBUG_VALUE: SPIM_HYPER_DMARead:u32Addr <- $r1
	@DEBUG_VALUE: SPIM_HYPER_DMARead:spim <- $r0
	.loc	5 659 13 is_stmt 1              @ ../../../../Library/StdDriver/inc\spim_hyper.h:659:13
	ldr	r5, [sp]
	subs	r4, r5, #1
.Ltmp408:
	.loc	5 659 13 is_stmt 0              @ ../../../../Library/StdDriver/inc\spim_hyper.h:659:13
	cmp	r5, #2
.Ltmp409:
	@DEBUG_VALUE: SPIM_HYPER_WAIT_DMMDONE:i32TimeOutCount <- [DW_OP_constu 1, DW_OP_minus, DW_OP_stack_value] undef
	.loc	5 659 13                        @ ../../../../Library/StdDriver/inc\spim_hyper.h:659:13
	str	r4, [sp]
.Ltmp410:
	.loc	5 659 13                        @ ../../../../Library/StdDriver/inc\spim_hyper.h:659:13
	blt	.LBB13_18
.Ltmp411:
@ %bb.12:                               @   in Loop: Header=BB13_10 Depth=1
	@DEBUG_VALUE: SPIM_HYPER_SET_OPMODE:spim <- $r0
	@DEBUG_VALUE: SPIM_HYPER_SET_OPMODE:x <- 2
	@DEBUG_VALUE: SPIM_HYPER_WAIT_DMMDONE:spim <- $r0
	@DEBUG_VALUE: SPIM_HYPER_DMARead:u32NRx <- $r3
	@DEBUG_VALUE: SPIM_HYPER_DMARead:pu8RdBuf <- $r2
	@DEBUG_VALUE: SPIM_HYPER_DMARead:u32Addr <- $r1
	@DEBUG_VALUE: SPIM_HYPER_DMARead:spim <- $r0
	.loc	5 657 12 is_stmt 1              @ ../../../../Library/StdDriver/inc\spim_hyper.h:657:12
	ldr	r5, [r0, #68]
	.loc	5 657 5 is_stmt 0               @ ../../../../Library/StdDriver/inc\spim_hyper.h:657:5
	cmp	r5, #0
	bmi	.LBB13_18
.Ltmp412:
@ %bb.13:                               @   in Loop: Header=BB13_10 Depth=1
	@DEBUG_VALUE: SPIM_HYPER_SET_OPMODE:spim <- $r0
	@DEBUG_VALUE: SPIM_HYPER_SET_OPMODE:x <- 2
	@DEBUG_VALUE: SPIM_HYPER_WAIT_DMMDONE:spim <- $r0
	@DEBUG_VALUE: SPIM_HYPER_DMARead:u32NRx <- $r3
	@DEBUG_VALUE: SPIM_HYPER_DMARead:pu8RdBuf <- $r2
	@DEBUG_VALUE: SPIM_HYPER_DMARead:u32Addr <- $r1
	@DEBUG_VALUE: SPIM_HYPER_DMARead:spim <- $r0
	.loc	5 659 13 is_stmt 1              @ ../../../../Library/StdDriver/inc\spim_hyper.h:659:13
	ldr	r5, [sp]
	subs	r4, r5, #1
.Ltmp413:
	.loc	5 659 13 is_stmt 0              @ ../../../../Library/StdDriver/inc\spim_hyper.h:659:13
	cmp	r5, #2
.Ltmp414:
	@DEBUG_VALUE: SPIM_HYPER_WAIT_DMMDONE:i32TimeOutCount <- [DW_OP_constu 1, DW_OP_minus, DW_OP_stack_value] undef
	.loc	5 659 13                        @ ../../../../Library/StdDriver/inc\spim_hyper.h:659:13
	str	r4, [sp]
.Ltmp415:
	.loc	5 659 13                        @ ../../../../Library/StdDriver/inc\spim_hyper.h:659:13
	blt	.LBB13_18
.Ltmp416:
@ %bb.14:                               @   in Loop: Header=BB13_10 Depth=1
	@DEBUG_VALUE: SPIM_HYPER_SET_OPMODE:spim <- $r0
	@DEBUG_VALUE: SPIM_HYPER_SET_OPMODE:x <- 2
	@DEBUG_VALUE: SPIM_HYPER_WAIT_DMMDONE:spim <- $r0
	@DEBUG_VALUE: SPIM_HYPER_DMARead:u32NRx <- $r3
	@DEBUG_VALUE: SPIM_HYPER_DMARead:pu8RdBuf <- $r2
	@DEBUG_VALUE: SPIM_HYPER_DMARead:u32Addr <- $r1
	@DEBUG_VALUE: SPIM_HYPER_DMARead:spim <- $r0
	.loc	5 657 12 is_stmt 1              @ ../../../../Library/StdDriver/inc\spim_hyper.h:657:12
	ldr	r5, [r0, #68]
	.loc	5 657 5 is_stmt 0               @ ../../../../Library/StdDriver/inc\spim_hyper.h:657:5
	cmp	r5, #0
	bmi	.LBB13_18
.Ltmp417:
@ %bb.15:                               @   in Loop: Header=BB13_10 Depth=1
	@DEBUG_VALUE: SPIM_HYPER_SET_OPMODE:spim <- $r0
	@DEBUG_VALUE: SPIM_HYPER_SET_OPMODE:x <- 2
	@DEBUG_VALUE: SPIM_HYPER_WAIT_DMMDONE:spim <- $r0
	@DEBUG_VALUE: SPIM_HYPER_DMARead:u32NRx <- $r3
	@DEBUG_VALUE: SPIM_HYPER_DMARead:pu8RdBuf <- $r2
	@DEBUG_VALUE: SPIM_HYPER_DMARead:u32Addr <- $r1
	@DEBUG_VALUE: SPIM_HYPER_DMARead:spim <- $r0
	.loc	5 659 13 is_stmt 1              @ ../../../../Library/StdDriver/inc\spim_hyper.h:659:13
	ldr	r5, [sp]
	subs	r4, r5, #1
.Ltmp418:
	.loc	5 659 13 is_stmt 0              @ ../../../../Library/StdDriver/inc\spim_hyper.h:659:13
	cmp	r5, #2
.Ltmp419:
	@DEBUG_VALUE: SPIM_HYPER_WAIT_DMMDONE:i32TimeOutCount <- [DW_OP_constu 1, DW_OP_minus, DW_OP_stack_value] undef
	.loc	5 659 13                        @ ../../../../Library/StdDriver/inc\spim_hyper.h:659:13
	str	r4, [sp]
.Ltmp420:
	.loc	5 659 13                        @ ../../../../Library/StdDriver/inc\spim_hyper.h:659:13
	blt	.LBB13_18
.Ltmp421:
@ %bb.16:                               @   in Loop: Header=BB13_10 Depth=1
	@DEBUG_VALUE: SPIM_HYPER_SET_OPMODE:spim <- $r0
	@DEBUG_VALUE: SPIM_HYPER_SET_OPMODE:x <- 2
	@DEBUG_VALUE: SPIM_HYPER_WAIT_DMMDONE:spim <- $r0
	@DEBUG_VALUE: SPIM_HYPER_DMARead:u32NRx <- $r3
	@DEBUG_VALUE: SPIM_HYPER_DMARead:pu8RdBuf <- $r2
	@DEBUG_VALUE: SPIM_HYPER_DMARead:u32Addr <- $r1
	@DEBUG_VALUE: SPIM_HYPER_DMARead:spim <- $r0
	.loc	5 657 12 is_stmt 1              @ ../../../../Library/StdDriver/inc\spim_hyper.h:657:12
	ldr	r5, [r0, #68]
	.loc	5 657 5 is_stmt 0               @ ../../../../Library/StdDriver/inc\spim_hyper.h:657:5
	cmp	r5, #0
	bmi	.LBB13_18
.Ltmp422:
@ %bb.17:                               @   in Loop: Header=BB13_10 Depth=1
	@DEBUG_VALUE: SPIM_HYPER_SET_OPMODE:spim <- $r0
	@DEBUG_VALUE: SPIM_HYPER_SET_OPMODE:x <- 2
	@DEBUG_VALUE: SPIM_HYPER_WAIT_DMMDONE:spim <- $r0
	@DEBUG_VALUE: SPIM_HYPER_DMARead:u32NRx <- $r3
	@DEBUG_VALUE: SPIM_HYPER_DMARead:pu8RdBuf <- $r2
	@DEBUG_VALUE: SPIM_HYPER_DMARead:u32Addr <- $r1
	@DEBUG_VALUE: SPIM_HYPER_DMARead:spim <- $r0
	.loc	5 659 13 is_stmt 1              @ ../../../../Library/StdDriver/inc\spim_hyper.h:659:13
	ldr	r5, [sp]
	subs	r5, #1
	str	r5, [sp]
.Ltmp423:
	@DEBUG_VALUE: SPIM_HYPER_WAIT_DMMDONE:i32TimeOutCount <- [DW_OP_deref] $sp
	.loc	5 659 13 is_stmt 0              @ ../../../../Library/StdDriver/inc\spim_hyper.h:659:13
	bgt	.LBB13_10
.Ltmp424:
.LBB13_18:
	@DEBUG_VALUE: SPIM_HYPER_SET_OPMODE:spim <- $r0
	@DEBUG_VALUE: SPIM_HYPER_SET_OPMODE:x <- 2
	@DEBUG_VALUE: SPIM_HYPER_DMARead:u32NRx <- $r3
	@DEBUG_VALUE: SPIM_HYPER_DMARead:pu8RdBuf <- $r2
	@DEBUG_VALUE: SPIM_HYPER_DMARead:u32Addr <- $r1
	@DEBUG_VALUE: SPIM_HYPER_DMARead:spim <- $r0
	.loc	5 716 27 is_stmt 1              @ ../../../../Library/StdDriver/inc\spim_hyper.h:716:27
	ldr	r5, [r0]
	movs	r4, #2
	.loc	5 716 59 is_stmt 0              @ ../../../../Library/StdDriver/inc\spim_hyper.h:716:59
	bfi	r5, r4, #22, #2
	.loc	5 716 17                        @ ../../../../Library/StdDriver/inc\spim_hyper.h:716:17
	str	r5, [r0]
.Ltmp425:
	.loc	4 501 20 is_stmt 1              @ ../../../../Library/StdDriver/src/spim_hyper.c:501:20
	str	r2, [r0, #48]
	.loc	4 502 20                        @ ../../../../Library/StdDriver/src/spim_hyper.c:502:20
	str	r3, [r0, #52]
	.loc	4 503 20                        @ ../../../../Library/StdDriver/src/spim_hyper.c:503:20
	str	r1, [r0, #56]
.Ltmp426:
	@DEBUG_VALUE: SPIM_HYPER_WaitSPIMENDone:u32IsSync <- 1
	@DEBUG_VALUE: SPIM_HYPER_WaitSPIMENDone:spim <- $r0
	@DEBUG_VALUE: SPIM_HYPER_WaitSPIMENDone:i32TimeOutCount <- [DW_OP_plus_uconst 4, DW_OP_deref] $sp
	.loc	4 223 49                        @ ../../../../Library/StdDriver/src/spim_hyper.c:223:49
	ldr.w	r1, [r12]
.Ltmp427:
	@DEBUG_VALUE: SPIM_HYPER_DMARead:u32Addr <- [DW_OP_LLVM_entry_value 1] $r1
	.loc	4 223 22 is_stmt 0              @ ../../../../Library/StdDriver/src/spim_hyper.c:223:22
	str	r1, [sp, #4]
	.loc	4 226 5 is_stmt 1               @ ../../../../Library/StdDriver/src/spim_hyper.c:226:5
	ldr	r1, [r0, #4]!
.Ltmp428:
	@DEBUG_VALUE: SPIM_HYPER_DMARead:spim <- [DW_OP_LLVM_entry_value 1] $r0
	orr	r1, r1, #1
	str	r1, [r0]
	add.w	r1, r0, #148
.Ltmp429:
	.loc	4 0 5 is_stmt 0                 @ :0:5
.Ltmp430:
	.p2align	2
.LBB13_19:                              @ =>This Inner Loop Header: Depth=1
	@DEBUG_VALUE: SPIM_HYPER_DMARead:spim <- [DW_OP_LLVM_entry_value 1] $r0
	@DEBUG_VALUE: SPIM_HYPER_DMARead:u32Addr <- [DW_OP_LLVM_entry_value 1] $r1
	@DEBUG_VALUE: SPIM_HYPER_WaitSPIMENDone:i32TimeOutCount <- [DW_OP_plus_uconst 4, DW_OP_deref] $sp
	@DEBUG_VALUE: SPIM_HYPER_WaitSPIMENDone:u32IsSync <- 1
	@DEBUG_VALUE: SPIM_HYPER_DMARead:u32NRx <- $r3
	.loc	4 230 17 is_stmt 1              @ ../../../../Library/StdDriver/src/spim_hyper.c:230:17
	ldr	r2, [r1]
.Ltmp431:
	@DEBUG_VALUE: SPIM_HYPER_DMARead:pu8RdBuf <- [DW_OP_LLVM_entry_value 1] $r2
	lsls	r2, r2, #31
	csel	r2, r0, r1, eq
	.loc	4 230 0 is_stmt 0               @ ../../../../Library/StdDriver/src/spim_hyper.c:230:0
	ldr	r2, [r2]
	.loc	4 230 9                         @ ../../../../Library/StdDriver/src/spim_hyper.c:230:9
	lsls	r2, r2, #31
	beq	.LBB13_22
.Ltmp432:
@ %bb.20:                               @   in Loop: Header=BB13_19 Depth=1
	@DEBUG_VALUE: SPIM_HYPER_DMARead:spim <- [DW_OP_LLVM_entry_value 1] $r0
	@DEBUG_VALUE: SPIM_HYPER_DMARead:u32Addr <- [DW_OP_LLVM_entry_value 1] $r1
	@DEBUG_VALUE: SPIM_HYPER_WaitSPIMENDone:i32TimeOutCount <- [DW_OP_plus_uconst 4, DW_OP_deref] $sp
	@DEBUG_VALUE: SPIM_HYPER_WaitSPIMENDone:u32IsSync <- 1
	@DEBUG_VALUE: SPIM_HYPER_DMARead:u32NRx <- $r3
	.loc	4 232 17 is_stmt 1              @ ../../../../Library/StdDriver/src/spim_hyper.c:232:17
	ldr	r2, [sp, #4]
	subs	r2, #1
	str	r2, [sp, #4]
.Ltmp433:
	@DEBUG_VALUE: SPIM_HYPER_WaitSPIMENDone:i32TimeOutCount <- [DW_OP_plus_uconst 4, DW_OP_deref] $sp
	.loc	4 232 17 is_stmt 0              @ ../../../../Library/StdDriver/src/spim_hyper.c:232:17
	bgt	.LBB13_19
.Ltmp434:
@ %bb.21:
	@DEBUG_VALUE: SPIM_HYPER_DMARead:spim <- [DW_OP_LLVM_entry_value 1] $r0
	@DEBUG_VALUE: SPIM_HYPER_DMARead:u32Addr <- [DW_OP_LLVM_entry_value 1] $r1
	@DEBUG_VALUE: SPIM_HYPER_DMARead:u32NRx <- $r3
	.loc	4 0 17                          @ ../../../../Library/StdDriver/src/spim_hyper.c:0:17
	mvn	r0, #1
	.loc	4 505 5 epilogue_begin is_stmt 1 @ ../../../../Library/StdDriver/src/spim_hyper.c:505:5
	add	sp, #8
	pop	{r4, r5, r7, pc}
.Ltmp435:
.LBB13_22:
	@DEBUG_VALUE: SPIM_HYPER_DMARead:spim <- [DW_OP_LLVM_entry_value 1] $r0
	@DEBUG_VALUE: SPIM_HYPER_DMARead:u32Addr <- [DW_OP_LLVM_entry_value 1] $r1
	@DEBUG_VALUE: SPIM_HYPER_DMARead:u32NRx <- $r3
	.loc	4 0 5 is_stmt 0                 @ ../../../../Library/StdDriver/src/spim_hyper.c:0:5
	movs	r0, #0
	.loc	4 505 5 epilogue_begin          @ ../../../../Library/StdDriver/src/spim_hyper.c:505:5
	add	sp, #8
	pop	{r4, r5, r7, pc}
.Ltmp436:
.Lfunc_end13:
	.size	SPIM_HYPER_DMARead, .Lfunc_end13-SPIM_HYPER_DMARead
	.cfi_endproc
	.cantunwind
	.fnend
                                        @ -- End function
	.section	.text.SPIM_HYPER_EnterDirectMapMode,"ax",%progbits
	.hidden	SPIM_HYPER_EnterDirectMapMode   @ -- Begin function SPIM_HYPER_EnterDirectMapMode
	.globl	SPIM_HYPER_EnterDirectMapMode
	.p2align	2
	.type	SPIM_HYPER_EnterDirectMapMode,%function
	.code	16                              @ @SPIM_HYPER_EnterDirectMapMode
	.thumb_func
SPIM_HYPER_EnterDirectMapMode:
.Lfunc_begin14:
	.loc	4 515 0 is_stmt 1               @ ../../../../Library/StdDriver/src/spim_hyper.c:515:0
	.fnstart
	.cfi_startproc
@ %bb.0:
	@DEBUG_VALUE: SPIM_HYPER_EnterDirectMapMode:spim <- $r0
	.pad	#4
	sub	sp, #4
	.cfi_def_cfa_offset 4
.Ltmp437:
	.loc	5 642 49 prologue_end           @ ../../../../Library/StdDriver/inc\spim_hyper.h:642:49
	movw	r1, :lower16:SystemCoreClock
	movt	r1, :upper16:SystemCoreClock
	ldr	r1, [r1]
.Ltmp438:
	@DEBUG_VALUE: SPIM_HYPER_WAIT_DMMDONE:spim <- $r0
	@DEBUG_VALUE: SPIM_HYPER_WAIT_DMMDONE:i32TimeOutCount <- [DW_OP_deref] $sp
	@DEBUG_VALUE: SPIM_HYPER_SET_OPMODE:x <- 3
	@DEBUG_VALUE: SPIM_HYPER_SET_OPMODE:spim <- $r0
	.loc	5 642 22 is_stmt 0              @ ../../../../Library/StdDriver/inc\spim_hyper.h:642:22
	str	r1, [sp]
	.loc	5 644 5 is_stmt 1               @ ../../../../Library/StdDriver/inc\spim_hyper.h:644:5
	ldr	r2, [r0, #68]
	orr	r2, r2, #134217728
	str	r2, [r0, #68]
.Ltmp439:
.LBB14_1:                               @ =>This Inner Loop Header: Depth=1
	@DEBUG_VALUE: SPIM_HYPER_SET_OPMODE:spim <- $r0
	@DEBUG_VALUE: SPIM_HYPER_SET_OPMODE:x <- 3
	@DEBUG_VALUE: SPIM_HYPER_WAIT_DMMDONE:i32TimeOutCount <- [DW_OP_deref] $sp
	@DEBUG_VALUE: SPIM_HYPER_WAIT_DMMDONE:spim <- $r0
	@DEBUG_VALUE: SPIM_HYPER_EnterDirectMapMode:spim <- $r0
	.loc	5 646 12                        @ ../../../../Library/StdDriver/inc\spim_hyper.h:646:12
	ldr	r2, [r0, #68]
	.loc	5 646 5 is_stmt 0               @ ../../../../Library/StdDriver/inc\spim_hyper.h:646:5
	lsls	r2, r2, #4
	bpl	.LBB14_9
.Ltmp440:
@ %bb.2:                                @   in Loop: Header=BB14_1 Depth=1
	@DEBUG_VALUE: SPIM_HYPER_SET_OPMODE:spim <- $r0
	@DEBUG_VALUE: SPIM_HYPER_SET_OPMODE:x <- 3
	@DEBUG_VALUE: SPIM_HYPER_WAIT_DMMDONE:i32TimeOutCount <- [DW_OP_deref] $sp
	@DEBUG_VALUE: SPIM_HYPER_WAIT_DMMDONE:spim <- $r0
	@DEBUG_VALUE: SPIM_HYPER_EnterDirectMapMode:spim <- $r0
	.loc	5 648 13 is_stmt 1              @ ../../../../Library/StdDriver/inc\spim_hyper.h:648:13
	ldr	r2, [sp]
	subs	r3, r2, #1
.Ltmp441:
	.loc	5 648 13 is_stmt 0              @ ../../../../Library/StdDriver/inc\spim_hyper.h:648:13
	cmp	r2, #2
.Ltmp442:
	@DEBUG_VALUE: SPIM_HYPER_WAIT_DMMDONE:i32TimeOutCount <- [DW_OP_constu 1, DW_OP_minus, DW_OP_stack_value] undef
	.loc	5 648 13                        @ ../../../../Library/StdDriver/inc\spim_hyper.h:648:13
	str	r3, [sp]
.Ltmp443:
	.loc	5 648 13                        @ ../../../../Library/StdDriver/inc\spim_hyper.h:648:13
	blt	.LBB14_9
.Ltmp444:
@ %bb.3:                                @   in Loop: Header=BB14_1 Depth=1
	@DEBUG_VALUE: SPIM_HYPER_SET_OPMODE:spim <- $r0
	@DEBUG_VALUE: SPIM_HYPER_SET_OPMODE:x <- 3
	@DEBUG_VALUE: SPIM_HYPER_WAIT_DMMDONE:spim <- $r0
	@DEBUG_VALUE: SPIM_HYPER_EnterDirectMapMode:spim <- $r0
	.loc	5 646 12 is_stmt 1              @ ../../../../Library/StdDriver/inc\spim_hyper.h:646:12
	ldr	r2, [r0, #68]
	.loc	5 646 5 is_stmt 0               @ ../../../../Library/StdDriver/inc\spim_hyper.h:646:5
	lsls	r2, r2, #4
	bpl	.LBB14_9
.Ltmp445:
@ %bb.4:                                @   in Loop: Header=BB14_1 Depth=1
	@DEBUG_VALUE: SPIM_HYPER_SET_OPMODE:spim <- $r0
	@DEBUG_VALUE: SPIM_HYPER_SET_OPMODE:x <- 3
	@DEBUG_VALUE: SPIM_HYPER_WAIT_DMMDONE:spim <- $r0
	@DEBUG_VALUE: SPIM_HYPER_EnterDirectMapMode:spim <- $r0
	.loc	5 648 13 is_stmt 1              @ ../../../../Library/StdDriver/inc\spim_hyper.h:648:13
	ldr	r2, [sp]
	subs	r3, r2, #1
.Ltmp446:
	.loc	5 648 13 is_stmt 0              @ ../../../../Library/StdDriver/inc\spim_hyper.h:648:13
	cmp	r2, #2
.Ltmp447:
	@DEBUG_VALUE: SPIM_HYPER_WAIT_DMMDONE:i32TimeOutCount <- [DW_OP_constu 1, DW_OP_minus, DW_OP_stack_value] undef
	.loc	5 648 13                        @ ../../../../Library/StdDriver/inc\spim_hyper.h:648:13
	str	r3, [sp]
.Ltmp448:
	.loc	5 648 13                        @ ../../../../Library/StdDriver/inc\spim_hyper.h:648:13
	blt	.LBB14_9
.Ltmp449:
@ %bb.5:                                @   in Loop: Header=BB14_1 Depth=1
	@DEBUG_VALUE: SPIM_HYPER_SET_OPMODE:spim <- $r0
	@DEBUG_VALUE: SPIM_HYPER_SET_OPMODE:x <- 3
	@DEBUG_VALUE: SPIM_HYPER_WAIT_DMMDONE:spim <- $r0
	@DEBUG_VALUE: SPIM_HYPER_EnterDirectMapMode:spim <- $r0
	.loc	5 646 12 is_stmt 1              @ ../../../../Library/StdDriver/inc\spim_hyper.h:646:12
	ldr	r2, [r0, #68]
	.loc	5 646 5 is_stmt 0               @ ../../../../Library/StdDriver/inc\spim_hyper.h:646:5
	lsls	r2, r2, #4
	bpl	.LBB14_9
.Ltmp450:
@ %bb.6:                                @   in Loop: Header=BB14_1 Depth=1
	@DEBUG_VALUE: SPIM_HYPER_SET_OPMODE:spim <- $r0
	@DEBUG_VALUE: SPIM_HYPER_SET_OPMODE:x <- 3
	@DEBUG_VALUE: SPIM_HYPER_WAIT_DMMDONE:spim <- $r0
	@DEBUG_VALUE: SPIM_HYPER_EnterDirectMapMode:spim <- $r0
	.loc	5 648 13 is_stmt 1              @ ../../../../Library/StdDriver/inc\spim_hyper.h:648:13
	ldr	r2, [sp]
	subs	r3, r2, #1
.Ltmp451:
	.loc	5 648 13 is_stmt 0              @ ../../../../Library/StdDriver/inc\spim_hyper.h:648:13
	cmp	r2, #2
.Ltmp452:
	@DEBUG_VALUE: SPIM_HYPER_WAIT_DMMDONE:i32TimeOutCount <- [DW_OP_constu 1, DW_OP_minus, DW_OP_stack_value] undef
	.loc	5 648 13                        @ ../../../../Library/StdDriver/inc\spim_hyper.h:648:13
	str	r3, [sp]
.Ltmp453:
	.loc	5 648 13                        @ ../../../../Library/StdDriver/inc\spim_hyper.h:648:13
	blt	.LBB14_9
.Ltmp454:
@ %bb.7:                                @   in Loop: Header=BB14_1 Depth=1
	@DEBUG_VALUE: SPIM_HYPER_SET_OPMODE:spim <- $r0
	@DEBUG_VALUE: SPIM_HYPER_SET_OPMODE:x <- 3
	@DEBUG_VALUE: SPIM_HYPER_WAIT_DMMDONE:spim <- $r0
	@DEBUG_VALUE: SPIM_HYPER_EnterDirectMapMode:spim <- $r0
	.loc	5 646 12 is_stmt 1              @ ../../../../Library/StdDriver/inc\spim_hyper.h:646:12
	ldr	r2, [r0, #68]
	.loc	5 646 5 is_stmt 0               @ ../../../../Library/StdDriver/inc\spim_hyper.h:646:5
	lsls	r2, r2, #4
	bpl	.LBB14_9
.Ltmp455:
@ %bb.8:                                @   in Loop: Header=BB14_1 Depth=1
	@DEBUG_VALUE: SPIM_HYPER_SET_OPMODE:spim <- $r0
	@DEBUG_VALUE: SPIM_HYPER_SET_OPMODE:x <- 3
	@DEBUG_VALUE: SPIM_HYPER_WAIT_DMMDONE:spim <- $r0
	@DEBUG_VALUE: SPIM_HYPER_EnterDirectMapMode:spim <- $r0
	.loc	5 648 13 is_stmt 1              @ ../../../../Library/StdDriver/inc\spim_hyper.h:648:13
	ldr	r2, [sp]
	subs	r2, #1
	str	r2, [sp]
.Ltmp456:
	@DEBUG_VALUE: SPIM_HYPER_WAIT_DMMDONE:i32TimeOutCount <- [DW_OP_deref] $sp
	.loc	5 648 13 is_stmt 0              @ ../../../../Library/StdDriver/inc\spim_hyper.h:648:13
	bgt	.LBB14_1
.Ltmp457:
.LBB14_9:
	@DEBUG_VALUE: SPIM_HYPER_SET_OPMODE:spim <- $r0
	@DEBUG_VALUE: SPIM_HYPER_SET_OPMODE:x <- 3
	@DEBUG_VALUE: SPIM_HYPER_WAIT_DMMDONE:spim <- $r0
	@DEBUG_VALUE: SPIM_HYPER_EnterDirectMapMode:spim <- $r0
	.loc	5 654 21 is_stmt 1              @ ../../../../Library/StdDriver/inc\spim_hyper.h:654:21
	str	r1, [sp]
.Ltmp458:
	@DEBUG_VALUE: SPIM_HYPER_WAIT_DMMDONE:i32TimeOutCount <- [DW_OP_deref] $sp
.LBB14_10:                              @ =>This Inner Loop Header: Depth=1
	@DEBUG_VALUE: SPIM_HYPER_SET_OPMODE:spim <- $r0
	@DEBUG_VALUE: SPIM_HYPER_SET_OPMODE:x <- 3
	@DEBUG_VALUE: SPIM_HYPER_WAIT_DMMDONE:i32TimeOutCount <- [DW_OP_deref] $sp
	@DEBUG_VALUE: SPIM_HYPER_WAIT_DMMDONE:spim <- $r0
	@DEBUG_VALUE: SPIM_HYPER_EnterDirectMapMode:spim <- $r0
	.loc	5 657 12                        @ ../../../../Library/StdDriver/inc\spim_hyper.h:657:12
	ldr	r1, [r0, #68]
	.loc	5 657 5 is_stmt 0               @ ../../../../Library/StdDriver/inc\spim_hyper.h:657:5
	cmp	r1, #0
	bmi	.LBB14_18
.Ltmp459:
@ %bb.11:                               @   in Loop: Header=BB14_10 Depth=1
	@DEBUG_VALUE: SPIM_HYPER_SET_OPMODE:spim <- $r0
	@DEBUG_VALUE: SPIM_HYPER_SET_OPMODE:x <- 3
	@DEBUG_VALUE: SPIM_HYPER_WAIT_DMMDONE:i32TimeOutCount <- [DW_OP_deref] $sp
	@DEBUG_VALUE: SPIM_HYPER_WAIT_DMMDONE:spim <- $r0
	@DEBUG_VALUE: SPIM_HYPER_EnterDirectMapMode:spim <- $r0
	.loc	5 659 13 is_stmt 1              @ ../../../../Library/StdDriver/inc\spim_hyper.h:659:13
	ldr	r1, [sp]
	subs	r2, r1, #1
.Ltmp460:
	.loc	5 659 13 is_stmt 0              @ ../../../../Library/StdDriver/inc\spim_hyper.h:659:13
	cmp	r1, #2
.Ltmp461:
	@DEBUG_VALUE: SPIM_HYPER_WAIT_DMMDONE:i32TimeOutCount <- [DW_OP_constu 1, DW_OP_minus, DW_OP_stack_value] undef
	.loc	5 659 13                        @ ../../../../Library/StdDriver/inc\spim_hyper.h:659:13
	str	r2, [sp]
.Ltmp462:
	.loc	5 659 13                        @ ../../../../Library/StdDriver/inc\spim_hyper.h:659:13
	blt	.LBB14_18
.Ltmp463:
@ %bb.12:                               @   in Loop: Header=BB14_10 Depth=1
	@DEBUG_VALUE: SPIM_HYPER_SET_OPMODE:spim <- $r0
	@DEBUG_VALUE: SPIM_HYPER_SET_OPMODE:x <- 3
	@DEBUG_VALUE: SPIM_HYPER_WAIT_DMMDONE:spim <- $r0
	@DEBUG_VALUE: SPIM_HYPER_EnterDirectMapMode:spim <- $r0
	.loc	5 657 12 is_stmt 1              @ ../../../../Library/StdDriver/inc\spim_hyper.h:657:12
	ldr	r1, [r0, #68]
	.loc	5 657 5 is_stmt 0               @ ../../../../Library/StdDriver/inc\spim_hyper.h:657:5
	cmp	r1, #0
	bmi	.LBB14_18
.Ltmp464:
@ %bb.13:                               @   in Loop: Header=BB14_10 Depth=1
	@DEBUG_VALUE: SPIM_HYPER_SET_OPMODE:spim <- $r0
	@DEBUG_VALUE: SPIM_HYPER_SET_OPMODE:x <- 3
	@DEBUG_VALUE: SPIM_HYPER_WAIT_DMMDONE:spim <- $r0
	@DEBUG_VALUE: SPIM_HYPER_EnterDirectMapMode:spim <- $r0
	.loc	5 659 13 is_stmt 1              @ ../../../../Library/StdDriver/inc\spim_hyper.h:659:13
	ldr	r1, [sp]
	subs	r2, r1, #1
.Ltmp465:
	.loc	5 659 13 is_stmt 0              @ ../../../../Library/StdDriver/inc\spim_hyper.h:659:13
	cmp	r1, #2
.Ltmp466:
	@DEBUG_VALUE: SPIM_HYPER_WAIT_DMMDONE:i32TimeOutCount <- [DW_OP_constu 1, DW_OP_minus, DW_OP_stack_value] undef
	.loc	5 659 13                        @ ../../../../Library/StdDriver/inc\spim_hyper.h:659:13
	str	r2, [sp]
.Ltmp467:
	.loc	5 659 13                        @ ../../../../Library/StdDriver/inc\spim_hyper.h:659:13
	blt	.LBB14_18
.Ltmp468:
@ %bb.14:                               @   in Loop: Header=BB14_10 Depth=1
	@DEBUG_VALUE: SPIM_HYPER_SET_OPMODE:spim <- $r0
	@DEBUG_VALUE: SPIM_HYPER_SET_OPMODE:x <- 3
	@DEBUG_VALUE: SPIM_HYPER_WAIT_DMMDONE:spim <- $r0
	@DEBUG_VALUE: SPIM_HYPER_EnterDirectMapMode:spim <- $r0
	.loc	5 657 12 is_stmt 1              @ ../../../../Library/StdDriver/inc\spim_hyper.h:657:12
	ldr	r1, [r0, #68]
	.loc	5 657 5 is_stmt 0               @ ../../../../Library/StdDriver/inc\spim_hyper.h:657:5
	cmp	r1, #0
	bmi	.LBB14_18
.Ltmp469:
@ %bb.15:                               @   in Loop: Header=BB14_10 Depth=1
	@DEBUG_VALUE: SPIM_HYPER_SET_OPMODE:spim <- $r0
	@DEBUG_VALUE: SPIM_HYPER_SET_OPMODE:x <- 3
	@DEBUG_VALUE: SPIM_HYPER_WAIT_DMMDONE:spim <- $r0
	@DEBUG_VALUE: SPIM_HYPER_EnterDirectMapMode:spim <- $r0
	.loc	5 659 13 is_stmt 1              @ ../../../../Library/StdDriver/inc\spim_hyper.h:659:13
	ldr	r1, [sp]
	subs	r2, r1, #1
.Ltmp470:
	.loc	5 659 13 is_stmt 0              @ ../../../../Library/StdDriver/inc\spim_hyper.h:659:13
	cmp	r1, #2
.Ltmp471:
	@DEBUG_VALUE: SPIM_HYPER_WAIT_DMMDONE:i32TimeOutCount <- [DW_OP_constu 1, DW_OP_minus, DW_OP_stack_value] undef
	.loc	5 659 13                        @ ../../../../Library/StdDriver/inc\spim_hyper.h:659:13
	str	r2, [sp]
.Ltmp472:
	.loc	5 659 13                        @ ../../../../Library/StdDriver/inc\spim_hyper.h:659:13
	blt	.LBB14_18
.Ltmp473:
@ %bb.16:                               @   in Loop: Header=BB14_10 Depth=1
	@DEBUG_VALUE: SPIM_HYPER_SET_OPMODE:spim <- $r0
	@DEBUG_VALUE: SPIM_HYPER_SET_OPMODE:x <- 3
	@DEBUG_VALUE: SPIM_HYPER_WAIT_DMMDONE:spim <- $r0
	@DEBUG_VALUE: SPIM_HYPER_EnterDirectMapMode:spim <- $r0
	.loc	5 657 12 is_stmt 1              @ ../../../../Library/StdDriver/inc\spim_hyper.h:657:12
	ldr	r1, [r0, #68]
	.loc	5 657 5 is_stmt 0               @ ../../../../Library/StdDriver/inc\spim_hyper.h:657:5
	cmp	r1, #0
	bmi	.LBB14_18
.Ltmp474:
@ %bb.17:                               @   in Loop: Header=BB14_10 Depth=1
	@DEBUG_VALUE: SPIM_HYPER_SET_OPMODE:spim <- $r0
	@DEBUG_VALUE: SPIM_HYPER_SET_OPMODE:x <- 3
	@DEBUG_VALUE: SPIM_HYPER_WAIT_DMMDONE:spim <- $r0
	@DEBUG_VALUE: SPIM_HYPER_EnterDirectMapMode:spim <- $r0
	.loc	5 659 13 is_stmt 1              @ ../../../../Library/StdDriver/inc\spim_hyper.h:659:13
	ldr	r1, [sp]
	subs	r1, #1
	str	r1, [sp]
.Ltmp475:
	@DEBUG_VALUE: SPIM_HYPER_WAIT_DMMDONE:i32TimeOutCount <- [DW_OP_deref] $sp
	.loc	5 659 13 is_stmt 0              @ ../../../../Library/StdDriver/inc\spim_hyper.h:659:13
	bgt	.LBB14_10
.Ltmp476:
.LBB14_18:
	@DEBUG_VALUE: SPIM_HYPER_SET_OPMODE:spim <- $r0
	@DEBUG_VALUE: SPIM_HYPER_SET_OPMODE:x <- 3
	@DEBUG_VALUE: SPIM_HYPER_EnterDirectMapMode:spim <- $r0
	.loc	5 716 27 is_stmt 1              @ ../../../../Library/StdDriver/inc\spim_hyper.h:716:27
	ldr	r1, [r0]
	.loc	5 716 59 is_stmt 0              @ ../../../../Library/StdDriver/inc\spim_hyper.h:716:59
	orr	r1, r1, #12582912
	.loc	5 716 17                        @ ../../../../Library/StdDriver/inc\spim_hyper.h:716:17
	str	r1, [r0]
.Ltmp477:
	.loc	4 517 1 epilogue_begin is_stmt 1 @ ../../../../Library/StdDriver/src/spim_hyper.c:517:1
	add	sp, #4
	bx	lr
.Ltmp478:
.Lfunc_end14:
	.size	SPIM_HYPER_EnterDirectMapMode, .Lfunc_end14-SPIM_HYPER_EnterDirectMapMode
	.cfi_endproc
	.cantunwind
	.fnend
                                        @ -- End function
	.section	.text.SPIM_HYPER_ExitDirectMapMode,"ax",%progbits
	.hidden	SPIM_HYPER_ExitDirectMapMode    @ -- Begin function SPIM_HYPER_ExitDirectMapMode
	.globl	SPIM_HYPER_ExitDirectMapMode
	.p2align	2
	.type	SPIM_HYPER_ExitDirectMapMode,%function
	.code	16                              @ @SPIM_HYPER_ExitDirectMapMode
	.thumb_func
SPIM_HYPER_ExitDirectMapMode:
.Lfunc_begin15:
	.loc	4 526 0                         @ ../../../../Library/StdDriver/src/spim_hyper.c:526:0
	.fnstart
	.cfi_startproc
@ %bb.0:
	@DEBUG_VALUE: SPIM_HYPER_ExitDirectMapMode:spim <- $r0
	.pad	#4
	sub	sp, #4
	.cfi_def_cfa_offset 4
.Ltmp479:
	.loc	5 642 49 prologue_end           @ ../../../../Library/StdDriver/inc\spim_hyper.h:642:49
	movw	r1, :lower16:SystemCoreClock
	movt	r1, :upper16:SystemCoreClock
	ldr	r1, [r1]
.Ltmp480:
	@DEBUG_VALUE: SPIM_HYPER_WAIT_DMMDONE:spim <- $r0
	@DEBUG_VALUE: SPIM_HYPER_WAIT_DMMDONE:i32TimeOutCount <- [DW_OP_deref] $sp
	@DEBUG_VALUE: SPIM_HYPER_SET_OPMODE:x <- 0
	@DEBUG_VALUE: SPIM_HYPER_SET_OPMODE:spim <- $r0
	.loc	5 642 22 is_stmt 0              @ ../../../../Library/StdDriver/inc\spim_hyper.h:642:22
	str	r1, [sp]
	.loc	5 644 5 is_stmt 1               @ ../../../../Library/StdDriver/inc\spim_hyper.h:644:5
	ldr	r2, [r0, #68]
	orr	r2, r2, #134217728
	str	r2, [r0, #68]
.Ltmp481:
.LBB15_1:                               @ =>This Inner Loop Header: Depth=1
	@DEBUG_VALUE: SPIM_HYPER_SET_OPMODE:spim <- $r0
	@DEBUG_VALUE: SPIM_HYPER_SET_OPMODE:x <- 0
	@DEBUG_VALUE: SPIM_HYPER_WAIT_DMMDONE:i32TimeOutCount <- [DW_OP_deref] $sp
	@DEBUG_VALUE: SPIM_HYPER_WAIT_DMMDONE:spim <- $r0
	@DEBUG_VALUE: SPIM_HYPER_ExitDirectMapMode:spim <- $r0
	.loc	5 646 12                        @ ../../../../Library/StdDriver/inc\spim_hyper.h:646:12
	ldr	r2, [r0, #68]
	.loc	5 646 5 is_stmt 0               @ ../../../../Library/StdDriver/inc\spim_hyper.h:646:5
	lsls	r2, r2, #4
	bpl	.LBB15_9
.Ltmp482:
@ %bb.2:                                @   in Loop: Header=BB15_1 Depth=1
	@DEBUG_VALUE: SPIM_HYPER_SET_OPMODE:spim <- $r0
	@DEBUG_VALUE: SPIM_HYPER_SET_OPMODE:x <- 0
	@DEBUG_VALUE: SPIM_HYPER_WAIT_DMMDONE:i32TimeOutCount <- [DW_OP_deref] $sp
	@DEBUG_VALUE: SPIM_HYPER_WAIT_DMMDONE:spim <- $r0
	@DEBUG_VALUE: SPIM_HYPER_ExitDirectMapMode:spim <- $r0
	.loc	5 648 13 is_stmt 1              @ ../../../../Library/StdDriver/inc\spim_hyper.h:648:13
	ldr	r2, [sp]
	subs	r3, r2, #1
.Ltmp483:
	.loc	5 648 13 is_stmt 0              @ ../../../../Library/StdDriver/inc\spim_hyper.h:648:13
	cmp	r2, #2
.Ltmp484:
	@DEBUG_VALUE: SPIM_HYPER_WAIT_DMMDONE:i32TimeOutCount <- [DW_OP_constu 1, DW_OP_minus, DW_OP_stack_value] undef
	.loc	5 648 13                        @ ../../../../Library/StdDriver/inc\spim_hyper.h:648:13
	str	r3, [sp]
.Ltmp485:
	.loc	5 648 13                        @ ../../../../Library/StdDriver/inc\spim_hyper.h:648:13
	blt	.LBB15_9
.Ltmp486:
@ %bb.3:                                @   in Loop: Header=BB15_1 Depth=1
	@DEBUG_VALUE: SPIM_HYPER_SET_OPMODE:spim <- $r0
	@DEBUG_VALUE: SPIM_HYPER_SET_OPMODE:x <- 0
	@DEBUG_VALUE: SPIM_HYPER_WAIT_DMMDONE:spim <- $r0
	@DEBUG_VALUE: SPIM_HYPER_ExitDirectMapMode:spim <- $r0
	.loc	5 646 12 is_stmt 1              @ ../../../../Library/StdDriver/inc\spim_hyper.h:646:12
	ldr	r2, [r0, #68]
	.loc	5 646 5 is_stmt 0               @ ../../../../Library/StdDriver/inc\spim_hyper.h:646:5
	lsls	r2, r2, #4
	bpl	.LBB15_9
.Ltmp487:
@ %bb.4:                                @   in Loop: Header=BB15_1 Depth=1
	@DEBUG_VALUE: SPIM_HYPER_SET_OPMODE:spim <- $r0
	@DEBUG_VALUE: SPIM_HYPER_SET_OPMODE:x <- 0
	@DEBUG_VALUE: SPIM_HYPER_WAIT_DMMDONE:spim <- $r0
	@DEBUG_VALUE: SPIM_HYPER_ExitDirectMapMode:spim <- $r0
	.loc	5 648 13 is_stmt 1              @ ../../../../Library/StdDriver/inc\spim_hyper.h:648:13
	ldr	r2, [sp]
	subs	r3, r2, #1
.Ltmp488:
	.loc	5 648 13 is_stmt 0              @ ../../../../Library/StdDriver/inc\spim_hyper.h:648:13
	cmp	r2, #2
.Ltmp489:
	@DEBUG_VALUE: SPIM_HYPER_WAIT_DMMDONE:i32TimeOutCount <- [DW_OP_constu 1, DW_OP_minus, DW_OP_stack_value] undef
	.loc	5 648 13                        @ ../../../../Library/StdDriver/inc\spim_hyper.h:648:13
	str	r3, [sp]
.Ltmp490:
	.loc	5 648 13                        @ ../../../../Library/StdDriver/inc\spim_hyper.h:648:13
	blt	.LBB15_9
.Ltmp491:
@ %bb.5:                                @   in Loop: Header=BB15_1 Depth=1
	@DEBUG_VALUE: SPIM_HYPER_SET_OPMODE:spim <- $r0
	@DEBUG_VALUE: SPIM_HYPER_SET_OPMODE:x <- 0
	@DEBUG_VALUE: SPIM_HYPER_WAIT_DMMDONE:spim <- $r0
	@DEBUG_VALUE: SPIM_HYPER_ExitDirectMapMode:spim <- $r0
	.loc	5 646 12 is_stmt 1              @ ../../../../Library/StdDriver/inc\spim_hyper.h:646:12
	ldr	r2, [r0, #68]
	.loc	5 646 5 is_stmt 0               @ ../../../../Library/StdDriver/inc\spim_hyper.h:646:5
	lsls	r2, r2, #4
	bpl	.LBB15_9
.Ltmp492:
@ %bb.6:                                @   in Loop: Header=BB15_1 Depth=1
	@DEBUG_VALUE: SPIM_HYPER_SET_OPMODE:spim <- $r0
	@DEBUG_VALUE: SPIM_HYPER_SET_OPMODE:x <- 0
	@DEBUG_VALUE: SPIM_HYPER_WAIT_DMMDONE:spim <- $r0
	@DEBUG_VALUE: SPIM_HYPER_ExitDirectMapMode:spim <- $r0
	.loc	5 648 13 is_stmt 1              @ ../../../../Library/StdDriver/inc\spim_hyper.h:648:13
	ldr	r2, [sp]
	subs	r3, r2, #1
.Ltmp493:
	.loc	5 648 13 is_stmt 0              @ ../../../../Library/StdDriver/inc\spim_hyper.h:648:13
	cmp	r2, #2
.Ltmp494:
	@DEBUG_VALUE: SPIM_HYPER_WAIT_DMMDONE:i32TimeOutCount <- [DW_OP_constu 1, DW_OP_minus, DW_OP_stack_value] undef
	.loc	5 648 13                        @ ../../../../Library/StdDriver/inc\spim_hyper.h:648:13
	str	r3, [sp]
.Ltmp495:
	.loc	5 648 13                        @ ../../../../Library/StdDriver/inc\spim_hyper.h:648:13
	blt	.LBB15_9
.Ltmp496:
@ %bb.7:                                @   in Loop: Header=BB15_1 Depth=1
	@DEBUG_VALUE: SPIM_HYPER_SET_OPMODE:spim <- $r0
	@DEBUG_VALUE: SPIM_HYPER_SET_OPMODE:x <- 0
	@DEBUG_VALUE: SPIM_HYPER_WAIT_DMMDONE:spim <- $r0
	@DEBUG_VALUE: SPIM_HYPER_ExitDirectMapMode:spim <- $r0
	.loc	5 646 12 is_stmt 1              @ ../../../../Library/StdDriver/inc\spim_hyper.h:646:12
	ldr	r2, [r0, #68]
	.loc	5 646 5 is_stmt 0               @ ../../../../Library/StdDriver/inc\spim_hyper.h:646:5
	lsls	r2, r2, #4
	bpl	.LBB15_9
.Ltmp497:
@ %bb.8:                                @   in Loop: Header=BB15_1 Depth=1
	@DEBUG_VALUE: SPIM_HYPER_SET_OPMODE:spim <- $r0
	@DEBUG_VALUE: SPIM_HYPER_SET_OPMODE:x <- 0
	@DEBUG_VALUE: SPIM_HYPER_WAIT_DMMDONE:spim <- $r0
	@DEBUG_VALUE: SPIM_HYPER_ExitDirectMapMode:spim <- $r0
	.loc	5 648 13 is_stmt 1              @ ../../../../Library/StdDriver/inc\spim_hyper.h:648:13
	ldr	r2, [sp]
	subs	r2, #1
	str	r2, [sp]
.Ltmp498:
	@DEBUG_VALUE: SPIM_HYPER_WAIT_DMMDONE:i32TimeOutCount <- [DW_OP_deref] $sp
	.loc	5 648 13 is_stmt 0              @ ../../../../Library/StdDriver/inc\spim_hyper.h:648:13
	bgt	.LBB15_1
.Ltmp499:
.LBB15_9:
	@DEBUG_VALUE: SPIM_HYPER_SET_OPMODE:spim <- $r0
	@DEBUG_VALUE: SPIM_HYPER_SET_OPMODE:x <- 0
	@DEBUG_VALUE: SPIM_HYPER_WAIT_DMMDONE:spim <- $r0
	@DEBUG_VALUE: SPIM_HYPER_ExitDirectMapMode:spim <- $r0
	.loc	5 654 21 is_stmt 1              @ ../../../../Library/StdDriver/inc\spim_hyper.h:654:21
	str	r1, [sp]
.Ltmp500:
	@DEBUG_VALUE: SPIM_HYPER_WAIT_DMMDONE:i32TimeOutCount <- [DW_OP_deref] $sp
.LBB15_10:                              @ =>This Inner Loop Header: Depth=1
	@DEBUG_VALUE: SPIM_HYPER_SET_OPMODE:spim <- $r0
	@DEBUG_VALUE: SPIM_HYPER_SET_OPMODE:x <- 0
	@DEBUG_VALUE: SPIM_HYPER_WAIT_DMMDONE:i32TimeOutCount <- [DW_OP_deref] $sp
	@DEBUG_VALUE: SPIM_HYPER_WAIT_DMMDONE:spim <- $r0
	@DEBUG_VALUE: SPIM_HYPER_ExitDirectMapMode:spim <- $r0
	.loc	5 657 12                        @ ../../../../Library/StdDriver/inc\spim_hyper.h:657:12
	ldr	r1, [r0, #68]
	.loc	5 657 5 is_stmt 0               @ ../../../../Library/StdDriver/inc\spim_hyper.h:657:5
	cmp	r1, #0
	bmi	.LBB15_18
.Ltmp501:
@ %bb.11:                               @   in Loop: Header=BB15_10 Depth=1
	@DEBUG_VALUE: SPIM_HYPER_SET_OPMODE:spim <- $r0
	@DEBUG_VALUE: SPIM_HYPER_SET_OPMODE:x <- 0
	@DEBUG_VALUE: SPIM_HYPER_WAIT_DMMDONE:i32TimeOutCount <- [DW_OP_deref] $sp
	@DEBUG_VALUE: SPIM_HYPER_WAIT_DMMDONE:spim <- $r0
	@DEBUG_VALUE: SPIM_HYPER_ExitDirectMapMode:spim <- $r0
	.loc	5 659 13 is_stmt 1              @ ../../../../Library/StdDriver/inc\spim_hyper.h:659:13
	ldr	r1, [sp]
	subs	r2, r1, #1
.Ltmp502:
	.loc	5 659 13 is_stmt 0              @ ../../../../Library/StdDriver/inc\spim_hyper.h:659:13
	cmp	r1, #2
.Ltmp503:
	@DEBUG_VALUE: SPIM_HYPER_WAIT_DMMDONE:i32TimeOutCount <- [DW_OP_constu 1, DW_OP_minus, DW_OP_stack_value] undef
	.loc	5 659 13                        @ ../../../../Library/StdDriver/inc\spim_hyper.h:659:13
	str	r2, [sp]
.Ltmp504:
	.loc	5 659 13                        @ ../../../../Library/StdDriver/inc\spim_hyper.h:659:13
	blt	.LBB15_18
.Ltmp505:
@ %bb.12:                               @   in Loop: Header=BB15_10 Depth=1
	@DEBUG_VALUE: SPIM_HYPER_SET_OPMODE:spim <- $r0
	@DEBUG_VALUE: SPIM_HYPER_SET_OPMODE:x <- 0
	@DEBUG_VALUE: SPIM_HYPER_WAIT_DMMDONE:spim <- $r0
	@DEBUG_VALUE: SPIM_HYPER_ExitDirectMapMode:spim <- $r0
	.loc	5 657 12 is_stmt 1              @ ../../../../Library/StdDriver/inc\spim_hyper.h:657:12
	ldr	r1, [r0, #68]
	.loc	5 657 5 is_stmt 0               @ ../../../../Library/StdDriver/inc\spim_hyper.h:657:5
	cmp	r1, #0
	bmi	.LBB15_18
.Ltmp506:
@ %bb.13:                               @   in Loop: Header=BB15_10 Depth=1
	@DEBUG_VALUE: SPIM_HYPER_SET_OPMODE:spim <- $r0
	@DEBUG_VALUE: SPIM_HYPER_SET_OPMODE:x <- 0
	@DEBUG_VALUE: SPIM_HYPER_WAIT_DMMDONE:spim <- $r0
	@DEBUG_VALUE: SPIM_HYPER_ExitDirectMapMode:spim <- $r0
	.loc	5 659 13 is_stmt 1              @ ../../../../Library/StdDriver/inc\spim_hyper.h:659:13
	ldr	r1, [sp]
	subs	r2, r1, #1
.Ltmp507:
	.loc	5 659 13 is_stmt 0              @ ../../../../Library/StdDriver/inc\spim_hyper.h:659:13
	cmp	r1, #2
.Ltmp508:
	@DEBUG_VALUE: SPIM_HYPER_WAIT_DMMDONE:i32TimeOutCount <- [DW_OP_constu 1, DW_OP_minus, DW_OP_stack_value] undef
	.loc	5 659 13                        @ ../../../../Library/StdDriver/inc\spim_hyper.h:659:13
	str	r2, [sp]
.Ltmp509:
	.loc	5 659 13                        @ ../../../../Library/StdDriver/inc\spim_hyper.h:659:13
	blt	.LBB15_18
.Ltmp510:
@ %bb.14:                               @   in Loop: Header=BB15_10 Depth=1
	@DEBUG_VALUE: SPIM_HYPER_SET_OPMODE:spim <- $r0
	@DEBUG_VALUE: SPIM_HYPER_SET_OPMODE:x <- 0
	@DEBUG_VALUE: SPIM_HYPER_WAIT_DMMDONE:spim <- $r0
	@DEBUG_VALUE: SPIM_HYPER_ExitDirectMapMode:spim <- $r0
	.loc	5 657 12 is_stmt 1              @ ../../../../Library/StdDriver/inc\spim_hyper.h:657:12
	ldr	r1, [r0, #68]
	.loc	5 657 5 is_stmt 0               @ ../../../../Library/StdDriver/inc\spim_hyper.h:657:5
	cmp	r1, #0
	bmi	.LBB15_18
.Ltmp511:
@ %bb.15:                               @   in Loop: Header=BB15_10 Depth=1
	@DEBUG_VALUE: SPIM_HYPER_SET_OPMODE:spim <- $r0
	@DEBUG_VALUE: SPIM_HYPER_SET_OPMODE:x <- 0
	@DEBUG_VALUE: SPIM_HYPER_WAIT_DMMDONE:spim <- $r0
	@DEBUG_VALUE: SPIM_HYPER_ExitDirectMapMode:spim <- $r0
	.loc	5 659 13 is_stmt 1              @ ../../../../Library/StdDriver/inc\spim_hyper.h:659:13
	ldr	r1, [sp]
	subs	r2, r1, #1
.Ltmp512:
	.loc	5 659 13 is_stmt 0              @ ../../../../Library/StdDriver/inc\spim_hyper.h:659:13
	cmp	r1, #2
.Ltmp513:
	@DEBUG_VALUE: SPIM_HYPER_WAIT_DMMDONE:i32TimeOutCount <- [DW_OP_constu 1, DW_OP_minus, DW_OP_stack_value] undef
	.loc	5 659 13                        @ ../../../../Library/StdDriver/inc\spim_hyper.h:659:13
	str	r2, [sp]
.Ltmp514:
	.loc	5 659 13                        @ ../../../../Library/StdDriver/inc\spim_hyper.h:659:13
	blt	.LBB15_18
.Ltmp515:
@ %bb.16:                               @   in Loop: Header=BB15_10 Depth=1
	@DEBUG_VALUE: SPIM_HYPER_SET_OPMODE:spim <- $r0
	@DEBUG_VALUE: SPIM_HYPER_SET_OPMODE:x <- 0
	@DEBUG_VALUE: SPIM_HYPER_WAIT_DMMDONE:spim <- $r0
	@DEBUG_VALUE: SPIM_HYPER_ExitDirectMapMode:spim <- $r0
	.loc	5 657 12 is_stmt 1              @ ../../../../Library/StdDriver/inc\spim_hyper.h:657:12
	ldr	r1, [r0, #68]
	.loc	5 657 5 is_stmt 0               @ ../../../../Library/StdDriver/inc\spim_hyper.h:657:5
	cmp	r1, #0
	bmi	.LBB15_18
.Ltmp516:
@ %bb.17:                               @   in Loop: Header=BB15_10 Depth=1
	@DEBUG_VALUE: SPIM_HYPER_SET_OPMODE:spim <- $r0
	@DEBUG_VALUE: SPIM_HYPER_SET_OPMODE:x <- 0
	@DEBUG_VALUE: SPIM_HYPER_WAIT_DMMDONE:spim <- $r0
	@DEBUG_VALUE: SPIM_HYPER_ExitDirectMapMode:spim <- $r0
	.loc	5 659 13 is_stmt 1              @ ../../../../Library/StdDriver/inc\spim_hyper.h:659:13
	ldr	r1, [sp]
	subs	r1, #1
	str	r1, [sp]
.Ltmp517:
	@DEBUG_VALUE: SPIM_HYPER_WAIT_DMMDONE:i32TimeOutCount <- [DW_OP_deref] $sp
	.loc	5 659 13 is_stmt 0              @ ../../../../Library/StdDriver/inc\spim_hyper.h:659:13
	bgt	.LBB15_10
.Ltmp518:
.LBB15_18:
	@DEBUG_VALUE: SPIM_HYPER_SET_OPMODE:spim <- $r0
	@DEBUG_VALUE: SPIM_HYPER_SET_OPMODE:x <- 0
	@DEBUG_VALUE: SPIM_HYPER_ExitDirectMapMode:spim <- $r0
	.loc	5 716 27 is_stmt 1              @ ../../../../Library/StdDriver/inc\spim_hyper.h:716:27
	ldr	r1, [r0]
	.loc	5 716 32 is_stmt 0              @ ../../../../Library/StdDriver/inc\spim_hyper.h:716:32
	bic	r1, r1, #12582912
	.loc	5 716 17                        @ ../../../../Library/StdDriver/inc\spim_hyper.h:716:17
	str	r1, [r0]
.Ltmp519:
	.loc	4 528 1 epilogue_begin is_stmt 1 @ ../../../../Library/StdDriver/src/spim_hyper.c:528:1
	add	sp, #4
	bx	lr
.Ltmp520:
.Lfunc_end15:
	.size	SPIM_HYPER_ExitDirectMapMode, .Lfunc_end15-SPIM_HYPER_ExitDirectMapMode
	.cfi_endproc
	.cantunwind
	.fnend
                                        @ -- End function
	.section	.text.SPIM_HYPER_INIT_DLL,"ax",%progbits
	.hidden	SPIM_HYPER_INIT_DLL             @ -- Begin function SPIM_HYPER_INIT_DLL
	.globl	SPIM_HYPER_INIT_DLL
	.p2align	2
	.type	SPIM_HYPER_INIT_DLL,%function
	.code	16                              @ @SPIM_HYPER_INIT_DLL
	.thumb_func
SPIM_HYPER_INIT_DLL:
.Lfunc_begin16:
	.loc	4 539 0                         @ ../../../../Library/StdDriver/src/spim_hyper.c:539:0
	.fnstart
	.cfi_startproc
@ %bb.0:
	@DEBUG_VALUE: SPIM_HYPER_INIT_DLL:spim <- $r0
	.save	{r4, r5, r6, r7, r8, r9, r10, lr}
	push.w	{r4, r5, r6, r7, r8, r9, r10, lr}
	.cfi_def_cfa_offset 32
	.cfi_offset lr, -4
	.cfi_offset r10, -8
	.cfi_offset r9, -12
	.cfi_offset r8, -16
	.cfi_offset r7, -20
	.cfi_offset r6, -24
	.cfi_offset r5, -28
	.cfi_offset r4, -32
	.pad	#8
	sub	sp, #8
	.cfi_def_cfa_offset 40
	mov	r4, r0
.Ltmp521:
	@DEBUG_VALUE: SPIM_HYPER_INIT_DLL:spim <- $r4
	@DEBUG_VALUE: SPIM_HYPER_INIT_DLL:i32TimeoutCount <- [DW_OP_plus_uconst 4, DW_OP_deref] $sp
	@DEBUG_VALUE: SPIM_HYPER_INIT_DLL:spim <- $r4
	.loc	4 541 28 prologue_end           @ ../../../../Library/StdDriver/src/spim_hyper.c:541:28
	bl	CLK_GetSCLKFreq
.Ltmp522:
	.loc	4 541 49 is_stmt 0              @ ../../../../Library/StdDriver/src/spim_hyper.c:541:49
	ldr	r1, [r4, #4]
	movw	r2, #49999
	mvn	r3, #1
	.loc	4 541 77                        @ ../../../../Library/StdDriver/src/spim_hyper.c:541:77
	and.w	r1, r3, r1, lsr #15
	.loc	4 555 24 is_stmt 1              @ ../../../../Library/StdDriver/src/spim_hyper.c:555:24
	ldr	r7, [r4, #4]
.Ltmp523:
	@DEBUG_VALUE: SPIM_HYPER_INIT_DLL:u32Div <- undef
	.loc	4 541 46                        @ ../../../../Library/StdDriver/src/spim_hyper.c:541:46
	udiv	r8, r0, r1
.Ltmp524:
	@DEBUG_VALUE: SPIM_HYPER_INIT_DLL:u32BusClkHz <- $r8
	.loc	4 0 46 is_stmt 0                @ ../../../../Library/StdDriver/src/spim_hyper.c:0:46
	movw	r0, #51712
	movw	r1, #19999
.Ltmp525:
	@DEBUG_VALUE: SPIM_HYPER_INIT_DLL:u32DllTrimUs <- 20
	@DEBUG_VALUE: SPIM_HYPER_INIT_DLL:u32DllClkOnUs <- 20
	@DEBUG_VALUE: SPIM_HYPER_INIT_DLL:u32DllValidUs <- 50
	@DEBUG_VALUE: SPIM_HYPER_INIT_DLL:u32DllLockUs <- 20
	@DEBUG_VALUE: SPIM_HYPER_INIT_DLL:u32DelayCycleCount <- 0
	movt	r0, #15258
	.loc	4 542 38 is_stmt 1              @ ../../../../Library/StdDriver/src/spim_hyper.c:542:38
	udiv	r0, r0, r8
.Ltmp526:
	@DEBUG_VALUE: SPIM_HYPER_INIT_DLL:u32ClkNs <- $r0
	.loc	4 559 30                        @ ../../../../Library/StdDriver/src/spim_hyper.c:559:30
	cmp.w	r7, #65536
	.loc	4 550 28                        @ ../../../../Library/StdDriver/src/spim_hyper.c:550:28
	add	r1, r0
.Ltmp527:
	@DEBUG_VALUE: SPIM_HYPER_INIT_DLL:u32DLLLKNUM <- undef
	.loc	4 551 28                        @ ../../../../Library/StdDriver/src/spim_hyper.c:551:28
	add	r2, r0
.Ltmp528:
	@DEBUG_VALUE: SPIM_HYPER_INIT_DLL:u32TRIMNUM <- undef
	@DEBUG_VALUE: SPIM_HYPER_INIT_DLL:u32CLKONNUM <- undef
	@DEBUG_VALUE: SPIM_HYPER_INIT_DLL:u32DLLOVNUM <- undef
	.loc	4 559 30                        @ ../../../../Library/StdDriver/src/spim_hyper.c:559:30
	bhs	.LBB16_2
.Ltmp529:
@ %bb.1:
	@DEBUG_VALUE: SPIM_HYPER_INIT_DLL:u32ClkNs <- $r0
	@DEBUG_VALUE: SPIM_HYPER_INIT_DLL:u32DelayCycleCount <- 0
	@DEBUG_VALUE: SPIM_HYPER_INIT_DLL:u32DllLockUs <- 20
	@DEBUG_VALUE: SPIM_HYPER_INIT_DLL:u32DllValidUs <- 50
	@DEBUG_VALUE: SPIM_HYPER_INIT_DLL:u32DllClkOnUs <- 20
	@DEBUG_VALUE: SPIM_HYPER_INIT_DLL:u32DllTrimUs <- 20
	@DEBUG_VALUE: SPIM_HYPER_INIT_DLL:u32BusClkHz <- $r8
	@DEBUG_VALUE: SPIM_HYPER_INIT_DLL:i32TimeoutCount <- [DW_OP_plus_uconst 4, DW_OP_deref] $sp
	@DEBUG_VALUE: SPIM_HYPER_INIT_DLL:spim <- $r4
	.loc	4 0 30 is_stmt 0                @ ../../../../Library/StdDriver/src/spim_hyper.c:0:30
	mov.w	r10, #0
	.loc	4 559 30                        @ ../../../../Library/StdDriver/src/spim_hyper.c:559:30
	b	.LBB16_5
.Ltmp530:
.LBB16_2:
	@DEBUG_VALUE: SPIM_HYPER_INIT_DLL:u32ClkNs <- $r0
	@DEBUG_VALUE: SPIM_HYPER_INIT_DLL:u32DelayCycleCount <- 0
	@DEBUG_VALUE: SPIM_HYPER_INIT_DLL:u32DllLockUs <- 20
	@DEBUG_VALUE: SPIM_HYPER_INIT_DLL:u32DllValidUs <- 50
	@DEBUG_VALUE: SPIM_HYPER_INIT_DLL:u32DllClkOnUs <- 20
	@DEBUG_VALUE: SPIM_HYPER_INIT_DLL:u32DllTrimUs <- 20
	@DEBUG_VALUE: SPIM_HYPER_INIT_DLL:u32BusClkHz <- $r8
	@DEBUG_VALUE: SPIM_HYPER_INIT_DLL:i32TimeoutCount <- [DW_OP_plus_uconst 4, DW_OP_deref] $sp
	@DEBUG_VALUE: SPIM_HYPER_INIT_DLL:spim <- $r4
	.loc	4 0 30                          @ ../../../../Library/StdDriver/src/spim_hyper.c:0:30
	and.w	r3, r3, r7, lsr #15
	.loc	4 559 50                        @ ../../../../Library/StdDriver/src/spim_hyper.c:559:50
	cmp	r3, #2
	bne	.LBB16_4
.Ltmp531:
@ %bb.3:
	@DEBUG_VALUE: SPIM_HYPER_INIT_DLL:u32ClkNs <- $r0
	@DEBUG_VALUE: SPIM_HYPER_INIT_DLL:u32DelayCycleCount <- 0
	@DEBUG_VALUE: SPIM_HYPER_INIT_DLL:u32DllLockUs <- 20
	@DEBUG_VALUE: SPIM_HYPER_INIT_DLL:u32DllValidUs <- 50
	@DEBUG_VALUE: SPIM_HYPER_INIT_DLL:u32DllClkOnUs <- 20
	@DEBUG_VALUE: SPIM_HYPER_INIT_DLL:u32DllTrimUs <- 20
	@DEBUG_VALUE: SPIM_HYPER_INIT_DLL:u32BusClkHz <- $r8
	@DEBUG_VALUE: SPIM_HYPER_INIT_DLL:i32TimeoutCount <- [DW_OP_plus_uconst 4, DW_OP_deref] $sp
	@DEBUG_VALUE: SPIM_HYPER_INIT_DLL:spim <- $r4
	.loc	4 0 50                          @ ../../../../Library/StdDriver/src/spim_hyper.c:0:50
	mov.w	r10, #1048576
	.loc	4 559 50                        @ ../../../../Library/StdDriver/src/spim_hyper.c:559:50
	b	.LBB16_5
.Ltmp532:
.LBB16_4:
	@DEBUG_VALUE: SPIM_HYPER_INIT_DLL:u32ClkNs <- $r0
	@DEBUG_VALUE: SPIM_HYPER_INIT_DLL:u32DelayCycleCount <- 0
	@DEBUG_VALUE: SPIM_HYPER_INIT_DLL:u32DllLockUs <- 20
	@DEBUG_VALUE: SPIM_HYPER_INIT_DLL:u32DllValidUs <- 50
	@DEBUG_VALUE: SPIM_HYPER_INIT_DLL:u32DllClkOnUs <- 20
	@DEBUG_VALUE: SPIM_HYPER_INIT_DLL:u32DllTrimUs <- 20
	@DEBUG_VALUE: SPIM_HYPER_INIT_DLL:u32BusClkHz <- $r8
	@DEBUG_VALUE: SPIM_HYPER_INIT_DLL:i32TimeoutCount <- [DW_OP_plus_uconst 4, DW_OP_deref] $sp
	@DEBUG_VALUE: SPIM_HYPER_INIT_DLL:spim <- $r4
	.loc	4 0 50                          @ ../../../../Library/StdDriver/src/spim_hyper.c:0:50
	mov.w	r10, #3145728
	.loc	4 559 70                        @ ../../../../Library/StdDriver/src/spim_hyper.c:559:70
	cmp	r3, #4
	it	eq
	moveq.w	r10, #2097152
.Ltmp533:
.LBB16_5:
	@DEBUG_VALUE: SPIM_HYPER_INIT_DLL:u32ClkNs <- $r0
	@DEBUG_VALUE: SPIM_HYPER_INIT_DLL:u32DelayCycleCount <- 0
	@DEBUG_VALUE: SPIM_HYPER_INIT_DLL:u32DllLockUs <- 20
	@DEBUG_VALUE: SPIM_HYPER_INIT_DLL:u32DllValidUs <- 50
	@DEBUG_VALUE: SPIM_HYPER_INIT_DLL:u32DllClkOnUs <- 20
	@DEBUG_VALUE: SPIM_HYPER_INIT_DLL:u32DllTrimUs <- 20
	@DEBUG_VALUE: SPIM_HYPER_INIT_DLL:u32BusClkHz <- $r8
	@DEBUG_VALUE: SPIM_HYPER_INIT_DLL:i32TimeoutCount <- [DW_OP_plus_uconst 4, DW_OP_deref] $sp
	@DEBUG_VALUE: SPIM_HYPER_INIT_DLL:spim <- $r4
	.loc	4 0 70                          @ ../../../../Library/StdDriver/src/spim_hyper.c:0:70
	udiv	r3, r1, r0
.Ltmp534:
	@DEBUG_VALUE: SPIM_HYPER_INIT_DLL:u32TRIMNUM <- $r3
	@DEBUG_VALUE: SPIM_HYPER_INIT_DLL:u32CLKONNUM <- $r3
	@DEBUG_VALUE: SPIM_HYPER_INIT_DLL:u32DLLLKNUM <- $r3
	movw	r1, #256
	movw	r9, :lower16:SystemCoreClock
	movt	r1, #16384
.Ltmp535:
	@DEBUG_VALUE: SPIM_HYPER_INIT_DLL:u32DllDivCode <- $r10
	.file	7 "C:\\Users\\jimmy\\Desktop\\Nuvoton\\Nuvoton-Team\\repos\\m55m1-ElevatorCounting-YOLOv8n\\KEIL" "../../../../Library/StdDriver/inc\\sys.h"
	.loc	7 4332 17 is_stmt 1             @ ../../../../Library/StdDriver/inc\sys.h:4332:17
	ldr	r7, [r1]
.Ltmp536:
	@DEBUG_VALUE: SPIM_HYPER_INIT_DLL:u32RegLockLevel <- undef
	.loc	7 0 17 is_stmt 0                @ ../../../../Library/StdDriver/inc\sys.h:0:17
	udiv	lr, r2, r0
.Ltmp537:
	@DEBUG_VALUE: SPIM_HYPER_INIT_DLL:u32DLLOVNUM <- $lr
	.loc	4 562 9 is_stmt 1               @ ../../../../Library/StdDriver/src/spim_hyper.c:562:9
	lsls.w	r12, r7, #31
	movt	r9, :upper16:SystemCoreClock
	bne	.LBB16_15
.Ltmp538:
@ %bb.6:
	@DEBUG_VALUE: SPIM_HYPER_INIT_DLL:u32DLLOVNUM <- $lr
	@DEBUG_VALUE: SPIM_HYPER_INIT_DLL:u32DllDivCode <- $r10
	@DEBUG_VALUE: SPIM_HYPER_INIT_DLL:u32DLLLKNUM <- $r3
	@DEBUG_VALUE: SPIM_HYPER_INIT_DLL:u32CLKONNUM <- $r3
	@DEBUG_VALUE: SPIM_HYPER_INIT_DLL:u32TRIMNUM <- $r3
	@DEBUG_VALUE: SPIM_HYPER_INIT_DLL:u32ClkNs <- $r0
	@DEBUG_VALUE: SPIM_HYPER_INIT_DLL:u32DelayCycleCount <- 0
	@DEBUG_VALUE: SPIM_HYPER_INIT_DLL:u32DllLockUs <- 20
	@DEBUG_VALUE: SPIM_HYPER_INIT_DLL:u32DllValidUs <- 50
	@DEBUG_VALUE: SPIM_HYPER_INIT_DLL:u32DllClkOnUs <- 20
	@DEBUG_VALUE: SPIM_HYPER_INIT_DLL:u32DllTrimUs <- 20
	@DEBUG_VALUE: SPIM_HYPER_INIT_DLL:u32BusClkHz <- $r8
	@DEBUG_VALUE: SPIM_HYPER_INIT_DLL:i32TimeoutCount <- [DW_OP_plus_uconst 4, DW_OP_deref] $sp
	@DEBUG_VALUE: SPIM_HYPER_INIT_DLL:spim <- $r4
	.loc	7 4257 32                       @ ../../../../Library/StdDriver/inc\sys.h:4257:32
	ldr.w	r6, [r9]
.Ltmp539:
	@DEBUG_VALUE: SYS_UnlockReg:u32TimeOutCount <- $r6
	.loc	7 0 32 is_stmt 0                @ ../../../../Library/StdDriver/inc\sys.h:0:32
	movs	r7, #89
	movs	r2, #22
	movs	r0, #136
.Ltmp540:
.LBB16_7:                               @ =>This Inner Loop Header: Depth=1
	@DEBUG_VALUE: SYS_UnlockReg:u32TimeOutCount <- $r6
	@DEBUG_VALUE: SPIM_HYPER_INIT_DLL:u32DLLOVNUM <- $lr
	@DEBUG_VALUE: SPIM_HYPER_INIT_DLL:u32DllDivCode <- $r10
	@DEBUG_VALUE: SPIM_HYPER_INIT_DLL:u32DLLLKNUM <- $r3
	@DEBUG_VALUE: SPIM_HYPER_INIT_DLL:u32CLKONNUM <- $r3
	@DEBUG_VALUE: SPIM_HYPER_INIT_DLL:u32TRIMNUM <- $r3
	@DEBUG_VALUE: SPIM_HYPER_INIT_DLL:u32DelayCycleCount <- 0
	@DEBUG_VALUE: SPIM_HYPER_INIT_DLL:u32DllLockUs <- 20
	@DEBUG_VALUE: SPIM_HYPER_INIT_DLL:u32DllValidUs <- 50
	@DEBUG_VALUE: SPIM_HYPER_INIT_DLL:u32DllClkOnUs <- 20
	@DEBUG_VALUE: SPIM_HYPER_INIT_DLL:u32DllTrimUs <- 20
	@DEBUG_VALUE: SPIM_HYPER_INIT_DLL:u32BusClkHz <- $r8
	@DEBUG_VALUE: SPIM_HYPER_INIT_DLL:i32TimeoutCount <- [DW_OP_plus_uconst 4, DW_OP_deref] $sp
	@DEBUG_VALUE: SPIM_HYPER_INIT_DLL:spim <- $r4
	@DEBUG_VALUE: SYS_UnlockReg:u32TimeOutCount <- $r6
	.loc	7 4265 13 is_stmt 1             @ ../../../../Library/StdDriver/inc\sys.h:4265:13
	cmp	r6, #1
	.loc	7 4261 22                       @ ../../../../Library/StdDriver/inc\sys.h:4261:22
	str	r7, [r1]
	.loc	7 4262 22                       @ ../../../../Library/StdDriver/inc\sys.h:4262:22
	str	r2, [r1]
	.loc	7 4263 22                       @ ../../../../Library/StdDriver/inc\sys.h:4263:22
	str	r0, [r1]
.Ltmp541:
	@DEBUG_VALUE: SYS_UnlockReg:u32TimeOutCount <- [DW_OP_constu 1, DW_OP_minus, DW_OP_stack_value] $r6
	.loc	7 4265 13                       @ ../../../../Library/StdDriver/inc\sys.h:4265:13
	beq	.LBB16_15
.Ltmp542:
@ %bb.8:                                @   in Loop: Header=BB16_7 Depth=1
	@DEBUG_VALUE: SYS_UnlockReg:u32TimeOutCount <- [DW_OP_constu 1, DW_OP_minus, DW_OP_stack_value] $r6
	@DEBUG_VALUE: SPIM_HYPER_INIT_DLL:u32DLLOVNUM <- $lr
	@DEBUG_VALUE: SPIM_HYPER_INIT_DLL:u32DllDivCode <- $r10
	@DEBUG_VALUE: SPIM_HYPER_INIT_DLL:u32DLLLKNUM <- $r3
	@DEBUG_VALUE: SPIM_HYPER_INIT_DLL:u32CLKONNUM <- $r3
	@DEBUG_VALUE: SPIM_HYPER_INIT_DLL:u32TRIMNUM <- $r3
	@DEBUG_VALUE: SPIM_HYPER_INIT_DLL:u32DelayCycleCount <- 0
	@DEBUG_VALUE: SPIM_HYPER_INIT_DLL:u32DllLockUs <- 20
	@DEBUG_VALUE: SPIM_HYPER_INIT_DLL:u32DllValidUs <- 50
	@DEBUG_VALUE: SPIM_HYPER_INIT_DLL:u32DllClkOnUs <- 20
	@DEBUG_VALUE: SPIM_HYPER_INIT_DLL:u32DllTrimUs <- 20
	@DEBUG_VALUE: SPIM_HYPER_INIT_DLL:u32BusClkHz <- $r8
	@DEBUG_VALUE: SPIM_HYPER_INIT_DLL:i32TimeoutCount <- [DW_OP_plus_uconst 4, DW_OP_deref] $sp
	@DEBUG_VALUE: SPIM_HYPER_INIT_DLL:spim <- $r4
	.loc	7 4266 19                       @ ../../../../Library/StdDriver/inc\sys.h:4266:19
	ldr	r5, [r1]
.Ltmp543:
	.loc	7 4266 5 is_stmt 0              @ ../../../../Library/StdDriver/inc\sys.h:4266:5
	cbnz	r5, .LBB16_15
.Ltmp544:
@ %bb.9:                                @   in Loop: Header=BB16_7 Depth=1
	@DEBUG_VALUE: SYS_UnlockReg:u32TimeOutCount <- [DW_OP_constu 1, DW_OP_minus, DW_OP_stack_value] $r6
	@DEBUG_VALUE: SPIM_HYPER_INIT_DLL:u32DLLOVNUM <- $lr
	@DEBUG_VALUE: SPIM_HYPER_INIT_DLL:u32DllDivCode <- $r10
	@DEBUG_VALUE: SPIM_HYPER_INIT_DLL:u32DLLLKNUM <- $r3
	@DEBUG_VALUE: SPIM_HYPER_INIT_DLL:u32CLKONNUM <- $r3
	@DEBUG_VALUE: SPIM_HYPER_INIT_DLL:u32TRIMNUM <- $r3
	@DEBUG_VALUE: SPIM_HYPER_INIT_DLL:u32DelayCycleCount <- 0
	@DEBUG_VALUE: SPIM_HYPER_INIT_DLL:u32DllLockUs <- 20
	@DEBUG_VALUE: SPIM_HYPER_INIT_DLL:u32DllValidUs <- 50
	@DEBUG_VALUE: SPIM_HYPER_INIT_DLL:u32DllClkOnUs <- 20
	@DEBUG_VALUE: SPIM_HYPER_INIT_DLL:u32DllTrimUs <- 20
	@DEBUG_VALUE: SPIM_HYPER_INIT_DLL:u32BusClkHz <- $r8
	@DEBUG_VALUE: SPIM_HYPER_INIT_DLL:i32TimeoutCount <- [DW_OP_plus_uconst 4, DW_OP_deref] $sp
	@DEBUG_VALUE: SPIM_HYPER_INIT_DLL:spim <- $r4
	@DEBUG_VALUE: SYS_UnlockReg:u32TimeOutCount <- [DW_OP_constu 1, DW_OP_minus, DW_OP_stack_value] $r6
	.loc	7 4265 13 is_stmt 1             @ ../../../../Library/StdDriver/inc\sys.h:4265:13
	cmp	r6, #2
	.loc	7 4261 22                       @ ../../../../Library/StdDriver/inc\sys.h:4261:22
	str	r7, [r1]
	.loc	7 4262 22                       @ ../../../../Library/StdDriver/inc\sys.h:4262:22
	str	r2, [r1]
	.loc	7 4263 22                       @ ../../../../Library/StdDriver/inc\sys.h:4263:22
	str	r0, [r1]
.Ltmp545:
	@DEBUG_VALUE: SYS_UnlockReg:u32TimeOutCount <- [DW_OP_constu 2, DW_OP_minus, DW_OP_stack_value] $r6
	.loc	7 4265 13                       @ ../../../../Library/StdDriver/inc\sys.h:4265:13
	beq	.LBB16_15
.Ltmp546:
@ %bb.10:                               @   in Loop: Header=BB16_7 Depth=1
	@DEBUG_VALUE: SYS_UnlockReg:u32TimeOutCount <- [DW_OP_constu 2, DW_OP_minus, DW_OP_stack_value] $r6
	@DEBUG_VALUE: SPIM_HYPER_INIT_DLL:u32DLLOVNUM <- $lr
	@DEBUG_VALUE: SPIM_HYPER_INIT_DLL:u32DllDivCode <- $r10
	@DEBUG_VALUE: SPIM_HYPER_INIT_DLL:u32DLLLKNUM <- $r3
	@DEBUG_VALUE: SPIM_HYPER_INIT_DLL:u32CLKONNUM <- $r3
	@DEBUG_VALUE: SPIM_HYPER_INIT_DLL:u32TRIMNUM <- $r3
	@DEBUG_VALUE: SPIM_HYPER_INIT_DLL:u32DelayCycleCount <- 0
	@DEBUG_VALUE: SPIM_HYPER_INIT_DLL:u32DllLockUs <- 20
	@DEBUG_VALUE: SPIM_HYPER_INIT_DLL:u32DllValidUs <- 50
	@DEBUG_VALUE: SPIM_HYPER_INIT_DLL:u32DllClkOnUs <- 20
	@DEBUG_VALUE: SPIM_HYPER_INIT_DLL:u32DllTrimUs <- 20
	@DEBUG_VALUE: SPIM_HYPER_INIT_DLL:u32BusClkHz <- $r8
	@DEBUG_VALUE: SPIM_HYPER_INIT_DLL:i32TimeoutCount <- [DW_OP_plus_uconst 4, DW_OP_deref] $sp
	@DEBUG_VALUE: SPIM_HYPER_INIT_DLL:spim <- $r4
	.loc	7 4266 19                       @ ../../../../Library/StdDriver/inc\sys.h:4266:19
	ldr	r5, [r1]
.Ltmp547:
	.loc	7 4266 5 is_stmt 0              @ ../../../../Library/StdDriver/inc\sys.h:4266:5
	cbnz	r5, .LBB16_15
.Ltmp548:
@ %bb.11:                               @   in Loop: Header=BB16_7 Depth=1
	@DEBUG_VALUE: SYS_UnlockReg:u32TimeOutCount <- [DW_OP_constu 2, DW_OP_minus, DW_OP_stack_value] $r6
	@DEBUG_VALUE: SPIM_HYPER_INIT_DLL:u32DLLOVNUM <- $lr
	@DEBUG_VALUE: SPIM_HYPER_INIT_DLL:u32DllDivCode <- $r10
	@DEBUG_VALUE: SPIM_HYPER_INIT_DLL:u32DLLLKNUM <- $r3
	@DEBUG_VALUE: SPIM_HYPER_INIT_DLL:u32CLKONNUM <- $r3
	@DEBUG_VALUE: SPIM_HYPER_INIT_DLL:u32TRIMNUM <- $r3
	@DEBUG_VALUE: SPIM_HYPER_INIT_DLL:u32DelayCycleCount <- 0
	@DEBUG_VALUE: SPIM_HYPER_INIT_DLL:u32DllLockUs <- 20
	@DEBUG_VALUE: SPIM_HYPER_INIT_DLL:u32DllValidUs <- 50
	@DEBUG_VALUE: SPIM_HYPER_INIT_DLL:u32DllClkOnUs <- 20
	@DEBUG_VALUE: SPIM_HYPER_INIT_DLL:u32DllTrimUs <- 20
	@DEBUG_VALUE: SPIM_HYPER_INIT_DLL:u32BusClkHz <- $r8
	@DEBUG_VALUE: SPIM_HYPER_INIT_DLL:i32TimeoutCount <- [DW_OP_plus_uconst 4, DW_OP_deref] $sp
	@DEBUG_VALUE: SPIM_HYPER_INIT_DLL:spim <- $r4
	@DEBUG_VALUE: SYS_UnlockReg:u32TimeOutCount <- [DW_OP_constu 2, DW_OP_minus, DW_OP_stack_value] $r6
	.loc	7 4265 13 is_stmt 1             @ ../../../../Library/StdDriver/inc\sys.h:4265:13
	cmp	r6, #3
	.loc	7 4261 22                       @ ../../../../Library/StdDriver/inc\sys.h:4261:22
	str	r7, [r1]
	.loc	7 4262 22                       @ ../../../../Library/StdDriver/inc\sys.h:4262:22
	str	r2, [r1]
	.loc	7 4263 22                       @ ../../../../Library/StdDriver/inc\sys.h:4263:22
	str	r0, [r1]
.Ltmp549:
	@DEBUG_VALUE: SYS_UnlockReg:u32TimeOutCount <- [DW_OP_constu 3, DW_OP_minus, DW_OP_stack_value] $r6
	.loc	7 4265 13                       @ ../../../../Library/StdDriver/inc\sys.h:4265:13
	beq	.LBB16_15
.Ltmp550:
@ %bb.12:                               @   in Loop: Header=BB16_7 Depth=1
	@DEBUG_VALUE: SYS_UnlockReg:u32TimeOutCount <- [DW_OP_constu 3, DW_OP_minus, DW_OP_stack_value] $r6
	@DEBUG_VALUE: SPIM_HYPER_INIT_DLL:u32DLLOVNUM <- $lr
	@DEBUG_VALUE: SPIM_HYPER_INIT_DLL:u32DllDivCode <- $r10
	@DEBUG_VALUE: SPIM_HYPER_INIT_DLL:u32DLLLKNUM <- $r3
	@DEBUG_VALUE: SPIM_HYPER_INIT_DLL:u32CLKONNUM <- $r3
	@DEBUG_VALUE: SPIM_HYPER_INIT_DLL:u32TRIMNUM <- $r3
	@DEBUG_VALUE: SPIM_HYPER_INIT_DLL:u32DelayCycleCount <- 0
	@DEBUG_VALUE: SPIM_HYPER_INIT_DLL:u32DllLockUs <- 20
	@DEBUG_VALUE: SPIM_HYPER_INIT_DLL:u32DllValidUs <- 50
	@DEBUG_VALUE: SPIM_HYPER_INIT_DLL:u32DllClkOnUs <- 20
	@DEBUG_VALUE: SPIM_HYPER_INIT_DLL:u32DllTrimUs <- 20
	@DEBUG_VALUE: SPIM_HYPER_INIT_DLL:u32BusClkHz <- $r8
	@DEBUG_VALUE: SPIM_HYPER_INIT_DLL:i32TimeoutCount <- [DW_OP_plus_uconst 4, DW_OP_deref] $sp
	@DEBUG_VALUE: SPIM_HYPER_INIT_DLL:spim <- $r4
	.loc	7 4266 19                       @ ../../../../Library/StdDriver/inc\sys.h:4266:19
	ldr	r5, [r1]
.Ltmp551:
	.loc	7 4266 5 is_stmt 0              @ ../../../../Library/StdDriver/inc\sys.h:4266:5
	cbnz	r5, .LBB16_15
.Ltmp552:
@ %bb.13:                               @   in Loop: Header=BB16_7 Depth=1
	@DEBUG_VALUE: SYS_UnlockReg:u32TimeOutCount <- [DW_OP_constu 3, DW_OP_minus, DW_OP_stack_value] $r6
	@DEBUG_VALUE: SPIM_HYPER_INIT_DLL:u32DLLOVNUM <- $lr
	@DEBUG_VALUE: SPIM_HYPER_INIT_DLL:u32DllDivCode <- $r10
	@DEBUG_VALUE: SPIM_HYPER_INIT_DLL:u32DLLLKNUM <- $r3
	@DEBUG_VALUE: SPIM_HYPER_INIT_DLL:u32CLKONNUM <- $r3
	@DEBUG_VALUE: SPIM_HYPER_INIT_DLL:u32TRIMNUM <- $r3
	@DEBUG_VALUE: SPIM_HYPER_INIT_DLL:u32DelayCycleCount <- 0
	@DEBUG_VALUE: SPIM_HYPER_INIT_DLL:u32DllLockUs <- 20
	@DEBUG_VALUE: SPIM_HYPER_INIT_DLL:u32DllValidUs <- 50
	@DEBUG_VALUE: SPIM_HYPER_INIT_DLL:u32DllClkOnUs <- 20
	@DEBUG_VALUE: SPIM_HYPER_INIT_DLL:u32DllTrimUs <- 20
	@DEBUG_VALUE: SPIM_HYPER_INIT_DLL:u32BusClkHz <- $r8
	@DEBUG_VALUE: SPIM_HYPER_INIT_DLL:i32TimeoutCount <- [DW_OP_plus_uconst 4, DW_OP_deref] $sp
	@DEBUG_VALUE: SPIM_HYPER_INIT_DLL:spim <- $r4
	@DEBUG_VALUE: SYS_UnlockReg:u32TimeOutCount <- [DW_OP_constu 3, DW_OP_minus, DW_OP_stack_value] $r6
	.loc	7 4265 13 is_stmt 1             @ ../../../../Library/StdDriver/inc\sys.h:4265:13
	subs	r6, #4
.Ltmp553:
	@DEBUG_VALUE: SYS_UnlockReg:u32TimeOutCount <- $r6
	.loc	7 4261 22                       @ ../../../../Library/StdDriver/inc\sys.h:4261:22
	str	r7, [r1]
	.loc	7 4262 22                       @ ../../../../Library/StdDriver/inc\sys.h:4262:22
	str	r2, [r1]
	.loc	7 4263 22                       @ ../../../../Library/StdDriver/inc\sys.h:4263:22
	str	r0, [r1]
	.loc	7 4265 13                       @ ../../../../Library/StdDriver/inc\sys.h:4265:13
	beq	.LBB16_15
.Ltmp554:
@ %bb.14:                               @   in Loop: Header=BB16_7 Depth=1
	@DEBUG_VALUE: SYS_UnlockReg:u32TimeOutCount <- $r6
	@DEBUG_VALUE: SPIM_HYPER_INIT_DLL:u32DLLOVNUM <- $lr
	@DEBUG_VALUE: SPIM_HYPER_INIT_DLL:u32DllDivCode <- $r10
	@DEBUG_VALUE: SPIM_HYPER_INIT_DLL:u32DLLLKNUM <- $r3
	@DEBUG_VALUE: SPIM_HYPER_INIT_DLL:u32CLKONNUM <- $r3
	@DEBUG_VALUE: SPIM_HYPER_INIT_DLL:u32TRIMNUM <- $r3
	@DEBUG_VALUE: SPIM_HYPER_INIT_DLL:u32DelayCycleCount <- 0
	@DEBUG_VALUE: SPIM_HYPER_INIT_DLL:u32DllLockUs <- 20
	@DEBUG_VALUE: SPIM_HYPER_INIT_DLL:u32DllValidUs <- 50
	@DEBUG_VALUE: SPIM_HYPER_INIT_DLL:u32DllClkOnUs <- 20
	@DEBUG_VALUE: SPIM_HYPER_INIT_DLL:u32DllTrimUs <- 20
	@DEBUG_VALUE: SPIM_HYPER_INIT_DLL:u32BusClkHz <- $r8
	@DEBUG_VALUE: SPIM_HYPER_INIT_DLL:i32TimeoutCount <- [DW_OP_plus_uconst 4, DW_OP_deref] $sp
	@DEBUG_VALUE: SPIM_HYPER_INIT_DLL:spim <- $r4
	.loc	7 4266 19                       @ ../../../../Library/StdDriver/inc\sys.h:4266:19
	ldr	r5, [r1]
.Ltmp555:
	.loc	7 4266 5 is_stmt 0              @ ../../../../Library/StdDriver/inc\sys.h:4266:5
	cbnz	r5, .LBB16_15
	le	.LBB16_7
.Ltmp556:
.LBB16_15:
	@DEBUG_VALUE: SPIM_HYPER_INIT_DLL:u32DLLOVNUM <- $lr
	@DEBUG_VALUE: SPIM_HYPER_INIT_DLL:u32DllDivCode <- $r10
	@DEBUG_VALUE: SPIM_HYPER_INIT_DLL:u32DLLLKNUM <- $r3
	@DEBUG_VALUE: SPIM_HYPER_INIT_DLL:u32CLKONNUM <- $r3
	@DEBUG_VALUE: SPIM_HYPER_INIT_DLL:u32TRIMNUM <- $r3
	@DEBUG_VALUE: SPIM_HYPER_INIT_DLL:u32DelayCycleCount <- 0
	@DEBUG_VALUE: SPIM_HYPER_INIT_DLL:u32DllLockUs <- 20
	@DEBUG_VALUE: SPIM_HYPER_INIT_DLL:u32DllValidUs <- 50
	@DEBUG_VALUE: SPIM_HYPER_INIT_DLL:u32DllClkOnUs <- 20
	@DEBUG_VALUE: SPIM_HYPER_INIT_DLL:u32DllTrimUs <- 20
	@DEBUG_VALUE: SPIM_HYPER_INIT_DLL:u32BusClkHz <- $r8
	@DEBUG_VALUE: SPIM_HYPER_INIT_DLL:i32TimeoutCount <- [DW_OP_plus_uconst 4, DW_OP_deref] $sp
	@DEBUG_VALUE: SPIM_HYPER_INIT_DLL:spim <- $r4
	.loc	4 565 5 is_stmt 1               @ ../../../../Library/StdDriver/src/spim_hyper.c:565:5
	ldr	r0, [r4, #108]
	movw	r2, #65535
	pkhbt	r0, r0, r3, lsl #16
	str	r0, [r4, #108]
	.loc	4 566 5                         @ ../../../../Library/StdDriver/src/spim_hyper.c:566:5
	ldr	r0, [r4, #108]
	bics	r0, r2
	movw	r2, #9023
	orr.w	r0, r0, lr
	movw	lr, #3972
.Ltmp557:
	str	r0, [r4, #108]
	.loc	4 567 5                         @ ../../../../Library/StdDriver/src/spim_hyper.c:567:5
	ldr	r0, [r4, #112]
	movt	lr, #16384
	pkhbt	r0, r0, r3, lsl #16
	movt	r2, #1541
	str	r0, [r4, #112]
	.loc	4 568 5                         @ ../../../../Library/StdDriver/src/spim_hyper.c:568:5
	ldr	r0, [r4, #112]
	.loc	4 575 5                         @ ../../../../Library/StdDriver/src/spim_hyper.c:575:5
	cmp	r8, r2
	.loc	4 568 5                         @ ../../../../Library/StdDriver/src/spim_hyper.c:568:5
	bfc	r0, #0, #16
	orr.w	r0, r0, r3
	str	r0, [r4, #112]
.Ltmp558:
	.loc	4 571 5                         @ ../../../../Library/StdDriver/src/spim_hyper.c:571:5
	ldr.w	r0, [lr]
	bic	r0, r0, #512
.Ltmp559:
	@DEBUG_VALUE: u32Value <- $r0
	str.w	r0, [lr]
.Ltmp560:
	.loc	4 574 5                         @ ../../../../Library/StdDriver/src/spim_hyper.c:574:5
	ldr	r0, [r4, #104]
.Ltmp561:
	bic	r0, r0, #3145728
	orr.w	r0, r0, r10
	str	r0, [r4, #104]
	.loc	4 575 5                         @ ../../../../Library/StdDriver/src/spim_hyper.c:575:5
	ldr	r0, [r4, #104]
	bic	r0, r0, #12582912
	it	hi
	addhi.w	r0, r0, #4194304
	str	r0, [r4, #104]
	.loc	4 576 5                         @ ../../../../Library/StdDriver/src/spim_hyper.c:576:5
	ldr	r0, [r4, #104]
	orr	r0, r0, #1
	str	r0, [r4, #104]
	.loc	4 579 5                         @ ../../../../Library/StdDriver/src/spim_hyper.c:579:5
	ldr	r0, [r4, #104]
	orr	r0, r0, #262144
	str	r0, [r4, #104]
	.loc	4 580 5                         @ ../../../../Library/StdDriver/src/spim_hyper.c:580:5
	ldr	r0, [r4, #104]
	orr	r0, r0, #65536
	str	r0, [r4, #104]
	.loc	4 584 5                         @ ../../../../Library/StdDriver/src/spim_hyper.c:584:5
	ldr	r0, [r4, #104]
	orr	r0, r0, #2
	str	r0, [r4, #104]
	.loc	4 587 32                        @ ../../../../Library/StdDriver/src/spim_hyper.c:587:32
	ldr.w	r2, [r9]
	.loc	4 587 21 is_stmt 0              @ ../../../../Library/StdDriver/src/spim_hyper.c:587:21
	str	r2, [sp, #4]
	@DEBUG_VALUE: SPIM_HYPER_INIT_DLL:i32TimeoutCount <- [DW_OP_plus_uconst 4, DW_OP_deref] $sp
.Ltmp562:
.LBB16_16:                              @ =>This Inner Loop Header: Depth=1
	@DEBUG_VALUE: SPIM_HYPER_INIT_DLL:u32DllDivCode <- $r10
	@DEBUG_VALUE: SPIM_HYPER_INIT_DLL:u32DelayCycleCount <- 0
	@DEBUG_VALUE: SPIM_HYPER_INIT_DLL:u32DllLockUs <- 20
	@DEBUG_VALUE: SPIM_HYPER_INIT_DLL:u32DllValidUs <- 50
	@DEBUG_VALUE: SPIM_HYPER_INIT_DLL:u32DllClkOnUs <- 20
	@DEBUG_VALUE: SPIM_HYPER_INIT_DLL:u32DllTrimUs <- 20
	@DEBUG_VALUE: SPIM_HYPER_INIT_DLL:u32BusClkHz <- $r8
	@DEBUG_VALUE: SPIM_HYPER_INIT_DLL:i32TimeoutCount <- [DW_OP_plus_uconst 4, DW_OP_deref] $sp
	@DEBUG_VALUE: SPIM_HYPER_INIT_DLL:spim <- $r4
	.loc	4 589 12 is_stmt 1              @ ../../../../Library/StdDriver/src/spim_hyper.c:589:12
	ldr	r0, [r4, #104]
	.loc	4 589 5 is_stmt 0               @ ../../../../Library/StdDriver/src/spim_hyper.c:589:5
	lsls	r0, r0, #30
	bpl	.LBB16_24
.Ltmp563:
@ %bb.17:                               @   in Loop: Header=BB16_16 Depth=1
	@DEBUG_VALUE: SPIM_HYPER_INIT_DLL:u32DllDivCode <- $r10
	@DEBUG_VALUE: SPIM_HYPER_INIT_DLL:u32DelayCycleCount <- 0
	@DEBUG_VALUE: SPIM_HYPER_INIT_DLL:u32DllLockUs <- 20
	@DEBUG_VALUE: SPIM_HYPER_INIT_DLL:u32DllValidUs <- 50
	@DEBUG_VALUE: SPIM_HYPER_INIT_DLL:u32DllClkOnUs <- 20
	@DEBUG_VALUE: SPIM_HYPER_INIT_DLL:u32DllTrimUs <- 20
	@DEBUG_VALUE: SPIM_HYPER_INIT_DLL:u32BusClkHz <- $r8
	@DEBUG_VALUE: SPIM_HYPER_INIT_DLL:i32TimeoutCount <- [DW_OP_plus_uconst 4, DW_OP_deref] $sp
	@DEBUG_VALUE: SPIM_HYPER_INIT_DLL:spim <- $r4
	.loc	4 590 13 is_stmt 1              @ ../../../../Library/StdDriver/src/spim_hyper.c:590:13
	ldr	r0, [sp, #4]
	subs	r3, r0, #1
.Ltmp564:
	.loc	4 590 13 is_stmt 0              @ ../../../../Library/StdDriver/src/spim_hyper.c:590:13
	cmp	r0, #2
.Ltmp565:
	@DEBUG_VALUE: SPIM_HYPER_INIT_DLL:i32TimeoutCount <- [DW_OP_constu 1, DW_OP_minus, DW_OP_stack_value] undef
	.loc	4 590 13                        @ ../../../../Library/StdDriver/src/spim_hyper.c:590:13
	str	r3, [sp, #4]
.Ltmp566:
	.loc	4 590 13                        @ ../../../../Library/StdDriver/src/spim_hyper.c:590:13
	blt	.LBB16_42
.Ltmp567:
@ %bb.18:                               @   in Loop: Header=BB16_16 Depth=1
	@DEBUG_VALUE: SPIM_HYPER_INIT_DLL:u32DllDivCode <- $r10
	@DEBUG_VALUE: SPIM_HYPER_INIT_DLL:u32DelayCycleCount <- 0
	@DEBUG_VALUE: SPIM_HYPER_INIT_DLL:u32DllLockUs <- 20
	@DEBUG_VALUE: SPIM_HYPER_INIT_DLL:u32DllValidUs <- 50
	@DEBUG_VALUE: SPIM_HYPER_INIT_DLL:u32DllClkOnUs <- 20
	@DEBUG_VALUE: SPIM_HYPER_INIT_DLL:u32DllTrimUs <- 20
	@DEBUG_VALUE: SPIM_HYPER_INIT_DLL:u32BusClkHz <- $r8
	@DEBUG_VALUE: SPIM_HYPER_INIT_DLL:spim <- $r4
	.loc	4 589 12 is_stmt 1              @ ../../../../Library/StdDriver/src/spim_hyper.c:589:12
	ldr	r0, [r4, #104]
	.loc	4 589 5 is_stmt 0               @ ../../../../Library/StdDriver/src/spim_hyper.c:589:5
	lsls	r0, r0, #30
	bpl	.LBB16_24
.Ltmp568:
@ %bb.19:                               @   in Loop: Header=BB16_16 Depth=1
	@DEBUG_VALUE: SPIM_HYPER_INIT_DLL:u32DllDivCode <- $r10
	@DEBUG_VALUE: SPIM_HYPER_INIT_DLL:u32DelayCycleCount <- 0
	@DEBUG_VALUE: SPIM_HYPER_INIT_DLL:u32DllLockUs <- 20
	@DEBUG_VALUE: SPIM_HYPER_INIT_DLL:u32DllValidUs <- 50
	@DEBUG_VALUE: SPIM_HYPER_INIT_DLL:u32DllClkOnUs <- 20
	@DEBUG_VALUE: SPIM_HYPER_INIT_DLL:u32DllTrimUs <- 20
	@DEBUG_VALUE: SPIM_HYPER_INIT_DLL:u32BusClkHz <- $r8
	@DEBUG_VALUE: SPIM_HYPER_INIT_DLL:spim <- $r4
	.loc	4 590 13 is_stmt 1              @ ../../../../Library/StdDriver/src/spim_hyper.c:590:13
	ldr	r0, [sp, #4]
	subs	r3, r0, #1
.Ltmp569:
	.loc	4 590 13 is_stmt 0              @ ../../../../Library/StdDriver/src/spim_hyper.c:590:13
	cmp	r0, #2
.Ltmp570:
	@DEBUG_VALUE: SPIM_HYPER_INIT_DLL:i32TimeoutCount <- [DW_OP_constu 1, DW_OP_minus, DW_OP_stack_value] undef
	.loc	4 590 13                        @ ../../../../Library/StdDriver/src/spim_hyper.c:590:13
	str	r3, [sp, #4]
.Ltmp571:
	.loc	4 590 13                        @ ../../../../Library/StdDriver/src/spim_hyper.c:590:13
	blt	.LBB16_42
.Ltmp572:
@ %bb.20:                               @   in Loop: Header=BB16_16 Depth=1
	@DEBUG_VALUE: SPIM_HYPER_INIT_DLL:u32DllDivCode <- $r10
	@DEBUG_VALUE: SPIM_HYPER_INIT_DLL:u32DelayCycleCount <- 0
	@DEBUG_VALUE: SPIM_HYPER_INIT_DLL:u32DllLockUs <- 20
	@DEBUG_VALUE: SPIM_HYPER_INIT_DLL:u32DllValidUs <- 50
	@DEBUG_VALUE: SPIM_HYPER_INIT_DLL:u32DllClkOnUs <- 20
	@DEBUG_VALUE: SPIM_HYPER_INIT_DLL:u32DllTrimUs <- 20
	@DEBUG_VALUE: SPIM_HYPER_INIT_DLL:u32BusClkHz <- $r8
	@DEBUG_VALUE: SPIM_HYPER_INIT_DLL:spim <- $r4
	.loc	4 589 12 is_stmt 1              @ ../../../../Library/StdDriver/src/spim_hyper.c:589:12
	ldr	r0, [r4, #104]
	.loc	4 589 5 is_stmt 0               @ ../../../../Library/StdDriver/src/spim_hyper.c:589:5
	lsls	r0, r0, #30
	bpl	.LBB16_24
.Ltmp573:
@ %bb.21:                               @   in Loop: Header=BB16_16 Depth=1
	@DEBUG_VALUE: SPIM_HYPER_INIT_DLL:u32DllDivCode <- $r10
	@DEBUG_VALUE: SPIM_HYPER_INIT_DLL:u32DelayCycleCount <- 0
	@DEBUG_VALUE: SPIM_HYPER_INIT_DLL:u32DllLockUs <- 20
	@DEBUG_VALUE: SPIM_HYPER_INIT_DLL:u32DllValidUs <- 50
	@DEBUG_VALUE: SPIM_HYPER_INIT_DLL:u32DllClkOnUs <- 20
	@DEBUG_VALUE: SPIM_HYPER_INIT_DLL:u32DllTrimUs <- 20
	@DEBUG_VALUE: SPIM_HYPER_INIT_DLL:u32BusClkHz <- $r8
	@DEBUG_VALUE: SPIM_HYPER_INIT_DLL:spim <- $r4
	.loc	4 590 13 is_stmt 1              @ ../../../../Library/StdDriver/src/spim_hyper.c:590:13
	ldr	r0, [sp, #4]
	subs	r3, r0, #1
.Ltmp574:
	.loc	4 590 13 is_stmt 0              @ ../../../../Library/StdDriver/src/spim_hyper.c:590:13
	cmp	r0, #2
.Ltmp575:
	@DEBUG_VALUE: SPIM_HYPER_INIT_DLL:i32TimeoutCount <- [DW_OP_constu 1, DW_OP_minus, DW_OP_stack_value] undef
	.loc	4 590 13                        @ ../../../../Library/StdDriver/src/spim_hyper.c:590:13
	str	r3, [sp, #4]
.Ltmp576:
	.loc	4 590 13                        @ ../../../../Library/StdDriver/src/spim_hyper.c:590:13
	blt	.LBB16_42
.Ltmp577:
@ %bb.22:                               @   in Loop: Header=BB16_16 Depth=1
	@DEBUG_VALUE: SPIM_HYPER_INIT_DLL:u32DllDivCode <- $r10
	@DEBUG_VALUE: SPIM_HYPER_INIT_DLL:u32DelayCycleCount <- 0
	@DEBUG_VALUE: SPIM_HYPER_INIT_DLL:u32DllLockUs <- 20
	@DEBUG_VALUE: SPIM_HYPER_INIT_DLL:u32DllValidUs <- 50
	@DEBUG_VALUE: SPIM_HYPER_INIT_DLL:u32DllClkOnUs <- 20
	@DEBUG_VALUE: SPIM_HYPER_INIT_DLL:u32DllTrimUs <- 20
	@DEBUG_VALUE: SPIM_HYPER_INIT_DLL:u32BusClkHz <- $r8
	@DEBUG_VALUE: SPIM_HYPER_INIT_DLL:spim <- $r4
	.loc	4 589 12 is_stmt 1              @ ../../../../Library/StdDriver/src/spim_hyper.c:589:12
	ldr	r0, [r4, #104]
	.loc	4 589 5 is_stmt 0               @ ../../../../Library/StdDriver/src/spim_hyper.c:589:5
	lsls	r0, r0, #30
	bpl	.LBB16_24
.Ltmp578:
@ %bb.23:                               @   in Loop: Header=BB16_16 Depth=1
	@DEBUG_VALUE: SPIM_HYPER_INIT_DLL:u32DllDivCode <- $r10
	@DEBUG_VALUE: SPIM_HYPER_INIT_DLL:u32DelayCycleCount <- 0
	@DEBUG_VALUE: SPIM_HYPER_INIT_DLL:u32DllLockUs <- 20
	@DEBUG_VALUE: SPIM_HYPER_INIT_DLL:u32DllValidUs <- 50
	@DEBUG_VALUE: SPIM_HYPER_INIT_DLL:u32DllClkOnUs <- 20
	@DEBUG_VALUE: SPIM_HYPER_INIT_DLL:u32DllTrimUs <- 20
	@DEBUG_VALUE: SPIM_HYPER_INIT_DLL:u32BusClkHz <- $r8
	@DEBUG_VALUE: SPIM_HYPER_INIT_DLL:spim <- $r4
	.loc	4 590 13 is_stmt 1              @ ../../../../Library/StdDriver/src/spim_hyper.c:590:13
	ldr	r0, [sp, #4]
	subs	r3, r0, #1
.Ltmp579:
	.loc	4 590 13 is_stmt 0              @ ../../../../Library/StdDriver/src/spim_hyper.c:590:13
	cmp	r0, #2
.Ltmp580:
	.loc	4 590 13                        @ ../../../../Library/StdDriver/src/spim_hyper.c:590:13
	str	r3, [sp, #4]
.Ltmp581:
	@DEBUG_VALUE: SPIM_HYPER_INIT_DLL:i32TimeoutCount <- [DW_OP_plus_uconst 4, DW_OP_deref] $sp
	.loc	4 590 13                        @ ../../../../Library/StdDriver/src/spim_hyper.c:590:13
	bge	.LBB16_16
	b	.LBB16_42
.Ltmp582:
.LBB16_24:
	@DEBUG_VALUE: SPIM_HYPER_INIT_DLL:u32DllDivCode <- $r10
	@DEBUG_VALUE: SPIM_HYPER_INIT_DLL:u32DelayCycleCount <- 0
	@DEBUG_VALUE: SPIM_HYPER_INIT_DLL:u32DllLockUs <- 20
	@DEBUG_VALUE: SPIM_HYPER_INIT_DLL:u32DllValidUs <- 50
	@DEBUG_VALUE: SPIM_HYPER_INIT_DLL:u32DllClkOnUs <- 20
	@DEBUG_VALUE: SPIM_HYPER_INIT_DLL:u32DllTrimUs <- 20
	@DEBUG_VALUE: SPIM_HYPER_INIT_DLL:u32BusClkHz <- $r8
	@DEBUG_VALUE: SPIM_HYPER_INIT_DLL:spim <- $r4
	.loc	4 593 21 is_stmt 1              @ ../../../../Library/StdDriver/src/spim_hyper.c:593:21
	str	r2, [sp, #4]
.Ltmp583:
	@DEBUG_VALUE: SPIM_HYPER_INIT_DLL:i32TimeoutCount <- [DW_OP_plus_uconst 4, DW_OP_deref] $sp
.LBB16_25:                              @ =>This Inner Loop Header: Depth=1
	@DEBUG_VALUE: SPIM_HYPER_INIT_DLL:u32DllDivCode <- $r10
	@DEBUG_VALUE: SPIM_HYPER_INIT_DLL:u32DelayCycleCount <- 0
	@DEBUG_VALUE: SPIM_HYPER_INIT_DLL:u32DllLockUs <- 20
	@DEBUG_VALUE: SPIM_HYPER_INIT_DLL:u32DllValidUs <- 50
	@DEBUG_VALUE: SPIM_HYPER_INIT_DLL:u32DllClkOnUs <- 20
	@DEBUG_VALUE: SPIM_HYPER_INIT_DLL:u32DllTrimUs <- 20
	@DEBUG_VALUE: SPIM_HYPER_INIT_DLL:u32BusClkHz <- $r8
	@DEBUG_VALUE: SPIM_HYPER_INIT_DLL:i32TimeoutCount <- [DW_OP_plus_uconst 4, DW_OP_deref] $sp
	@DEBUG_VALUE: SPIM_HYPER_INIT_DLL:spim <- $r4
	.loc	4 595 12                        @ ../../../../Library/StdDriver/src/spim_hyper.c:595:12
	ldr	r0, [r4, #104]
	.loc	4 595 5 is_stmt 0               @ ../../../../Library/StdDriver/src/spim_hyper.c:595:5
	lsls	r0, r0, #29
	bmi	.LBB16_33
.Ltmp584:
@ %bb.26:                               @   in Loop: Header=BB16_25 Depth=1
	@DEBUG_VALUE: SPIM_HYPER_INIT_DLL:u32DllDivCode <- $r10
	@DEBUG_VALUE: SPIM_HYPER_INIT_DLL:u32DelayCycleCount <- 0
	@DEBUG_VALUE: SPIM_HYPER_INIT_DLL:u32DllLockUs <- 20
	@DEBUG_VALUE: SPIM_HYPER_INIT_DLL:u32DllValidUs <- 50
	@DEBUG_VALUE: SPIM_HYPER_INIT_DLL:u32DllClkOnUs <- 20
	@DEBUG_VALUE: SPIM_HYPER_INIT_DLL:u32DllTrimUs <- 20
	@DEBUG_VALUE: SPIM_HYPER_INIT_DLL:u32BusClkHz <- $r8
	@DEBUG_VALUE: SPIM_HYPER_INIT_DLL:i32TimeoutCount <- [DW_OP_plus_uconst 4, DW_OP_deref] $sp
	@DEBUG_VALUE: SPIM_HYPER_INIT_DLL:spim <- $r4
	.loc	4 596 13 is_stmt 1              @ ../../../../Library/StdDriver/src/spim_hyper.c:596:13
	ldr	r0, [sp, #4]
	subs	r3, r0, #1
.Ltmp585:
	.loc	4 596 13 is_stmt 0              @ ../../../../Library/StdDriver/src/spim_hyper.c:596:13
	cmp	r0, #2
.Ltmp586:
	@DEBUG_VALUE: SPIM_HYPER_INIT_DLL:i32TimeoutCount <- [DW_OP_constu 1, DW_OP_minus, DW_OP_stack_value] undef
	.loc	4 596 13                        @ ../../../../Library/StdDriver/src/spim_hyper.c:596:13
	str	r3, [sp, #4]
.Ltmp587:
	.loc	4 596 13                        @ ../../../../Library/StdDriver/src/spim_hyper.c:596:13
	blt	.LBB16_42
.Ltmp588:
@ %bb.27:                               @   in Loop: Header=BB16_25 Depth=1
	@DEBUG_VALUE: SPIM_HYPER_INIT_DLL:u32DllDivCode <- $r10
	@DEBUG_VALUE: SPIM_HYPER_INIT_DLL:u32DelayCycleCount <- 0
	@DEBUG_VALUE: SPIM_HYPER_INIT_DLL:u32DllLockUs <- 20
	@DEBUG_VALUE: SPIM_HYPER_INIT_DLL:u32DllValidUs <- 50
	@DEBUG_VALUE: SPIM_HYPER_INIT_DLL:u32DllClkOnUs <- 20
	@DEBUG_VALUE: SPIM_HYPER_INIT_DLL:u32DllTrimUs <- 20
	@DEBUG_VALUE: SPIM_HYPER_INIT_DLL:u32BusClkHz <- $r8
	@DEBUG_VALUE: SPIM_HYPER_INIT_DLL:spim <- $r4
	.loc	4 595 12 is_stmt 1              @ ../../../../Library/StdDriver/src/spim_hyper.c:595:12
	ldr	r0, [r4, #104]
	.loc	4 595 5 is_stmt 0               @ ../../../../Library/StdDriver/src/spim_hyper.c:595:5
	lsls	r0, r0, #29
	bmi	.LBB16_33
.Ltmp589:
@ %bb.28:                               @   in Loop: Header=BB16_25 Depth=1
	@DEBUG_VALUE: SPIM_HYPER_INIT_DLL:u32DllDivCode <- $r10
	@DEBUG_VALUE: SPIM_HYPER_INIT_DLL:u32DelayCycleCount <- 0
	@DEBUG_VALUE: SPIM_HYPER_INIT_DLL:u32DllLockUs <- 20
	@DEBUG_VALUE: SPIM_HYPER_INIT_DLL:u32DllValidUs <- 50
	@DEBUG_VALUE: SPIM_HYPER_INIT_DLL:u32DllClkOnUs <- 20
	@DEBUG_VALUE: SPIM_HYPER_INIT_DLL:u32DllTrimUs <- 20
	@DEBUG_VALUE: SPIM_HYPER_INIT_DLL:u32BusClkHz <- $r8
	@DEBUG_VALUE: SPIM_HYPER_INIT_DLL:spim <- $r4
	.loc	4 596 13 is_stmt 1              @ ../../../../Library/StdDriver/src/spim_hyper.c:596:13
	ldr	r0, [sp, #4]
	subs	r3, r0, #1
.Ltmp590:
	.loc	4 596 13 is_stmt 0              @ ../../../../Library/StdDriver/src/spim_hyper.c:596:13
	cmp	r0, #2
.Ltmp591:
	@DEBUG_VALUE: SPIM_HYPER_INIT_DLL:i32TimeoutCount <- [DW_OP_constu 1, DW_OP_minus, DW_OP_stack_value] undef
	.loc	4 596 13                        @ ../../../../Library/StdDriver/src/spim_hyper.c:596:13
	str	r3, [sp, #4]
.Ltmp592:
	.loc	4 596 13                        @ ../../../../Library/StdDriver/src/spim_hyper.c:596:13
	blt	.LBB16_42
.Ltmp593:
@ %bb.29:                               @   in Loop: Header=BB16_25 Depth=1
	@DEBUG_VALUE: SPIM_HYPER_INIT_DLL:u32DllDivCode <- $r10
	@DEBUG_VALUE: SPIM_HYPER_INIT_DLL:u32DelayCycleCount <- 0
	@DEBUG_VALUE: SPIM_HYPER_INIT_DLL:u32DllLockUs <- 20
	@DEBUG_VALUE: SPIM_HYPER_INIT_DLL:u32DllValidUs <- 50
	@DEBUG_VALUE: SPIM_HYPER_INIT_DLL:u32DllClkOnUs <- 20
	@DEBUG_VALUE: SPIM_HYPER_INIT_DLL:u32DllTrimUs <- 20
	@DEBUG_VALUE: SPIM_HYPER_INIT_DLL:u32BusClkHz <- $r8
	@DEBUG_VALUE: SPIM_HYPER_INIT_DLL:spim <- $r4
	.loc	4 595 12 is_stmt 1              @ ../../../../Library/StdDriver/src/spim_hyper.c:595:12
	ldr	r0, [r4, #104]
	.loc	4 595 5 is_stmt 0               @ ../../../../Library/StdDriver/src/spim_hyper.c:595:5
	lsls	r0, r0, #29
	bmi	.LBB16_33
.Ltmp594:
@ %bb.30:                               @   in Loop: Header=BB16_25 Depth=1
	@DEBUG_VALUE: SPIM_HYPER_INIT_DLL:u32DllDivCode <- $r10
	@DEBUG_VALUE: SPIM_HYPER_INIT_DLL:u32DelayCycleCount <- 0
	@DEBUG_VALUE: SPIM_HYPER_INIT_DLL:u32DllLockUs <- 20
	@DEBUG_VALUE: SPIM_HYPER_INIT_DLL:u32DllValidUs <- 50
	@DEBUG_VALUE: SPIM_HYPER_INIT_DLL:u32DllClkOnUs <- 20
	@DEBUG_VALUE: SPIM_HYPER_INIT_DLL:u32DllTrimUs <- 20
	@DEBUG_VALUE: SPIM_HYPER_INIT_DLL:u32BusClkHz <- $r8
	@DEBUG_VALUE: SPIM_HYPER_INIT_DLL:spim <- $r4
	.loc	4 596 13 is_stmt 1              @ ../../../../Library/StdDriver/src/spim_hyper.c:596:13
	ldr	r0, [sp, #4]
	subs	r3, r0, #1
.Ltmp595:
	.loc	4 596 13 is_stmt 0              @ ../../../../Library/StdDriver/src/spim_hyper.c:596:13
	cmp	r0, #2
.Ltmp596:
	@DEBUG_VALUE: SPIM_HYPER_INIT_DLL:i32TimeoutCount <- [DW_OP_constu 1, DW_OP_minus, DW_OP_stack_value] undef
	.loc	4 596 13                        @ ../../../../Library/StdDriver/src/spim_hyper.c:596:13
	str	r3, [sp, #4]
.Ltmp597:
	.loc	4 596 13                        @ ../../../../Library/StdDriver/src/spim_hyper.c:596:13
	blt	.LBB16_42
.Ltmp598:
@ %bb.31:                               @   in Loop: Header=BB16_25 Depth=1
	@DEBUG_VALUE: SPIM_HYPER_INIT_DLL:u32DllDivCode <- $r10
	@DEBUG_VALUE: SPIM_HYPER_INIT_DLL:u32DelayCycleCount <- 0
	@DEBUG_VALUE: SPIM_HYPER_INIT_DLL:u32DllLockUs <- 20
	@DEBUG_VALUE: SPIM_HYPER_INIT_DLL:u32DllValidUs <- 50
	@DEBUG_VALUE: SPIM_HYPER_INIT_DLL:u32DllClkOnUs <- 20
	@DEBUG_VALUE: SPIM_HYPER_INIT_DLL:u32DllTrimUs <- 20
	@DEBUG_VALUE: SPIM_HYPER_INIT_DLL:u32BusClkHz <- $r8
	@DEBUG_VALUE: SPIM_HYPER_INIT_DLL:spim <- $r4
	.loc	4 595 12 is_stmt 1              @ ../../../../Library/StdDriver/src/spim_hyper.c:595:12
	ldr	r0, [r4, #104]
	.loc	4 595 5 is_stmt 0               @ ../../../../Library/StdDriver/src/spim_hyper.c:595:5
	lsls	r0, r0, #29
	bmi	.LBB16_33
.Ltmp599:
@ %bb.32:                               @   in Loop: Header=BB16_25 Depth=1
	@DEBUG_VALUE: SPIM_HYPER_INIT_DLL:u32DllDivCode <- $r10
	@DEBUG_VALUE: SPIM_HYPER_INIT_DLL:u32DelayCycleCount <- 0
	@DEBUG_VALUE: SPIM_HYPER_INIT_DLL:u32DllLockUs <- 20
	@DEBUG_VALUE: SPIM_HYPER_INIT_DLL:u32DllValidUs <- 50
	@DEBUG_VALUE: SPIM_HYPER_INIT_DLL:u32DllClkOnUs <- 20
	@DEBUG_VALUE: SPIM_HYPER_INIT_DLL:u32DllTrimUs <- 20
	@DEBUG_VALUE: SPIM_HYPER_INIT_DLL:u32BusClkHz <- $r8
	@DEBUG_VALUE: SPIM_HYPER_INIT_DLL:spim <- $r4
	.loc	4 596 13 is_stmt 1              @ ../../../../Library/StdDriver/src/spim_hyper.c:596:13
	ldr	r0, [sp, #4]
	subs	r3, r0, #1
.Ltmp600:
	.loc	4 596 13 is_stmt 0              @ ../../../../Library/StdDriver/src/spim_hyper.c:596:13
	cmp	r0, #2
.Ltmp601:
	.loc	4 596 13                        @ ../../../../Library/StdDriver/src/spim_hyper.c:596:13
	str	r3, [sp, #4]
.Ltmp602:
	@DEBUG_VALUE: SPIM_HYPER_INIT_DLL:i32TimeoutCount <- [DW_OP_plus_uconst 4, DW_OP_deref] $sp
	.loc	4 0 13                          @ ../../../../Library/StdDriver/src/spim_hyper.c:0:13
	bge	.LBB16_25
	b	.LBB16_42
.Ltmp603:
.LBB16_33:
	@DEBUG_VALUE: SPIM_HYPER_INIT_DLL:u32DllDivCode <- $r10
	@DEBUG_VALUE: SPIM_HYPER_INIT_DLL:u32DelayCycleCount <- 0
	@DEBUG_VALUE: SPIM_HYPER_INIT_DLL:u32DllLockUs <- 20
	@DEBUG_VALUE: SPIM_HYPER_INIT_DLL:u32DllValidUs <- 50
	@DEBUG_VALUE: SPIM_HYPER_INIT_DLL:u32DllClkOnUs <- 20
	@DEBUG_VALUE: SPIM_HYPER_INIT_DLL:u32DllTrimUs <- 20
	@DEBUG_VALUE: SPIM_HYPER_INIT_DLL:u32BusClkHz <- $r8
	@DEBUG_VALUE: SPIM_HYPER_INIT_DLL:spim <- $r4
	.loc	4 599 21 is_stmt 1              @ ../../../../Library/StdDriver/src/spim_hyper.c:599:21
	str	r2, [sp, #4]
.Ltmp604:
	@DEBUG_VALUE: SPIM_HYPER_INIT_DLL:i32TimeoutCount <- [DW_OP_plus_uconst 4, DW_OP_deref] $sp
.LBB16_34:                              @ =>This Inner Loop Header: Depth=1
	@DEBUG_VALUE: SPIM_HYPER_INIT_DLL:u32DllDivCode <- $r10
	@DEBUG_VALUE: SPIM_HYPER_INIT_DLL:u32DelayCycleCount <- 0
	@DEBUG_VALUE: SPIM_HYPER_INIT_DLL:u32DllLockUs <- 20
	@DEBUG_VALUE: SPIM_HYPER_INIT_DLL:u32DllValidUs <- 50
	@DEBUG_VALUE: SPIM_HYPER_INIT_DLL:u32DllClkOnUs <- 20
	@DEBUG_VALUE: SPIM_HYPER_INIT_DLL:u32DllTrimUs <- 20
	@DEBUG_VALUE: SPIM_HYPER_INIT_DLL:u32BusClkHz <- $r8
	@DEBUG_VALUE: SPIM_HYPER_INIT_DLL:i32TimeoutCount <- [DW_OP_plus_uconst 4, DW_OP_deref] $sp
	@DEBUG_VALUE: SPIM_HYPER_INIT_DLL:spim <- $r4
	.loc	4 601 12                        @ ../../../../Library/StdDriver/src/spim_hyper.c:601:12
	ldr	r0, [r4, #104]
	.loc	4 601 5 is_stmt 0               @ ../../../../Library/StdDriver/src/spim_hyper.c:601:5
	lsls	r0, r0, #28
	bmi	.LBB16_43
.Ltmp605:
@ %bb.35:                               @   in Loop: Header=BB16_34 Depth=1
	@DEBUG_VALUE: SPIM_HYPER_INIT_DLL:u32DllDivCode <- $r10
	@DEBUG_VALUE: SPIM_HYPER_INIT_DLL:u32DelayCycleCount <- 0
	@DEBUG_VALUE: SPIM_HYPER_INIT_DLL:u32DllLockUs <- 20
	@DEBUG_VALUE: SPIM_HYPER_INIT_DLL:u32DllValidUs <- 50
	@DEBUG_VALUE: SPIM_HYPER_INIT_DLL:u32DllClkOnUs <- 20
	@DEBUG_VALUE: SPIM_HYPER_INIT_DLL:u32DllTrimUs <- 20
	@DEBUG_VALUE: SPIM_HYPER_INIT_DLL:u32BusClkHz <- $r8
	@DEBUG_VALUE: SPIM_HYPER_INIT_DLL:i32TimeoutCount <- [DW_OP_plus_uconst 4, DW_OP_deref] $sp
	@DEBUG_VALUE: SPIM_HYPER_INIT_DLL:spim <- $r4
	.loc	4 602 13 is_stmt 1              @ ../../../../Library/StdDriver/src/spim_hyper.c:602:13
	ldr	r0, [sp, #4]
	subs	r3, r0, #1
.Ltmp606:
	.loc	4 602 13 is_stmt 0              @ ../../../../Library/StdDriver/src/spim_hyper.c:602:13
	cmp	r0, #2
.Ltmp607:
	@DEBUG_VALUE: SPIM_HYPER_INIT_DLL:i32TimeoutCount <- [DW_OP_constu 1, DW_OP_minus, DW_OP_stack_value] undef
	.loc	4 602 13                        @ ../../../../Library/StdDriver/src/spim_hyper.c:602:13
	str	r3, [sp, #4]
.Ltmp608:
	.loc	4 602 13                        @ ../../../../Library/StdDriver/src/spim_hyper.c:602:13
	blt	.LBB16_42
.Ltmp609:
@ %bb.36:                               @   in Loop: Header=BB16_34 Depth=1
	@DEBUG_VALUE: SPIM_HYPER_INIT_DLL:u32DllDivCode <- $r10
	@DEBUG_VALUE: SPIM_HYPER_INIT_DLL:u32DelayCycleCount <- 0
	@DEBUG_VALUE: SPIM_HYPER_INIT_DLL:u32DllLockUs <- 20
	@DEBUG_VALUE: SPIM_HYPER_INIT_DLL:u32DllValidUs <- 50
	@DEBUG_VALUE: SPIM_HYPER_INIT_DLL:u32DllClkOnUs <- 20
	@DEBUG_VALUE: SPIM_HYPER_INIT_DLL:u32DllTrimUs <- 20
	@DEBUG_VALUE: SPIM_HYPER_INIT_DLL:u32BusClkHz <- $r8
	@DEBUG_VALUE: SPIM_HYPER_INIT_DLL:spim <- $r4
	.loc	4 601 12 is_stmt 1              @ ../../../../Library/StdDriver/src/spim_hyper.c:601:12
	ldr	r0, [r4, #104]
	.loc	4 601 5 is_stmt 0               @ ../../../../Library/StdDriver/src/spim_hyper.c:601:5
	lsls	r0, r0, #28
	bmi	.LBB16_43
.Ltmp610:
@ %bb.37:                               @   in Loop: Header=BB16_34 Depth=1
	@DEBUG_VALUE: SPIM_HYPER_INIT_DLL:u32DllDivCode <- $r10
	@DEBUG_VALUE: SPIM_HYPER_INIT_DLL:u32DelayCycleCount <- 0
	@DEBUG_VALUE: SPIM_HYPER_INIT_DLL:u32DllLockUs <- 20
	@DEBUG_VALUE: SPIM_HYPER_INIT_DLL:u32DllValidUs <- 50
	@DEBUG_VALUE: SPIM_HYPER_INIT_DLL:u32DllClkOnUs <- 20
	@DEBUG_VALUE: SPIM_HYPER_INIT_DLL:u32DllTrimUs <- 20
	@DEBUG_VALUE: SPIM_HYPER_INIT_DLL:u32BusClkHz <- $r8
	@DEBUG_VALUE: SPIM_HYPER_INIT_DLL:spim <- $r4
	.loc	4 602 13 is_stmt 1              @ ../../../../Library/StdDriver/src/spim_hyper.c:602:13
	ldr	r0, [sp, #4]
	subs	r3, r0, #1
.Ltmp611:
	.loc	4 602 13 is_stmt 0              @ ../../../../Library/StdDriver/src/spim_hyper.c:602:13
	cmp	r0, #2
.Ltmp612:
	@DEBUG_VALUE: SPIM_HYPER_INIT_DLL:i32TimeoutCount <- [DW_OP_constu 1, DW_OP_minus, DW_OP_stack_value] undef
	.loc	4 602 13                        @ ../../../../Library/StdDriver/src/spim_hyper.c:602:13
	str	r3, [sp, #4]
.Ltmp613:
	.loc	4 602 13                        @ ../../../../Library/StdDriver/src/spim_hyper.c:602:13
	blt	.LBB16_42
.Ltmp614:
@ %bb.38:                               @   in Loop: Header=BB16_34 Depth=1
	@DEBUG_VALUE: SPIM_HYPER_INIT_DLL:u32DllDivCode <- $r10
	@DEBUG_VALUE: SPIM_HYPER_INIT_DLL:u32DelayCycleCount <- 0
	@DEBUG_VALUE: SPIM_HYPER_INIT_DLL:u32DllLockUs <- 20
	@DEBUG_VALUE: SPIM_HYPER_INIT_DLL:u32DllValidUs <- 50
	@DEBUG_VALUE: SPIM_HYPER_INIT_DLL:u32DllClkOnUs <- 20
	@DEBUG_VALUE: SPIM_HYPER_INIT_DLL:u32DllTrimUs <- 20
	@DEBUG_VALUE: SPIM_HYPER_INIT_DLL:u32BusClkHz <- $r8
	@DEBUG_VALUE: SPIM_HYPER_INIT_DLL:spim <- $r4
	.loc	4 601 12 is_stmt 1              @ ../../../../Library/StdDriver/src/spim_hyper.c:601:12
	ldr	r0, [r4, #104]
	.loc	4 601 5 is_stmt 0               @ ../../../../Library/StdDriver/src/spim_hyper.c:601:5
	lsls	r0, r0, #28
	bmi	.LBB16_43
.Ltmp615:
@ %bb.39:                               @   in Loop: Header=BB16_34 Depth=1
	@DEBUG_VALUE: SPIM_HYPER_INIT_DLL:u32DllDivCode <- $r10
	@DEBUG_VALUE: SPIM_HYPER_INIT_DLL:u32DelayCycleCount <- 0
	@DEBUG_VALUE: SPIM_HYPER_INIT_DLL:u32DllLockUs <- 20
	@DEBUG_VALUE: SPIM_HYPER_INIT_DLL:u32DllValidUs <- 50
	@DEBUG_VALUE: SPIM_HYPER_INIT_DLL:u32DllClkOnUs <- 20
	@DEBUG_VALUE: SPIM_HYPER_INIT_DLL:u32DllTrimUs <- 20
	@DEBUG_VALUE: SPIM_HYPER_INIT_DLL:u32BusClkHz <- $r8
	@DEBUG_VALUE: SPIM_HYPER_INIT_DLL:spim <- $r4
	.loc	4 602 13 is_stmt 1              @ ../../../../Library/StdDriver/src/spim_hyper.c:602:13
	ldr	r0, [sp, #4]
	subs	r3, r0, #1
.Ltmp616:
	.loc	4 602 13 is_stmt 0              @ ../../../../Library/StdDriver/src/spim_hyper.c:602:13
	cmp	r0, #2
.Ltmp617:
	@DEBUG_VALUE: SPIM_HYPER_INIT_DLL:i32TimeoutCount <- [DW_OP_constu 1, DW_OP_minus, DW_OP_stack_value] undef
	.loc	4 602 13                        @ ../../../../Library/StdDriver/src/spim_hyper.c:602:13
	str	r3, [sp, #4]
.Ltmp618:
	.loc	4 602 13                        @ ../../../../Library/StdDriver/src/spim_hyper.c:602:13
	blt	.LBB16_42
.Ltmp619:
@ %bb.40:                               @   in Loop: Header=BB16_34 Depth=1
	@DEBUG_VALUE: SPIM_HYPER_INIT_DLL:u32DllDivCode <- $r10
	@DEBUG_VALUE: SPIM_HYPER_INIT_DLL:u32DelayCycleCount <- 0
	@DEBUG_VALUE: SPIM_HYPER_INIT_DLL:u32DllLockUs <- 20
	@DEBUG_VALUE: SPIM_HYPER_INIT_DLL:u32DllValidUs <- 50
	@DEBUG_VALUE: SPIM_HYPER_INIT_DLL:u32DllClkOnUs <- 20
	@DEBUG_VALUE: SPIM_HYPER_INIT_DLL:u32DllTrimUs <- 20
	@DEBUG_VALUE: SPIM_HYPER_INIT_DLL:u32BusClkHz <- $r8
	@DEBUG_VALUE: SPIM_HYPER_INIT_DLL:spim <- $r4
	.loc	4 601 12 is_stmt 1              @ ../../../../Library/StdDriver/src/spim_hyper.c:601:12
	ldr	r0, [r4, #104]
	.loc	4 601 5 is_stmt 0               @ ../../../../Library/StdDriver/src/spim_hyper.c:601:5
	lsls	r0, r0, #28
	bmi	.LBB16_43
.Ltmp620:
@ %bb.41:                               @   in Loop: Header=BB16_34 Depth=1
	@DEBUG_VALUE: SPIM_HYPER_INIT_DLL:u32DllDivCode <- $r10
	@DEBUG_VALUE: SPIM_HYPER_INIT_DLL:u32DelayCycleCount <- 0
	@DEBUG_VALUE: SPIM_HYPER_INIT_DLL:u32DllLockUs <- 20
	@DEBUG_VALUE: SPIM_HYPER_INIT_DLL:u32DllValidUs <- 50
	@DEBUG_VALUE: SPIM_HYPER_INIT_DLL:u32DllClkOnUs <- 20
	@DEBUG_VALUE: SPIM_HYPER_INIT_DLL:u32DllTrimUs <- 20
	@DEBUG_VALUE: SPIM_HYPER_INIT_DLL:u32BusClkHz <- $r8
	@DEBUG_VALUE: SPIM_HYPER_INIT_DLL:spim <- $r4
	.loc	4 602 13 is_stmt 1              @ ../../../../Library/StdDriver/src/spim_hyper.c:602:13
	ldr	r0, [sp, #4]
	subs	r3, r0, #1
.Ltmp621:
	.loc	4 602 13 is_stmt 0              @ ../../../../Library/StdDriver/src/spim_hyper.c:602:13
	cmp	r0, #2
.Ltmp622:
	.loc	4 602 13                        @ ../../../../Library/StdDriver/src/spim_hyper.c:602:13
	str	r3, [sp, #4]
.Ltmp623:
	@DEBUG_VALUE: SPIM_HYPER_INIT_DLL:i32TimeoutCount <- [DW_OP_plus_uconst 4, DW_OP_deref] $sp
	.loc	4 602 13                        @ ../../../../Library/StdDriver/src/spim_hyper.c:602:13
	bge	.LBB16_34
.Ltmp624:
.LBB16_42:
	@DEBUG_VALUE: SPIM_HYPER_INIT_DLL:u32DllDivCode <- $r10
	@DEBUG_VALUE: SPIM_HYPER_INIT_DLL:u32DelayCycleCount <- 0
	@DEBUG_VALUE: SPIM_HYPER_INIT_DLL:u32DllLockUs <- 20
	@DEBUG_VALUE: SPIM_HYPER_INIT_DLL:u32DllValidUs <- 50
	@DEBUG_VALUE: SPIM_HYPER_INIT_DLL:u32DllClkOnUs <- 20
	@DEBUG_VALUE: SPIM_HYPER_INIT_DLL:u32DllTrimUs <- 20
	@DEBUG_VALUE: SPIM_HYPER_INIT_DLL:u32BusClkHz <- $r8
	@DEBUG_VALUE: SPIM_HYPER_INIT_DLL:spim <- $r4
	.loc	4 0 13                          @ ../../../../Library/StdDriver/src/spim_hyper.c:0:13
	mvn	r0, #1
	.loc	4 629 1 epilogue_begin is_stmt 1 @ ../../../../Library/StdDriver/src/spim_hyper.c:629:1
	add	sp, #8
	pop.w	{r4, r5, r6, r7, r8, r9, r10, pc}
.Ltmp625:
.LBB16_43:
	@DEBUG_VALUE: SPIM_HYPER_INIT_DLL:u32DllDivCode <- $r10
	@DEBUG_VALUE: SPIM_HYPER_INIT_DLL:u32DelayCycleCount <- 0
	@DEBUG_VALUE: SPIM_HYPER_INIT_DLL:u32DllLockUs <- 20
	@DEBUG_VALUE: SPIM_HYPER_INIT_DLL:u32DllValidUs <- 50
	@DEBUG_VALUE: SPIM_HYPER_INIT_DLL:u32DllClkOnUs <- 20
	@DEBUG_VALUE: SPIM_HYPER_INIT_DLL:u32DllTrimUs <- 20
	@DEBUG_VALUE: SPIM_HYPER_INIT_DLL:u32BusClkHz <- $r8
	@DEBUG_VALUE: SPIM_HYPER_INIT_DLL:spim <- $r4
	.loc	4 605 21                        @ ../../../../Library/StdDriver/src/spim_hyper.c:605:21
	str	r2, [sp, #4]
.Ltmp626:
	@DEBUG_VALUE: SPIM_HYPER_INIT_DLL:i32TimeoutCount <- [DW_OP_plus_uconst 4, DW_OP_deref] $sp
.LBB16_44:                              @ =>This Inner Loop Header: Depth=1
	@DEBUG_VALUE: SPIM_HYPER_INIT_DLL:u32DllDivCode <- $r10
	@DEBUG_VALUE: SPIM_HYPER_INIT_DLL:u32DelayCycleCount <- 0
	@DEBUG_VALUE: SPIM_HYPER_INIT_DLL:u32DllLockUs <- 20
	@DEBUG_VALUE: SPIM_HYPER_INIT_DLL:u32DllValidUs <- 50
	@DEBUG_VALUE: SPIM_HYPER_INIT_DLL:u32DllClkOnUs <- 20
	@DEBUG_VALUE: SPIM_HYPER_INIT_DLL:u32DllTrimUs <- 20
	@DEBUG_VALUE: SPIM_HYPER_INIT_DLL:u32BusClkHz <- $r8
	@DEBUG_VALUE: SPIM_HYPER_INIT_DLL:i32TimeoutCount <- [DW_OP_plus_uconst 4, DW_OP_deref] $sp
	@DEBUG_VALUE: SPIM_HYPER_INIT_DLL:spim <- $r4
	.loc	4 607 12                        @ ../../../../Library/StdDriver/src/spim_hyper.c:607:12
	ldr	r0, [r4, #104]
	.loc	4 607 5 is_stmt 0               @ ../../../../Library/StdDriver/src/spim_hyper.c:607:5
	lsls	r0, r0, #27
	bmi	.LBB16_52
.Ltmp627:
@ %bb.45:                               @   in Loop: Header=BB16_44 Depth=1
	@DEBUG_VALUE: SPIM_HYPER_INIT_DLL:u32DllDivCode <- $r10
	@DEBUG_VALUE: SPIM_HYPER_INIT_DLL:u32DelayCycleCount <- 0
	@DEBUG_VALUE: SPIM_HYPER_INIT_DLL:u32DllLockUs <- 20
	@DEBUG_VALUE: SPIM_HYPER_INIT_DLL:u32DllValidUs <- 50
	@DEBUG_VALUE: SPIM_HYPER_INIT_DLL:u32DllClkOnUs <- 20
	@DEBUG_VALUE: SPIM_HYPER_INIT_DLL:u32DllTrimUs <- 20
	@DEBUG_VALUE: SPIM_HYPER_INIT_DLL:u32BusClkHz <- $r8
	@DEBUG_VALUE: SPIM_HYPER_INIT_DLL:i32TimeoutCount <- [DW_OP_plus_uconst 4, DW_OP_deref] $sp
	@DEBUG_VALUE: SPIM_HYPER_INIT_DLL:spim <- $r4
	.loc	4 608 13 is_stmt 1              @ ../../../../Library/StdDriver/src/spim_hyper.c:608:13
	ldr	r0, [sp, #4]
	subs	r3, r0, #1
.Ltmp628:
	.loc	4 608 13 is_stmt 0              @ ../../../../Library/StdDriver/src/spim_hyper.c:608:13
	cmp	r0, #2
.Ltmp629:
	@DEBUG_VALUE: SPIM_HYPER_INIT_DLL:i32TimeoutCount <- [DW_OP_constu 1, DW_OP_minus, DW_OP_stack_value] undef
	.loc	4 608 13                        @ ../../../../Library/StdDriver/src/spim_hyper.c:608:13
	str	r3, [sp, #4]
.Ltmp630:
	.loc	4 608 13                        @ ../../../../Library/StdDriver/src/spim_hyper.c:608:13
	blt	.LBB16_42
.Ltmp631:
@ %bb.46:                               @   in Loop: Header=BB16_44 Depth=1
	@DEBUG_VALUE: SPIM_HYPER_INIT_DLL:u32DllDivCode <- $r10
	@DEBUG_VALUE: SPIM_HYPER_INIT_DLL:u32DelayCycleCount <- 0
	@DEBUG_VALUE: SPIM_HYPER_INIT_DLL:u32DllLockUs <- 20
	@DEBUG_VALUE: SPIM_HYPER_INIT_DLL:u32DllValidUs <- 50
	@DEBUG_VALUE: SPIM_HYPER_INIT_DLL:u32DllClkOnUs <- 20
	@DEBUG_VALUE: SPIM_HYPER_INIT_DLL:u32DllTrimUs <- 20
	@DEBUG_VALUE: SPIM_HYPER_INIT_DLL:u32BusClkHz <- $r8
	@DEBUG_VALUE: SPIM_HYPER_INIT_DLL:spim <- $r4
	.loc	4 607 12 is_stmt 1              @ ../../../../Library/StdDriver/src/spim_hyper.c:607:12
	ldr	r0, [r4, #104]
	.loc	4 607 5 is_stmt 0               @ ../../../../Library/StdDriver/src/spim_hyper.c:607:5
	lsls	r0, r0, #27
	bmi	.LBB16_52
.Ltmp632:
@ %bb.47:                               @   in Loop: Header=BB16_44 Depth=1
	@DEBUG_VALUE: SPIM_HYPER_INIT_DLL:u32DllDivCode <- $r10
	@DEBUG_VALUE: SPIM_HYPER_INIT_DLL:u32DelayCycleCount <- 0
	@DEBUG_VALUE: SPIM_HYPER_INIT_DLL:u32DllLockUs <- 20
	@DEBUG_VALUE: SPIM_HYPER_INIT_DLL:u32DllValidUs <- 50
	@DEBUG_VALUE: SPIM_HYPER_INIT_DLL:u32DllClkOnUs <- 20
	@DEBUG_VALUE: SPIM_HYPER_INIT_DLL:u32DllTrimUs <- 20
	@DEBUG_VALUE: SPIM_HYPER_INIT_DLL:u32BusClkHz <- $r8
	@DEBUG_VALUE: SPIM_HYPER_INIT_DLL:spim <- $r4
	.loc	4 608 13 is_stmt 1              @ ../../../../Library/StdDriver/src/spim_hyper.c:608:13
	ldr	r0, [sp, #4]
	subs	r3, r0, #1
.Ltmp633:
	.loc	4 608 13 is_stmt 0              @ ../../../../Library/StdDriver/src/spim_hyper.c:608:13
	cmp	r0, #2
.Ltmp634:
	@DEBUG_VALUE: SPIM_HYPER_INIT_DLL:i32TimeoutCount <- [DW_OP_constu 1, DW_OP_minus, DW_OP_stack_value] undef
	.loc	4 608 13                        @ ../../../../Library/StdDriver/src/spim_hyper.c:608:13
	str	r3, [sp, #4]
.Ltmp635:
	.loc	4 608 13                        @ ../../../../Library/StdDriver/src/spim_hyper.c:608:13
	blt	.LBB16_42
.Ltmp636:
@ %bb.48:                               @   in Loop: Header=BB16_44 Depth=1
	@DEBUG_VALUE: SPIM_HYPER_INIT_DLL:u32DllDivCode <- $r10
	@DEBUG_VALUE: SPIM_HYPER_INIT_DLL:u32DelayCycleCount <- 0
	@DEBUG_VALUE: SPIM_HYPER_INIT_DLL:u32DllLockUs <- 20
	@DEBUG_VALUE: SPIM_HYPER_INIT_DLL:u32DllValidUs <- 50
	@DEBUG_VALUE: SPIM_HYPER_INIT_DLL:u32DllClkOnUs <- 20
	@DEBUG_VALUE: SPIM_HYPER_INIT_DLL:u32DllTrimUs <- 20
	@DEBUG_VALUE: SPIM_HYPER_INIT_DLL:u32BusClkHz <- $r8
	@DEBUG_VALUE: SPIM_HYPER_INIT_DLL:spim <- $r4
	.loc	4 607 12 is_stmt 1              @ ../../../../Library/StdDriver/src/spim_hyper.c:607:12
	ldr	r0, [r4, #104]
	.loc	4 607 5 is_stmt 0               @ ../../../../Library/StdDriver/src/spim_hyper.c:607:5
	lsls	r0, r0, #27
	bmi	.LBB16_52
.Ltmp637:
@ %bb.49:                               @   in Loop: Header=BB16_44 Depth=1
	@DEBUG_VALUE: SPIM_HYPER_INIT_DLL:u32DllDivCode <- $r10
	@DEBUG_VALUE: SPIM_HYPER_INIT_DLL:u32DelayCycleCount <- 0
	@DEBUG_VALUE: SPIM_HYPER_INIT_DLL:u32DllLockUs <- 20
	@DEBUG_VALUE: SPIM_HYPER_INIT_DLL:u32DllValidUs <- 50
	@DEBUG_VALUE: SPIM_HYPER_INIT_DLL:u32DllClkOnUs <- 20
	@DEBUG_VALUE: SPIM_HYPER_INIT_DLL:u32DllTrimUs <- 20
	@DEBUG_VALUE: SPIM_HYPER_INIT_DLL:u32BusClkHz <- $r8
	@DEBUG_VALUE: SPIM_HYPER_INIT_DLL:spim <- $r4
	.loc	4 608 13 is_stmt 1              @ ../../../../Library/StdDriver/src/spim_hyper.c:608:13
	ldr	r0, [sp, #4]
	subs	r3, r0, #1
.Ltmp638:
	.loc	4 608 13 is_stmt 0              @ ../../../../Library/StdDriver/src/spim_hyper.c:608:13
	cmp	r0, #2
.Ltmp639:
	@DEBUG_VALUE: SPIM_HYPER_INIT_DLL:i32TimeoutCount <- [DW_OP_constu 1, DW_OP_minus, DW_OP_stack_value] undef
	.loc	4 608 13                        @ ../../../../Library/StdDriver/src/spim_hyper.c:608:13
	str	r3, [sp, #4]
.Ltmp640:
	.loc	4 608 13                        @ ../../../../Library/StdDriver/src/spim_hyper.c:608:13
	blt	.LBB16_42
.Ltmp641:
@ %bb.50:                               @   in Loop: Header=BB16_44 Depth=1
	@DEBUG_VALUE: SPIM_HYPER_INIT_DLL:u32DllDivCode <- $r10
	@DEBUG_VALUE: SPIM_HYPER_INIT_DLL:u32DelayCycleCount <- 0
	@DEBUG_VALUE: SPIM_HYPER_INIT_DLL:u32DllLockUs <- 20
	@DEBUG_VALUE: SPIM_HYPER_INIT_DLL:u32DllValidUs <- 50
	@DEBUG_VALUE: SPIM_HYPER_INIT_DLL:u32DllClkOnUs <- 20
	@DEBUG_VALUE: SPIM_HYPER_INIT_DLL:u32DllTrimUs <- 20
	@DEBUG_VALUE: SPIM_HYPER_INIT_DLL:u32BusClkHz <- $r8
	@DEBUG_VALUE: SPIM_HYPER_INIT_DLL:spim <- $r4
	.loc	4 607 12 is_stmt 1              @ ../../../../Library/StdDriver/src/spim_hyper.c:607:12
	ldr	r0, [r4, #104]
	.loc	4 607 5 is_stmt 0               @ ../../../../Library/StdDriver/src/spim_hyper.c:607:5
	lsls	r0, r0, #27
	bmi	.LBB16_52
.Ltmp642:
@ %bb.51:                               @   in Loop: Header=BB16_44 Depth=1
	@DEBUG_VALUE: SPIM_HYPER_INIT_DLL:u32DllDivCode <- $r10
	@DEBUG_VALUE: SPIM_HYPER_INIT_DLL:u32DelayCycleCount <- 0
	@DEBUG_VALUE: SPIM_HYPER_INIT_DLL:u32DllLockUs <- 20
	@DEBUG_VALUE: SPIM_HYPER_INIT_DLL:u32DllValidUs <- 50
	@DEBUG_VALUE: SPIM_HYPER_INIT_DLL:u32DllClkOnUs <- 20
	@DEBUG_VALUE: SPIM_HYPER_INIT_DLL:u32DllTrimUs <- 20
	@DEBUG_VALUE: SPIM_HYPER_INIT_DLL:u32BusClkHz <- $r8
	@DEBUG_VALUE: SPIM_HYPER_INIT_DLL:spim <- $r4
	.loc	4 608 13 is_stmt 1              @ ../../../../Library/StdDriver/src/spim_hyper.c:608:13
	ldr	r0, [sp, #4]
	subs	r3, r0, #1
.Ltmp643:
	.loc	4 608 13 is_stmt 0              @ ../../../../Library/StdDriver/src/spim_hyper.c:608:13
	cmp	r0, #2
	mvn	r0, #1
.Ltmp644:
	@DEBUG_VALUE: SPIM_HYPER_INIT_DLL:i32TimeoutCount <- [DW_OP_plus_uconst 4, DW_OP_deref] $sp
	.loc	4 608 13                        @ ../../../../Library/StdDriver/src/spim_hyper.c:608:13
	str	r3, [sp, #4]
.Ltmp645:
	.loc	4 608 13                        @ ../../../../Library/StdDriver/src/spim_hyper.c:608:13
	bge	.LBB16_44
	b	.LBB16_68
.Ltmp646:
.LBB16_52:
	@DEBUG_VALUE: SPIM_HYPER_INIT_DLL:u32DllDivCode <- $r10
	@DEBUG_VALUE: SPIM_HYPER_INIT_DLL:u32DelayCycleCount <- 0
	@DEBUG_VALUE: SPIM_HYPER_INIT_DLL:u32DllLockUs <- 20
	@DEBUG_VALUE: SPIM_HYPER_INIT_DLL:u32DllValidUs <- 50
	@DEBUG_VALUE: SPIM_HYPER_INIT_DLL:u32DllClkOnUs <- 20
	@DEBUG_VALUE: SPIM_HYPER_INIT_DLL:u32DllTrimUs <- 20
	@DEBUG_VALUE: SPIM_HYPER_INIT_DLL:u32BusClkHz <- $r8
	@DEBUG_VALUE: SPIM_HYPER_INIT_DLL:spim <- $r4
	.loc	4 612 21 is_stmt 1              @ ../../../../Library/StdDriver/src/spim_hyper.c:612:21
	str	r2, [sp, #4]
.Ltmp647:
	@DEBUG_VALUE: SPIM_HYPER_INIT_DLL:i32TimeoutCount <- [DW_OP_plus_uconst 4, DW_OP_deref] $sp
.LBB16_53:                              @ =>This Inner Loop Header: Depth=1
	@DEBUG_VALUE: SPIM_HYPER_INIT_DLL:u32DllDivCode <- $r10
	@DEBUG_VALUE: SPIM_HYPER_INIT_DLL:u32DelayCycleCount <- 0
	@DEBUG_VALUE: SPIM_HYPER_INIT_DLL:u32DllLockUs <- 20
	@DEBUG_VALUE: SPIM_HYPER_INIT_DLL:u32DllValidUs <- 50
	@DEBUG_VALUE: SPIM_HYPER_INIT_DLL:u32DllClkOnUs <- 20
	@DEBUG_VALUE: SPIM_HYPER_INIT_DLL:u32DllTrimUs <- 20
	@DEBUG_VALUE: SPIM_HYPER_INIT_DLL:u32BusClkHz <- $r8
	@DEBUG_VALUE: SPIM_HYPER_INIT_DLL:i32TimeoutCount <- [DW_OP_plus_uconst 4, DW_OP_deref] $sp
	@DEBUG_VALUE: SPIM_HYPER_INIT_DLL:spim <- $r4
	.loc	4 614 12                        @ ../../../../Library/StdDriver/src/spim_hyper.c:614:12
	ldr	r0, [r4, #104]
	.loc	4 614 5 is_stmt 0               @ ../../../../Library/StdDriver/src/spim_hyper.c:614:5
	lsls	r0, r0, #25
	bmi	.LBB16_61
.Ltmp648:
@ %bb.54:                               @   in Loop: Header=BB16_53 Depth=1
	@DEBUG_VALUE: SPIM_HYPER_INIT_DLL:u32DllDivCode <- $r10
	@DEBUG_VALUE: SPIM_HYPER_INIT_DLL:u32DelayCycleCount <- 0
	@DEBUG_VALUE: SPIM_HYPER_INIT_DLL:u32DllLockUs <- 20
	@DEBUG_VALUE: SPIM_HYPER_INIT_DLL:u32DllValidUs <- 50
	@DEBUG_VALUE: SPIM_HYPER_INIT_DLL:u32DllClkOnUs <- 20
	@DEBUG_VALUE: SPIM_HYPER_INIT_DLL:u32DllTrimUs <- 20
	@DEBUG_VALUE: SPIM_HYPER_INIT_DLL:u32BusClkHz <- $r8
	@DEBUG_VALUE: SPIM_HYPER_INIT_DLL:i32TimeoutCount <- [DW_OP_plus_uconst 4, DW_OP_deref] $sp
	@DEBUG_VALUE: SPIM_HYPER_INIT_DLL:spim <- $r4
	.loc	4 615 13 is_stmt 1              @ ../../../../Library/StdDriver/src/spim_hyper.c:615:13
	ldr	r0, [sp, #4]
	subs	r2, r0, #1
.Ltmp649:
	.loc	4 615 13 is_stmt 0              @ ../../../../Library/StdDriver/src/spim_hyper.c:615:13
	cmp	r0, #2
.Ltmp650:
	@DEBUG_VALUE: SPIM_HYPER_INIT_DLL:i32TimeoutCount <- [DW_OP_constu 1, DW_OP_minus, DW_OP_stack_value] undef
	.loc	4 615 13                        @ ../../../../Library/StdDriver/src/spim_hyper.c:615:13
	str	r2, [sp, #4]
.Ltmp651:
	.loc	4 615 13                        @ ../../../../Library/StdDriver/src/spim_hyper.c:615:13
	blt	.LBB16_42
.Ltmp652:
@ %bb.55:                               @   in Loop: Header=BB16_53 Depth=1
	@DEBUG_VALUE: SPIM_HYPER_INIT_DLL:u32DllDivCode <- $r10
	@DEBUG_VALUE: SPIM_HYPER_INIT_DLL:u32DelayCycleCount <- 0
	@DEBUG_VALUE: SPIM_HYPER_INIT_DLL:u32DllLockUs <- 20
	@DEBUG_VALUE: SPIM_HYPER_INIT_DLL:u32DllValidUs <- 50
	@DEBUG_VALUE: SPIM_HYPER_INIT_DLL:u32DllClkOnUs <- 20
	@DEBUG_VALUE: SPIM_HYPER_INIT_DLL:u32DllTrimUs <- 20
	@DEBUG_VALUE: SPIM_HYPER_INIT_DLL:u32BusClkHz <- $r8
	@DEBUG_VALUE: SPIM_HYPER_INIT_DLL:spim <- $r4
	.loc	4 614 12 is_stmt 1              @ ../../../../Library/StdDriver/src/spim_hyper.c:614:12
	ldr	r0, [r4, #104]
	.loc	4 614 5 is_stmt 0               @ ../../../../Library/StdDriver/src/spim_hyper.c:614:5
	lsls	r0, r0, #25
	bmi	.LBB16_61
.Ltmp653:
@ %bb.56:                               @   in Loop: Header=BB16_53 Depth=1
	@DEBUG_VALUE: SPIM_HYPER_INIT_DLL:u32DllDivCode <- $r10
	@DEBUG_VALUE: SPIM_HYPER_INIT_DLL:u32DelayCycleCount <- 0
	@DEBUG_VALUE: SPIM_HYPER_INIT_DLL:u32DllLockUs <- 20
	@DEBUG_VALUE: SPIM_HYPER_INIT_DLL:u32DllValidUs <- 50
	@DEBUG_VALUE: SPIM_HYPER_INIT_DLL:u32DllClkOnUs <- 20
	@DEBUG_VALUE: SPIM_HYPER_INIT_DLL:u32DllTrimUs <- 20
	@DEBUG_VALUE: SPIM_HYPER_INIT_DLL:u32BusClkHz <- $r8
	@DEBUG_VALUE: SPIM_HYPER_INIT_DLL:spim <- $r4
	.loc	4 615 13 is_stmt 1              @ ../../../../Library/StdDriver/src/spim_hyper.c:615:13
	ldr	r0, [sp, #4]
	subs	r2, r0, #1
.Ltmp654:
	.loc	4 615 13 is_stmt 0              @ ../../../../Library/StdDriver/src/spim_hyper.c:615:13
	cmp	r0, #2
.Ltmp655:
	@DEBUG_VALUE: SPIM_HYPER_INIT_DLL:i32TimeoutCount <- [DW_OP_constu 1, DW_OP_minus, DW_OP_stack_value] undef
	.loc	4 615 13                        @ ../../../../Library/StdDriver/src/spim_hyper.c:615:13
	str	r2, [sp, #4]
.Ltmp656:
	.loc	4 615 13                        @ ../../../../Library/StdDriver/src/spim_hyper.c:615:13
	blt	.LBB16_42
.Ltmp657:
@ %bb.57:                               @   in Loop: Header=BB16_53 Depth=1
	@DEBUG_VALUE: SPIM_HYPER_INIT_DLL:u32DllDivCode <- $r10
	@DEBUG_VALUE: SPIM_HYPER_INIT_DLL:u32DelayCycleCount <- 0
	@DEBUG_VALUE: SPIM_HYPER_INIT_DLL:u32DllLockUs <- 20
	@DEBUG_VALUE: SPIM_HYPER_INIT_DLL:u32DllValidUs <- 50
	@DEBUG_VALUE: SPIM_HYPER_INIT_DLL:u32DllClkOnUs <- 20
	@DEBUG_VALUE: SPIM_HYPER_INIT_DLL:u32DllTrimUs <- 20
	@DEBUG_VALUE: SPIM_HYPER_INIT_DLL:u32BusClkHz <- $r8
	@DEBUG_VALUE: SPIM_HYPER_INIT_DLL:spim <- $r4
	.loc	4 614 12 is_stmt 1              @ ../../../../Library/StdDriver/src/spim_hyper.c:614:12
	ldr	r0, [r4, #104]
	.loc	4 614 5 is_stmt 0               @ ../../../../Library/StdDriver/src/spim_hyper.c:614:5
	lsls	r0, r0, #25
	bmi	.LBB16_61
.Ltmp658:
@ %bb.58:                               @   in Loop: Header=BB16_53 Depth=1
	@DEBUG_VALUE: SPIM_HYPER_INIT_DLL:u32DllDivCode <- $r10
	@DEBUG_VALUE: SPIM_HYPER_INIT_DLL:u32DelayCycleCount <- 0
	@DEBUG_VALUE: SPIM_HYPER_INIT_DLL:u32DllLockUs <- 20
	@DEBUG_VALUE: SPIM_HYPER_INIT_DLL:u32DllValidUs <- 50
	@DEBUG_VALUE: SPIM_HYPER_INIT_DLL:u32DllClkOnUs <- 20
	@DEBUG_VALUE: SPIM_HYPER_INIT_DLL:u32DllTrimUs <- 20
	@DEBUG_VALUE: SPIM_HYPER_INIT_DLL:u32BusClkHz <- $r8
	@DEBUG_VALUE: SPIM_HYPER_INIT_DLL:spim <- $r4
	.loc	4 615 13 is_stmt 1              @ ../../../../Library/StdDriver/src/spim_hyper.c:615:13
	ldr	r0, [sp, #4]
	subs	r2, r0, #1
.Ltmp659:
	.loc	4 615 13 is_stmt 0              @ ../../../../Library/StdDriver/src/spim_hyper.c:615:13
	cmp	r0, #2
.Ltmp660:
	@DEBUG_VALUE: SPIM_HYPER_INIT_DLL:i32TimeoutCount <- [DW_OP_constu 1, DW_OP_minus, DW_OP_stack_value] undef
	.loc	4 615 13                        @ ../../../../Library/StdDriver/src/spim_hyper.c:615:13
	str	r2, [sp, #4]
.Ltmp661:
	.loc	4 615 13                        @ ../../../../Library/StdDriver/src/spim_hyper.c:615:13
	blt	.LBB16_42
.Ltmp662:
@ %bb.59:                               @   in Loop: Header=BB16_53 Depth=1
	@DEBUG_VALUE: SPIM_HYPER_INIT_DLL:u32DllDivCode <- $r10
	@DEBUG_VALUE: SPIM_HYPER_INIT_DLL:u32DelayCycleCount <- 0
	@DEBUG_VALUE: SPIM_HYPER_INIT_DLL:u32DllLockUs <- 20
	@DEBUG_VALUE: SPIM_HYPER_INIT_DLL:u32DllValidUs <- 50
	@DEBUG_VALUE: SPIM_HYPER_INIT_DLL:u32DllClkOnUs <- 20
	@DEBUG_VALUE: SPIM_HYPER_INIT_DLL:u32DllTrimUs <- 20
	@DEBUG_VALUE: SPIM_HYPER_INIT_DLL:u32BusClkHz <- $r8
	@DEBUG_VALUE: SPIM_HYPER_INIT_DLL:spim <- $r4
	.loc	4 614 12 is_stmt 1              @ ../../../../Library/StdDriver/src/spim_hyper.c:614:12
	ldr	r0, [r4, #104]
	.loc	4 614 5 is_stmt 0               @ ../../../../Library/StdDriver/src/spim_hyper.c:614:5
	lsls	r0, r0, #25
	bmi	.LBB16_61
.Ltmp663:
@ %bb.60:                               @   in Loop: Header=BB16_53 Depth=1
	@DEBUG_VALUE: SPIM_HYPER_INIT_DLL:u32DllDivCode <- $r10
	@DEBUG_VALUE: SPIM_HYPER_INIT_DLL:u32DelayCycleCount <- 0
	@DEBUG_VALUE: SPIM_HYPER_INIT_DLL:u32DllLockUs <- 20
	@DEBUG_VALUE: SPIM_HYPER_INIT_DLL:u32DllValidUs <- 50
	@DEBUG_VALUE: SPIM_HYPER_INIT_DLL:u32DllClkOnUs <- 20
	@DEBUG_VALUE: SPIM_HYPER_INIT_DLL:u32DllTrimUs <- 20
	@DEBUG_VALUE: SPIM_HYPER_INIT_DLL:u32BusClkHz <- $r8
	@DEBUG_VALUE: SPIM_HYPER_INIT_DLL:spim <- $r4
	.loc	4 615 13 is_stmt 1              @ ../../../../Library/StdDriver/src/spim_hyper.c:615:13
	ldr	r0, [sp, #4]
	subs	r2, r0, #1
.Ltmp664:
	.loc	4 615 13 is_stmt 0              @ ../../../../Library/StdDriver/src/spim_hyper.c:615:13
	cmp	r0, #2
	mvn	r0, #1
.Ltmp665:
	@DEBUG_VALUE: SPIM_HYPER_INIT_DLL:i32TimeoutCount <- [DW_OP_plus_uconst 4, DW_OP_deref] $sp
	.loc	4 615 13                        @ ../../../../Library/StdDriver/src/spim_hyper.c:615:13
	str	r2, [sp, #4]
.Ltmp666:
	.loc	4 615 13                        @ ../../../../Library/StdDriver/src/spim_hyper.c:615:13
	bge	.LBB16_53
	b	.LBB16_68
.Ltmp667:
.LBB16_61:
	@DEBUG_VALUE: SPIM_HYPER_INIT_DLL:u32DllDivCode <- $r10
	@DEBUG_VALUE: SPIM_HYPER_INIT_DLL:u32DelayCycleCount <- 0
	@DEBUG_VALUE: SPIM_HYPER_INIT_DLL:u32DllLockUs <- 20
	@DEBUG_VALUE: SPIM_HYPER_INIT_DLL:u32DllValidUs <- 50
	@DEBUG_VALUE: SPIM_HYPER_INIT_DLL:u32DllClkOnUs <- 20
	@DEBUG_VALUE: SPIM_HYPER_INIT_DLL:u32DllTrimUs <- 20
	@DEBUG_VALUE: SPIM_HYPER_INIT_DLL:u32BusClkHz <- $r8
	@DEBUG_VALUE: SPIM_HYPER_INIT_DLL:spim <- $r4
	.loc	4 0 13                          @ ../../../../Library/StdDriver/src/spim_hyper.c:0:13
	movw	r0, #19923
	movt	r0, #4194
	.loc	4 617 49 is_stmt 1              @ ../../../../Library/StdDriver/src/spim_hyper.c:617:49
	umull	r0, r2, r8, r0
	lsrs	r0, r2, #6
	movs	r2, #0
	.loc	4 617 57 is_stmt 0              @ ../../../../Library/StdDriver/src/spim_hyper.c:617:57
	add.w	r0, r0, r0, lsl #1
.Ltmp668:
	@DEBUG_VALUE: SPIM_HYPER_INIT_DLL:u32DelayCycleCount <- $r0
.LBB16_62:                              @ =>This Inner Loop Header: Depth=1
	@DEBUG_VALUE: SPIM_HYPER_INIT_DLL:u32DelayCycleCount <- $r0
	@DEBUG_VALUE: SPIM_HYPER_INIT_DLL:u32DllDivCode <- $r10
	@DEBUG_VALUE: SPIM_HYPER_INIT_DLL:u32DllLockUs <- 20
	@DEBUG_VALUE: SPIM_HYPER_INIT_DLL:u32DllValidUs <- 50
	@DEBUG_VALUE: SPIM_HYPER_INIT_DLL:u32DllClkOnUs <- 20
	@DEBUG_VALUE: SPIM_HYPER_INIT_DLL:u32DllTrimUs <- 20
	@DEBUG_VALUE: SPIM_HYPER_INIT_DLL:u32BusClkHz <- $r8
	@DEBUG_VALUE: SPIM_HYPER_INIT_DLL:spim <- $r4
	.loc	4 619 0 is_stmt 1               @ ../../../../Library/StdDriver/src/spim_hyper.c:619:0
	str	r2, [sp, #4]
.Ltmp669:
	@DEBUG_VALUE: SPIM_HYPER_INIT_DLL:i32TimeoutCount <- [DW_OP_plus_uconst 4, DW_OP_deref] $sp
	.loc	4 619 31 is_stmt 0              @ ../../../../Library/StdDriver/src/spim_hyper.c:619:31
	ldr	r2, [sp, #4]
.Ltmp670:
	.loc	4 619 5                         @ ../../../../Library/StdDriver/src/spim_hyper.c:619:5
	cmp	r2, r0
	bge	.LBB16_67
.Ltmp671:
@ %bb.63:                               @   in Loop: Header=BB16_62 Depth=1
	@DEBUG_VALUE: SPIM_HYPER_INIT_DLL:u32DelayCycleCount <- $r0
	@DEBUG_VALUE: SPIM_HYPER_INIT_DLL:u32DllDivCode <- $r10
	@DEBUG_VALUE: SPIM_HYPER_INIT_DLL:u32DllLockUs <- 20
	@DEBUG_VALUE: SPIM_HYPER_INIT_DLL:u32DllValidUs <- 50
	@DEBUG_VALUE: SPIM_HYPER_INIT_DLL:u32DllClkOnUs <- 20
	@DEBUG_VALUE: SPIM_HYPER_INIT_DLL:u32DllTrimUs <- 20
	@DEBUG_VALUE: SPIM_HYPER_INIT_DLL:u32BusClkHz <- $r8
	@DEBUG_VALUE: SPIM_HYPER_INIT_DLL:i32TimeoutCount <- [DW_OP_plus_uconst 4, DW_OP_deref] $sp
	@DEBUG_VALUE: SPIM_HYPER_INIT_DLL:spim <- $r4
	.loc	4 620 9 is_stmt 1               @ ../../../../Library/StdDriver/src/spim_hyper.c:620:9
	nop
	.loc	4 619 93                        @ ../../../../Library/StdDriver/src/spim_hyper.c:619:93
	ldr	r2, [sp, #4]
	adds	r2, #1
	str	r2, [sp, #4]
	.loc	4 619 31 is_stmt 0              @ ../../../../Library/StdDriver/src/spim_hyper.c:619:31
	ldr	r2, [sp, #4]
.Ltmp672:
	.loc	4 619 5                         @ ../../../../Library/StdDriver/src/spim_hyper.c:619:5
	cmp	r2, r0
.Ltmp673:
	@DEBUG_VALUE: SPIM_HYPER_INIT_DLL:i32TimeoutCount <- [DW_OP_plus_uconst 1, DW_OP_stack_value] undef
	bge	.LBB16_67
.Ltmp674:
@ %bb.64:                               @   in Loop: Header=BB16_62 Depth=1
	@DEBUG_VALUE: SPIM_HYPER_INIT_DLL:u32DelayCycleCount <- $r0
	@DEBUG_VALUE: SPIM_HYPER_INIT_DLL:u32DllDivCode <- $r10
	@DEBUG_VALUE: SPIM_HYPER_INIT_DLL:u32DllLockUs <- 20
	@DEBUG_VALUE: SPIM_HYPER_INIT_DLL:u32DllValidUs <- 50
	@DEBUG_VALUE: SPIM_HYPER_INIT_DLL:u32DllClkOnUs <- 20
	@DEBUG_VALUE: SPIM_HYPER_INIT_DLL:u32DllTrimUs <- 20
	@DEBUG_VALUE: SPIM_HYPER_INIT_DLL:u32BusClkHz <- $r8
	@DEBUG_VALUE: SPIM_HYPER_INIT_DLL:spim <- $r4
	.loc	4 620 9 is_stmt 1               @ ../../../../Library/StdDriver/src/spim_hyper.c:620:9
	nop
	.loc	4 619 93                        @ ../../../../Library/StdDriver/src/spim_hyper.c:619:93
	ldr	r2, [sp, #4]
	adds	r2, #1
	str	r2, [sp, #4]
	.loc	4 619 31 is_stmt 0              @ ../../../../Library/StdDriver/src/spim_hyper.c:619:31
	ldr	r2, [sp, #4]
.Ltmp675:
	.loc	4 619 5                         @ ../../../../Library/StdDriver/src/spim_hyper.c:619:5
	cmp	r2, r0
.Ltmp676:
	@DEBUG_VALUE: SPIM_HYPER_INIT_DLL:i32TimeoutCount <- [DW_OP_plus_uconst 1, DW_OP_stack_value] undef
	bge	.LBB16_67
.Ltmp677:
@ %bb.65:                               @   in Loop: Header=BB16_62 Depth=1
	@DEBUG_VALUE: SPIM_HYPER_INIT_DLL:u32DelayCycleCount <- $r0
	@DEBUG_VALUE: SPIM_HYPER_INIT_DLL:u32DllDivCode <- $r10
	@DEBUG_VALUE: SPIM_HYPER_INIT_DLL:u32DllLockUs <- 20
	@DEBUG_VALUE: SPIM_HYPER_INIT_DLL:u32DllValidUs <- 50
	@DEBUG_VALUE: SPIM_HYPER_INIT_DLL:u32DllClkOnUs <- 20
	@DEBUG_VALUE: SPIM_HYPER_INIT_DLL:u32DllTrimUs <- 20
	@DEBUG_VALUE: SPIM_HYPER_INIT_DLL:u32BusClkHz <- $r8
	@DEBUG_VALUE: SPIM_HYPER_INIT_DLL:spim <- $r4
	.loc	4 620 9 is_stmt 1               @ ../../../../Library/StdDriver/src/spim_hyper.c:620:9
	nop
	.loc	4 619 93                        @ ../../../../Library/StdDriver/src/spim_hyper.c:619:93
	ldr	r2, [sp, #4]
	adds	r2, #1
	str	r2, [sp, #4]
	.loc	4 619 31 is_stmt 0              @ ../../../../Library/StdDriver/src/spim_hyper.c:619:31
	ldr	r2, [sp, #4]
.Ltmp678:
	.loc	4 619 5                         @ ../../../../Library/StdDriver/src/spim_hyper.c:619:5
	cmp	r2, r0
.Ltmp679:
	@DEBUG_VALUE: SPIM_HYPER_INIT_DLL:i32TimeoutCount <- [DW_OP_plus_uconst 1, DW_OP_stack_value] undef
	bge	.LBB16_67
.Ltmp680:
@ %bb.66:                               @   in Loop: Header=BB16_62 Depth=1
	@DEBUG_VALUE: SPIM_HYPER_INIT_DLL:u32DelayCycleCount <- $r0
	@DEBUG_VALUE: SPIM_HYPER_INIT_DLL:u32DllDivCode <- $r10
	@DEBUG_VALUE: SPIM_HYPER_INIT_DLL:u32DllLockUs <- 20
	@DEBUG_VALUE: SPIM_HYPER_INIT_DLL:u32DllValidUs <- 50
	@DEBUG_VALUE: SPIM_HYPER_INIT_DLL:u32DllClkOnUs <- 20
	@DEBUG_VALUE: SPIM_HYPER_INIT_DLL:u32DllTrimUs <- 20
	@DEBUG_VALUE: SPIM_HYPER_INIT_DLL:u32BusClkHz <- $r8
	@DEBUG_VALUE: SPIM_HYPER_INIT_DLL:spim <- $r4
	.loc	4 620 9 is_stmt 1               @ ../../../../Library/StdDriver/src/spim_hyper.c:620:9
	nop
	.loc	4 619 93                        @ ../../../../Library/StdDriver/src/spim_hyper.c:619:93
	ldr	r2, [sp, #4]
	adds	r2, #1
	b	.LBB16_62
.Ltmp681:
.LBB16_67:
	@DEBUG_VALUE: SPIM_HYPER_INIT_DLL:u32DelayCycleCount <- $r0
	@DEBUG_VALUE: SPIM_HYPER_INIT_DLL:u32DllDivCode <- $r10
	@DEBUG_VALUE: SPIM_HYPER_INIT_DLL:u32DllLockUs <- 20
	@DEBUG_VALUE: SPIM_HYPER_INIT_DLL:u32DllValidUs <- 50
	@DEBUG_VALUE: SPIM_HYPER_INIT_DLL:u32DllClkOnUs <- 20
	@DEBUG_VALUE: SPIM_HYPER_INIT_DLL:u32DllTrimUs <- 20
	@DEBUG_VALUE: SPIM_HYPER_INIT_DLL:u32BusClkHz <- $r8
	@DEBUG_VALUE: SPIM_HYPER_INIT_DLL:spim <- $r4
	.loc	4 622 5                         @ ../../../../Library/StdDriver/src/spim_hyper.c:622:5
	ldr.w	r0, [lr]
.Ltmp682:
	.loc	4 626 9                         @ ../../../../Library/StdDriver/src/spim_hyper.c:626:9
	cmp.w	r12, #0
.Ltmp683:
	.loc	4 622 5                         @ ../../../../Library/StdDriver/src/spim_hyper.c:622:5
	orr	r0, r0, #512
.Ltmp684:
	@DEBUG_VALUE: u32Value <- $r0
	str.w	r0, [lr]
.Ltmp685:
	.loc	4 623 5                         @ ../../../../Library/StdDriver/src/spim_hyper.c:623:5
	ldr	r0, [r4, #104]
.Ltmp686:
	bic	r0, r0, #262144
	str	r0, [r4, #104]
	mov.w	r0, #0
.Ltmp687:
	.loc	7 4278 18                       @ ../../../../Library/StdDriver/inc\sys.h:4278:18
	it	eq
	streq	r0, [r1]
.Ltmp688:
.LBB16_68:
	@DEBUG_VALUE: SPIM_HYPER_INIT_DLL:u32DllDivCode <- $r10
	@DEBUG_VALUE: SPIM_HYPER_INIT_DLL:u32DllLockUs <- 20
	@DEBUG_VALUE: SPIM_HYPER_INIT_DLL:u32DllValidUs <- 50
	@DEBUG_VALUE: SPIM_HYPER_INIT_DLL:u32DllClkOnUs <- 20
	@DEBUG_VALUE: SPIM_HYPER_INIT_DLL:u32DllTrimUs <- 20
	@DEBUG_VALUE: SPIM_HYPER_INIT_DLL:u32BusClkHz <- $r8
	@DEBUG_VALUE: SPIM_HYPER_INIT_DLL:spim <- $r4
	.loc	4 629 1 epilogue_begin          @ ../../../../Library/StdDriver/src/spim_hyper.c:629:1
	add	sp, #8
	pop.w	{r4, r5, r6, r7, r8, r9, r10, pc}
.Ltmp689:
.Lfunc_end16:
	.size	SPIM_HYPER_INIT_DLL, .Lfunc_end16-SPIM_HYPER_INIT_DLL
	.cfi_endproc
	.cantunwind
	.fnend
                                        @ -- End function
	.section	.text.SPIM_HYPER_SetDLLDelayNum,"ax",%progbits
	.hidden	SPIM_HYPER_SetDLLDelayNum       @ -- Begin function SPIM_HYPER_SetDLLDelayNum
	.globl	SPIM_HYPER_SetDLLDelayNum
	.p2align	2
	.type	SPIM_HYPER_SetDLLDelayNum,%function
	.code	16                              @ @SPIM_HYPER_SetDLLDelayNum
	.thumb_func
SPIM_HYPER_SetDLLDelayNum:
.Lfunc_begin17:
	.loc	4 642 0                         @ ../../../../Library/StdDriver/src/spim_hyper.c:642:0
	.fnstart
	.cfi_startproc
@ %bb.0:
	@DEBUG_VALUE: SPIM_HYPER_SetDLLDelayNum:spim <- $r0
	@DEBUG_VALUE: SPIM_HYPER_SetDLLDelayNum:u32DelayNum <- $r1
	.save	{r4, r5, r6, lr}
	push	{r4, r5, r6, lr}
	.cfi_def_cfa_offset 16
	.cfi_offset lr, -4
	.cfi_offset r6, -8
	.cfi_offset r5, -12
	.cfi_offset r4, -16
	.pad	#8
	sub	sp, #8
	.cfi_def_cfa_offset 24
.Ltmp690:
	.loc	4 643 45 prologue_end           @ ../../../../Library/StdDriver/src/spim_hyper.c:643:45
	movw	r4, :lower16:SystemCoreClock
	movt	r4, :upper16:SystemCoreClock
	ldr	r2, [r4]
.Ltmp691:
	@DEBUG_VALUE: SPIM_HYPER_SetDLLDelayNum:i32TimeoutCount <- [DW_OP_plus_uconst 4, DW_OP_deref] $sp
	.loc	4 643 18 is_stmt 0              @ ../../../../Library/StdDriver/src/spim_hyper.c:643:18
	str	r2, [sp, #4]
.Ltmp692:
	.loc	4 645 9 is_stmt 1               @ ../../../../Library/StdDriver/src/spim_hyper.c:645:9
	ldr	r3, [r0, #104]
.Ltmp693:
	.loc	4 645 9 is_stmt 0               @ ../../../../Library/StdDriver/src/spim_hyper.c:645:9
	lsls	r3, r3, #31
	bne	.LBB17_3
.Ltmp694:
@ %bb.1:
	@DEBUG_VALUE: SPIM_HYPER_SetDLLDelayNum:i32TimeoutCount <- [DW_OP_plus_uconst 4, DW_OP_deref] $sp
	@DEBUG_VALUE: SPIM_HYPER_SetDLLDelayNum:u32DelayNum <- $r1
	@DEBUG_VALUE: SPIM_HYPER_SetDLLDelayNum:spim <- $r0
	.loc	4 0 9                           @ ../../../../Library/StdDriver/src/spim_hyper.c:0:9
	mov	r5, r1
.Ltmp695:
	@DEBUG_VALUE: SPIM_HYPER_SetDLLDelayNum:u32DelayNum <- $r5
	mov	r6, r0
.Ltmp696:
	.loc	4 647 13 is_stmt 1              @ ../../../../Library/StdDriver/src/spim_hyper.c:647:13
	bl	SPIM_HYPER_INIT_DLL
.Ltmp697:
	@DEBUG_VALUE: SPIM_HYPER_SetDLLDelayNum:spim <- [DW_OP_LLVM_entry_value 1] $r0
	.loc	4 647 13 is_stmt 0              @ ../../../../Library/StdDriver/src/spim_hyper.c:647:13
	cmp	r0, #0
	ittt	ne
	movne.w	r0, #-1
.Ltmp698:
	.loc	4 671 1 epilogue_begin is_stmt 1 @ ../../../../Library/StdDriver/src/spim_hyper.c:671:1
	addne	sp, #8
	popne	{r4, r5, r6, pc}
.Ltmp699:
.LBB17_2:
	@DEBUG_VALUE: SPIM_HYPER_SetDLLDelayNum:spim <- [DW_OP_LLVM_entry_value 1] $r0
	.loc	4 653 32                        @ ../../../../Library/StdDriver/src/spim_hyper.c:653:32
	ldr	r2, [r4]
	mov	r0, r6
	mov	r1, r5
.Ltmp700:
.LBB17_3:
	.loc	4 653 21 is_stmt 0              @ ../../../../Library/StdDriver/src/spim_hyper.c:653:21
	str	r2, [sp, #4]
.Ltmp701:
	@DEBUG_VALUE: SPIM_HYPER_SetDLLDelayNum:i32TimeoutCount <- [DW_OP_plus_uconst 4, DW_OP_deref] $sp
.LBB17_4:                               @ =>This Inner Loop Header: Depth=1
	@DEBUG_VALUE: SPIM_HYPER_SetDLLDelayNum:i32TimeoutCount <- [DW_OP_plus_uconst 4, DW_OP_deref] $sp
	.loc	4 657 12 is_stmt 1              @ ../../../../Library/StdDriver/src/spim_hyper.c:657:12
	ldr	r3, [r0, #104]
	.loc	4 657 5 is_stmt 0               @ ../../../../Library/StdDriver/src/spim_hyper.c:657:5
	lsls	r3, r3, #26
	bpl	.LBB17_12
.Ltmp702:
@ %bb.5:                                @   in Loop: Header=BB17_4 Depth=1
	@DEBUG_VALUE: SPIM_HYPER_SetDLLDelayNum:i32TimeoutCount <- [DW_OP_plus_uconst 4, DW_OP_deref] $sp
	.loc	4 658 13 is_stmt 1              @ ../../../../Library/StdDriver/src/spim_hyper.c:658:13
	ldr	r3, [sp, #4]
	subs	r6, r3, #1
.Ltmp703:
	.loc	4 658 13 is_stmt 0              @ ../../../../Library/StdDriver/src/spim_hyper.c:658:13
	cmp	r3, #2
.Ltmp704:
	@DEBUG_VALUE: SPIM_HYPER_SetDLLDelayNum:i32TimeoutCount <- [DW_OP_constu 1, DW_OP_minus, DW_OP_stack_value] undef
	.loc	4 658 13                        @ ../../../../Library/StdDriver/src/spim_hyper.c:658:13
	str	r6, [sp, #4]
.Ltmp705:
	.loc	4 658 13                        @ ../../../../Library/StdDriver/src/spim_hyper.c:658:13
	blt	.LBB17_21
.Ltmp706:
@ %bb.6:                                @   in Loop: Header=BB17_4 Depth=1
	.loc	4 657 12 is_stmt 1              @ ../../../../Library/StdDriver/src/spim_hyper.c:657:12
	ldr	r3, [r0, #104]
	.loc	4 657 5 is_stmt 0               @ ../../../../Library/StdDriver/src/spim_hyper.c:657:5
	lsls	r3, r3, #26
	bpl	.LBB17_12
@ %bb.7:                                @   in Loop: Header=BB17_4 Depth=1
.Ltmp707:
	.loc	4 658 13 is_stmt 1              @ ../../../../Library/StdDriver/src/spim_hyper.c:658:13
	ldr	r3, [sp, #4]
	subs	r6, r3, #1
.Ltmp708:
	.loc	4 658 13 is_stmt 0              @ ../../../../Library/StdDriver/src/spim_hyper.c:658:13
	cmp	r3, #2
.Ltmp709:
	@DEBUG_VALUE: SPIM_HYPER_SetDLLDelayNum:i32TimeoutCount <- [DW_OP_constu 1, DW_OP_minus, DW_OP_stack_value] undef
	.loc	4 658 13                        @ ../../../../Library/StdDriver/src/spim_hyper.c:658:13
	str	r6, [sp, #4]
.Ltmp710:
	.loc	4 658 13                        @ ../../../../Library/StdDriver/src/spim_hyper.c:658:13
	blt	.LBB17_21
.Ltmp711:
@ %bb.8:                                @   in Loop: Header=BB17_4 Depth=1
	.loc	4 657 12 is_stmt 1              @ ../../../../Library/StdDriver/src/spim_hyper.c:657:12
	ldr	r3, [r0, #104]
	.loc	4 657 5 is_stmt 0               @ ../../../../Library/StdDriver/src/spim_hyper.c:657:5
	lsls	r3, r3, #26
	bpl	.LBB17_12
@ %bb.9:                                @   in Loop: Header=BB17_4 Depth=1
.Ltmp712:
	.loc	4 658 13 is_stmt 1              @ ../../../../Library/StdDriver/src/spim_hyper.c:658:13
	ldr	r3, [sp, #4]
	subs	r6, r3, #1
.Ltmp713:
	.loc	4 658 13 is_stmt 0              @ ../../../../Library/StdDriver/src/spim_hyper.c:658:13
	cmp	r3, #2
.Ltmp714:
	@DEBUG_VALUE: SPIM_HYPER_SetDLLDelayNum:i32TimeoutCount <- [DW_OP_constu 1, DW_OP_minus, DW_OP_stack_value] undef
	.loc	4 658 13                        @ ../../../../Library/StdDriver/src/spim_hyper.c:658:13
	str	r6, [sp, #4]
.Ltmp715:
	.loc	4 658 13                        @ ../../../../Library/StdDriver/src/spim_hyper.c:658:13
	blt	.LBB17_21
.Ltmp716:
@ %bb.10:                               @   in Loop: Header=BB17_4 Depth=1
	.loc	4 657 12 is_stmt 1              @ ../../../../Library/StdDriver/src/spim_hyper.c:657:12
	ldr	r3, [r0, #104]
	.loc	4 657 5 is_stmt 0               @ ../../../../Library/StdDriver/src/spim_hyper.c:657:5
	lsls	r3, r3, #26
	bpl	.LBB17_12
@ %bb.11:                               @   in Loop: Header=BB17_4 Depth=1
.Ltmp717:
	.loc	4 658 13 is_stmt 1              @ ../../../../Library/StdDriver/src/spim_hyper.c:658:13
	ldr	r3, [sp, #4]
