	.text
	.syntax unified
	.eabi_attribute	67, "2.09"	@ Tag_conformance
	.cpu	cortex-m55
	.eabi_attribute	6, 21	@ Tag_CPU_arch
	.eabi_attribute	7, 77	@ Tag_CPU_arch_profile
	.eabi_attribute	8, 0	@ Tag_ARM_ISA_use
	.eabi_attribute	9, 3	@ Tag_THUMB_ISA_use
	.fpu	fpv5-d16
	.arch_extension	mve.fp
	.eabi_attribute	36, 1	@ Tag_FP_HP_extension
	.eabi_attribute	48, 2	@ Tag_MVE_arch
	.eabi_attribute	46, 1	@ Tag_DSP_extension
	.eabi_attribute	34, 1	@ Tag_CPU_unaligned_access
	.eabi_attribute	17, 1	@ Tag_ABI_PCS_GOT_use
	.eabi_attribute	20, 2	@ Tag_ABI_FP_denormal
	.eabi_attribute	21, 0	@ Tag_ABI_FP_exceptions
	.eabi_attribute	23, 1	@ Tag_ABI_FP_number_model
	.eabi_attribute	24, 1	@ Tag_ABI_align_needed
	.eabi_attribute	25, 1	@ Tag_ABI_align_preserved
	.eabi_attribute	28, 1	@ Tag_ABI_VFP_args
	.eabi_attribute	38, 1	@ Tag_ABI_FP_16bit_format
	.eabi_attribute	18, 2	@ Tag_ABI_PCS_wchar_t
	.eabi_attribute	26, 1	@ Tag_ABI_enum_size
	.eabi_attribute	14, 0	@ Tag_ABI_PCS_R9_use
	.file	"startup_M55M1.c"
	.file	1 "C:\\Users\\jimmy\\Desktop\\Nuvoton\\Nuvoton-Team\\repos\\m55m1-ElevatorCounting-YOLOv8n\\KEIL" "../../../../Library/Device/Nuvoton/M55M1/Include\\system_M55M1.h"
	.file	2 "C:\\Users\\jimmy\\Desktop\\Nuvoton\\Nuvoton-Team\\repos\\m55m1-ElevatorCounting-YOLOv8n\\KEIL" "../../../../Library/Device/Nuvoton/M55M1/Source/startup_M55M1.c"
	.file	3 "C:\\Users\\jimmy" "AppData\\Local\\Keil_v5\\ARM\\ARMCLANG\\bin\\..\\include\\stdint.h"
	.file	4 "C:\\Users\\jimmy\\Desktop\\Nuvoton\\Nuvoton-Team\\repos\\m55m1-ElevatorCounting-YOLOv8n\\KEIL" "../../../../Library/Device/Nuvoton/M55M1/Include\\scu_reg.h"
	.file	5 "C:\\Users\\jimmy\\Desktop\\Nuvoton\\Nuvoton-Team\\repos\\m55m1-ElevatorCounting-YOLOv8n\\KEIL" "../../../../Library/Device/Nuvoton/M55M1/Include\\sys_reg.h"
	.file	6 "C:\\Users\\jimmy\\Desktop\\Nuvoton\\Nuvoton-Team\\repos\\m55m1-ElevatorCounting-YOLOv8n\\KEIL" "../../../../Library/Device/Nuvoton/M55M1/Include\\pmc_reg.h"
	.file	7 "C:\\Users\\jimmy\\Desktop\\Nuvoton\\Nuvoton-Team\\repos\\m55m1-ElevatorCounting-YOLOv8n\\KEIL" "../../../../Library/Device/Nuvoton/M55M1/Include\\clk_reg.h"
	.file	8 "C:\\Users\\jimmy\\Desktop\\Nuvoton\\Nuvoton-Team\\repos\\m55m1-ElevatorCounting-YOLOv8n\\KEIL" "../../../../Library/CMSIS/Core/Include\\core_cm55.h"
	.file	9 "C:\\Users\\jimmy\\Desktop\\Nuvoton\\Nuvoton-Team\\repos\\m55m1-ElevatorCounting-YOLOv8n\\KEIL" "../../../../Library/Device/Nuvoton/M55M1/Include\\ccap_reg.h"
	.section	.text.Default_Handler,"ax",%progbits
	.hidden	Default_Handler                 @ -- Begin function Default_Handler
	.globl	Default_Handler
	.p2align	2
	.type	Default_Handler,%function
	.code	16                              @ @Default_Handler
	.thumb_func
Default_Handler:
.Lfunc_begin0:
	.fnstart
	.cfi_sections .debug_frame
	.cfi_startproc
@ %bb.0:
	.p2align	2
.LBB0_1:                                @ =>This Inner Loop Header: Depth=1
	.loc	2 597 5 prologue_end            @ ../../../../Library/Device/Nuvoton/M55M1/Source/startup_M55M1.c:597:5
	b	.LBB0_1
.Ltmp0:
.Lfunc_end0:
	.size	Default_Handler, .Lfunc_end0-Default_Handler
	.cfi_endproc
	.cantunwind
	.fnend
                                        @ -- End function
	.section	.text.Reset_Handler,"ax",%progbits
	.hidden	Reset_Handler                   @ -- Begin function Reset_Handler
	.globl	Reset_Handler
	.p2align	2
	.type	Reset_Handler,%function
	.code	16                              @ @Reset_Handler
	.thumb_func
Reset_Handler:
.Lfunc_begin1:
	.loc	2 457 0                         @ ../../../../Library/Device/Nuvoton/M55M1/Source/startup_M55M1.c:457:0
	.fnstart
	.cfi_startproc
@ %bb.0:
	.pad	#16
	sub	sp, #16
	.cfi_def_cfa_offset 16
.Ltmp1:
	.loc	2 459 5 prologue_end            @ ../../../../Library/Device/Nuvoton/M55M1/Source/startup_M55M1.c:459:5
	movw	r0, :lower16:Image$$ARM_LIB_STACK$$ZI$$Limit
	movw	r1, #9228
	movt	r0, :upper16:Image$$ARM_LIB_STACK$$ZI$$Limit
	@APP
	msr	psp, r0
	@NO_APP
	.loc	2 460 5                         @ ../../../../Library/Device/Nuvoton/M55M1/Source/startup_M55M1.c:460:5
	movw	r0, :lower16:Image$$ARM_LIB_STACK$$ZI$$Base
	movt	r1, #20544
	movt	r0, :upper16:Image$$ARM_LIB_STACK$$ZI$$Base
	@APP
	msr	msplim, r0
	@NO_APP
	.loc	2 461 5                         @ ../../../../Library/Device/Nuvoton/M55M1/Source/startup_M55M1.c:461:5
	@APP
	msr	psplim, r0
	@NO_APP
.Ltmp2:
	.loc	2 464 9                         @ ../../../../Library/Device/Nuvoton/M55M1/Source/startup_M55M1.c:464:9
	ldr	r0, [r1]
.Ltmp3:
	.loc	2 464 9 is_stmt 0               @ ../../../../Library/Device/Nuvoton/M55M1/Source/startup_M55M1.c:464:9
	lsls	r0, r0, #31
	bne	.LBB1_12
@ %bb.1:
	.loc	2 0 9                           @ ../../../../Library/Device/Nuvoton/M55M1/Source/startup_M55M1.c:0:9
	movw	r0, #256
	movs	r1, #89
	movt	r0, #16384
	movs	r2, #22
	movs	r3, #136
	.p2align	2
.LBB1_2:                                @ =>This Inner Loop Header: Depth=1
.Ltmp4:
	.loc	2 471 26 is_stmt 1              @ ../../../../Library/Device/Nuvoton/M55M1/Source/startup_M55M1.c:471:26
	str	r1, [r0]
	.loc	2 472 26                        @ ../../../../Library/Device/Nuvoton/M55M1/Source/startup_M55M1.c:472:26
	str	r2, [r0]
	.loc	2 473 26                        @ ../../../../Library/Device/Nuvoton/M55M1/Source/startup_M55M1.c:473:26
	str	r3, [r0]
.Ltmp5:
	.loc	2 474 23                        @ ../../../../Library/Device/Nuvoton/M55M1/Source/startup_M55M1.c:474:23
	ldr	r7, [r0]
.Ltmp6:
	.loc	2 474 9 is_stmt 0               @ ../../../../Library/Device/Nuvoton/M55M1/Source/startup_M55M1.c:474:9
	cbnz	r7, .LBB1_6
@ %bb.3:                                @   in Loop: Header=BB1_2 Depth=1
	.loc	2 471 26 is_stmt 1              @ ../../../../Library/Device/Nuvoton/M55M1/Source/startup_M55M1.c:471:26
	str	r1, [r0]
	.loc	2 472 26                        @ ../../../../Library/Device/Nuvoton/M55M1/Source/startup_M55M1.c:472:26
	str	r2, [r0]
	.loc	2 473 26                        @ ../../../../Library/Device/Nuvoton/M55M1/Source/startup_M55M1.c:473:26
	str	r3, [r0]
.Ltmp7:
	.loc	2 474 23                        @ ../../../../Library/Device/Nuvoton/M55M1/Source/startup_M55M1.c:474:23
	ldr	r7, [r0]
.Ltmp8:
	.loc	2 474 9 is_stmt 0               @ ../../../../Library/Device/Nuvoton/M55M1/Source/startup_M55M1.c:474:9
	cbnz	r7, .LBB1_6
@ %bb.4:                                @   in Loop: Header=BB1_2 Depth=1
	.loc	2 471 26 is_stmt 1              @ ../../../../Library/Device/Nuvoton/M55M1/Source/startup_M55M1.c:471:26
	str	r1, [r0]
	.loc	2 472 26                        @ ../../../../Library/Device/Nuvoton/M55M1/Source/startup_M55M1.c:472:26
	str	r2, [r0]
	.loc	2 473 26                        @ ../../../../Library/Device/Nuvoton/M55M1/Source/startup_M55M1.c:473:26
	str	r3, [r0]
.Ltmp9:
	.loc	2 474 23                        @ ../../../../Library/Device/Nuvoton/M55M1/Source/startup_M55M1.c:474:23
	ldr	r7, [r0]
.Ltmp10:
	.loc	2 474 9 is_stmt 0               @ ../../../../Library/Device/Nuvoton/M55M1/Source/startup_M55M1.c:474:9
	cbnz	r7, .LBB1_6
@ %bb.5:                                @   in Loop: Header=BB1_2 Depth=1
	.loc	2 471 26 is_stmt 1              @ ../../../../Library/Device/Nuvoton/M55M1/Source/startup_M55M1.c:471:26
	str	r1, [r0]
	.loc	2 472 26                        @ ../../../../Library/Device/Nuvoton/M55M1/Source/startup_M55M1.c:472:26
	str	r2, [r0]
	.loc	2 473 26                        @ ../../../../Library/Device/Nuvoton/M55M1/Source/startup_M55M1.c:473:26
	str	r3, [r0]
.Ltmp11:
	.loc	2 474 23                        @ ../../../../Library/Device/Nuvoton/M55M1/Source/startup_M55M1.c:474:23
	ldr	r7, [r0]
.Ltmp12:
	.loc	2 474 9 is_stmt 0               @ ../../../../Library/Device/Nuvoton/M55M1/Source/startup_M55M1.c:474:9
	cbnz	r7, .LBB1_6
	le	.LBB1_2
.Ltmp13:
.LBB1_6:
	.loc	2 0 9                           @ ../../../../Library/Device/Nuvoton/M55M1/Source/startup_M55M1.c:0:9
	movw	r0, #8452
	movt	r0, #16384
.Ltmp14:
	.loc	2 477 18 is_stmt 1              @ ../../../../Library/Device/Nuvoton/M55M1/Source/startup_M55M1.c:477:18
	ldr	r1, [r0]
.Ltmp15:
	.loc	2 477 13 is_stmt 0              @ ../../../../Library/Device/Nuvoton/M55M1/Source/startup_M55M1.c:477:13
	cmp	r1, #0
	itt	ne
	movne	r1, #0
.Ltmp16:
	.loc	2 479 27 is_stmt 1              @ ../../../../Library/Device/Nuvoton/M55M1/Source/startup_M55M1.c:479:27
	strne	r1, [r0]
.Ltmp17:
	.loc	2 483 18                        @ ../../../../Library/Device/Nuvoton/M55M1/Source/startup_M55M1.c:483:18
	ldr	r1, [r0, #4]
.Ltmp18:
	.loc	2 483 13 is_stmt 0              @ ../../../../Library/Device/Nuvoton/M55M1/Source/startup_M55M1.c:483:13
	cmp	r1, #0
	itt	ne
	movne	r1, #0
.Ltmp19:
	.loc	2 485 27 is_stmt 1              @ ../../../../Library/Device/Nuvoton/M55M1/Source/startup_M55M1.c:485:27
	strne	r1, [r0, #4]
	movw	r1, #58624
	movt	r1, #65352
.Ltmp20:
	.loc	2 0 27 is_stmt 0                @ :0:27
.Ltmp21:
	.p2align	2
.LBB1_7:                                @ =>This Inner Loop Header: Depth=1
	@DEBUG_VALUE: i32TimeOutCnt <- [DW_OP_consts 18446744073697551616, DW_OP_minus, DW_OP_consts 18446744073709551615, DW_OP_mul, DW_OP_consts 12000000, DW_OP_plus, DW_OP_stack_value] $r1
	.loc	2 491 23 is_stmt 1              @ ../../../../Library/Device/Nuvoton/M55M1/Source/startup_M55M1.c:491:23
	ldr	r2, [r0]
	.loc	2 491 64 is_stmt 0              @ ../../../../Library/Device/Nuvoton/M55M1/Source/startup_M55M1.c:491:64
	cmp	r2, #0
	bmi	.LBB1_9
.Ltmp22:
@ %bb.8:                                @   in Loop: Header=BB1_7 Depth=1
	@DEBUG_VALUE: i32TimeOutCnt <- [DW_OP_consts 18446744073697551616, DW_OP_minus, DW_OP_consts 18446744073709551615, DW_OP_mul, DW_OP_consts 12000000, DW_OP_plus, DW_OP_stack_value] $r1
	.loc	2 492 27 is_stmt 1              @ ../../../../Library/Device/Nuvoton/M55M1/Source/startup_M55M1.c:492:27
	ldr	r2, [r0, #4]
.Ltmp23:
	@DEBUG_VALUE: i32TimeOutCnt <- [DW_OP_constu 1, DW_OP_minus, DW_OP_stack_value] $r1
	.loc	2 491 17                        @ ../../../../Library/Device/Nuvoton/M55M1/Source/startup_M55M1.c:491:17
	cmp.w	r2, #-1
	bgt	.LBB1_11
.Ltmp24:
.LBB1_9:                                @   in Loop: Header=BB1_7 Depth=1
	@DEBUG_VALUE: i32TimeOutCnt <- [DW_OP_constu 1, DW_OP_minus, DW_OP_stack_value] $r1
	.loc	2 0 0 is_stmt 0                 @ ../../../../Library/Device/Nuvoton/M55M1/Source/startup_M55M1.c:0:0
	cbz	r1, .LBB1_11
.Ltmp25:
@ %bb.10:                               @   in Loop: Header=BB1_7 Depth=1
	@DEBUG_VALUE: i32TimeOutCnt <- [DW_OP_constu 1, DW_OP_minus, DW_OP_stack_value] $r1
	.loc	2 491 23                        @ ../../../../Library/Device/Nuvoton/M55M1/Source/startup_M55M1.c:491:23
	adds	r1, #1
.Ltmp26:
	b	.LBB1_7
.Ltmp27:
.LBB1_11:
	@DEBUG_VALUE: i32TimeOutCnt <- [DW_OP_constu 1, DW_OP_minus, DW_OP_stack_value] $r1
	.loc	2 0 23                          @ ../../../../Library/Device/Nuvoton/M55M1/Source/startup_M55M1.c:0:23
	movw	r0, #4800
	movt	r0, #16384
	.loc	2 500 22 is_stmt 1              @ ../../../../Library/Device/Nuvoton/M55M1/Source/startup_M55M1.c:500:22
	ldr	r1, [r0]
.Ltmp28:
	orr	r1, r1, #6
	str	r1, [r0]
.Ltmp29:
.LBB1_12:
	.loc	2 504 21                        @ ../../../../Library/Device/Nuvoton/M55M1/Source/startup_M55M1.c:504:21
	movw	r1, :lower16:SystemCoreClock
	movw	r2, #6912
	movt	r1, :upper16:SystemCoreClock
	movw	r0, #61280
	movt	r2, #183
	str	r2, [r1]
	movw	r1, #65064
	movt	r0, #57344
	movt	r1, #65535
	.loc	2 508 16                        @ ../../../../Library/Device/Nuvoton/M55M1/Source/startup_M55M1.c:508:16
	ldr	r2, [r0, r1]
	orr	r2, r2, #15728640
	str	r2, [r0, r1]
	movw	r1, #58112
	movt	r1, #57345
	.loc	2 518 27                        @ ../../../../Library/Device/Nuvoton/M55M1/Source/startup_M55M1.c:518:27
	ldr	r2, [r1]
	bic	r2, r2, #768
	str	r2, [r1]
	.loc	2 522 27                        @ ../../../../Library/Device/Nuvoton/M55M1/Source/startup_M55M1.c:522:27
	ldr	r2, [r1]
	orr	r2, r2, #16
	str	r2, [r1]
	movs	r1, #0
.Ltmp30:
	.file	10 "C:\\Users\\jimmy\\Desktop\\Nuvoton\\Nuvoton-Team\\repos\\m55m1-ElevatorCounting-YOLOv8n\\KEIL" "../../../../Library/CMSIS/Core/Include\\m-profile/armv7m_cachel1.h"
	.loc	10 96 5                         @ ../../../../Library/CMSIS/Core/Include\m-profile/armv7m_cachel1.h:96:5
	dsb	sy
	.loc	10 97 5                         @ ../../../../Library/CMSIS/Core/Include\m-profile/armv7m_cachel1.h:97:5
	isb	sy
	.loc	10 98 18                        @ ../../../../Library/CMSIS/Core/Include\m-profile/armv7m_cachel1.h:98:18
	str	r1, [r0, #-16]
	movw	r2, #64948
	.loc	10 99 5                         @ ../../../../Library/CMSIS/Core/Include\m-profile/armv7m_cachel1.h:99:5
	dsb	sy
	.loc	10 100 5                        @ ../../../../Library/CMSIS/Core/Include\m-profile/armv7m_cachel1.h:100:5
	isb	sy
	movt	r2, #65535
.Ltmp31:
	.loc	10 58 14                        @ ../../../../Library/CMSIS/Core/Include\m-profile/armv7m_cachel1.h:58:14
	ldr	r2, [r0, r2]
.Ltmp32:
	.loc	10 58 9 is_stmt 0               @ ../../../../Library/CMSIS/Core/Include\m-profile/armv7m_cachel1.h:58:9
	lsls	r2, r2, #14
	bmi	.LBB1_14
@ %bb.13:
	.loc	10 60 5 is_stmt 1               @ ../../../../Library/CMSIS/Core/Include\m-profile/armv7m_cachel1.h:60:5
	dsb	sy
	.loc	10 61 5                         @ ../../../../Library/CMSIS/Core/Include\m-profile/armv7m_cachel1.h:61:5
	isb	sy
	.loc	10 62 18                        @ ../../../../Library/CMSIS/Core/Include\m-profile/armv7m_cachel1.h:62:18
	str	r1, [r0, #-16]
	movw	r3, #64948
	.loc	10 63 5                         @ ../../../../Library/CMSIS/Core/Include\m-profile/armv7m_cachel1.h:63:5
	dsb	sy
	.loc	10 64 5                         @ ../../../../Library/CMSIS/Core/Include\m-profile/armv7m_cachel1.h:64:5
	isb	sy
	movt	r3, #65535
	.loc	10 65 14                        @ ../../../../Library/CMSIS/Core/Include\m-profile/armv7m_cachel1.h:65:14
	ldr	r2, [r0, r3]
	orr	r2, r2, #131072
	str	r2, [r0, r3]
	.loc	10 66 5                         @ ../../../../Library/CMSIS/Core/Include\m-profile/armv7m_cachel1.h:66:5
	dsb	sy
	.loc	10 67 5                         @ ../../../../Library/CMSIS/Core/Include\m-profile/armv7m_cachel1.h:67:5
	isb	sy
.Ltmp33:
.LBB1_14:
	.loc	10 0 5 is_stmt 0                @ ../../../../Library/CMSIS/Core/Include\m-profile/armv7m_cachel1.h:0:5
	movw	r2, #65060
	movt	r2, #65535
.Ltmp34:
	.loc	10 254 17 is_stmt 1             @ ../../../../Library/CMSIS/Core/Include\m-profile/armv7m_cachel1.h:254:17
	str	r1, [r0, r2]
	movw	r1, #65056
	.loc	10 255 5                        @ ../../../../Library/CMSIS/Core/Include\m-profile/armv7m_cachel1.h:255:5
	dsb	sy
	movt	r1, #65535
	.loc	10 257 19                       @ ../../../../Library/CMSIS/Core/Include\m-profile/armv7m_cachel1.h:257:19
	ldr	r2, [r0, r1]
.Ltmp35:
	@DEBUG_VALUE: SCB_InvalidateDCache:ccsidr <- $r2
	.loc	10 0 19 is_stmt 0               @ ../../../../Library/CMSIS/Core/Include\m-profile/armv7m_cachel1.h:0:19
	ubfx	r6, r2, #3, #10
	.loc	10 260 23 is_stmt 1             @ ../../../../Library/CMSIS/Core/Include\m-profile/armv7m_cachel1.h:260:23
	ubfx	r1, r2, #13, #15
.Ltmp36:
	@DEBUG_VALUE: SCB_InvalidateDCache:sets <- [DW_OP_constu 32767, DW_OP_and, DW_OP_stack_value] undef
	.loc	10 261 5                        @ ../../../../Library/CMSIS/Core/Include\m-profile/armv7m_cachel1.h:261:5
	adds	r3, r6, #1
	lsr.w	r12, r2, #3
	lsls	r7, r2, #18
	mov	r4, r1
	and	r11, r3, #3
	bmi	.LBB1_22
.Ltmp37:
@ %bb.15:
	@DEBUG_VALUE: SCB_InvalidateDCache:ccsidr <- $r2
	.loc	10 0 0 is_stmt 0                @ ../../../../Library/CMSIS/Core/Include\m-profile/armv7m_cachel1.h:0:0
	lsrs	r2, r2, #13
.Ltmp38:
	@DEBUG_VALUE: SCB_InvalidateDCache:ways <- [DW_OP_constu 1023, DW_OP_and, DW_OP_stack_value] $r12
	@DEBUG_VALUE: SCB_InvalidateDCache:sets <- [DW_OP_constu 32767, DW_OP_and, DW_OP_stack_value] $r2
	mov.w	r3, #16320
	and.w	r7, r3, r2, lsl #5
.Ltmp39:
	.loc	10 263 7 is_stmt 1              @ ../../../../Library/CMSIS/Core/Include\m-profile/armv7m_cachel1.h:263:7
	cmp.w	r11, #0
	mov	lr, r6
	beq	.LBB1_18
.Ltmp40:
@ %bb.16:
	@DEBUG_VALUE: SCB_InvalidateDCache:sets <- [DW_OP_constu 32767, DW_OP_and, DW_OP_stack_value] $r2
	@DEBUG_VALUE: SCB_InvalidateDCache:ways <- [DW_OP_constu 1023, DW_OP_and, DW_OP_stack_value] $r12
	@DEBUG_VALUE: SCB_InvalidateDCache:ways <- [DW_OP_constu 1023, DW_OP_and, DW_OP_stack_value] $r12
	.loc	10 264 73                       @ ../../../../Library/CMSIS/Core/Include\m-profile/armv7m_cachel1.h:264:73
	orr.w	r2, r7, r12, lsl #30
.Ltmp41:
	.loc	10 269 7                        @ ../../../../Library/CMSIS/Core/Include\m-profile/armv7m_cachel1.h:269:7
	cmp.w	r11, #1
.Ltmp42:
	.loc	10 269 20 is_stmt 0             @ ../../../../Library/CMSIS/Core/Include\m-profile/armv7m_cachel1.h:269:20
	sub.w	lr, r6, #1
.Ltmp43:
	@DEBUG_VALUE: SCB_InvalidateDCache:ways <- $lr
	.loc	10 264 20 is_stmt 1             @ ../../../../Library/CMSIS/Core/Include\m-profile/armv7m_cachel1.h:264:20
	str	r2, [r0]
	.loc	10 269 7                        @ ../../../../Library/CMSIS/Core/Include\m-profile/armv7m_cachel1.h:269:7
	beq	.LBB1_18
.Ltmp44:
@ %bb.17:
	@DEBUG_VALUE: SCB_InvalidateDCache:ways <- $lr
	@DEBUG_VALUE: SCB_InvalidateDCache:ways <- undef
	.loc	10 264 73                       @ ../../../../Library/CMSIS/Core/Include\m-profile/armv7m_cachel1.h:264:73
	orr.w	r2, r7, lr, lsl #30
.Ltmp45:
	.loc	10 269 20                       @ ../../../../Library/CMSIS/Core/Include\m-profile/armv7m_cachel1.h:269:20
	sub.w	lr, r6, #2
.Ltmp46:
	@DEBUG_VALUE: SCB_InvalidateDCache:ways <- $lr
	@DEBUG_VALUE: SCB_InvalidateDCache:ways <- undef
	.loc	10 269 7 is_stmt 0              @ ../../../../Library/CMSIS/Core/Include\m-profile/armv7m_cachel1.h:269:7
	cmp.w	r11, #2
	.loc	10 264 20 is_stmt 1             @ ../../../../Library/CMSIS/Core/Include\m-profile/armv7m_cachel1.h:264:20
	str	r2, [r0]
	.loc	10 264 73 is_stmt 0             @ ../../../../Library/CMSIS/Core/Include\m-profile/armv7m_cachel1.h:264:73
	ittt	ne
	orrne.w	r2, r7, lr, lsl #30
	.loc	10 264 20                       @ ../../../../Library/CMSIS/Core/Include\m-profile/armv7m_cachel1.h:264:20
	strne	r2, [r0]
.Ltmp47:
	.loc	10 269 20 is_stmt 1             @ ../../../../Library/CMSIS/Core/Include\m-profile/armv7m_cachel1.h:269:20
	subne.w	lr, r6, #3
.Ltmp48:
	@DEBUG_VALUE: SCB_InvalidateDCache:ways <- $lr
.LBB1_18:
	.loc	10 263 7                        @ ../../../../Library/CMSIS/Core/Include\m-profile/armv7m_cachel1.h:263:7
	cmp	r6, #3
	blo	.LBB1_21
@ %bb.19:
	orr.w	r7, r7, lr, lsl #30
	add.w	r3, lr, #1
	add.w	r4, r7, #-1073741824
	eor	r5, r7, #-2147483648
	add.w	r2, r7, #1073741824
	.loc	10 0 7 is_stmt 0                @ :0:7
.Ltmp49:
	.p2align	2
.LBB1_20:                               @ =>This Inner Loop Header: Depth=1
.Ltmp50:
	@DEBUG_VALUE: SCB_InvalidateDCache:ways <- [DW_OP_constu 1, DW_OP_minus, DW_OP_stack_value] $r3
	.loc	10 269 23 is_stmt 1             @ ../../../../Library/CMSIS/Core/Include\m-profile/armv7m_cachel1.h:269:23
	subs	r3, #4
.Ltmp51:
	.loc	10 264 20                       @ ../../../../Library/CMSIS/Core/Include\m-profile/armv7m_cachel1.h:264:20
	str	r7, [r0]
	str	r4, [r0]
.Ltmp52:
	@DEBUG_VALUE: SCB_InvalidateDCache:ways <- [DW_OP_constu 2, DW_OP_minus, DW_OP_stack_value] $r3
	str	r5, [r0]
.Ltmp53:
	@DEBUG_VALUE: SCB_InvalidateDCache:ways <- [DW_OP_constu 3, DW_OP_minus, DW_OP_stack_value] $r3
	str	r2, [r0]
.Ltmp54:
	@DEBUG_VALUE: SCB_InvalidateDCache:ways <- [DW_OP_constu 5, DW_OP_minus, DW_OP_stack_value] $r3
	.loc	10 269 7                        @ ../../../../Library/CMSIS/Core/Include\m-profile/armv7m_cachel1.h:269:7
	bne	.LBB1_20
.Ltmp55:
.LBB1_21:
	.loc	10 270 17                       @ ../../../../Library/CMSIS/Core/Include\m-profile/armv7m_cachel1.h:270:17
	subs	r4, r1, #1
.Ltmp56:
	@DEBUG_VALUE: SCB_InvalidateDCache:sets <- $r4
.LBB1_22:
	.loc	10 261 5                        @ ../../../../Library/CMSIS/Core/Include\m-profile/armv7m_cachel1.h:261:5
	cmp	r1, #0
	bne	.LBB1_35
.LBB1_23:
	.loc	10 272 5                        @ ../../../../Library/CMSIS/Core/Include\m-profile/armv7m_cachel1.h:272:5
	dsb	sy
.Ltmp57:
	.loc	10 146 14                       @ ../../../../Library/CMSIS/Core/Include\m-profile/armv7m_cachel1.h:146:14
	movw	r1, #64948
.Ltmp58:
	.loc	10 273 5                        @ ../../../../Library/CMSIS/Core/Include\m-profile/armv7m_cachel1.h:273:5
	isb	sy
.Ltmp59:
	.loc	10 146 14                       @ ../../../../Library/CMSIS/Core/Include\m-profile/armv7m_cachel1.h:146:14
	movt	r1, #65535
	ldr	r1, [r0, r1]
.Ltmp60:
	.loc	10 146 9 is_stmt 0              @ ../../../../Library/CMSIS/Core/Include\m-profile/armv7m_cachel1.h:146:9
	lsls	r1, r1, #15
	bmi	.LBB1_34
@ %bb.24:
	.loc	10 148 17 is_stmt 1             @ ../../../../Library/CMSIS/Core/Include\m-profile/armv7m_cachel1.h:148:17
	movw	r2, #65060
	movs	r1, #0
	movt	r2, #65535
	str	r1, [r0, r2]
	.loc	10 151 19                       @ ../../../../Library/CMSIS/Core/Include\m-profile/armv7m_cachel1.h:151:19
	movw	r1, #65056
	.loc	10 149 5                        @ ../../../../Library/CMSIS/Core/Include\m-profile/armv7m_cachel1.h:149:5
	dsb	sy
	.loc	10 151 19                       @ ../../../../Library/CMSIS/Core/Include\m-profile/armv7m_cachel1.h:151:19
	movt	r1, #65535
	ldr	r2, [r0, r1]
.Ltmp61:
	@DEBUG_VALUE: SCB_EnableDCache:ccsidr <- $r2
	.loc	10 0 19 is_stmt 0               @ ../../../../Library/CMSIS/Core/Include\m-profile/armv7m_cachel1.h:0:19
	ubfx	r5, r2, #3, #10
	.loc	10 154 23 is_stmt 1             @ ../../../../Library/CMSIS/Core/Include\m-profile/armv7m_cachel1.h:154:23
	ubfx	r1, r2, #13, #15
.Ltmp62:
	@DEBUG_VALUE: SCB_EnableDCache:sets <- [DW_OP_constu 32767, DW_OP_and, DW_OP_stack_value] undef
	.loc	10 155 5                        @ ../../../../Library/CMSIS/Core/Include\m-profile/armv7m_cachel1.h:155:5
	adds	r3, r5, #1
	lsr.w	r12, r2, #3
	lsls	r7, r2, #18
	mov	r4, r1
	and	r9, r3, #3
	bmi	.LBB1_32
.Ltmp63:
@ %bb.25:
	@DEBUG_VALUE: SCB_EnableDCache:ccsidr <- $r2
	.loc	10 0 0 is_stmt 0                @ ../../../../Library/CMSIS/Core/Include\m-profile/armv7m_cachel1.h:0:0
	lsrs	r2, r2, #13
.Ltmp64:
	@DEBUG_VALUE: SCB_EnableDCache:ways <- [DW_OP_constu 1023, DW_OP_and, DW_OP_stack_value] $r12
	@DEBUG_VALUE: SCB_EnableDCache:sets <- [DW_OP_constu 32767, DW_OP_and, DW_OP_stack_value] $r2
	mov.w	r3, #16320
	and.w	r6, r3, r2, lsl #5
.Ltmp65:
	.loc	10 157 7 is_stmt 1              @ ../../../../Library/CMSIS/Core/Include\m-profile/armv7m_cachel1.h:157:7
	cmp.w	r9, #0
	mov	lr, r5
	beq	.LBB1_28
.Ltmp66:
@ %bb.26:
	@DEBUG_VALUE: SCB_EnableDCache:sets <- [DW_OP_constu 32767, DW_OP_and, DW_OP_stack_value] $r2
	@DEBUG_VALUE: SCB_EnableDCache:ways <- [DW_OP_constu 1023, DW_OP_and, DW_OP_stack_value] $r12
	@DEBUG_VALUE: SCB_EnableDCache:ways <- [DW_OP_constu 1023, DW_OP_and, DW_OP_stack_value] $r12
	.loc	10 158 73                       @ ../../../../Library/CMSIS/Core/Include\m-profile/armv7m_cachel1.h:158:73
	orr.w	r2, r6, r12, lsl #30
.Ltmp67:
	.loc	10 163 7                        @ ../../../../Library/CMSIS/Core/Include\m-profile/armv7m_cachel1.h:163:7
	cmp.w	r9, #1
.Ltmp68:
	.loc	10 163 20 is_stmt 0             @ ../../../../Library/CMSIS/Core/Include\m-profile/armv7m_cachel1.h:163:20
	sub.w	lr, r5, #1
.Ltmp69:
	@DEBUG_VALUE: SCB_EnableDCache:ways <- $lr
	.loc	10 158 20 is_stmt 1             @ ../../../../Library/CMSIS/Core/Include\m-profile/armv7m_cachel1.h:158:20
	str	r2, [r0]
	.loc	10 163 7                        @ ../../../../Library/CMSIS/Core/Include\m-profile/armv7m_cachel1.h:163:7
	beq	.LBB1_28
.Ltmp70:
@ %bb.27:
	@DEBUG_VALUE: SCB_EnableDCache:ways <- $lr
	@DEBUG_VALUE: SCB_EnableDCache:ways <- undef
	.loc	10 158 73                       @ ../../../../Library/CMSIS/Core/Include\m-profile/armv7m_cachel1.h:158:73
	orr.w	r2, r6, lr, lsl #30
.Ltmp71:
	.loc	10 163 20                       @ ../../../../Library/CMSIS/Core/Include\m-profile/armv7m_cachel1.h:163:20
	sub.w	lr, r5, #2
.Ltmp72:
	@DEBUG_VALUE: SCB_EnableDCache:ways <- $lr
	@DEBUG_VALUE: SCB_EnableDCache:ways <- undef
	.loc	10 163 7 is_stmt 0              @ ../../../../Library/CMSIS/Core/Include\m-profile/armv7m_cachel1.h:163:7
	cmp.w	r9, #2
	.loc	10 158 20 is_stmt 1             @ ../../../../Library/CMSIS/Core/Include\m-profile/armv7m_cachel1.h:158:20
	str	r2, [r0]
	.loc	10 158 73 is_stmt 0             @ ../../../../Library/CMSIS/Core/Include\m-profile/armv7m_cachel1.h:158:73
	ittt	ne
	orrne.w	r2, r6, lr, lsl #30
	.loc	10 158 20                       @ ../../../../Library/CMSIS/Core/Include\m-profile/armv7m_cachel1.h:158:20
	strne	r2, [r0]
.Ltmp73:
	.loc	10 163 20 is_stmt 1             @ ../../../../Library/CMSIS/Core/Include\m-profile/armv7m_cachel1.h:163:20
	subne.w	lr, r5, #3
.Ltmp74:
	@DEBUG_VALUE: SCB_EnableDCache:ways <- $lr
.LBB1_28:
	.loc	10 157 7                        @ ../../../../Library/CMSIS/Core/Include\m-profile/armv7m_cachel1.h:157:7
	cmp	r5, #3
	blo	.LBB1_31
@ %bb.29:
	orr.w	r6, r6, lr, lsl #30
	add.w	r3, lr, #1
	add.w	r4, r6, #-1073741824
	eor	r7, r6, #-2147483648
	add.w	r2, r6, #1073741824
	.loc	10 0 7 is_stmt 0                @ :0:7
.Ltmp75:
	.p2align	2
.LBB1_30:                               @ =>This Inner Loop Header: Depth=1
.Ltmp76:
	@DEBUG_VALUE: SCB_EnableDCache:ways <- [DW_OP_constu 1, DW_OP_minus, DW_OP_stack_value] $r3
	.loc	10 163 23 is_stmt 1             @ ../../../../Library/CMSIS/Core/Include\m-profile/armv7m_cachel1.h:163:23
	subs	r3, #4
.Ltmp77:
	.loc	10 158 20                       @ ../../../../Library/CMSIS/Core/Include\m-profile/armv7m_cachel1.h:158:20
	str	r6, [r0]
	str	r4, [r0]
.Ltmp78:
	@DEBUG_VALUE: SCB_EnableDCache:ways <- [DW_OP_constu 2, DW_OP_minus, DW_OP_stack_value] $r3
	str	r7, [r0]
.Ltmp79:
	@DEBUG_VALUE: SCB_EnableDCache:ways <- [DW_OP_constu 3, DW_OP_minus, DW_OP_stack_value] $r3
	str	r2, [r0]
.Ltmp80:
	@DEBUG_VALUE: SCB_EnableDCache:ways <- [DW_OP_constu 5, DW_OP_minus, DW_OP_stack_value] $r3
	.loc	10 163 7                        @ ../../../../Library/CMSIS/Core/Include\m-profile/armv7m_cachel1.h:163:7
	bne	.LBB1_30
.Ltmp81:
.LBB1_31:
	.loc	10 164 17                       @ ../../../../Library/CMSIS/Core/Include\m-profile/armv7m_cachel1.h:164:17
	subs	r4, r1, #1
.Ltmp82:
	@DEBUG_VALUE: SCB_EnableDCache:sets <- $r4
.LBB1_32:
	.loc	10 155 5                        @ ../../../../Library/CMSIS/Core/Include\m-profile/armv7m_cachel1.h:155:5
	cmp	r1, #0
	bne.w	.LBB1_51
.LBB1_33:
	.loc	10 0 5 is_stmt 0                @ ../../../../Library/CMSIS/Core/Include\m-profile/armv7m_cachel1.h:0:5
	movw	r2, #64948
	.loc	10 165 5 is_stmt 1              @ ../../../../Library/CMSIS/Core/Include\m-profile/armv7m_cachel1.h:165:5
	dsb	sy
	movt	r2, #65535
	.loc	10 167 14                       @ ../../../../Library/CMSIS/Core/Include\m-profile/armv7m_cachel1.h:167:14
	ldr	r1, [r0, r2]
	orr	r1, r1, #65536
	str	r1, [r0, r2]
	.loc	10 169 5                        @ ../../../../Library/CMSIS/Core/Include\m-profile/armv7m_cachel1.h:169:5
	dsb	sy
	.loc	10 170 5                        @ ../../../../Library/CMSIS/Core/Include\m-profile/armv7m_cachel1.h:170:5
	isb	sy
.Ltmp83:
.LBB1_34:
	.loc	2 537 5                         @ ../../../../Library/Device/Nuvoton/M55M1/Source/startup_M55M1.c:537:5
	bl	Reset_Handler_PreInit
.Ltmp84:
	.loc	2 541 5                         @ ../../../../Library/Device/Nuvoton/M55M1/Source/startup_M55M1.c:541:5
	bl	__main
.Ltmp85:
.LBB1_35:
	.loc	2 0 5 is_stmt 0                 @ ../../../../Library/Device/Nuvoton/M55M1/Source/startup_M55M1.c:0:5
	sub.w	r8, r6, #1
	sub.w	lr, r6, #2
	lsl.w	r1, r8, #30
	movw	r9, #16352
	str	r1, [sp, #12]                   @ 4-byte Spill
	lsl.w	r1, lr, #30
	lsl.w	r10, r12, #30
	str	r1, [sp, #8]                    @ 4-byte Spill
	subs	r1, r6, #3
	str	r1, [sp, #4]                    @ 4-byte Spill
	b	.LBB1_37
	.p2align	2
.LBB1_36:                               @   in Loop: Header=BB1_37 Depth=1
.Ltmp86:
	@DEBUG_VALUE: SCB_InvalidateDCache:sets <- $r12
	.loc	10 270 5 is_stmt 1              @ ../../../../Library/CMSIS/Core/Include\m-profile/armv7m_cachel1.h:270:5
	cmp.w	r12, #0
.Ltmp87:
	.loc	10 270 17 is_stmt 0             @ ../../../../Library/CMSIS/Core/Include\m-profile/armv7m_cachel1.h:270:17
	sub.w	r4, r4, #2
.Ltmp88:
	@DEBUG_VALUE: SCB_InvalidateDCache:sets <- $r4
	.loc	10 270 5                        @ ../../../../Library/CMSIS/Core/Include\m-profile/armv7m_cachel1.h:270:5
	beq.w	.LBB1_23
.Ltmp89:
.LBB1_37:                               @ =>This Loop Header: Depth=1
                                        @     Child Loop BB1_43 Depth 2
                                        @     Child Loop BB1_50 Depth 2
	@DEBUG_VALUE: SCB_InvalidateDCache:sets <- $r4
	@DEBUG_VALUE: SCB_InvalidateDCache:ways <- [DW_OP_constu 1023, DW_OP_and, DW_OP_stack_value] undef
	.loc	10 0 5                          @ ../../../../Library/CMSIS/Core/Include\m-profile/armv7m_cachel1.h:0:5
	and.w	r1, r9, r4, lsl #5
	.loc	10 263 7 is_stmt 1              @ ../../../../Library/CMSIS/Core/Include\m-profile/armv7m_cachel1.h:263:7
	cmp.w	r11, #0
	mov	r2, r6
	beq	.LBB1_41
.Ltmp90:
@ %bb.38:                               @   in Loop: Header=BB1_37 Depth=1
	@DEBUG_VALUE: SCB_InvalidateDCache:sets <- $r4
	@DEBUG_VALUE: SCB_InvalidateDCache:ways <- [DW_OP_constu 1023, DW_OP_and, DW_OP_stack_value] undef
	.loc	10 264 73                       @ ../../../../Library/CMSIS/Core/Include\m-profile/armv7m_cachel1.h:264:73
	orr.w	r2, r10, r1
	.loc	10 264 20 is_stmt 0             @ ../../../../Library/CMSIS/Core/Include\m-profile/armv7m_cachel1.h:264:20
	str	r2, [r0]
.Ltmp91:
	@DEBUG_VALUE: SCB_InvalidateDCache:ways <- $r8
	.loc	10 0 20                         @ ../../../../Library/CMSIS/Core/Include\m-profile/armv7m_cachel1.h:0:20
	mov	r2, r8
	.loc	10 269 7 is_stmt 1              @ ../../../../Library/CMSIS/Core/Include\m-profile/armv7m_cachel1.h:269:7
	cmp.w	r11, #1
	beq	.LBB1_41
.Ltmp92:
@ %bb.39:                               @   in Loop: Header=BB1_37 Depth=1
	@DEBUG_VALUE: SCB_InvalidateDCache:ways <- $r8
	@DEBUG_VALUE: SCB_InvalidateDCache:sets <- $r4
	@DEBUG_VALUE: SCB_InvalidateDCache:ways <- $r8
	.loc	10 264 73                       @ ../../../../Library/CMSIS/Core/Include\m-profile/armv7m_cachel1.h:264:73
	ldr	r2, [sp, #12]                   @ 4-byte Reload
	.loc	10 269 7                        @ ../../../../Library/CMSIS/Core/Include\m-profile/armv7m_cachel1.h:269:7
	cmp.w	r11, #2
	.loc	10 264 73                       @ ../../../../Library/CMSIS/Core/Include\m-profile/armv7m_cachel1.h:264:73
	orr.w	r2, r2, r1
	.loc	10 264 20 is_stmt 0             @ ../../../../Library/CMSIS/Core/Include\m-profile/armv7m_cachel1.h:264:20
	str	r2, [r0]
.Ltmp93:
	@DEBUG_VALUE: SCB_InvalidateDCache:ways <- $lr
	.loc	10 0 20                         @ ../../../../Library/CMSIS/Core/Include\m-profile/armv7m_cachel1.h:0:20
	mov	r2, lr
	.loc	10 269 7 is_stmt 1              @ ../../../../Library/CMSIS/Core/Include\m-profile/armv7m_cachel1.h:269:7
	beq	.LBB1_41
.Ltmp94:
@ %bb.40:                               @   in Loop: Header=BB1_37 Depth=1
	@DEBUG_VALUE: SCB_InvalidateDCache:sets <- $r4
	@DEBUG_VALUE: SCB_InvalidateDCache:ways <- $lr
	@DEBUG_VALUE: SCB_InvalidateDCache:ways <- $lr
	.loc	10 264 73                       @ ../../../../Library/CMSIS/Core/Include\m-profile/armv7m_cachel1.h:264:73
	ldr	r2, [sp, #8]                    @ 4-byte Reload
	orrs	r2, r1
	.loc	10 264 20 is_stmt 0             @ ../../../../Library/CMSIS/Core/Include\m-profile/armv7m_cachel1.h:264:20
	str	r2, [r0]
.Ltmp95:
	@DEBUG_VALUE: SCB_InvalidateDCache:ways <- [DW_OP_plus_uconst 4] [$sp+0]
	.loc	10 0 20                         @ ../../../../Library/CMSIS/Core/Include\m-profile/armv7m_cachel1.h:0:20
	ldr	r2, [sp, #4]                    @ 4-byte Reload
.Ltmp96:
	.p2align	2
.LBB1_41:                               @   in Loop: Header=BB1_37 Depth=1
	@DEBUG_VALUE: SCB_InvalidateDCache:sets <- $r4
	.loc	10 263 7 is_stmt 1              @ ../../../../Library/CMSIS/Core/Include\m-profile/armv7m_cachel1.h:263:7
	cmp	r6, #3
	blo	.LBB1_44
.Ltmp97:
@ %bb.42:                               @   in Loop: Header=BB1_37 Depth=1
	@DEBUG_VALUE: SCB_InvalidateDCache:sets <- $r4
	orr.w	r1, r1, r2, lsl #30
	adds	r2, #1
	add.w	r7, r1, #-1073741824
	eor	r5, r1, #-2147483648
	add.w	r3, r1, #1073741824
.Ltmp98:
	.loc	10 0 7 is_stmt 0                @ :0:7
.Ltmp99:
	.p2align	2
.LBB1_43:                               @   Parent Loop BB1_37 Depth=1
                                        @ =>  This Inner Loop Header: Depth=2
	@DEBUG_VALUE: SCB_InvalidateDCache:sets <- $r4
	@DEBUG_VALUE: SCB_InvalidateDCache:ways <- [DW_OP_constu 1, DW_OP_minus, DW_OP_stack_value] $r2
	.loc	10 269 23 is_stmt 1             @ ../../../../Library/CMSIS/Core/Include\m-profile/armv7m_cachel1.h:269:23
	subs	r2, #4
.Ltmp100:
	.loc	10 264 20                       @ ../../../../Library/CMSIS/Core/Include\m-profile/armv7m_cachel1.h:264:20
	str	r1, [r0]
	str	r7, [r0]
.Ltmp101:
	@DEBUG_VALUE: SCB_InvalidateDCache:ways <- [DW_OP_constu 2, DW_OP_minus, DW_OP_stack_value] $r2
	str	r5, [r0]
.Ltmp102:
	@DEBUG_VALUE: SCB_InvalidateDCache:ways <- [DW_OP_constu 3, DW_OP_minus, DW_OP_stack_value] $r2
	str	r3, [r0]
.Ltmp103:
	@DEBUG_VALUE: SCB_InvalidateDCache:ways <- [DW_OP_constu 5, DW_OP_minus, DW_OP_stack_value] $r2
	.loc	10 269 7                        @ ../../../../Library/CMSIS/Core/Include\m-profile/armv7m_cachel1.h:269:7
	bne	.LBB1_43
.Ltmp104:
.LBB1_44:                               @   in Loop: Header=BB1_37 Depth=1
	@DEBUG_VALUE: SCB_InvalidateDCache:sets <- $r4
	.loc	10 270 17                       @ ../../../../Library/CMSIS/Core/Include\m-profile/armv7m_cachel1.h:270:17
	sub.w	r12, r4, #1
.Ltmp105:
	@DEBUG_VALUE: SCB_InvalidateDCache:ways <- [DW_OP_constu 1023, DW_OP_and, DW_OP_stack_value] undef
	@DEBUG_VALUE: SCB_InvalidateDCache:sets <- $r12
	.loc	10 263 7                        @ ../../../../Library/CMSIS/Core/Include\m-profile/armv7m_cachel1.h:263:7
	cmp.w	r11, #0
	and.w	r1, r9, r12, lsl #5
	mov	r2, r6
	beq	.LBB1_48
.Ltmp106:
@ %bb.45:                               @   in Loop: Header=BB1_37 Depth=1
	@DEBUG_VALUE: SCB_InvalidateDCache:sets <- $r12
	@DEBUG_VALUE: SCB_InvalidateDCache:ways <- [DW_OP_constu 1023, DW_OP_and, DW_OP_stack_value] undef
	.loc	10 264 73                       @ ../../../../Library/CMSIS/Core/Include\m-profile/armv7m_cachel1.h:264:73
	orr.w	r2, r10, r1
	.loc	10 264 20 is_stmt 0             @ ../../../../Library/CMSIS/Core/Include\m-profile/armv7m_cachel1.h:264:20
	str	r2, [r0]
.Ltmp107:
	@DEBUG_VALUE: SCB_InvalidateDCache:ways <- $r8
	.loc	10 0 20                         @ ../../../../Library/CMSIS/Core/Include\m-profile/armv7m_cachel1.h:0:20
	mov	r2, r8
	.loc	10 269 7 is_stmt 1              @ ../../../../Library/CMSIS/Core/Include\m-profile/armv7m_cachel1.h:269:7
	cmp.w	r11, #1
	beq	.LBB1_48
.Ltmp108:
@ %bb.46:                               @   in Loop: Header=BB1_37 Depth=1
	@DEBUG_VALUE: SCB_InvalidateDCache:sets <- $r12
	@DEBUG_VALUE: SCB_InvalidateDCache:ways <- $r8
	@DEBUG_VALUE: SCB_InvalidateDCache:ways <- $r8
	.loc	10 264 73                       @ ../../../../Library/CMSIS/Core/Include\m-profile/armv7m_cachel1.h:264:73
	ldr	r2, [sp, #12]                   @ 4-byte Reload
	.loc	10 269 7                        @ ../../../../Library/CMSIS/Core/Include\m-profile/armv7m_cachel1.h:269:7
	cmp.w	r11, #2
	.loc	10 264 73                       @ ../../../../Library/CMSIS/Core/Include\m-profile/armv7m_cachel1.h:264:73
	orr.w	r2, r2, r1
	.loc	10 264 20 is_stmt 0             @ ../../../../Library/CMSIS/Core/Include\m-profile/armv7m_cachel1.h:264:20
	str	r2, [r0]
.Ltmp109:
	@DEBUG_VALUE: SCB_InvalidateDCache:ways <- $lr
	.loc	10 0 20                         @ ../../../../Library/CMSIS/Core/Include\m-profile/armv7m_cachel1.h:0:20
	mov	r2, lr
	.loc	10 269 7 is_stmt 1              @ ../../../../Library/CMSIS/Core/Include\m-profile/armv7m_cachel1.h:269:7
	beq	.LBB1_48
.Ltmp110:
@ %bb.47:                               @   in Loop: Header=BB1_37 Depth=1
	@DEBUG_VALUE: SCB_InvalidateDCache:sets <- $r12
	@DEBUG_VALUE: SCB_InvalidateDCache:ways <- $lr
	@DEBUG_VALUE: SCB_InvalidateDCache:ways <- $lr
	.loc	10 264 73                       @ ../../../../Library/CMSIS/Core/Include\m-profile/armv7m_cachel1.h:264:73
	ldr	r2, [sp, #8]                    @ 4-byte Reload
	orrs	r2, r1
	.loc	10 264 20 is_stmt 0             @ ../../../../Library/CMSIS/Core/Include\m-profile/armv7m_cachel1.h:264:20
	str	r2, [r0]
.Ltmp111:
	@DEBUG_VALUE: SCB_InvalidateDCache:ways <- [DW_OP_plus_uconst 4] [$sp+0]
	.loc	10 0 20                         @ ../../../../Library/CMSIS/Core/Include\m-profile/armv7m_cachel1.h:0:20
	ldr	r2, [sp, #4]                    @ 4-byte Reload
.Ltmp112:
	.p2align	2
.LBB1_48:                               @   in Loop: Header=BB1_37 Depth=1
	@DEBUG_VALUE: SCB_InvalidateDCache:sets <- $r12
	.loc	10 263 7 is_stmt 1              @ ../../../../Library/CMSIS/Core/Include\m-profile/armv7m_cachel1.h:263:7
	cmp	r6, #3
	blo	.LBB1_36
.Ltmp113:
@ %bb.49:                               @   in Loop: Header=BB1_37 Depth=1
	@DEBUG_VALUE: SCB_InvalidateDCache:sets <- $r12
	orr.w	r1, r1, r2, lsl #30
	adds	r2, #1
	add.w	r7, r1, #-1073741824
	eor	r5, r1, #-2147483648
	add.w	r3, r1, #1073741824
.Ltmp114:
	.loc	10 0 7 is_stmt 0                @ :0:7
.Ltmp115:
	.p2align	2
.LBB1_50:                               @   Parent Loop BB1_37 Depth=1
                                        @ =>  This Inner Loop Header: Depth=2
	@DEBUG_VALUE: SCB_InvalidateDCache:sets <- $r12
	@DEBUG_VALUE: SCB_InvalidateDCache:ways <- [DW_OP_constu 1, DW_OP_minus, DW_OP_stack_value] $r2
	.loc	10 269 23 is_stmt 1             @ ../../../../Library/CMSIS/Core/Include\m-profile/armv7m_cachel1.h:269:23
	subs	r2, #4
.Ltmp116:
	.loc	10 264 20                       @ ../../../../Library/CMSIS/Core/Include\m-profile/armv7m_cachel1.h:264:20
	str	r1, [r0]
	str	r7, [r0]
.Ltmp117:
	@DEBUG_VALUE: SCB_InvalidateDCache:ways <- [DW_OP_constu 2, DW_OP_minus, DW_OP_stack_value] $r2
	str	r5, [r0]
.Ltmp118:
	@DEBUG_VALUE: SCB_InvalidateDCache:ways <- [DW_OP_constu 3, DW_OP_minus, DW_OP_stack_value] $r2
	str	r3, [r0]
.Ltmp119:
	@DEBUG_VALUE: SCB_InvalidateDCache:ways <- [DW_OP_constu 5, DW_OP_minus, DW_OP_stack_value] $r2
	.loc	10 269 7                        @ ../../../../Library/CMSIS/Core/Include\m-profile/armv7m_cachel1.h:269:7
	bne	.LBB1_50
	b	.LBB1_36
.Ltmp120:
.LBB1_51:
	.loc	10 0 7 is_stmt 0                @ ../../../../Library/CMSIS/Core/Include\m-profile/armv7m_cachel1.h:0:7
	sub.w	lr, r5, #1
	sub.w	r10, r5, #2
	lsl.w	r1, lr, #30
	movw	r11, #16352
	str	r1, [sp, #12]                   @ 4-byte Spill
	lsl.w	r1, r10, #30
	lsl.w	r8, r12, #30
	str	r1, [sp, #8]                    @ 4-byte Spill
	subs	r1, r5, #3
	str	r1, [sp, #4]                    @ 4-byte Spill
	b	.LBB1_53
	.p2align	2
.LBB1_52:                               @   in Loop: Header=BB1_53 Depth=1
.Ltmp121:
	@DEBUG_VALUE: SCB_EnableDCache:sets <- $r1
	.loc	10 164 5 is_stmt 1              @ ../../../../Library/CMSIS/Core/Include\m-profile/armv7m_cachel1.h:164:5
	cmp	r1, #0
.Ltmp122:
	.loc	10 164 17 is_stmt 0             @ ../../../../Library/CMSIS/Core/Include\m-profile/armv7m_cachel1.h:164:17
	sub.w	r4, r4, #2
.Ltmp123:
	@DEBUG_VALUE: SCB_EnableDCache:sets <- $r4
	.loc	10 164 5                        @ ../../../../Library/CMSIS/Core/Include\m-profile/armv7m_cachel1.h:164:5
	beq.w	.LBB1_33
.Ltmp124:
.LBB1_53:                               @ =>This Loop Header: Depth=1
                                        @     Child Loop BB1_59 Depth 2
                                        @     Child Loop BB1_66 Depth 2
	@DEBUG_VALUE: SCB_EnableDCache:sets <- $r4
	@DEBUG_VALUE: SCB_EnableDCache:ways <- [DW_OP_constu 1023, DW_OP_and, DW_OP_stack_value] undef
	.loc	10 0 5                          @ ../../../../Library/CMSIS/Core/Include\m-profile/armv7m_cachel1.h:0:5
	and.w	r1, r11, r4, lsl #5
	.loc	10 157 7 is_stmt 1              @ ../../../../Library/CMSIS/Core/Include\m-profile/armv7m_cachel1.h:157:7
	cmp.w	r9, #0
	mov	r7, r5
	beq	.LBB1_57
.Ltmp125:
@ %bb.54:                               @   in Loop: Header=BB1_53 Depth=1
	@DEBUG_VALUE: SCB_EnableDCache:sets <- $r4
	@DEBUG_VALUE: SCB_EnableDCache:ways <- [DW_OP_constu 1023, DW_OP_and, DW_OP_stack_value] undef
	.loc	10 158 73                       @ ../../../../Library/CMSIS/Core/Include\m-profile/armv7m_cachel1.h:158:73
	orr.w	r2, r8, r1
	mov	r7, lr
	.loc	10 163 7                        @ ../../../../Library/CMSIS/Core/Include\m-profile/armv7m_cachel1.h:163:7
	cmp.w	r9, #1
	.loc	10 158 20                       @ ../../../../Library/CMSIS/Core/Include\m-profile/armv7m_cachel1.h:158:20
	str	r2, [r0]
.Ltmp126:
	@DEBUG_VALUE: SCB_EnableDCache:ways <- $lr
	.loc	10 163 7                        @ ../../../../Library/CMSIS/Core/Include\m-profile/armv7m_cachel1.h:163:7
	beq	.LBB1_57
.Ltmp127:
@ %bb.55:                               @   in Loop: Header=BB1_53 Depth=1
	@DEBUG_VALUE: SCB_EnableDCache:sets <- $r4
	@DEBUG_VALUE: SCB_EnableDCache:ways <- $lr
	@DEBUG_VALUE: SCB_EnableDCache:ways <- $lr
	.loc	10 158 73                       @ ../../../../Library/CMSIS/Core/Include\m-profile/armv7m_cachel1.h:158:73
	ldr	r2, [sp, #12]                   @ 4-byte Reload
	mov	r7, r10
	.loc	10 163 7                        @ ../../../../Library/CMSIS/Core/Include\m-profile/armv7m_cachel1.h:163:7
	cmp.w	r9, #2
	.loc	10 158 73                       @ ../../../../Library/CMSIS/Core/Include\m-profile/armv7m_cachel1.h:158:73
	orr.w	r2, r2, r1
	.loc	10 158 20 is_stmt 0             @ ../../../../Library/CMSIS/Core/Include\m-profile/armv7m_cachel1.h:158:20
	str	r2, [r0]
.Ltmp128:
	@DEBUG_VALUE: SCB_EnableDCache:ways <- $r10
	.loc	10 163 7 is_stmt 1              @ ../../../../Library/CMSIS/Core/Include\m-profile/armv7m_cachel1.h:163:7
	beq	.LBB1_57
.Ltmp129:
@ %bb.56:                               @   in Loop: Header=BB1_53 Depth=1
	@DEBUG_VALUE: SCB_EnableDCache:ways <- $r10
	@DEBUG_VALUE: SCB_EnableDCache:sets <- $r4
	@DEBUG_VALUE: SCB_EnableDCache:ways <- $r10
	.loc	10 158 73                       @ ../../../../Library/CMSIS/Core/Include\m-profile/armv7m_cachel1.h:158:73
	ldr	r2, [sp, #8]                    @ 4-byte Reload
	orrs	r2, r1
	.loc	10 158 20 is_stmt 0             @ ../../../../Library/CMSIS/Core/Include\m-profile/armv7m_cachel1.h:158:20
	str	r2, [r0]
.Ltmp130:
	@DEBUG_VALUE: SCB_EnableDCache:ways <- [DW_OP_plus_uconst 4] [$sp+0]
	.loc	10 0 20                         @ ../../../../Library/CMSIS/Core/Include\m-profile/armv7m_cachel1.h:0:20
	ldr	r7, [sp, #4]                    @ 4-byte Reload
.Ltmp131:
	.p2align	2
.LBB1_57:                               @   in Loop: Header=BB1_53 Depth=1
	@DEBUG_VALUE: SCB_EnableDCache:sets <- $r4
	.loc	10 157 7 is_stmt 1              @ ../../../../Library/CMSIS/Core/Include\m-profile/armv7m_cachel1.h:157:7
	cmp	r5, #3
	blo	.LBB1_60
.Ltmp132:
@ %bb.58:                               @   in Loop: Header=BB1_53 Depth=1
	@DEBUG_VALUE: SCB_EnableDCache:sets <- $r4
	orr.w	r1, r1, r7, lsl #30
	adds	r7, #1
	add.w	r2, r1, #-1073741824
	eor	r6, r1, #-2147483648
	add.w	r3, r1, #1073741824
.Ltmp133:
	.loc	10 0 7 is_stmt 0                @ :0:7
.Ltmp134:
	.p2align	2
.LBB1_59:                               @   Parent Loop BB1_53 Depth=1
                                        @ =>  This Inner Loop Header: Depth=2
	@DEBUG_VALUE: SCB_EnableDCache:sets <- $r4
	@DEBUG_VALUE: SCB_EnableDCache:ways <- [DW_OP_constu 1, DW_OP_minus, DW_OP_stack_value] $r7
	.loc	10 163 23 is_stmt 1             @ ../../../../Library/CMSIS/Core/Include\m-profile/armv7m_cachel1.h:163:23
	subs	r7, #4
.Ltmp135:
	.loc	10 158 20                       @ ../../../../Library/CMSIS/Core/Include\m-profile/armv7m_cachel1.h:158:20
	str	r1, [r0]
	str	r2, [r0]
.Ltmp136:
	@DEBUG_VALUE: SCB_EnableDCache:ways <- [DW_OP_constu 2, DW_OP_minus, DW_OP_stack_value] $r7
	str	r6, [r0]
.Ltmp137:
	@DEBUG_VALUE: SCB_EnableDCache:ways <- [DW_OP_constu 3, DW_OP_minus, DW_OP_stack_value] $r7
	str	r3, [r0]
.Ltmp138:
	@DEBUG_VALUE: SCB_EnableDCache:ways <- [DW_OP_constu 5, DW_OP_minus, DW_OP_stack_value] $r7
	.loc	10 163 7                        @ ../../../../Library/CMSIS/Core/Include\m-profile/armv7m_cachel1.h:163:7
	bne	.LBB1_59
.Ltmp139:
.LBB1_60:                               @   in Loop: Header=BB1_53 Depth=1
	@DEBUG_VALUE: SCB_EnableDCache:sets <- $r4
	.loc	10 164 17                       @ ../../../../Library/CMSIS/Core/Include\m-profile/armv7m_cachel1.h:164:17
	subs	r1, r4, #1
.Ltmp140:
	@DEBUG_VALUE: SCB_EnableDCache:ways <- [DW_OP_constu 1023, DW_OP_and, DW_OP_stack_value] undef
	@DEBUG_VALUE: SCB_EnableDCache:sets <- $r1
	.loc	10 157 7                        @ ../../../../Library/CMSIS/Core/Include\m-profile/armv7m_cachel1.h:157:7
	cmp.w	r9, #0
	and.w	r7, r11, r1, lsl #5
	mov	r2, r5
	beq	.LBB1_64
.Ltmp141:
@ %bb.61:                               @   in Loop: Header=BB1_53 Depth=1
	@DEBUG_VALUE: SCB_EnableDCache:sets <- $r1
	@DEBUG_VALUE: SCB_EnableDCache:ways <- [DW_OP_constu 1023, DW_OP_and, DW_OP_stack_value] undef
	.loc	10 158 73                       @ ../../../../Library/CMSIS/Core/Include\m-profile/armv7m_cachel1.h:158:73
	orr.w	r2, r8, r7
	.loc	10 158 20 is_stmt 0             @ ../../../../Library/CMSIS/Core/Include\m-profile/armv7m_cachel1.h:158:20
	str	r2, [r0]
.Ltmp142:
	@DEBUG_VALUE: SCB_EnableDCache:ways <- $lr
	.loc	10 0 20                         @ ../../../../Library/CMSIS/Core/Include\m-profile/armv7m_cachel1.h:0:20
	mov	r2, lr
	.loc	10 163 7 is_stmt 1              @ ../../../../Library/CMSIS/Core/Include\m-profile/armv7m_cachel1.h:163:7
	cmp.w	r9, #1
	beq	.LBB1_64
.Ltmp143:
@ %bb.62:                               @   in Loop: Header=BB1_53 Depth=1
	@DEBUG_VALUE: SCB_EnableDCache:sets <- $r1
	@DEBUG_VALUE: SCB_EnableDCache:ways <- $lr
	@DEBUG_VALUE: SCB_EnableDCache:ways <- $lr
	.loc	10 158 73                       @ ../../../../Library/CMSIS/Core/Include\m-profile/armv7m_cachel1.h:158:73
	ldr	r2, [sp, #12]                   @ 4-byte Reload
	.loc	10 163 7                        @ ../../../../Library/CMSIS/Core/Include\m-profile/armv7m_cachel1.h:163:7
	cmp.w	r9, #2
	.loc	10 158 73                       @ ../../../../Library/CMSIS/Core/Include\m-profile/armv7m_cachel1.h:158:73
	orr.w	r2, r2, r7
	.loc	10 158 20 is_stmt 0             @ ../../../../Library/CMSIS/Core/Include\m-profile/armv7m_cachel1.h:158:20
	str	r2, [r0]
.Ltmp144:
	@DEBUG_VALUE: SCB_EnableDCache:ways <- $r10
	.loc	10 0 20                         @ ../../../../Library/CMSIS/Core/Include\m-profile/armv7m_cachel1.h:0:20
	mov	r2, r10
	.loc	10 163 7 is_stmt 1              @ ../../../../Library/CMSIS/Core/Include\m-profile/armv7m_cachel1.h:163:7
	beq	.LBB1_64
.Ltmp145:
@ %bb.63:                               @   in Loop: Header=BB1_53 Depth=1
	@DEBUG_VALUE: SCB_EnableDCache:sets <- $r1
	@DEBUG_VALUE: SCB_EnableDCache:ways <- $r10
	@DEBUG_VALUE: SCB_EnableDCache:ways <- $r10
	.loc	10 158 73                       @ ../../../../Library/CMSIS/Core/Include\m-profile/armv7m_cachel1.h:158:73
	ldr	r2, [sp, #8]                    @ 4-byte Reload
	orrs	r2, r7
	.loc	10 158 20 is_stmt 0             @ ../../../../Library/CMSIS/Core/Include\m-profile/armv7m_cachel1.h:158:20
	str	r2, [r0]
.Ltmp146:
	@DEBUG_VALUE: SCB_EnableDCache:ways <- [DW_OP_plus_uconst 4] [$sp+0]
	.loc	10 0 20                         @ ../../../../Library/CMSIS/Core/Include\m-profile/armv7m_cachel1.h:0:20
	ldr	r2, [sp, #4]                    @ 4-byte Reload
.Ltmp147:
	.p2align	2
.LBB1_64:                               @   in Loop: Header=BB1_53 Depth=1
	@DEBUG_VALUE: SCB_EnableDCache:sets <- $r1
	.loc	10 157 7 is_stmt 1              @ ../../../../Library/CMSIS/Core/Include\m-profile/armv7m_cachel1.h:157:7
	cmp	r5, #3
	blo	.LBB1_52
.Ltmp148:
@ %bb.65:                               @   in Loop: Header=BB1_53 Depth=1
	@DEBUG_VALUE: SCB_EnableDCache:sets <- $r1
	orr.w	r7, r7, r2, lsl #30
	adds	r2, #1
	add.w	r12, r7, #-1073741824
	eor	r6, r7, #-2147483648
	add.w	r3, r7, #1073741824
.Ltmp149:
	.loc	10 0 7 is_stmt 0                @ :0:7
.Ltmp150:
	.p2align	2
.LBB1_66:                               @   Parent Loop BB1_53 Depth=1
                                        @ =>  This Inner Loop Header: Depth=2
	@DEBUG_VALUE: SCB_EnableDCache:sets <- $r1
	@DEBUG_VALUE: SCB_EnableDCache:ways <- [DW_OP_constu 1, DW_OP_minus, DW_OP_stack_value] $r2
	.loc	10 163 23 is_stmt 1             @ ../../../../Library/CMSIS/Core/Include\m-profile/armv7m_cachel1.h:163:23
	subs	r2, #4
.Ltmp151:
	.loc	10 158 20                       @ ../../../../Library/CMSIS/Core/Include\m-profile/armv7m_cachel1.h:158:20
	str	r7, [r0]
	str.w	r12, [r0]
.Ltmp152:
	@DEBUG_VALUE: SCB_EnableDCache:ways <- [DW_OP_constu 2, DW_OP_minus, DW_OP_stack_value] $r2
	str	r6, [r0]
.Ltmp153:
	@DEBUG_VALUE: SCB_EnableDCache:ways <- [DW_OP_constu 3, DW_OP_minus, DW_OP_stack_value] $r2
	str	r3, [r0]
.Ltmp154:
	@DEBUG_VALUE: SCB_EnableDCache:ways <- [DW_OP_constu 5, DW_OP_minus, DW_OP_stack_value] $r2
	.loc	10 163 7                        @ ../../../../Library/CMSIS/Core/Include\m-profile/armv7m_cachel1.h:163:7
	bne	.LBB1_66
	b	.LBB1_52
.Ltmp155:
.Lfunc_end1:
	.size	Reset_Handler, .Lfunc_end1-Reset_Handler
	.cfi_endproc
	.cantunwind
	.fnend
                                        @ -- End function
	.section	.text.HardFault_Handler,"ax",%progbits
	.hidden	HardFault_Handler               @ -- Begin function HardFault_Handler
	.weak	HardFault_Handler
	.p2align	2
	.type	HardFault_Handler,%function
	.code	16                              @ @HardFault_Handler
	.thumb_func
HardFault_Handler:
.Lfunc_begin2:
	.fnstart
	.cfi_startproc
@ %bb.0:
	@DEBUG_VALUE: HardFault_Handler:u32IRQ <- 0
	@DEBUG_VALUE: HardFault_Handler:psStackFrame <- 0
	.loc	2 573 5 prologue_end            @ ../../../../Library/Device/Nuvoton/M55M1/Source/startup_M55M1.c:573:5
	@APP
	mrs	r1, ipsr
	sub.w	r1, r1, #16
	tst.w	lr, #4
	ite	eq
	mrseq	r0, msp
	mrsne	r0, psp

	@NO_APP
.Ltmp156:
	@DEBUG_VALUE: HardFault_Handler:psStackFrame <- $r0
	@DEBUG_VALUE: HardFault_Handler:u32IRQ <- undef
	.loc	2 582 5                         @ ../../../../Library/Device/Nuvoton/M55M1/Source/startup_M55M1.c:582:5
	b	ProcessHardFault
.Ltmp157:
.Lfunc_end2:
	.size	HardFault_Handler, .Lfunc_end2-HardFault_Handler
	.cfi_endproc
	.cantunwind
	.fnend
                                        @ -- End function
	.section	.text.Reset_Handler_PreInit,"ax",%progbits
	.hidden	Reset_Handler_PreInit           @ -- Begin function Reset_Handler_PreInit
	.weak	Reset_Handler_PreInit
	.p2align	2
	.type	Reset_Handler_PreInit,%function
	.code	16                              @ @Reset_Handler_PreInit
	.thumb_func
Reset_Handler_PreInit:
.Lfunc_begin3:
	.loc	2 438 0                         @ ../../../../Library/Device/Nuvoton/M55M1/Source/startup_M55M1.c:438:0
	.fnstart
	.cfi_startproc
@ %bb.0:
	.save	{r7, lr}
	push	{r7, lr}
	.cfi_def_cfa_offset 8
	.cfi_offset lr, -4
	.cfi_offset r7, -8
	movw	r2, #61184
.Ltmp158:
	.loc	2 446 5 prologue_end            @ ../../../../Library/Device/Nuvoton/M55M1/Source/startup_M55M1.c:446:5
	movs	r0, #4
	movt	r2, #3356
	movs	r1, #2
	bl	CLK_SetBusClock
.Ltmp159:
	.loc	2 449 5 epilogue_begin          @ ../../../../Library/Device/Nuvoton/M55M1/Source/startup_M55M1.c:449:5
	pop.w	{r7, lr}
.Ltmp160:
	b	SystemCoreClockUpdate
.Ltmp161:
.Lfunc_end3:
	.size	Reset_Handler_PreInit, .Lfunc_end3-Reset_Handler_PreInit
	.cfi_endproc
	.cantunwind
	.fnend
                                        @ -- End function
	.hidden	__Vectors                       @ @__Vectors
	.type	__Vectors,%object
	.section	RESET,"aR",%progbits,unique,1
	.globl	__Vectors
	.p2align	2, 0x0
__Vectors:
__tagsym$$used.0:
	.long	Image$$ARM_LIB_STACK$$ZI$$Limit
	.long	Reset_Handler
	.long	NMI_Handler
	.long	HardFault_Handler
	.long	MemManage_Handler
	.long	BusFault_Handler
	.long	UsageFault_Handler
	.long	SecureFault_Handler
	.long	0
	.long	0
	.long	0
	.long	SVC_Handler
	.long	DebugMon_Handler
	.long	0
	.long	PendSV_Handler
	.long	SysTick_Handler
	.long	BODOUT_IRQHandler
	.long	IRC_IRQHandler
	.long	PMC_IRQHandler
	.long	SRAMPERR_IRQHandler
	.long	CKFAIL_IRQHandler
	.long	ISP_IRQHandler
	.long	RTC_IRQHandler
	.long	RTCTAMPER_IRQHandler
	.long	WDT0_IRQHandler
	.long	WWDT0_IRQHandler
	.long	0
	.long	WDT1_IRQHandler
	.long	WWDT1_IRQHandler
	.long	NPU_IRQHandler
	.long	EINT0_IRQHandler
	.long	EINT1_IRQHandler
	.long	EINT2_IRQHandler
	.long	EINT3_IRQHandler
	.long	EINT4_IRQHandler
	.long	EINT5_IRQHandler
	.long	GPA_IRQHandler
	.long	GPB_IRQHandler
	.long	GPC_IRQHandler
	.long	GPD_IRQHandler
	.long	GPE_IRQHandler
	.long	GPF_IRQHandler
	.long	GPG_IRQHandler
	.long	GPH_IRQHandler
	.long	GPI_IRQHandler
	.long	GPJ_IRQHandler
	.long	BRAKE0_IRQHandler
	.long	EPWM0P0_IRQHandler
	.long	EPWM0P1_IRQHandler
	.long	EPWM0P2_IRQHandler
	.long	BRAKE1_IRQHandler
	.long	EPWM1P0_IRQHandler
	.long	EPWM1P1_IRQHandler
	.long	EPWM1P2_IRQHandler
	.long	BPWM0_IRQHandler
	.long	BPWM1_IRQHandler
	.long	0
	.long	PDMA0_IRQHandler
	.long	PDMA1_IRQHandler
	.long	LPPDMA_IRQHandler
	.long	SCU_IRQHandler
	.long	0
	.long	KS_IRQHandler
	.long	TIMER0_IRQHandler
	.long	TIMER1_IRQHandler
	.long	TIMER2_IRQHandler
	.long	TIMER3_IRQHandler
	.long	LPTMR0_IRQHandler
	.long	LPTMR1_IRQHandler
	.long	0
	.long	TTMR0_IRQHandler
	.long	TTMR1_IRQHandler
	.long	USBH0_IRQHandler
	.long	USBH1_IRQHandler
	.long	USBD_IRQHandler
	.long	USBOTG_IRQHandler
	.long	HSUSBH_IRQHandler
	.long	HSUSBD_IRQHandler
	.long	HSOTG_IRQHandler
	.long	EMAC0_IRQHandler
	.long	QSPI0_IRQHandler
	.long	QSPI1_IRQHandler
	.long	SPI0_IRQHandler
	.long	SPI1_IRQHandler
	.long	SPI2_IRQHandler
	.long	SPI3_IRQHandler
	.long	0
	.long	LPSPI0_IRQHandler
	.long	0
	.long	SPIM0_IRQHandler
	.long	0
	.long	UART0_IRQHandler
	.long	UART1_IRQHandler
	.long	UART2_IRQHandler
	.long	UART3_IRQHandler
	.long	UART4_IRQHandler
	.long	UART5_IRQHandler
	.long	UART6_IRQHandler
	.long	UART7_IRQHandler
	.long	UART8_IRQHandler
	.long	UART9_IRQHandler
	.long	0
	.long	0
	.long	0
	.long	EINT6_IRQHandler
	.long	EINT7_IRQHandler
	.long	LPUART0_IRQHandler
	.long	0
	.long	I2C0_IRQHandler
	.long	I2C1_IRQHandler
	.long	I2C2_IRQHandler
	.long	I2C3_IRQHandler
	.long	LPI2C0_IRQHandler
	.long	USCI0_IRQHandler
	.long	0
	.long	SC0_IRQHandler
	.long	SC1_IRQHandler
	.long	SC2_IRQHandler
	.long	PSIO_IRQHandler
	.long	DMIC0_IRQHandler
	.long	DMIC0VAD_IRQHandler
	.long	I2S0_IRQHandler
	.long	I2S1_IRQHandler
	.long	TRNG_IRQHandler
	.long	I3C0_IRQHandler
	.long	0
	.long	OTFC0_IRQHandler
	.long	0
	.long	KPI_IRQHandler
	.long	SDH0_IRQHandler
	.long	SDH1_IRQHandler
	.long	CCAP_IRQHandler
	.long	CRYPTO_IRQHandler
	.long	CANFD00_IRQHandler
	.long	CANFD01_IRQHandler
	.long	CANFD10_IRQHandler
	.long	CANFD11_IRQHandler
	.long	ACMP01_IRQHandler
	.long	ACMP23_IRQHandler
	.long	0
	.long	0
	.long	CRC_IRQHandler
	.long	EADC00_IRQHandler
	.long	EADC01_IRQHandler
	.long	EADC02_IRQHandler
	.long	EADC03_IRQHandler
	.long	0
	.long	0
	.long	0
	.long	0
	.long	LPADC0_IRQHandler
	.long	DAC01_IRQHandler
	.long	0
	.long	EQEI0_IRQHandler
	.long	EQEI1_IRQHandler
	.long	EQEI2_IRQHandler
	.long	EQEI3_IRQHandler
	.long	ECAP0_IRQHandler
	.long	ECAP1_IRQHandler
	.long	ECAP2_IRQHandler
	.long	ECAP3_IRQHandler
	.long	0
	.long	0
	.long	0
	.long	0
	.long	AWF_IRQHandler
	.long	UTCPD_IRQHandler
	.long	0
	.long	0
	.long	0
	.long	0
	.long	0
	.long	0
	.long	0
	.long	0
	.long	0
	.long	GDMACH0_IRQHandler
	.long	GDMACH1_IRQHandler
	.size	__Vectors, 712

	.weak	NMI_Handler
	.type	NMI_Handler,%function
	.hidden	NMI_Handler
.set NMI_Handler, Default_Handler
	.weak	MemManage_Handler
	.type	MemManage_Handler,%function
	.hidden	MemManage_Handler
.set MemManage_Handler, Default_Handler
	.weak	BusFault_Handler
	.type	BusFault_Handler,%function
	.hidden	BusFault_Handler
.set BusFault_Handler, Default_Handler
	.weak	UsageFault_Handler
	.type	UsageFault_Handler,%function
	.hidden	UsageFault_Handler
.set UsageFault_Handler, Default_Handler
	.weak	SecureFault_Handler
	.type	SecureFault_Handler,%function
	.hidden	SecureFault_Handler
.set SecureFault_Handler, Default_Handler
	.weak	SVC_Handler
	.type	SVC_Handler,%function
	.hidden	SVC_Handler
.set SVC_Handler, Default_Handler
	.weak	DebugMon_Handler
	.type	DebugMon_Handler,%function
	.hidden	DebugMon_Handler
.set DebugMon_Handler, Default_Handler
	.weak	PendSV_Handler
	.type	PendSV_Handler,%function
	.hidden	PendSV_Handler
.set PendSV_Handler, Default_Handler
	.weak	SysTick_Handler
	.type	SysTick_Handler,%function
	.hidden	SysTick_Handler
.set SysTick_Handler, Default_Handler
	.weak	ACMP01_IRQHandler
	.type	ACMP01_IRQHandler,%function
	.hidden	ACMP01_IRQHandler
.set ACMP01_IRQHandler, Default_Handler
	.weak	ACMP23_IRQHandler
	.type	ACMP23_IRQHandler,%function
	.hidden	ACMP23_IRQHandler
.set ACMP23_IRQHandler, Default_Handler
	.weak	AWF_IRQHandler
	.type	AWF_IRQHandler,%function
	.hidden	AWF_IRQHandler
.set AWF_IRQHandler, Default_Handler
	.weak	BODOUT_IRQHandler
	.type	BODOUT_IRQHandler,%function
	.hidden	BODOUT_IRQHandler
.set BODOUT_IRQHandler, Default_Handler
	.weak	BPWM0_IRQHandler
	.type	BPWM0_IRQHandler,%function
	.hidden	BPWM0_IRQHandler
.set BPWM0_IRQHandler, Default_Handler
	.weak	BPWM1_IRQHandler
	.type	BPWM1_IRQHandler,%function
	.hidden	BPWM1_IRQHandler
.set BPWM1_IRQHandler, Default_Handler
	.weak	BRAKE0_IRQHandler
	.type	BRAKE0_IRQHandler,%function
	.hidden	BRAKE0_IRQHandler
.set BRAKE0_IRQHandler, Default_Handler
	.weak	BRAKE1_IRQHandler
	.type	BRAKE1_IRQHandler,%function
	.hidden	BRAKE1_IRQHandler
.set BRAKE1_IRQHandler, Default_Handler
	.weak	CANFD00_IRQHandler
	.type	CANFD00_IRQHandler,%function
	.hidden	CANFD00_IRQHandler
.set CANFD00_IRQHandler, Default_Handler
	.weak	CANFD01_IRQHandler
	.type	CANFD01_IRQHandler,%function
	.hidden	CANFD01_IRQHandler
.set CANFD01_IRQHandler, Default_Handler
	.weak	CANFD10_IRQHandler
	.type	CANFD10_IRQHandler,%function
	.hidden	CANFD10_IRQHandler
.set CANFD10_IRQHandler, Default_Handler
	.weak	CANFD11_IRQHandler
	.type	CANFD11_IRQHandler,%function
	.hidden	CANFD11_IRQHandler
.set CANFD11_IRQHandler, Default_Handler
	.weak	CCAP_IRQHandler
	.type	CCAP_IRQHandler,%function
	.hidden	CCAP_IRQHandler
.set CCAP_IRQHandler, Default_Handler
	.weak	CKFAIL_IRQHandler
	.type	CKFAIL_IRQHandler,%function
	.hidden	CKFAIL_IRQHandler
.set CKFAIL_IRQHandler, Default_Handler
	.weak	CRC_IRQHandler
	.type	CRC_IRQHandler,%function
	.hidden	CRC_IRQHandler
.set CRC_IRQHandler, Default_Handler
	.weak	CRYPTO_IRQHandler
	.type	CRYPTO_IRQHandler,%function
	.hidden	CRYPTO_IRQHandler
.set CRYPTO_IRQHandler, Default_Handler
	.weak	DAC01_IRQHandler
	.type	DAC01_IRQHandler,%function
	.hidden	DAC01_IRQHandler
.set DAC01_IRQHandler, Default_Handler
	.weak	DMIC0_IRQHandler
	.type	DMIC0_IRQHandler,%function
	.hidden	DMIC0_IRQHandler
.set DMIC0_IRQHandler, Default_Handler
	.weak	DMIC0VAD_IRQHandler
	.type	DMIC0VAD_IRQHandler,%function
	.hidden	DMIC0VAD_IRQHandler
.set DMIC0VAD_IRQHandler, Default_Handler
	.weak	EADC00_IRQHandler
	.type	EADC00_IRQHandler,%function
	.hidden	EADC00_IRQHandler
.set EADC00_IRQHandler, Default_Handler
	.weak	EADC01_IRQHandler
	.type	EADC01_IRQHandler,%function
	.hidden	EADC01_IRQHandler
.set EADC01_IRQHandler, Default_Handler
	.weak	EADC02_IRQHandler
	.type	EADC02_IRQHandler,%function
	.hidden	EADC02_IRQHandler
.set EADC02_IRQHandler, Default_Handler
	.weak	EADC03_IRQHandler
	.type	EADC03_IRQHandler,%function
	.hidden	EADC03_IRQHandler
.set EADC03_IRQHandler, Default_Handler
	.weak	ECAP0_IRQHandler
	.type	ECAP0_IRQHandler,%function
	.hidden	ECAP0_IRQHandler
.set ECAP0_IRQHandler, Default_Handler
	.weak	ECAP1_IRQHandler
	.type	ECAP1_IRQHandler,%function
	.hidden	ECAP1_IRQHandler
.set ECAP1_IRQHandler, Default_Handler
	.weak	ECAP2_IRQHandler
	.type	ECAP2_IRQHandler,%function
	.hidden	ECAP2_IRQHandler
.set ECAP2_IRQHandler, Default_Handler
	.weak	ECAP3_IRQHandler
	.type	ECAP3_IRQHandler,%function
	.hidden	ECAP3_IRQHandler
.set ECAP3_IRQHandler, Default_Handler
	.weak	EINT0_IRQHandler
	.type	EINT0_IRQHandler,%function
	.hidden	EINT0_IRQHandler
.set EINT0_IRQHandler, Default_Handler
	.weak	EINT1_IRQHandler
	.type	EINT1_IRQHandler,%function
	.hidden	EINT1_IRQHandler
.set EINT1_IRQHandler, Default_Handler
	.weak	EINT2_IRQHandler
	.type	EINT2_IRQHandler,%function
	.hidden	EINT2_IRQHandler
.set EINT2_IRQHandler, Default_Handler
	.weak	EINT3_IRQHandler
	.type	EINT3_IRQHandler,%function
	.hidden	EINT3_IRQHandler
.set EINT3_IRQHandler, Default_Handler
	.weak	EINT4_IRQHandler
	.type	EINT4_IRQHandler,%function
	.hidden	EINT4_IRQHandler
.set EINT4_IRQHandler, Default_Handler
	.weak	EINT5_IRQHandler
	.type	EINT5_IRQHandler,%function
	.hidden	EINT5_IRQHandler
.set EINT5_IRQHandler, Default_Handler
	.weak	EINT6_IRQHandler
	.type	EINT6_IRQHandler,%function
	.hidden	EINT6_IRQHandler
.set EINT6_IRQHandler, Default_Handler
	.weak	EINT7_IRQHandler
	.type	EINT7_IRQHandler,%function
	.hidden	EINT7_IRQHandler
.set EINT7_IRQHandler, Default_Handler
	.weak	EMAC0_IRQHandler
	.type	EMAC0_IRQHandler,%function
	.hidden	EMAC0_IRQHandler
.set EMAC0_IRQHandler, Default_Handler
	.weak	EPWM0P0_IRQHandler
	.type	EPWM0P0_IRQHandler,%function
	.hidden	EPWM0P0_IRQHandler
.set EPWM0P0_IRQHandler, Default_Handler
	.weak	EPWM0P1_IRQHandler
	.type	EPWM0P1_IRQHandler,%function
	.hidden	EPWM0P1_IRQHandler
.set EPWM0P1_IRQHandler, Default_Handler
	.weak	EPWM0P2_IRQHandler
	.type	EPWM0P2_IRQHandler,%function
	.hidden	EPWM0P2_IRQHandler
.set EPWM0P2_IRQHandler, Default_Handler
	.weak	EPWM1P0_IRQHandler
	.type	EPWM1P0_IRQHandler,%function
	.hidden	EPWM1P0_IRQHandler
.set EPWM1P0_IRQHandler, Default_Handler
	.weak	EPWM1P1_IRQHandler
	.type	EPWM1P1_IRQHandler,%function
	.hidden	EPWM1P1_IRQHandler
.set EPWM1P1_IRQHandler, Default_Handler
	.weak	EPWM1P2_IRQHandler
	.type	EPWM1P2_IRQHandler,%function
	.hidden	EPWM1P2_IRQHandler
.set EPWM1P2_IRQHandler, Default_Handler
	.weak	EQEI0_IRQHandler
	.type	EQEI0_IRQHandler,%function
	.hidden	EQEI0_IRQHandler
.set EQEI0_IRQHandler, Default_Handler
	.weak	EQEI1_IRQHandler
	.type	EQEI1_IRQHandler,%function
	.hidden	EQEI1_IRQHandler
.set EQEI1_IRQHandler, Default_Handler
	.weak	EQEI2_IRQHandler
	.type	EQEI2_IRQHandler,%function
	.hidden	EQEI2_IRQHandler
.set EQEI2_IRQHandler, Default_Handler
	.weak	EQEI3_IRQHandler
	.type	EQEI3_IRQHandler,%function
	.hidden	EQEI3_IRQHandler
.set EQEI3_IRQHandler, Default_Handler
	.weak	GDMACH0_IRQHandler
	.type	GDMACH0_IRQHandler,%function
	.hidden	GDMACH0_IRQHandler
.set GDMACH0_IRQHandler, Default_Handler
	.weak	GDMACH1_IRQHandler
	.type	GDMACH1_IRQHandler,%function
	.hidden	GDMACH1_IRQHandler
.set GDMACH1_IRQHandler, Default_Handler
	.weak	GPA_IRQHandler
	.type	GPA_IRQHandler,%function
	.hidden	GPA_IRQHandler
.set GPA_IRQHandler, Default_Handler
	.weak	GPB_IRQHandler
	.type	GPB_IRQHandler,%function
	.hidden	GPB_IRQHandler
.set GPB_IRQHandler, Default_Handler
	.weak	GPC_IRQHandler
	.type	GPC_IRQHandler,%function
	.hidden	GPC_IRQHandler
.set GPC_IRQHandler, Default_Handler
	.weak	GPD_IRQHandler
	.type	GPD_IRQHandler,%function
	.hidden	GPD_IRQHandler
.set GPD_IRQHandler, Default_Handler
	.weak	GPE_IRQHandler
	.type	GPE_IRQHandler,%function
	.hidden	GPE_IRQHandler
.set GPE_IRQHandler, Default_Handler
	.weak	GPF_IRQHandler
	.type	GPF_IRQHandler,%function
	.hidden	GPF_IRQHandler
.set GPF_IRQHandler, Default_Handler
	.weak	GPG_IRQHandler
	.type	GPG_IRQHandler,%function
	.hidden	GPG_IRQHandler
.set GPG_IRQHandler, Default_Handler
	.weak	GPH_IRQHandler
	.type	GPH_IRQHandler,%function
	.hidden	GPH_IRQHandler
.set GPH_IRQHandler, Default_Handler
	.weak	GPI_IRQHandler
	.type	GPI_IRQHandler,%function
	.hidden	GPI_IRQHandler
.set GPI_IRQHandler, Default_Handler
	.weak	GPJ_IRQHandler
	.type	GPJ_IRQHandler,%function
	.hidden	GPJ_IRQHandler
.set GPJ_IRQHandler, Default_Handler
	.weak	HSOTG_IRQHandler
	.type	HSOTG_IRQHandler,%function
	.hidden	HSOTG_IRQHandler
.set HSOTG_IRQHandler, Default_Handler
	.weak	HSUSBD_IRQHandler
	.type	HSUSBD_IRQHandler,%function
	.hidden	HSUSBD_IRQHandler
.set HSUSBD_IRQHandler, Default_Handler
	.weak	HSUSBH_IRQHandler
	.type	HSUSBH_IRQHandler,%function
	.hidden	HSUSBH_IRQHandler
.set HSUSBH_IRQHandler, Default_Handler
	.weak	I2C0_IRQHandler
	.type	I2C0_IRQHandler,%function
	.hidden	I2C0_IRQHandler
.set I2C0_IRQHandler, Default_Handler
	.weak	I2C1_IRQHandler
	.type	I2C1_IRQHandler,%function
	.hidden	I2C1_IRQHandler
.set I2C1_IRQHandler, Default_Handler
	.weak	I2C2_IRQHandler
	.type	I2C2_IRQHandler,%function
	.hidden	I2C2_IRQHandler
.set I2C2_IRQHandler, Default_Handler
	.weak	I2C3_IRQHandler
	.type	I2C3_IRQHandler,%function
	.hidden	I2C3_IRQHandler
.set I2C3_IRQHandler, Default_Handler
	.weak	I2S0_IRQHandler
	.type	I2S0_IRQHandler,%function
	.hidden	I2S0_IRQHandler
.set I2S0_IRQHandler, Default_Handler
	.weak	I2S1_IRQHandler
	.type	I2S1_IRQHandler,%function
	.hidden	I2S1_IRQHandler
.set I2S1_IRQHandler, Default_Handler
	.weak	I3C0_IRQHandler
	.type	I3C0_IRQHandler,%function
	.hidden	I3C0_IRQHandler
.set I3C0_IRQHandler, Default_Handler
	.weak	IRC_IRQHandler
	.type	IRC_IRQHandler,%function
	.hidden	IRC_IRQHandler
.set IRC_IRQHandler, Default_Handler
	.weak	ISP_IRQHandler
	.type	ISP_IRQHandler,%function
	.hidden	ISP_IRQHandler
.set ISP_IRQHandler, Default_Handler
	.weak	KPI_IRQHandler
	.type	KPI_IRQHandler,%function
	.hidden	KPI_IRQHandler
.set KPI_IRQHandler, Default_Handler
	.weak	KS_IRQHandler
	.type	KS_IRQHandler,%function
	.hidden	KS_IRQHandler
.set KS_IRQHandler, Default_Handler
	.weak	LPADC0_IRQHandler
	.type	LPADC0_IRQHandler,%function
	.hidden	LPADC0_IRQHandler
.set LPADC0_IRQHandler, Default_Handler
	.weak	LPI2C0_IRQHandler
	.type	LPI2C0_IRQHandler,%function
	.hidden	LPI2C0_IRQHandler
.set LPI2C0_IRQHandler, Default_Handler
	.weak	LPPDMA_IRQHandler
	.type	LPPDMA_IRQHandler,%function
	.hidden	LPPDMA_IRQHandler
.set LPPDMA_IRQHandler, Default_Handler
	.weak	LPSPI0_IRQHandler
	.type	LPSPI0_IRQHandler,%function
	.hidden	LPSPI0_IRQHandler
.set LPSPI0_IRQHandler, Default_Handler
	.weak	LPTMR0_IRQHandler
	.type	LPTMR0_IRQHandler,%function
	.hidden	LPTMR0_IRQHandler
.set LPTMR0_IRQHandler, Default_Handler
	.weak	LPTMR1_IRQHandler
	.type	LPTMR1_IRQHandler,%function
	.hidden	LPTMR1_IRQHandler
.set LPTMR1_IRQHandler, Default_Handler
	.weak	LPUART0_IRQHandler
	.type	LPUART0_IRQHandler,%function
	.hidden	LPUART0_IRQHandler
.set LPUART0_IRQHandler, Default_Handler
	.weak	NPU_IRQHandler
	.type	NPU_IRQHandler,%function
	.hidden	NPU_IRQHandler
.set NPU_IRQHandler, Default_Handler
	.weak	OTFC0_IRQHandler
	.type	OTFC0_IRQHandler,%function
	.hidden	OTFC0_IRQHandler
.set OTFC0_IRQHandler, Default_Handler
	.weak	PDMA0_IRQHandler
	.type	PDMA0_IRQHandler,%function
	.hidden	PDMA0_IRQHandler
.set PDMA0_IRQHandler, Default_Handler
	.weak	PDMA1_IRQHandler
	.type	PDMA1_IRQHandler,%function
	.hidden	PDMA1_IRQHandler
.set PDMA1_IRQHandler, Default_Handler
	.weak	PMC_IRQHandler
	.type	PMC_IRQHandler,%function
	.hidden	PMC_IRQHandler
.set PMC_IRQHandler, Default_Handler
	.weak	PSIO_IRQHandler
	.type	PSIO_IRQHandler,%function
	.hidden	PSIO_IRQHandler
.set PSIO_IRQHandler, Default_Handler
	.weak	QSPI0_IRQHandler
	.type	QSPI0_IRQHandler,%function
	.hidden	QSPI0_IRQHandler
.set QSPI0_IRQHandler, Default_Handler
	.weak	QSPI1_IRQHandler
	.type	QSPI1_IRQHandler,%function
	.hidden	QSPI1_IRQHandler
.set QSPI1_IRQHandler, Default_Handler
	.weak	RTC_IRQHandler
	.type	RTC_IRQHandler,%function
	.hidden	RTC_IRQHandler
.set RTC_IRQHandler, Default_Handler
	.weak	RTCTAMPER_IRQHandler
	.type	RTCTAMPER_IRQHandler,%function
	.hidden	RTCTAMPER_IRQHandler
.set RTCTAMPER_IRQHandler, Default_Handler
	.weak	SC0_IRQHandler
	.type	SC0_IRQHandler,%function
	.hidden	SC0_IRQHandler
.set SC0_IRQHandler, Default_Handler
	.weak	SC1_IRQHandler
	.type	SC1_IRQHandler,%function
	.hidden	SC1_IRQHandler
.set SC1_IRQHandler, Default_Handler
	.weak	SC2_IRQHandler
	.type	SC2_IRQHandler,%function
	.hidden	SC2_IRQHandler
.set SC2_IRQHandler, Default_Handler
	.weak	SCU_IRQHandler
	.type	SCU_IRQHandler,%function
	.hidden	SCU_IRQHandler
.set SCU_IRQHandler, Default_Handler
	.weak	SDH0_IRQHandler
	.type	SDH0_IRQHandler,%function
	.hidden	SDH0_IRQHandler
.set SDH0_IRQHandler, Default_Handler
	.weak	SDH1_IRQHandler
	.type	SDH1_IRQHandler,%function
	.hidden	SDH1_IRQHandler
.set SDH1_IRQHandler, Default_Handler
	.weak	SPI0_IRQHandler
	.type	SPI0_IRQHandler,%function
	.hidden	SPI0_IRQHandler
.set SPI0_IRQHandler, Default_Handler
	.weak	SPI1_IRQHandler
	.type	SPI1_IRQHandler,%function
	.hidden	SPI1_IRQHandler
.set SPI1_IRQHandler, Default_Handler
	.weak	SPI2_IRQHandler
	.type	SPI2_IRQHandler,%function
	.hidden	SPI2_IRQHandler
.set SPI2_IRQHandler, Default_Handler
	.weak	SPI3_IRQHandler
	.type	SPI3_IRQHandler,%function
	.hidden	SPI3_IRQHandler
.set SPI3_IRQHandler, Default_Handler
	.weak	SPIM0_IRQHandler
	.type	SPIM0_IRQHandler,%function
	.hidden	SPIM0_IRQHandler
.set SPIM0_IRQHandler, Default_Handler
	.weak	SRAMPERR_IRQHandler
	.type	SRAMPERR_IRQHandler,%function
	.hidden	SRAMPERR_IRQHandler
.set SRAMPERR_IRQHandler, Default_Handler
	.weak	TIMER0_IRQHandler
	.type	TIMER0_IRQHandler,%function
	.hidden	TIMER0_IRQHandler
.set TIMER0_IRQHandler, Default_Handler
	.weak	TIMER1_IRQHandler
	.type	TIMER1_IRQHandler,%function
	.hidden	TIMER1_IRQHandler
.set TIMER1_IRQHandler, Default_Handler
	.weak	TIMER2_IRQHandler
	.type	TIMER2_IRQHandler,%function
	.hidden	TIMER2_IRQHandler
.set TIMER2_IRQHandler, Default_Handler
	.weak	TIMER3_IRQHandler
	.type	TIMER3_IRQHandler,%function
	.hidden	TIMER3_IRQHandler
.set TIMER3_IRQHandler, Default_Handler
	.weak	TRNG_IRQHandler
	.type	TRNG_IRQHandler,%function
	.hidden	TRNG_IRQHandler
.set TRNG_IRQHandler, Default_Handler
	.weak	TTMR0_IRQHandler
	.type	TTMR0_IRQHandler,%function
	.hidden	TTMR0_IRQHandler
.set TTMR0_IRQHandler, Default_Handler
	.weak	TTMR1_IRQHandler
	.type	TTMR1_IRQHandler,%function
	.hidden	TTMR1_IRQHandler
.set TTMR1_IRQHandler, Default_Handler
	.weak	UART0_IRQHandler
	.type	UART0_IRQHandler,%function
	.hidden	UART0_IRQHandler
.set UART0_IRQHandler, Default_Handler
	.weak	UART1_IRQHandler
	.type	UART1_IRQHandler,%function
	.hidden	UART1_IRQHandler
.set UART1_IRQHandler, Default_Handler
	.weak	UART2_IRQHandler
	.type	UART2_IRQHandler,%function
	.hidden	UART2_IRQHandler
.set UART2_IRQHandler, Default_Handler
	.weak	UART3_IRQHandler
	.type	UART3_IRQHandler,%function
	.hidden	UART3_IRQHandler
.set UART3_IRQHandler, Default_Handler
	.weak	UART4_IRQHandler
	.type	UART4_IRQHandler,%function
	.hidden	UART4_IRQHandler
.set UART4_IRQHandler, Default_Handler
	.weak	UART5_IRQHandler
	.type	UART5_IRQHandler,%function
	.hidden	UART5_IRQHandler
.set UART5_IRQHandler, Default_Handler
	.weak	UART6_IRQHandler
	.type	UART6_IRQHandler,%function
	.hidden	UART6_IRQHandler
.set UART6_IRQHandler, Default_Handler
	.weak	UART7_IRQHandler
	.type	UART7_IRQHandler,%function
	.hidden	UART7_IRQHandler
.set UART7_IRQHandler, Default_Handler
	.weak	UART8_IRQHandler
	.type	UART8_IRQHandler,%function
	.hidden	UART8_IRQHandler
.set UART8_IRQHandler, Default_Handler
	.weak	UART9_IRQHandler
	.type	UART9_IRQHandler,%function
	.hidden	UART9_IRQHandler
.set UART9_IRQHandler, Default_Handler
	.weak	USBD_IRQHandler
	.type	USBD_IRQHandler,%function
	.hidden	USBD_IRQHandler
.set USBD_IRQHandler, Default_Handler
	.weak	USBH0_IRQHandler
	.type	USBH0_IRQHandler,%function
	.hidden	USBH0_IRQHandler
.set USBH0_IRQHandler, Default_Handler
	.weak	USBH1_IRQHandler
	.type	USBH1_IRQHandler,%function
	.hidden	USBH1_IRQHandler
.set USBH1_IRQHandler, Default_Handler
	.weak	USBOTG_IRQHandler
	.type	USBOTG_IRQHandler,%function
	.hidden	USBOTG_IRQHandler
.set USBOTG_IRQHandler, Default_Handler
	.weak	USCI0_IRQHandler
	.type	USCI0_IRQHandler,%function
	.hidden	USCI0_IRQHandler
.set USCI0_IRQHandler, Default_Handler
	.weak	UTCPD_IRQHandler
	.type	UTCPD_IRQHandler,%function
	.hidden	UTCPD_IRQHandler
.set UTCPD_IRQHandler, Default_Handler
	.weak	WDT0_IRQHandler
	.type	WDT0_IRQHandler,%function
	.hidden	WDT0_IRQHandler
.set WDT0_IRQHandler, Default_Handler
	.weak	WDT1_IRQHandler
	.type	WDT1_IRQHandler,%function
	.hidden	WDT1_IRQHandler
.set WDT1_IRQHandler, Default_Handler
	.weak	WWDT0_IRQHandler
	.type	WWDT0_IRQHandler,%function
	.hidden	WWDT0_IRQHandler
.set WWDT0_IRQHandler, Default_Handler
	.weak	WWDT1_IRQHandler
	.type	WWDT1_IRQHandler,%function
	.hidden	WWDT1_IRQHandler
.set WWDT1_IRQHandler, Default_Handler
	.section	".note.GNU-stack","",%progbits
	.eabi_attribute	30, 1	@ Tag_ABI_optimization_goals
	.ARM_attribute	16, 1	@ Tag_AV_eba