	.text
	.syntax unified
	.eabi_attribute	67, "2.09"	@ Tag_conformance
	.cpu	cortex-m55
	.eabi_attribute	6, 21	@ Tag_CPU_arch
	.eabi_attribute	7, 77	@ Tag_CPU_arch_profile
	.eabi_attribute	8, 0	@ Tag_ARM_ISA_use
	.eabi_attribute	9, 3	@ Tag_THUMB_ISA_use
	.fpu	fpv5-d16
	.arch_extension	mve.fp
	.eabi_attribute	36, 1	@ Tag_FP_HP_extension
	.eabi_attribute	48, 2	@ Tag_MVE_arch
	.eabi_attribute	46, 1	@ Tag_DSP_extension
	.eabi_attribute	34, 1	@ Tag_CPU_unaligned_access
	.eabi_attribute	17, 1	@ Tag_ABI_PCS_GOT_use
	.eabi_attribute	20, 2	@ Tag_ABI_FP_denormal
	.eabi_attribute	21, 0	@ Tag_ABI_FP_exceptions
	.eabi_attribute	23, 1	@ Tag_ABI_FP_number_model
	.eabi_attribute	24, 1	@ Tag_ABI_align_needed
	.eabi_attribute	25, 1	@ Tag_ABI_align_preserved
	.eabi_attribute	28, 1	@ Tag_ABI_VFP_args
	.eabi_attribute	38, 1	@ Tag_ABI_FP_16bit_format
	.eabi_attribute	18, 2	@ Tag_ABI_PCS_wchar_t
	.eabi_attribute	26, 1	@ Tag_ABI_enum_size
	.eabi_attribute	14, 0	@ Tag_ABI_PCS_R9_use
	.file	"UVC.c"
	.file	1 "C:\\Users\\jimmy" "AppData\\Local\\Keil_v5\\ARM\\ARMCLANG\\bin\\..\\include\\stdint.h"
	.file	2 "C:\\Users\\jimmy\\Desktop\\Nuvoton\\Nuvoton-Team-2\\repos\\m55m1-ElevatorCounting-YOLOv8n\\KEIL" "../Device/UVC/UVC.c"
	.file	3 "C:\\Users\\jimmy\\Desktop\\Nuvoton\\Nuvoton-Team-2\\repos\\m55m1-ElevatorCounting-YOLOv8n\\KEIL" "../Device/include\\UVC.h"
	.file	4 "C:\\Users\\jimmy\\Desktop\\Nuvoton\\Nuvoton-Team-2\\repos\\m55m1-ElevatorCounting-YOLOv8n\\KEIL" "../../../../Library/Device/Nuvoton/M55M1/Include\\M55M1.h"
	.file	5 "C:\\Users\\jimmy\\Desktop\\Nuvoton\\Nuvoton-Team-2\\repos\\m55m1-ElevatorCounting-YOLOv8n\\KEIL" "../../../../Library/Device/Nuvoton/M55M1/Include\\hsusbd_reg.h"
	.file	6 "C:\\Users\\jimmy\\Desktop\\Nuvoton\\Nuvoton-Team-2\\repos\\m55m1-ElevatorCounting-YOLOv8n\\KEIL" "../../../../Library/Device/Nuvoton/M55M1/Include\\ccap_reg.h"
	.file	7 "C:\\Users\\jimmy\\Desktop\\Nuvoton\\Nuvoton-Team-2\\repos\\m55m1-ElevatorCounting-YOLOv8n\\KEIL" "../../../../Library/Device/Nuvoton/M55M1/Include\\sys_reg.h"
	.file	8 "C:\\Users\\jimmy\\Desktop\\Nuvoton\\Nuvoton-Team-2\\repos\\m55m1-ElevatorCounting-YOLOv8n\\KEIL" "../../../../Library/CMSIS/Core/Include\\core_cm55.h"
	.section	.text.HSUSBD_IRQHandler,"ax",%progbits
	.hidden	HSUSBD_IRQHandler               @ -- Begin function HSUSBD_IRQHandler
	.globl	HSUSBD_IRQHandler
	.p2align	2
	.type	HSUSBD_IRQHandler,%function
	.code	16                              @ @HSUSBD_IRQHandler
	.thumb_func
HSUSBD_IRQHandler:
.Lfunc_begin0:
	.loc	2 30 0                          @ ../Device/UVC/UVC.c:30:0
	.fnstart
	.cfi_sections .debug_frame
	.cfi_startproc
@ %bb.0:
	.save	{r4, lr}
	push	{r4, lr}
	.cfi_def_cfa_offset 8
	.cfi_offset lr, -4
	.cfi_offset r4, -8
	.pad	#8
	sub	sp, #8
	.cfi_def_cfa_offset 16
	movw	r4, #20532
	movt	r4, #16416
.Ltmp0:
	.loc	2 34 22 prologue_end            @ ../Device/UVC/UVC.c:34:22
	ldr	r0, [r4, #-52]
	.loc	2 34 40 is_stmt 0               @ ../Device/UVC/UVC.c:34:40
	ldr	r1, [r4, #-44]
	.loc	2 34 30                         @ ../Device/UVC/UVC.c:34:30
	ands	r0, r1
	.loc	2 34 12                         @ ../Device/UVC/UVC.c:34:12
	str	r0, [sp, #4]
.Ltmp1:
	.loc	2 36 10 is_stmt 1               @ ../Device/UVC/UVC.c:36:10
	ldr	r0, [sp, #4]
.Ltmp2:
	.loc	2 36 9 is_stmt 0                @ ../Device/UVC/UVC.c:36:9
	cmp	r0, #0
	beq.w	.LBB0_65
@ %bb.1:
.Ltmp3:
	.loc	2 39 9 is_stmt 1                @ ../Device/UVC/UVC.c:39:9
	ldr	r0, [sp, #4]
.Ltmp4:
	.loc	2 39 9 is_stmt 0                @ ../Device/UVC/UVC.c:39:9
	lsls	r0, r0, #31
	beq.w	.LBB0_12
@ %bb.2:
.Ltmp5:
	.loc	2 41 25 is_stmt 1               @ ../Device/UVC/UVC.c:41:25
	ldr	r0, [r4, #-36]
	.loc	2 41 45 is_stmt 0               @ ../Device/UVC/UVC.c:41:45
	ldr	r1, [r4, #-32]
	.loc	2 41 35                         @ ../Device/UVC/UVC.c:41:35
	ands	r0, r1
	.loc	2 41 15                         @ ../Device/UVC/UVC.c:41:15
	str	r0, [sp]
.Ltmp6:
	.loc	2 43 13 is_stmt 1               @ ../Device/UVC/UVC.c:43:13
	ldr	r0, [sp]
.Ltmp7:
	.loc	2 43 13 is_stmt 0               @ ../Device/UVC/UVC.c:43:13
	lsls	r0, r0, #31
	itt	ne
	movne	r0, #1
.Ltmp8:
	.loc	2 44 13 is_stmt 1               @ ../Device/UVC/UVC.c:44:13
	strne	r0, [r4, #-36]
.Ltmp9:
	.loc	2 46 13                         @ ../Device/UVC/UVC.c:46:13
	ldr	r0, [sp]
.Ltmp10:
	.loc	2 46 13 is_stmt 0               @ ../Device/UVC/UVC.c:46:13
	lsls	r0, r0, #30
	bpl	.LBB0_4
@ %bb.3:
.Ltmp11:
	.loc	2 48 13 is_stmt 1               @ ../Device/UVC/UVC.c:48:13
	bl	HSUSBD_SwReset
.Ltmp12:
	.loc	2 49 27                         @ ../Device/UVC/UVC.c:49:27
	movw	r1, :lower16:gAppConnected
	movs	r0, #0
	movt	r1, :upper16:gAppConnected
.Ltmp13:
	.loc	2 0 0 is_stmt 0                 @ ../Device/UVC/UVC.c:0:0
	movw	r2, :lower16:gMaxPacketSize
.Ltmp14:
	.loc	2 49 27                         @ ../Device/UVC/UVC.c:49:27
	strb	r0, [r1]
	movs	r1, #128
.Ltmp15:
	.file	9 "C:\\Users\\jimmy\\Desktop\\Nuvoton\\Nuvoton-Team-2\\repos\\m55m1-ElevatorCounting-YOLOv8n\\KEIL" "../../../../Library/StdDriver/inc\\hsusbd.h"
	.loc	9 225 20 is_stmt 1              @ ../../../../Library/StdDriver/inc\hsusbd.h:225:20
	str	r0, [r4, #44]
	.loc	9 226 20                        @ ../../../../Library/StdDriver/inc\hsusbd.h:226:20
	str	r1, [r4, #40]
	movs	r1, #1
	.loc	9 227 20                        @ ../../../../Library/StdDriver/inc\hsusbd.h:227:20
	str	r0, [r4, #40]
.Ltmp16:
	.loc	2 52 38                         @ ../Device/UVC/UVC.c:52:38
	str	r1, [r4, #64]
	.loc	2 53 38                         @ ../Device/UVC/UVC.c:53:38
	str	r1, [r4, #104]
.Ltmp17:
	.loc	2 55 25                         @ ../Device/UVC/UVC.c:55:25
	ldr	r1, [r4, #-28]
.Ltmp18:
	@DEBUG_VALUE: HSUSBD_ConfigEp:u32EpDir <- 8
	@DEBUG_VALUE: HSUSBD_ConfigEp:u32EpDir <- 8
	@DEBUG_VALUE: HSUSBD_ConfigEp:u32EpType <- 4
	@DEBUG_VALUE: HSUSBD_ConfigEp:u32EpType <- 4
	@DEBUG_VALUE: HSUSBD_ConfigEp:u32EpNum <- 3
	@DEBUG_VALUE: HSUSBD_ConfigEp:u32EpNum <- 3
	@DEBUG_VALUE: HSUSBD_ConfigEp:u32Ep <- 2
	@DEBUG_VALUE: HSUSBD_ConfigEp:u32Ep <- 2
	@DEBUG_VALUE: HSUSBD_SetEpBufAddr:u32Len <- 8
	@DEBUG_VALUE: HSUSBD_SetEpBufAddr:u32Len <- 8
	@DEBUG_VALUE: HSUSBD_SetEpBufAddr:u32Base <- 3584
	@DEBUG_VALUE: HSUSBD_SetEpBufAddr:u32Base <- 3584
	@DEBUG_VALUE: HSUSBD_SetEpBufAddr:u32Ep <- 2
	@DEBUG_VALUE: HSUSBD_SetEpBufAddr:u32Ep <- 2
	@DEBUG_VALUE: HSUSBD_ConfigEp:u32EpDir <- 8
	@DEBUG_VALUE: HSUSBD_ConfigEp:u32EpDir <- 8
	@DEBUG_VALUE: HSUSBD_ConfigEp:u32EpType <- 6
	@DEBUG_VALUE: HSUSBD_ConfigEp:u32EpType <- 6
	@DEBUG_VALUE: HSUSBD_ConfigEp:u32EpNum <- 1
	@DEBUG_VALUE: HSUSBD_ConfigEp:u32EpNum <- 1
	@DEBUG_VALUE: HSUSBD_ConfigEp:u32Ep <- 0
	@DEBUG_VALUE: HSUSBD_ConfigEp:u32Ep <- 0
	@DEBUG_VALUE: HSUSBD_SetEpBufAddr:u32Len <- 2048
	@DEBUG_VALUE: HSUSBD_SetEpBufAddr:u32Len <- 2048
	@DEBUG_VALUE: HSUSBD_SetEpBufAddr:u32Base <- 512
	@DEBUG_VALUE: HSUSBD_SetEpBufAddr:u32Base <- 512
	@DEBUG_VALUE: HSUSBD_SetEpBufAddr:u32Ep <- 0
	@DEBUG_VALUE: HSUSBD_SetEpBufAddr:u32Ep <- 0
	.loc	2 0 0 is_stmt 0                 @ ../Device/UVC/UVC.c:0:0
	movt	r2, :upper16:gMaxPacketSize
	lsls	r1, r1, #29
	mov.w	r1, #1024
	it	pl
	movpl	r1, #64
	str	r1, [r2]
	mov.w	r2, #512
	str	r2, [r4, #80]
	movw	r2, #2559
	str	r2, [r4, #84]
	str	r1, [r4, #68]
	movs	r1, #5
	str	r1, [r4, #64]
	movs	r1, #31
	str	r1, [r4, #76]
	mov.w	r1, #3584
	str.w	r1, [r4, #160]
	movw	r1, #3591
	str.w	r1, [r4, #164]
	movs	r1, #8
	str.w	r1, [r4, #148]
	movs	r1, #3
	str.w	r1, [r4, #144]
	movs	r1, #61
	str.w	r1, [r4, #156]
	movs	r1, #2
.Ltmp19:
	.loc	2 60 13 is_stmt 1               @ ../Device/UVC/UVC.c:60:13
	str	r1, [r4, #-4]
	.loc	2 61 13                         @ ../Device/UVC/UVC.c:61:13
	str	r0, [r4, #-20]
	movs	r0, #14
	.loc	2 62 13                         @ ../Device/UVC/UVC.c:62:13
	str	r0, [r4, #-32]
	movw	r0, #8188
	.loc	2 63 13                         @ ../Device/UVC/UVC.c:63:13
	str	r1, [r4, #-36]
	.loc	2 64 13                         @ ../Device/UVC/UVC.c:64:13
	str	r0, [r4]
.Ltmp20:
.LBB0_4:
	.loc	2 67 13                         @ ../Device/UVC/UVC.c:67:13
	ldr	r0, [sp]
.Ltmp21:
	.loc	2 67 13 is_stmt 0               @ ../Device/UVC/UVC.c:67:13
	lsls	r0, r0, #29
	itttt	mi
	movmi	r0, #10
.Ltmp22:
	.loc	2 69 13 is_stmt 1               @ ../Device/UVC/UVC.c:69:13
	strmi	r0, [r4, #-32]
	movmi	r0, #4
	.loc	2 70 13                         @ ../Device/UVC/UVC.c:70:13
	strmi	r0, [r4, #-36]
.Ltmp23:
	.loc	2 73 13                         @ ../Device/UVC/UVC.c:73:13
	ldr	r0, [sp]
.Ltmp24:
	.loc	2 73 13 is_stmt 0               @ ../Device/UVC/UVC.c:73:13
	lsls	r0, r0, #28
	itttt	mi
	movmi	r0, #6
.Ltmp25:
	.loc	2 75 13 is_stmt 1               @ ../Device/UVC/UVC.c:75:13
	strmi	r0, [r4, #-32]
	movmi	r0, #8
	.loc	2 76 13                         @ ../Device/UVC/UVC.c:76:13
	strmi	r0, [r4, #-36]
.Ltmp26:
	.loc	2 79 13                         @ ../Device/UVC/UVC.c:79:13
	ldr	r0, [sp]
.Ltmp27:
	.loc	2 79 13 is_stmt 0               @ ../Device/UVC/UVC.c:79:13
	lsls	r0, r0, #27
	itttt	mi
	movmi	r0, #2
.Ltmp28:
	.loc	2 81 13 is_stmt 1               @ ../Device/UVC/UVC.c:81:13
	strmi	r0, [r4, #-4]
	movmi	r0, #16
	.loc	2 82 13                         @ ../Device/UVC/UVC.c:82:13
	strmi	r0, [r4, #-36]
.Ltmp29:
	.loc	2 85 13                         @ ../Device/UVC/UVC.c:85:13
	ldr	r0, [sp]
.Ltmp30:
	.loc	2 85 13 is_stmt 0               @ ../Device/UVC/UVC.c:85:13
	lsls	r0, r0, #26
	bpl	.LBB0_8
@ %bb.5:
.Ltmp31:
	.loc	2 87 30 is_stmt 1               @ ../Device/UVC/UVC.c:87:30
	movw	r0, :lower16:g_hsusbd_DmaDone
	movs	r1, #1
	movt	r0, :upper16:g_hsusbd_DmaDone
	str	r1, [r0]
	movs	r0, #32
	.loc	2 88 13                         @ ../Device/UVC/UVC.c:88:13
	str	r0, [r4, #-36]
.Ltmp32:
	.loc	2 90 25                         @ ../Device/UVC/UVC.c:90:25
	ldr	r0, [r4, #40]
.Ltmp33:
	.loc	2 90 17 is_stmt 0               @ ../Device/UVC/UVC.c:90:17
	lsls	r0, r0, #27
	bpl	.LBB0_8
@ %bb.6:
	.loc	2 0 17                          @ ../Device/UVC/UVC.c:0:17
	movw	r0, :lower16:g_hsusbd_ShortPacket
	movt	r0, :upper16:g_hsusbd_ShortPacket
	ldrb	r1, [r0]
	.loc	2 90 17                         @ ../Device/UVC/UVC.c:90:17
	cmp	r1, #1
	bne	.LBB0_8
@ %bb.7:
.Ltmp34:
	.loc	2 94 65 is_stmt 1               @ ../Device/UVC/UVC.c:94:65
	ldr	r1, [r4, #64]
	.loc	2 94 74 is_stmt 0               @ ../Device/UVC/UVC.c:94:74
	and	r1, r1, #16
	.loc	2 94 82                         @ ../Device/UVC/UVC.c:94:82
	adds	r1, #64
	.loc	2 94 46                         @ ../Device/UVC/UVC.c:94:46
	str	r1, [r4, #64]
	movs	r1, #0
	.loc	2 95 42 is_stmt 1               @ ../Device/UVC/UVC.c:95:42
	strb	r1, [r0]
.Ltmp35:
.LBB0_8:
	.loc	2 100 13                        @ ../Device/UVC/UVC.c:100:13
	ldr	r0, [sp]
.Ltmp36:
	.loc	2 100 13 is_stmt 0              @ ../Device/UVC/UVC.c:100:13
	lsls	r0, r0, #25
	itt	mi
	movmi	r0, #64
.Ltmp37:
	.loc	2 101 13 is_stmt 1              @ ../Device/UVC/UVC.c:101:13
	strmi	r0, [r4, #-36]
.Ltmp38:
	.loc	2 103 13                        @ ../Device/UVC/UVC.c:103:13
	ldr	r0, [sp]
.Ltmp39:
	.loc	2 103 13 is_stmt 0              @ ../Device/UVC/UVC.c:103:13
	lsls	r0, r0, #23
	bpl	.LBB0_12
@ %bb.9:
	.loc	2 0 13                          @ ../Device/UVC/UVC.c:0:13
	movw	r0, #22276
	movt	r0, #16416
.Ltmp40:
	.loc	2 105 17 is_stmt 1              @ ../Device/UVC/UVC.c:105:17
	ldr	r1, [r0]
.Ltmp41:
	.loc	2 105 17 is_stmt 0              @ ../Device/UVC/UVC.c:105:17
	cmp.w	r1, #-1
	ble.w	.LBB0_53
@ %bb.10:
.Ltmp42:
	.loc	2 117 31 is_stmt 1              @ ../Device/UVC/UVC.c:117:31
	movw	r1, :lower16:gAppConnected
	movs	r2, #0
	movt	r1, :upper16:gAppConnected
	strb	r2, [r1]
	.loc	2 119 17                        @ ../Device/UVC/UVC.c:119:17
	ldr	r1, [r0]
	bic	r1, r1, #256
	str	r1, [r0]
	.loc	2 120 30                        @ ../Device/UVC/UVC.c:120:30
	ldr	r0, [r4, #-28]
	bic	r0, r0, #8
	str	r0, [r4, #-28]
.Ltmp43:
.LBB0_11:
	.loc	2 0 30 is_stmt 0                @ ../Device/UVC/UVC.c:0:30
	mov.w	r0, #256
	.loc	2 123 13 is_stmt 1              @ ../Device/UVC/UVC.c:123:13
	str	r0, [r4, #-36]
.Ltmp44:
.LBB0_12:
	.loc	2 127 9                         @ ../Device/UVC/UVC.c:127:9
	ldr	r0, [sp, #4]
.Ltmp45:
	.loc	2 127 9 is_stmt 0               @ ../Device/UVC/UVC.c:127:9
	lsls	r0, r0, #30
	bmi.w	.LBB0_37
.LBB0_13:
.Ltmp46:
	.loc	2 247 9 is_stmt 1               @ ../Device/UVC/UVC.c:247:9
	ldr	r0, [sp, #4]
.Ltmp47:
	.loc	2 247 9 is_stmt 0               @ ../Device/UVC/UVC.c:247:9
	lsls	r0, r0, #29
	bpl	.LBB0_15
@ %bb.14:
.Ltmp48:
	.loc	2 249 33 is_stmt 1              @ ../Device/UVC/UVC.c:249:33
	ldr	r0, [r4, #52]
	.loc	2 249 60 is_stmt 0              @ ../Device/UVC/UVC.c:249:60
	ldr	r1, [r4, #56]
	.loc	2 249 42                        @ ../Device/UVC/UVC.c:249:42
	ands	r0, r1
	.loc	2 249 15                        @ ../Device/UVC/UVC.c:249:15
	str	r0, [sp]
	movs	r0, #0
	.loc	2 251 9 is_stmt 1               @ ../Device/UVC/UVC.c:251:9
	str	r0, [r4, #56]
	.loc	2 252 9                         @ ../Device/UVC/UVC.c:252:9
	ldr	r0, [sp]
	str	r0, [r4, #52]
.Ltmp49:
.LBB0_15:
	.loc	2 256 9                         @ ../Device/UVC/UVC.c:256:9
	ldr	r0, [sp, #4]
.Ltmp50:
	.loc	2 256 9 is_stmt 0               @ ../Device/UVC/UVC.c:256:9
	lsls	r0, r0, #28
	bpl	.LBB0_17
@ %bb.16:
.Ltmp51:
	.loc	2 258 33 is_stmt 1              @ ../Device/UVC/UVC.c:258:33
	ldr	r0, [r4, #92]
	.loc	2 258 60 is_stmt 0              @ ../Device/UVC/UVC.c:258:60
	ldr	r1, [r4, #96]
	.loc	2 258 42                        @ ../Device/UVC/UVC.c:258:42
	ands	r0, r1
	.loc	2 258 15                        @ ../Device/UVC/UVC.c:258:15
	str	r0, [sp]
	.loc	2 259 9 is_stmt 1               @ ../Device/UVC/UVC.c:259:9
	ldr	r0, [sp]
	str	r0, [r4, #92]
.Ltmp52:
.LBB0_17:
	.loc	2 262 9                         @ ../Device/UVC/UVC.c:262:9
	ldr	r0, [sp, #4]
.Ltmp53:
	.loc	2 262 9 is_stmt 0               @ ../Device/UVC/UVC.c:262:9
	lsls	r0, r0, #27
	bpl	.LBB0_19
@ %bb.18:
.Ltmp54:
	.loc	2 264 33 is_stmt 1              @ ../Device/UVC/UVC.c:264:33
	ldr.w	r0, [r4, #132]
	.loc	2 264 60 is_stmt 0              @ ../Device/UVC/UVC.c:264:60
	ldr.w	r1, [r4, #136]
	.loc	2 264 42                        @ ../Device/UVC/UVC.c:264:42
	ands	r0, r1
	.loc	2 264 15                        @ ../Device/UVC/UVC.c:264:15
	str	r0, [sp]
	.loc	2 265 9 is_stmt 1               @ ../Device/UVC/UVC.c:265:9
	ldr	r0, [sp]
	str.w	r0, [r4, #132]
.Ltmp55:
.LBB0_19:
	.loc	2 268 9                         @ ../Device/UVC/UVC.c:268:9
	ldr	r0, [sp, #4]
.Ltmp56:
	.loc	2 268 9 is_stmt 0               @ ../Device/UVC/UVC.c:268:9
	lsls	r0, r0, #26
	bpl	.LBB0_21
@ %bb.20:
.Ltmp57:
	.loc	2 270 33 is_stmt 1              @ ../Device/UVC/UVC.c:270:33
	ldr.w	r0, [r4, #172]
	.loc	2 270 60 is_stmt 0              @ ../Device/UVC/UVC.c:270:60
	ldr.w	r1, [r4, #176]
	.loc	2 270 42                        @ ../Device/UVC/UVC.c:270:42
	ands	r0, r1
	.loc	2 270 15                        @ ../Device/UVC/UVC.c:270:15
	str	r0, [sp]
	.loc	2 271 9 is_stmt 1               @ ../Device/UVC/UVC.c:271:9
	ldr	r0, [sp]
	str.w	r0, [r4, #172]
.Ltmp58:
.LBB0_21:
	.loc	2 274 9                         @ ../Device/UVC/UVC.c:274:9
	ldr	r0, [sp, #4]
.Ltmp59:
	.loc	2 274 9 is_stmt 0               @ ../Device/UVC/UVC.c:274:9
	lsls	r0, r0, #25
	bpl	.LBB0_23
@ %bb.22:
.Ltmp60:
	.loc	2 276 33 is_stmt 1              @ ../Device/UVC/UVC.c:276:33
	ldr.w	r0, [r4, #212]
	.loc	2 276 60 is_stmt 0              @ ../Device/UVC/UVC.c:276:60
	ldr.w	r1, [r4, #216]
	.loc	2 276 42                        @ ../Device/UVC/UVC.c:276:42
	ands	r0, r1
	.loc	2 276 15                        @ ../Device/UVC/UVC.c:276:15
	str	r0, [sp]
	.loc	2 277 9 is_stmt 1               @ ../Device/UVC/UVC.c:277:9
	ldr	r0, [sp]
	str.w	r0, [r4, #212]
.Ltmp61:
.LBB0_23:
	.loc	2 280 9                         @ ../Device/UVC/UVC.c:280:9
	ldr	r0, [sp, #4]
.Ltmp62:
	.loc	2 280 9 is_stmt 0               @ ../Device/UVC/UVC.c:280:9
	lsls	r0, r0, #24
	bpl	.LBB0_25
@ %bb.24:
.Ltmp63:
	.loc	2 282 33 is_stmt 1              @ ../Device/UVC/UVC.c:282:33
	ldr.w	r0, [r4, #252]
	.loc	2 282 60 is_stmt 0              @ ../Device/UVC/UVC.c:282:60
	ldr.w	r1, [r4, #256]
	.loc	2 282 42                        @ ../Device/UVC/UVC.c:282:42
	ands	r0, r1
	.loc	2 282 15                        @ ../Device/UVC/UVC.c:282:15
	str	r0, [sp]
	.loc	2 283 9 is_stmt 1               @ ../Device/UVC/UVC.c:283:9
	ldr	r0, [sp]
	str.w	r0, [r4, #252]
.Ltmp64:
.LBB0_25:
	.loc	2 286 9                         @ ../Device/UVC/UVC.c:286:9
	ldr	r0, [sp, #4]
.Ltmp65:
	.loc	2 286 9 is_stmt 0               @ ../Device/UVC/UVC.c:286:9
	lsls	r0, r0, #23
	bpl	.LBB0_27
@ %bb.26:
.Ltmp66:
	.loc	2 288 33 is_stmt 1              @ ../Device/UVC/UVC.c:288:33
	ldr.w	r0, [r4, #292]
	.loc	2 288 60 is_stmt 0              @ ../Device/UVC/UVC.c:288:60
	ldr.w	r1, [r4, #296]
	.loc	2 288 42                        @ ../Device/UVC/UVC.c:288:42
	ands	r0, r1
	.loc	2 288 15                        @ ../Device/UVC/UVC.c:288:15
	str	r0, [sp]
	.loc	2 289 9 is_stmt 1               @ ../Device/UVC/UVC.c:289:9
	ldr	r0, [sp]
	str.w	r0, [r4, #292]
.Ltmp67:
.LBB0_27:
	.loc	2 292 9                         @ ../Device/UVC/UVC.c:292:9
	ldr	r0, [sp, #4]
.Ltmp68:
	.loc	2 292 9 is_stmt 0               @ ../Device/UVC/UVC.c:292:9
	lsls	r0, r0, #22
	bpl	.LBB0_29
@ %bb.28:
.Ltmp69:
	.loc	2 294 33 is_stmt 1              @ ../Device/UVC/UVC.c:294:33
	ldr.w	r0, [r4, #332]
	.loc	2 294 60 is_stmt 0              @ ../Device/UVC/UVC.c:294:60
	ldr.w	r1, [r4, #336]
	.loc	2 294 42                        @ ../Device/UVC/UVC.c:294:42
	ands	r0, r1
	.loc	2 294 15                        @ ../Device/UVC/UVC.c:294:15
	str	r0, [sp]
	.loc	2 295 9 is_stmt 1               @ ../Device/UVC/UVC.c:295:9
	ldr	r0, [sp]
	str.w	r0, [r4, #332]
.Ltmp70:
.LBB0_29:
	.loc	2 298 9                         @ ../Device/UVC/UVC.c:298:9
	ldr	r0, [sp, #4]
.Ltmp71:
	.loc	2 298 9 is_stmt 0               @ ../Device/UVC/UVC.c:298:9
	lsls	r0, r0, #21
	bpl	.LBB0_31
@ %bb.30:
.Ltmp72:
	.loc	2 300 33 is_stmt 1              @ ../Device/UVC/UVC.c:300:33
	ldr.w	r0, [r4, #372]
	.loc	2 300 60 is_stmt 0              @ ../Device/UVC/UVC.c:300:60
	ldr.w	r1, [r4, #376]
	.loc	2 300 42                        @ ../Device/UVC/UVC.c:300:42
	ands	r0, r1
	.loc	2 300 15                        @ ../Device/UVC/UVC.c:300:15
	str	r0, [sp]
	.loc	2 301 9 is_stmt 1               @ ../Device/UVC/UVC.c:301:9
	ldr	r0, [sp]
	str.w	r0, [r4, #372]
.Ltmp73:
.LBB0_31:
	.loc	2 304 9                         @ ../Device/UVC/UVC.c:304:9
	ldr	r0, [sp, #4]
.Ltmp74:
	.loc	2 304 9 is_stmt 0               @ ../Device/UVC/UVC.c:304:9
	lsls	r0, r0, #20
	bpl	.LBB0_33
@ %bb.32:
.Ltmp75:
	.loc	2 306 33 is_stmt 1              @ ../Device/UVC/UVC.c:306:33
	ldr.w	r0, [r4, #412]
	.loc	2 306 60 is_stmt 0              @ ../Device/UVC/UVC.c:306:60
	ldr.w	r1, [r4, #416]
	.loc	2 306 42                        @ ../Device/UVC/UVC.c:306:42
	ands	r0, r1
	.loc	2 306 15                        @ ../Device/UVC/UVC.c:306:15
	str	r0, [sp]
	.loc	2 307 9 is_stmt 1               @ ../Device/UVC/UVC.c:307:9
	ldr	r0, [sp]
	str.w	r0, [r4, #412]
.Ltmp76:
.LBB0_33:
	.loc	2 310 9                         @ ../Device/UVC/UVC.c:310:9
	ldr	r0, [sp, #4]
.Ltmp77:
	.loc	2 310 9 is_stmt 0               @ ../Device/UVC/UVC.c:310:9
	lsls	r0, r0, #19
	bpl	.LBB0_35
@ %bb.34:
.Ltmp78:
	.loc	2 312 33 is_stmt 1              @ ../Device/UVC/UVC.c:312:33
	ldr.w	r0, [r4, #452]
	.loc	2 312 60 is_stmt 0              @ ../Device/UVC/UVC.c:312:60
	ldr.w	r1, [r4, #456]
	.loc	2 312 42                        @ ../Device/UVC/UVC.c:312:42
	ands	r0, r1
	.loc	2 312 15                        @ ../Device/UVC/UVC.c:312:15
	str	r0, [sp]
	.loc	2 313 9 is_stmt 1               @ ../Device/UVC/UVC.c:313:9
	ldr	r0, [sp]
	str.w	r0, [r4, #452]
.Ltmp79:
.LBB0_35:
	.loc	2 316 9                         @ ../Device/UVC/UVC.c:316:9
	ldr	r0, [sp, #4]
.Ltmp80:
	.loc	2 316 9 is_stmt 0               @ ../Device/UVC/UVC.c:316:9
	lsls	r0, r0, #18
	bpl	.LBB0_64
@ %bb.36:
.Ltmp81:
	.loc	2 318 33 is_stmt 1              @ ../Device/UVC/UVC.c:318:33
	ldr.w	r0, [r4, #492]
	.loc	2 318 60 is_stmt 0              @ ../Device/UVC/UVC.c:318:60
	ldr.w	r1, [r4, #496]
	.loc	2 318 42                        @ ../Device/UVC/UVC.c:318:42
	ands	r0, r1
	.loc	2 318 15                        @ ../Device/UVC/UVC.c:318:15
	str	r0, [sp]
	.loc	2 319 9 is_stmt 1               @ ../Device/UVC/UVC.c:319:9
	ldr	r0, [sp]
	str.w	r0, [r4, #492]
	b	.LBB0_64
.Ltmp82:
.LBB0_37:
	.loc	2 129 25                        @ ../Device/UVC/UVC.c:129:25
	ldr	r0, [r4]
	.loc	2 129 45 is_stmt 0              @ ../Device/UVC/UVC.c:129:45
	ldr	r1, [r4, #-4]
	.loc	2 129 35                        @ ../Device/UVC/UVC.c:129:35
	ands	r0, r1
	.loc	2 129 15                        @ ../Device/UVC/UVC.c:129:15
	str	r0, [sp]
.Ltmp83:
	.loc	2 131 13 is_stmt 1              @ ../Device/UVC/UVC.c:131:13
	ldr	r0, [sp]
.Ltmp84:
	.loc	2 131 13 is_stmt 0              @ ../Device/UVC/UVC.c:131:13
	lsls	r0, r0, #31
	bne	.LBB0_51
@ %bb.38:
.Ltmp85:
	.loc	2 137 13 is_stmt 1              @ ../Device/UVC/UVC.c:137:13
	ldr	r0, [sp]
.Ltmp86:
	.loc	2 137 13 is_stmt 0              @ ../Device/UVC/UVC.c:137:13
	lsls	r0, r0, #30
	bmi	.LBB0_52
@ %bb.39:
.Ltmp87:
	.loc	2 144 13 is_stmt 1              @ ../Device/UVC/UVC.c:144:13
	ldr	r0, [sp]
.Ltmp88:
	.loc	2 144 13 is_stmt 0              @ ../Device/UVC/UVC.c:144:13
	lsls	r0, r0, #29
	bmi	.LBB0_62
@ %bb.40:
.Ltmp89:
	.loc	2 151 13 is_stmt 1              @ ../Device/UVC/UVC.c:151:13
	ldr	r0, [sp]
.Ltmp90:
	.loc	2 151 13 is_stmt 0              @ ../Device/UVC/UVC.c:151:13
	lsls	r0, r0, #28
	bmi	.LBB0_66
@ %bb.41:
.Ltmp91:
	.loc	2 170 13 is_stmt 1              @ ../Device/UVC/UVC.c:170:13
	ldr	r0, [sp]
.Ltmp92:
	.loc	2 170 13 is_stmt 0              @ ../Device/UVC/UVC.c:170:13
	lsls	r0, r0, #27
	bmi	.LBB0_68
@ %bb.42:
.Ltmp93:
	.loc	2 176 13 is_stmt 1              @ ../Device/UVC/UVC.c:176:13
	ldr	r0, [sp]
.Ltmp94:
	.loc	2 176 13 is_stmt 0              @ ../Device/UVC/UVC.c:176:13
	lsls	r0, r0, #26
	bmi	.LBB0_70
@ %bb.43:
.Ltmp95:
	.loc	2 199 13 is_stmt 1              @ ../Device/UVC/UVC.c:199:13
	ldr	r0, [sp]
.Ltmp96:
	.loc	2 199 13 is_stmt 0              @ ../Device/UVC/UVC.c:199:13
	lsls	r0, r0, #25
	bmi	.LBB0_72
@ %bb.44:
.Ltmp97:
	.loc	2 207 13 is_stmt 1              @ ../Device/UVC/UVC.c:207:13
	ldr	r0, [sp]
.Ltmp98:
	.loc	2 207 13 is_stmt 0              @ ../Device/UVC/UVC.c:207:13
	lsls	r0, r0, #24
	bmi.w	.LBB0_75
@ %bb.45:
.Ltmp99:
	.loc	2 213 13 is_stmt 1              @ ../Device/UVC/UVC.c:213:13
	ldr	r0, [sp]
.Ltmp100:
	.loc	2 213 13 is_stmt 0              @ ../Device/UVC/UVC.c:213:13
	lsls	r0, r0, #23
	bmi.w	.LBB0_76
@ %bb.46:
.Ltmp101:
	.loc	2 219 13 is_stmt 1              @ ../Device/UVC/UVC.c:219:13
	ldr	r0, [sp]
.Ltmp102:
	.loc	2 219 13 is_stmt 0              @ ../Device/UVC/UVC.c:219:13
	lsls	r0, r0, #22
	bmi.w	.LBB0_77
@ %bb.47:
.Ltmp103:
	.loc	2 225 13 is_stmt 1              @ ../Device/UVC/UVC.c:225:13
	ldr	r0, [sp]
.Ltmp104:
	.loc	2 225 13 is_stmt 0              @ ../Device/UVC/UVC.c:225:13
	lsls	r0, r0, #21
	bmi.w	.LBB0_78
@ %bb.48:
.Ltmp105:
	.loc	2 233 13 is_stmt 1              @ ../Device/UVC/UVC.c:233:13
	ldr	r0, [sp]
.Ltmp106:
	.loc	2 233 13 is_stmt 0              @ ../Device/UVC/UVC.c:233:13
	lsls	r0, r0, #20
	bmi.w	.LBB0_79
@ %bb.49:
.Ltmp107:
	.loc	2 239 13 is_stmt 1              @ ../Device/UVC/UVC.c:239:13
	ldr	r0, [sp]
.Ltmp108:
	.loc	2 239 13 is_stmt 0              @ ../Device/UVC/UVC.c:239:13
	lsls	r0, r0, #19
	bpl.w	.LBB0_13
@ %bb.50:
	.loc	2 0 13                          @ ../Device/UVC/UVC.c:0:13
	mov.w	r0, #4096
.Ltmp109:
	.loc	2 241 13 is_stmt 1              @ ../Device/UVC/UVC.c:241:13
	str	r0, [r4]
	.loc	2 242 13                        @ ../Device/UVC/UVC.c:242:13
	b	.LBB0_64
.Ltmp110:
.LBB0_51:
	.loc	2 0 13 is_stmt 0                @ ../Device/UVC/UVC.c:0:13
	movs	r0, #1
.Ltmp111:
	.loc	2 133 13 is_stmt 1              @ ../Device/UVC/UVC.c:133:13
	str	r0, [r4]
.Ltmp112:
	.loc	2 242 13                        @ ../Device/UVC/UVC.c:242:13
	b	.LBB0_64
.Ltmp113:
.LBB0_52:
	.loc	2 0 13 is_stmt 0                @ ../Device/UVC/UVC.c:0:13
	movs	r0, #2
.Ltmp114:
	.loc	2 139 13 is_stmt 1              @ ../Device/UVC/UVC.c:139:13
	str	r0, [r4]
	.loc	2 140 13                        @ ../Device/UVC/UVC.c:140:13
	bl	HSUSBD_ProcessSetupPacket
.Ltmp115:
	.loc	2 160 13                        @ ../Device/UVC/UVC.c:160:13
	b	.LBB0_64
.Ltmp116:
.LBB0_53:
	.loc	2 108 17                        @ ../Device/UVC/UVC.c:108:17
	ldr	r1, [r0]
	orr	r1, r1, #768
	str	r1, [r0]
	.loc	2 109 33                        @ ../Device/UVC/UVC.c:109:33
	movw	r1, :lower16:SystemCoreClock
	movt	r1, :upper16:SystemCoreClock
	ldr	r1, [r1]
.Ltmp117:
	@DEBUG_VALUE: HSUSBD_IRQHandler:u32TimeOutCnt <- $r1
	.loc	2 111 17                        @ ../Device/UVC/UVC.c:111:17
	rsb.w	r1, r1, #2
.Ltmp118:
	.loc	2 0 17 is_stmt 0                @ :0:17
.Ltmp119:
	.p2align	2
.LBB0_54:                               @ =>This Inner Loop Header: Depth=1
	@DEBUG_VALUE: HSUSBD_IRQHandler:u32TimeOutCnt <- [DW_OP_LLVM_arg 0, DW_OP_consts 2, DW_OP_consts 18446744073709551615, DW_OP_LLVM_arg 0, DW_OP_mul, DW_OP_plus, DW_OP_minus, DW_OP_consts 4, DW_OP_div, DW_OP_consts 18446744073709551612, DW_OP_mul, DW_OP_LLVM_arg 0, DW_OP_plus, DW_OP_stack_value] undef
	.loc	2 111 34                        @ ../Device/UVC/UVC.c:111:34
	ldr	r2, [r0]
.Ltmp120:
	@DEBUG_VALUE: HSUSBD_IRQHandler:u32TimeOutCnt <- [DW_OP_constu 1, DW_OP_minus, DW_OP_stack_value] $r1
	.loc	2 111 17                        @ ../Device/UVC/UVC.c:111:17
	lsls	r2, r2, #4
	bmi.w	.LBB0_11
.Ltmp121:
@ %bb.55:                               @   in Loop: Header=BB0_54 Depth=1
	@DEBUG_VALUE: HSUSBD_IRQHandler:u32TimeOutCnt <- [DW_OP_constu 1, DW_OP_minus, DW_OP_stack_value] $r1
	cmp	r1, #1
	beq.w	.LBB0_11
.Ltmp122:
@ %bb.56:                               @   in Loop: Header=BB0_54 Depth=1
	@DEBUG_VALUE: HSUSBD_IRQHandler:u32TimeOutCnt <- [DW_OP_constu 1, DW_OP_minus, DW_OP_stack_value] $r1
	@DEBUG_VALUE: HSUSBD_IRQHandler:u32TimeOutCnt <- [DW_OP_constu 1, DW_OP_minus, DW_OP_stack_value] $r1
	.loc	2 111 34                        @ ../Device/UVC/UVC.c:111:34
	ldr	r2, [r0]
.Ltmp123:
	@DEBUG_VALUE: HSUSBD_IRQHandler:u32TimeOutCnt <- [DW_OP_constu 2, DW_OP_minus, DW_OP_stack_value] $r1
	.loc	2 111 17                        @ ../Device/UVC/UVC.c:111:17
	lsls	r2, r2, #4
	bmi.w	.LBB0_11
.Ltmp124:
@ %bb.57:                               @   in Loop: Header=BB0_54 Depth=1
	@DEBUG_VALUE: HSUSBD_IRQHandler:u32TimeOutCnt <- [DW_OP_constu 2, DW_OP_minus, DW_OP_stack_value] $r1
	cmp	r1, #0
	beq.w	.LBB0_11
.Ltmp125:
@ %bb.58:                               @   in Loop: Header=BB0_54 Depth=1
	@DEBUG_VALUE: HSUSBD_IRQHandler:u32TimeOutCnt <- [DW_OP_constu 2, DW_OP_minus, DW_OP_stack_value] $r1
	@DEBUG_VALUE: HSUSBD_IRQHandler:u32TimeOutCnt <- [DW_OP_constu 2, DW_OP_minus, DW_OP_stack_value] $r1
	.loc	2 111 34                        @ ../Device/UVC/UVC.c:111:34
	ldr	r2, [r0]
.Ltmp126:
	@DEBUG_VALUE: HSUSBD_IRQHandler:u32TimeOutCnt <- [DW_OP_constu 3, DW_OP_minus, DW_OP_stack_value] $r1
	.loc	2 111 17                        @ ../Device/UVC/UVC.c:111:17
	lsls	r2, r2, #4
	bmi.w	.LBB0_11
.Ltmp127:
@ %bb.59:                               @   in Loop: Header=BB0_54 Depth=1
	@DEBUG_VALUE: HSUSBD_IRQHandler:u32TimeOutCnt <- [DW_OP_constu 3, DW_OP_minus, DW_OP_stack_value] $r1
	adds	r2, r1, #1
	beq.w	.LBB0_11
.Ltmp128:
@ %bb.60:                               @   in Loop: Header=BB0_54 Depth=1
	@DEBUG_VALUE: HSUSBD_IRQHandler:u32TimeOutCnt <- [DW_OP_constu 3, DW_OP_minus, DW_OP_stack_value] $r1
	@DEBUG_VALUE: HSUSBD_IRQHandler:u32TimeOutCnt <- [DW_OP_constu 3, DW_OP_minus, DW_OP_stack_value] $r1
	.loc	2 111 34                        @ ../Device/UVC/UVC.c:111:34
	ldr	r2, [r0]
.Ltmp129:
	@DEBUG_VALUE: HSUSBD_IRQHandler:u32TimeOutCnt <- [DW_OP_LLVM_arg 0, DW_OP_consts 2, DW_OP_consts 18446744073709551615, DW_OP_LLVM_arg 0, DW_OP_mul, DW_OP_plus, DW_OP_minus, DW_OP_consts 4, DW_OP_div, DW_OP_consts 18446744073709551612, DW_OP_mul, DW_OP_consts 18446744073709551612, DW_OP_LLVM_arg 0, DW_OP_plus, DW_OP_plus, DW_OP_stack_value] undef
	.loc	2 111 17                        @ ../Device/UVC/UVC.c:111:17
	lsls	r2, r2, #4
	bmi.w	.LBB0_11
.Ltmp130:
@ %bb.61:                               @   in Loop: Header=BB0_54 Depth=1
	adds	r2, r1, #2
	add.w	r1, r1, #4
	bne	.LBB0_54
	b	.LBB0_11
.Ltmp131:
.LBB0_62:
	.loc	2 0 17                          @ ../Device/UVC/UVC.c:0:17
	movs	r0, #4
.Ltmp132:
	.loc	2 146 13 is_stmt 1              @ ../Device/UVC/UVC.c:146:13
	str	r0, [r4]
	mov.w	r0, #1024
.Ltmp133:
.LBB0_63:
	.loc	2 0 0 is_stmt 0                 @ ../Device/UVC/UVC.c:0:0
	str	r0, [r4, #-4]
.Ltmp134:
.LBB0_64:
	@DEBUG_LABEL: HSUSBD_IRQHandler:exit_HSUSBD_IRQHandler
	.loc	2 324 5 is_stmt 1               @ ../Device/UVC/UVC.c:324:5
	isb	sy
	.loc	2 325 5                         @ ../Device/UVC/UVC.c:325:5
	dsb	sy
.LBB0_65:
	.loc	2 326 1 epilogue_begin          @ ../Device/UVC/UVC.c:326:1
	add	sp, #8
	pop	{r4, pc}
.LBB0_66:
	.loc	2 0 1 is_stmt 0                 @ ../Device/UVC/UVC.c:0:1
	movs	r0, #8
.Ltmp135:
	.loc	2 153 13 is_stmt 1              @ ../Device/UVC/UVC.c:153:13
	str	r0, [r4]
	movs	r0, #32
.Ltmp136:
	.loc	2 155 19                        @ ../Device/UVC/UVC.c:155:19
	ldr	r1, [sp]
	.loc	2 0 0 is_stmt 0                 @ ../Device/UVC/UVC.c:0:0
	str	r0, [r4]
.Ltmp137:
	.loc	2 155 17                        @ ../Device/UVC/UVC.c:155:17
	lsls	r1, r1, #21
	bmi	.LBB0_69
@ %bb.67:
.Ltmp138:
	.loc	2 158 17 is_stmt 1              @ ../Device/UVC/UVC.c:158:17
	str	r0, [r4, #-4]
	.loc	2 159 17                        @ ../Device/UVC/UVC.c:159:17
	bl	HSUSBD_CtrlIn
.Ltmp139:
	.loc	2 160 13                        @ ../Device/UVC/UVC.c:160:13
	b	.LBB0_64
.Ltmp140:
.LBB0_68:
	.loc	2 0 13 is_stmt 0                @ ../Device/UVC/UVC.c:0:13
	movs	r0, #16
.Ltmp141:
	.loc	2 172 13 is_stmt 1              @ ../Device/UVC/UVC.c:172:13
	str	r0, [r4]
.Ltmp142:
	.loc	2 242 13                        @ ../Device/UVC/UVC.c:242:13
	b	.LBB0_64
.Ltmp143:
.LBB0_69:
	.loc	2 0 13 is_stmt 0                @ ../Device/UVC/UVC.c:0:13
	mov.w	r0, #1056
.Ltmp144:
	.loc	2 164 17 is_stmt 1              @ ../Device/UVC/UVC.c:164:17
	b	.LBB0_63
.Ltmp145:
.LBB0_70:
	.loc	2 0 17 is_stmt 0                @ ../Device/UVC/UVC.c:0:17
	mov.w	r0, #1024
.Ltmp146:
	.loc	2 178 13 is_stmt 1              @ ../Device/UVC/UVC.c:178:13
	str	r0, [r4]
	movs	r0, #0
	.loc	2 179 13                        @ ../Device/UVC/UVC.c:179:13
	str	r0, [r4, #-8]
.Ltmp147:
	.loc	2 181 17                        @ ../Device/UVC/UVC.c:181:17
	movw	r0, :lower16:g_hsusbd_CtrlInSize
	movt	r0, :upper16:g_hsusbd_CtrlInSize
	ldr	r0, [r0]
.Ltmp148:
	.loc	2 181 17 is_stmt 0              @ ../Device/UVC/UVC.c:181:17
	cbz	r0, .LBB0_73
@ %bb.71:
	.loc	2 0 17                          @ ../Device/UVC/UVC.c:0:17
	movs	r1, #8
	movs	r0, #8
	.loc	2 181 17                        @ ../Device/UVC/UVC.c:181:17
	b	.LBB0_74
.Ltmp149:
.LBB0_72:
	.loc	2 0 17                          @ ../Device/UVC/UVC.c:0:17
	movs	r0, #64
.Ltmp150:
	.loc	2 201 13 is_stmt 1              @ ../Device/UVC/UVC.c:201:13
	str	r0, [r4]
	movs	r0, #0
	.loc	2 202 13                        @ ../Device/UVC/UVC.c:202:13
	str	r0, [r4, #-8]
	movw	r0, #1026
	.loc	2 203 13                        @ ../Device/UVC/UVC.c:203:13
	b	.LBB0_63
.Ltmp151:
.LBB0_73:
	.loc	2 188 21                        @ ../Device/UVC/UVC.c:188:21
	movw	r0, :lower16:g_hsusbd_CtrlZero
	mov.w	r1, #1024
	movt	r0, :upper16:g_hsusbd_CtrlZero
	ldrb	r0, [r0]
.Ltmp152:
	.loc	2 188 21 is_stmt 0              @ ../Device/UVC/UVC.c:188:21
	cmp	r0, #1
	itt	eq
	moveq	r0, #4
.Ltmp153:
	.loc	2 189 21 is_stmt 1              @ ../Device/UVC/UVC.c:189:21
	streq	r0, [r4, #-8]
	movw	r0, #1026
.Ltmp154:
.LBB0_74:
	.loc	2 0 0 is_stmt 0                 @ ../Device/UVC/UVC.c:0:0
	str	r1, [r4]
	str	r0, [r4, #-4]
	movs	r0, #32
.Ltmp155:
	.loc	2 195 13 is_stmt 1              @ ../Device/UVC/UVC.c:195:13
	str	r0, [r4]
.Ltmp156:
	.loc	2 242 13                        @ ../Device/UVC/UVC.c:242:13
	b	.LBB0_64
.Ltmp157:
.LBB0_75:
	.loc	2 0 13 is_stmt 0                @ ../Device/UVC/UVC.c:0:13
	movs	r0, #128
.Ltmp158:
	.loc	2 209 13 is_stmt 1              @ ../Device/UVC/UVC.c:209:13
	str	r0, [r4]
.Ltmp159:
	.loc	2 242 13                        @ ../Device/UVC/UVC.c:242:13
	b	.LBB0_64
.Ltmp160:
.LBB0_76:
	.loc	2 0 13 is_stmt 0                @ ../Device/UVC/UVC.c:0:13
	mov.w	r0, #256
.Ltmp161:
	.loc	2 215 13 is_stmt 1              @ ../Device/UVC/UVC.c:215:13
	str	r0, [r4]
.Ltmp162:
	.loc	2 242 13                        @ ../Device/UVC/UVC.c:242:13
	b	.LBB0_64
.Ltmp163:
.LBB0_77:
	.loc	2 0 13 is_stmt 0                @ ../Device/UVC/UVC.c:0:13
	mov.w	r0, #512
.Ltmp164:
	.loc	2 221 13 is_stmt 1              @ ../Device/UVC/UVC.c:221:13
	str	r0, [r4]
.Ltmp165:
	.loc	2 242 13                        @ ../Device/UVC/UVC.c:242:13
	b	.LBB0_64
.Ltmp166:
.LBB0_78:
	.loc	2 227 13                        @ ../Device/UVC/UVC.c:227:13
	bl	HSUSBD_UpdateDeviceState
.Ltmp167:
	.loc	2 0 13 is_stmt 0                @ ../Device/UVC/UVC.c:0:13
	mov.w	r0, #1024
	.loc	2 228 13 is_stmt 1              @ ../Device/UVC/UVC.c:228:13
	str	r0, [r4]
	movs	r0, #2
	.loc	2 229 13                        @ ../Device/UVC/UVC.c:229:13
	b	.LBB0_63
.Ltmp168:
.LBB0_79:
	.loc	2 0 13 is_stmt 0                @ ../Device/UVC/UVC.c:0:13
	mov.w	r0, #2048
.Ltmp169:
	.loc	2 235 13 is_stmt 1              @ ../Device/UVC/UVC.c:235:13
	str	r0, [r4]
.Ltmp170:
	.loc	2 242 13                        @ ../Device/UVC/UVC.c:242:13
	b	.LBB0_64
.Ltmp171:
.Lfunc_end0:
	.size	HSUSBD_IRQHandler, .Lfunc_end0-HSUSBD_IRQHandler
	.cfi_endproc
	.cantunwind
	.fnend
                                        @ -- End function
	.section	.text.UVC_InitForHighSpeed,"ax",%progbits
	.hidden	UVC_InitForHighSpeed            @ -- Begin function UVC_InitForHighSpeed
	.globl	UVC_InitForHighSpeed
	.p2align	2
	.type	UVC_InitForHighSpeed,%function
	.code	16                              @ @UVC_InitForHighSpeed
	.thumb_func
UVC_InitForHighSpeed:
.Lfunc_begin1:
	.fnstart
	.cfi_startproc
@ %bb.0:
	.loc	2 337 20 prologue_end           @ ../Device/UVC/UVC.c:337:20
	movw	r0, :lower16:gMaxPacketSize
	mov.w	r1, #1024
	movt	r0, :upper16:gMaxPacketSize
	mov.w	r2, #512
.Ltmp172:
	@DEBUG_VALUE: HSUSBD_SetEpBufAddr:u32Len <- 2048
	@DEBUG_VALUE: HSUSBD_SetEpBufAddr:u32Base <- 512
	@DEBUG_VALUE: HSUSBD_SetEpBufAddr:u32Ep <- 0
	str	r1, [r0]
	movw	r0, #20596
	movt	r0, #16416
.Ltmp173:
	.loc	9 245 38                        @ ../../../../Library/StdDriver/inc\hsusbd.h:245:38
	str	r2, [r0, #16]
	movw	r2, #2559
	.loc	9 246 36                        @ ../../../../Library/StdDriver/inc\hsusbd.h:246:36
	str	r2, [r0, #20]
.Ltmp174:
	.loc	2 340 5                         @ ../Device/UVC/UVC.c:340:5
	str	r1, [r0, #4]
	movs	r1, #5
.Ltmp175:
	@DEBUG_VALUE: HSUSBD_ConfigEp:u32EpDir <- 8
	@DEBUG_VALUE: HSUSBD_ConfigEp:u32EpType <- 6
	@DEBUG_VALUE: HSUSBD_ConfigEp:u32EpNum <- 1
	@DEBUG_VALUE: HSUSBD_ConfigEp:u32Ep <- 0
	.loc	9 0 0 is_stmt 0                 @ ../../../../Library/StdDriver/inc\hsusbd.h:0:0
	str	r1, [r0]
	movs	r1, #31
.Ltmp176:
	.loc	9 273 29 is_stmt 1              @ ../../../../Library/StdDriver/inc\hsusbd.h:273:29
	str	r1, [r0, #12]
	mov.w	r1, #3584
.Ltmp177:
	@DEBUG_VALUE: HSUSBD_SetEpBufAddr:u32Len <- 8
	@DEBUG_VALUE: HSUSBD_SetEpBufAddr:u32Base <- 3584
	@DEBUG_VALUE: HSUSBD_SetEpBufAddr:u32Ep <- 2
	.loc	9 245 38                        @ ../../../../Library/StdDriver/inc\hsusbd.h:245:38
	str	r1, [r0, #96]
	movw	r1, #3591
	.loc	9 246 36                        @ ../../../../Library/StdDriver/inc\hsusbd.h:246:36
	str	r1, [r0, #100]
	movs	r1, #8
.Ltmp178:
	.loc	2 345 5                         @ ../Device/UVC/UVC.c:345:5
	str	r1, [r0, #84]
	movs	r1, #3
.Ltmp179:
	@DEBUG_VALUE: HSUSBD_ConfigEp:u32EpDir <- 8
	@DEBUG_VALUE: HSUSBD_ConfigEp:u32EpType <- 4
	@DEBUG_VALUE: HSUSBD_ConfigEp:u32EpNum <- 3
	@DEBUG_VALUE: HSUSBD_ConfigEp:u32Ep <- 2
	.loc	9 0 0 is_stmt 0                 @ ../../../../Library/StdDriver/inc\hsusbd.h:0:0
	str	r1, [r0, #80]
	movs	r1, #61
.Ltmp180:
	.loc	9 273 29 is_stmt 1              @ ../../../../Library/StdDriver/inc\hsusbd.h:273:29
	str	r1, [r0, #92]
.Ltmp181:
	.loc	2 347 1                         @ ../Device/UVC/UVC.c:347:1
	bx	lr
.Ltmp182:
.Lfunc_end1:
	.size	UVC_InitForHighSpeed, .Lfunc_end1-UVC_InitForHighSpeed
	.cfi_endproc
	.cantunwind
	.fnend
                                        @ -- End function
	.section	.text.UVC_InitForFullSpeed,"ax",%progbits
	.hidden	UVC_InitForFullSpeed            @ -- Begin function UVC_InitForFullSpeed
	.globl	UVC_InitForFullSpeed
	.p2align	2
	.type	UVC_InitForFullSpeed,%function
	.code	16                              @ @UVC_InitForFullSpeed
	.thumb_func
UVC_InitForFullSpeed:
.Lfunc_begin2:
	.fnstart
	.cfi_startproc
@ %bb.0:
	.loc	2 351 20 prologue_end           @ ../Device/UVC/UVC.c:351:20
	movw	r0, :lower16:gMaxPacketSize
	movs	r1, #64
	movt	r0, :upper16:gMaxPacketSize
	mov.w	r2, #512
.Ltmp183:
	@DEBUG_VALUE: HSUSBD_SetEpBufAddr:u32Len <- 2048
	@DEBUG_VALUE: HSUSBD_SetEpBufAddr:u32Base <- 512
	@DEBUG_VALUE: HSUSBD_SetEpBufAddr:u32Ep <- 0
	str	r1, [r0]
	movw	r0, #20596
	movt	r0, #16416
.Ltmp184:
	.loc	9 245 38                        @ ../../../../Library/StdDriver/inc\hsusbd.h:245:38
	str	r2, [r0, #16]
	movw	r2, #2559
	.loc	9 246 36                        @ ../../../../Library/StdDriver/inc\hsusbd.h:246:36
	str	r2, [r0, #20]
.Ltmp185:
	.loc	2 354 5                         @ ../Device/UVC/UVC.c:354:5
	str	r1, [r0, #4]
	movs	r1, #5
.Ltmp186:
	@DEBUG_VALUE: HSUSBD_ConfigEp:u32EpDir <- 8
	@DEBUG_VALUE: HSUSBD_ConfigEp:u32EpType <- 6
	@DEBUG_VALUE: HSUSBD_ConfigEp:u32EpNum <- 1
	@DEBUG_VALUE: HSUSBD_ConfigEp:u32Ep <- 0
	.loc	9 0 0 is_stmt 0                 @ ../../../../Library/StdDriver/inc\hsusbd.h:0:0
	str	r1, [r0]
	movs	r1, #31
.Ltmp187:
	.loc	9 273 29 is_stmt 1              @ ../../../../Library/StdDriver/inc\hsusbd.h:273:29
	str	r1, [r0, #12]
	mov.w	r1, #3584
.Ltmp188:
	@DEBUG_VALUE: HSUSBD_SetEpBufAddr:u32Len <- 8
	@DEBUG_VALUE: HSUSBD_SetEpBufAddr:u32Base <- 3584
	@DEBUG_VALUE: HSUSBD_SetEpBufAddr:u32Ep <- 2
	.loc	9 245 38                        @ ../../../../Library/StdDriver/inc\hsusbd.h:245:38
	str	r1, [r0, #96]
	movw	r1, #3591
	.loc	9 246 36                        @ ../../../../Library/StdDriver/inc\hsusbd.h:246:36
	str	r1, [r0, #100]
	movs	r1, #8
.Ltmp189:
	.loc	2 359 5                         @ ../Device/UVC/UVC.c:359:5
	str	r1, [r0, #84]
	movs	r1, #3
.Ltmp190:
	@DEBUG_VALUE: HSUSBD_ConfigEp:u32EpDir <- 8
	@DEBUG_VALUE: HSUSBD_ConfigEp:u32EpType <- 4
	@DEBUG_VALUE: HSUSBD_ConfigEp:u32EpNum <- 3
	@DEBUG_VALUE: HSUSBD_ConfigEp:u32Ep <- 2
	.loc	9 0 0 is_stmt 0                 @ ../../../../Library/StdDriver/inc\hsusbd.h:0:0
	str	r1, [r0, #80]
	movs	r1, #61
.Ltmp191:
	.loc	9 273 29 is_stmt 1              @ ../../../../Library/StdDriver/inc\hsusbd.h:273:29
	str	r1, [r0, #92]
.Ltmp192:
	.loc	2 361 1                         @ ../Device/UVC/UVC.c:361:1
	bx	lr
.Ltmp193:
.Lfunc_end2:
	.size	UVC_InitForFullSpeed, .Lfunc_end2-UVC_InitForFullSpeed
	.cfi_endproc
	.cantunwind
	.fnend
                                        @ -- End function
	.section	.text.UVC_Init,"ax",%progbits
	.hidden	UVC_Init                        @ -- Begin function UVC_Init
	.globl	UVC_Init
	.p2align	2
	.type	UVC_Init,%function
	.code	16                              @ @UVC_Init
	.thumb_func
UVC_Init:
.Lfunc_begin3:
	.loc	2 383 0                         @ ../Device/UVC/UVC.c:383:0
	.fnstart
	.cfi_startproc
@ %bb.0:
	.save	{r4, r5, r7, lr}
	push	{r4, r5, r7, lr}
	.cfi_def_cfa_offset 16
	.cfi_offset lr, -4
	.cfi_offset r7, -8
	.cfi_offset r5, -12
	.cfi_offset r4, -16
.Ltmp194:
	.file	10 "C:\\Users\\jimmy\\Desktop\\Nuvoton\\Nuvoton-Team-2\\repos\\m55m1-ElevatorCounting-YOLOv8n\\KEIL" "../../../../Library/StdDriver/inc\\sys.h"
	.loc	10 4257 32 prologue_end         @ ../../../../Library/StdDriver/inc\sys.h:4257:32
	movw	r0, :lower16:SystemCoreClock
	movw	r4, #256
	movt	r0, :upper16:SystemCoreClock
	movs	r1, #89
	ldr	r0, [r0]
.Ltmp195:
	@DEBUG_VALUE: SYS_UnlockReg:u32TimeOutCount <- $r0
	.loc	10 0 32 is_stmt 0               @ ../../../../Library/StdDriver/inc\sys.h:0:32
	movs	r2, #22
	movt	r4, #16384
	movs	r3, #136
.Ltmp196:
.LBB3_1:                                @ =>This Inner Loop Header: Depth=1
	@DEBUG_VALUE: SYS_UnlockReg:u32TimeOutCount <- $r0
	@DEBUG_VALUE: SYS_UnlockReg:u32TimeOutCount <- $r0
	.loc	10 4265 13 is_stmt 1            @ ../../../../Library/StdDriver/inc\sys.h:4265:13
	cmp	r0, #1
	.loc	10 4261 22                      @ ../../../../Library/StdDriver/inc\sys.h:4261:22
	str	r1, [r4]
	.loc	10 4262 22                      @ ../../../../Library/StdDriver/inc\sys.h:4262:22
	str	r2, [r4]
	.loc	10 4263 22                      @ ../../../../Library/StdDriver/inc\sys.h:4263:22
	str	r3, [r4]
.Ltmp197:
	@DEBUG_VALUE: SYS_UnlockReg:u32TimeOutCount <- [DW_OP_constu 1, DW_OP_minus, DW_OP_stack_value] $r0
	.loc	10 4265 13                      @ ../../../../Library/StdDriver/inc\sys.h:4265:13
	beq	.LBB3_9
.Ltmp198:
@ %bb.2:                                @   in Loop: Header=BB3_1 Depth=1
	@DEBUG_VALUE: SYS_UnlockReg:u32TimeOutCount <- [DW_OP_constu 1, DW_OP_minus, DW_OP_stack_value] $r0
	.loc	10 4266 19                      @ ../../../../Library/StdDriver/inc\sys.h:4266:19
	ldr	r5, [r4]
.Ltmp199:
	.loc	10 4266 5 is_stmt 0             @ ../../../../Library/StdDriver/inc\sys.h:4266:5
	cbnz	r5, .LBB3_9
.Ltmp200:
@ %bb.3:                                @   in Loop: Header=BB3_1 Depth=1
	@DEBUG_VALUE: SYS_UnlockReg:u32TimeOutCount <- [DW_OP_constu 1, DW_OP_minus, DW_OP_stack_value] $r0
	@DEBUG_VALUE: SYS_UnlockReg:u32TimeOutCount <- [DW_OP_constu 1, DW_OP_minus, DW_OP_stack_value] $r0
	.loc	10 4265 13 is_stmt 1            @ ../../../../Library/StdDriver/inc\sys.h:4265:13
	cmp	r0, #2
	.loc	10 4261 22                      @ ../../../../Library/StdDriver/inc\sys.h:4261:22
	str	r1, [r4]
	.loc	10 4262 22                      @ ../../../../Library/StdDriver/inc\sys.h:4262:22
	str	r2, [r4]
	.loc	10 4263 22                      @ ../../../../Library/StdDriver/inc\sys.h:4263:22
	str	r3, [r4]
.Ltmp201:
	@DEBUG_VALUE: SYS_UnlockReg:u32TimeOutCount <- [DW_OP_constu 2, DW_OP_minus, DW_OP_stack_value] $r0
	.loc	10 4265 13                      @ ../../../../Library/StdDriver/inc\sys.h:4265:13
	beq	.LBB3_9
.Ltmp202:
@ %bb.4:                                @   in Loop: Header=BB3_1 Depth=1
	@DEBUG_VALUE: SYS_UnlockReg:u32TimeOutCount <- [DW_OP_constu 2, DW_OP_minus, DW_OP_stack_value] $r0
	.loc	10 4266 19                      @ ../../../../Library/StdDriver/inc\sys.h:4266:19
	ldr	r5, [r4]
.Ltmp203:
	.loc	10 4266 5 is_stmt 0             @ ../../../../Library/StdDriver/inc\sys.h:4266:5
	cbnz	r5, .LBB3_9
.Ltmp204:
@ %bb.5:                                @   in Loop: Header=BB3_1 Depth=1
	@DEBUG_VALUE: SYS_UnlockReg:u32TimeOutCount <- [DW_OP_constu 2, DW_OP_minus, DW_OP_stack_value] $r0
	@DEBUG_VALUE: SYS_UnlockReg:u32TimeOutCount <- [DW_OP_constu 2, DW_OP_minus, DW_OP_stack_value] $r0
	.loc	10 4265 13 is_stmt 1            @ ../../../../Library/StdDriver/inc\sys.h:4265:13
	cmp	r0, #3
	.loc	10 4261 22                      @ ../../../../Library/StdDriver/inc\sys.h:4261:22
	str	r1, [r4]
	.loc	10 4262 22                      @ ../../../../Library/StdDriver/inc\sys.h:4262:22
	str	r2, [r4]
	.loc	10 4263 22                      @ ../../../../Library/StdDriver/inc\sys.h:4263:22
	str	r3, [r4]
.Ltmp205:
	@DEBUG_VALUE: SYS_UnlockReg:u32TimeOutCount <- [DW_OP_constu 3, DW_OP_minus, DW_OP_stack_value] $r0
	.loc	10 4265 13                      @ ../../../../Library/StdDriver/inc\sys.h:4265:13
	beq	.LBB3_9
.Ltmp206:
@ %bb.6:                                @   in Loop: Header=BB3_1 Depth=1
	@DEBUG_VALUE: SYS_UnlockReg:u32TimeOutCount <- [DW_OP_constu 3, DW_OP_minus, DW_OP_stack_value] $r0
	.loc	10 4266 19                      @ ../../../../Library/StdDriver/inc\sys.h:4266:19
	ldr	r5, [r4]
.Ltmp207:
	.loc	10 4266 5 is_stmt 0             @ ../../../../Library/StdDriver/inc\sys.h:4266:5
	cbnz	r5, .LBB3_9
.Ltmp208:
@ %bb.7:                                @   in Loop: Header=BB3_1 Depth=1
	@DEBUG_VALUE: SYS_UnlockReg:u32TimeOutCount <- [DW_OP_constu 3, DW_OP_minus, DW_OP_stack_value] $r0
	@DEBUG_VALUE: SYS_UnlockReg:u32TimeOutCount <- [DW_OP_constu 3, DW_OP_minus, DW_OP_stack_value] $r0
	.loc	10 4265 13 is_stmt 1            @ ../../../../Library/StdDriver/inc\sys.h:4265:13
	subs	r0, #4
.Ltmp209:
	@DEBUG_VALUE: SYS_UnlockReg:u32TimeOutCount <- $r0
	.loc	10 4261 22                      @ ../../../../Library/StdDriver/inc\sys.h:4261:22
	str	r1, [r4]
	.loc	10 4262 22                      @ ../../../../Library/StdDriver/inc\sys.h:4262:22
	str	r2, [r4]
	.loc	10 4263 22                      @ ../../../../Library/StdDriver/inc\sys.h:4263:22
	str	r3, [r4]
	.loc	10 4265 13                      @ ../../../../Library/StdDriver/inc\sys.h:4265:13
	beq	.LBB3_9
.Ltmp210:
@ %bb.8:                                @   in Loop: Header=BB3_1 Depth=1
	@DEBUG_VALUE: SYS_UnlockReg:u32TimeOutCount <- $r0
	.loc	10 4266 19                      @ ../../../../Library/StdDriver/inc\sys.h:4266:19
	ldr	r5, [r4]
.Ltmp211:
	.loc	10 4266 5 is_stmt 0             @ ../../../../Library/StdDriver/inc\sys.h:4266:5
	cbnz	r5, .LBB3_9
	le	.LBB3_1
.Ltmp212:
.LBB3_9:
	.loc	2 367 17 is_stmt 1              @ ../Device/UVC/UVC.c:367:17
	ldr	r0, [r4, #-204]
	movw	r1, #65535
	movt	r1, #64764
	mov.w	lr, #64
.Ltmp213:
	@DEBUG_VALUE: Enable_USBD_Clock_PHY:i <- 0
	bic	r0, r0, #196608
	str	r0, [r4, #-204]
	.loc	2 369 25                        @ ../Device/UVC/UVC.c:369:25
	ldr	r0, [r4, #-204]
	.loc	2 369 32 is_stmt 0              @ ../Device/UVC/UVC.c:369:32
	ands	r0, r1
	.loc	2 369 89                        @ ../Device/UVC/UVC.c:369:89
	add.w	r0, r0, #16777216
	.loc	2 369 17                        @ ../Device/UVC/UVC.c:369:17
	str	r0, [r4, #-204]
.Ltmp214:
	.loc	2 0 17                          @ :0:17
.Ltmp215:
	.p2align	2
.LBB3_10:                               @ =>This Inner Loop Header: Depth=1
	@DEBUG_VALUE: Enable_USBD_Clock_PHY:i <- undef
	.loc	2 373 9 is_stmt 1               @ ../Device/UVC/UVC.c:373:9
	nop
	nop
	nop
	nop
	nop
	nop
	nop
	nop
	nop
	nop
	nop
	nop
	nop
	nop
	nop
	nop
	nop
	nop
	nop
	nop
	nop
	nop
	nop
	nop
	nop
	nop
	nop
	nop
	nop
	nop
	nop
	nop
	nop
	nop
	nop
	nop
	nop
	nop
	nop
	nop
	nop
	nop
	nop
	nop
	nop
	nop
	nop
	nop
	nop
	nop
	nop
	nop
	nop
	nop
	nop
	nop
	nop
	nop
	nop
	nop
	nop
	nop
	nop
	nop
.Ltmp216:
	.loc	2 371 5                         @ ../Device/UVC/UVC.c:371:5
	le	lr, .LBB3_10
.Ltmp217:
@ %bb.11:
	.loc	2 376 17                        @ ../Device/UVC/UVC.c:376:17
	ldr	r0, [r4, #-204]
	.loc	2 379 5                         @ ../Device/UVC/UVC.c:379:5
	mov.w	r1, #622592
	movs	r5, #0
	.loc	2 376 17                        @ ../Device/UVC/UVC.c:376:17
	orr	r0, r0, #33554432
	str	r0, [r4, #-204]
	.loc	2 379 5                         @ ../Device/UVC/UVC.c:379:5
	movs	r0, #0
	bl	CLK_EnableModuleClock
.Ltmp218:
	.loc	2 390 5                         @ ../Device/UVC/UVC.c:390:5
	movw	r0, :lower16:gsHSInfo
	movw	r1, :lower16:UVC_ClassRequest
	movw	r2, :lower16:UVC_SetInterface
	movt	r0, :upper16:gsHSInfo
	movt	r1, :upper16:UVC_ClassRequest
	movt	r2, :upper16:UVC_SetInterface
.Ltmp219:
	.loc	10 4278 18                      @ ../../../../Library/StdDriver/inc\sys.h:4278:18
	str	r5, [r4]
.Ltmp220:
	.loc	2 390 5                         @ ../Device/UVC/UVC.c:390:5
	bl	HSUSBD_Open
.Ltmp221:
	.loc	2 0 5 is_stmt 0                 @ ../Device/UVC/UVC.c:0:5
	movw	r0, #20488
	movs	r1, #23
	movt	r0, #16416
.Ltmp222:
	.loc	2 337 20 is_stmt 1              @ ../Device/UVC/UVC.c:337:20
	movw	r3, :lower16:gMaxPacketSize
.Ltmp223:
	.loc	2 394 5                         @ ../Device/UVC/UVC.c:394:5
	str	r1, [r0]
	mov.w	r1, #294
	.loc	2 396 5                         @ ../Device/UVC/UVC.c:396:5
	str	r1, [r0, #12]
	movs	r1, #63
	.loc	2 398 5                         @ ../Device/UVC/UVC.c:398:5
	str	r5, [r0, #24]
.Ltmp224:
	@DEBUG_VALUE: HSUSBD_SetEpBufAddr:u32Len <- 64
	@DEBUG_VALUE: HSUSBD_SetEpBufAddr:u32Base <- 0
	@DEBUG_VALUE: HSUSBD_SetEpBufAddr:u32Ep <- 255
	.loc	2 0 5 is_stmt 0                 @ ../Device/UVC/UVC.c:0:5
	mov.w	r2, #512
.Ltmp225:
	@DEBUG_VALUE: HSUSBD_SetEpBufAddr:u32Len <- 2048
	@DEBUG_VALUE: HSUSBD_SetEpBufAddr:u32Base <- 512
	@DEBUG_VALUE: HSUSBD_SetEpBufAddr:u32Ep <- 0
	.loc	9 240 29 is_stmt 1              @ ../../../../Library/StdDriver/inc\hsusbd.h:240:29
	str	r5, [r0, #76]
	mov.w	r12, #5
.Ltmp226:
	@DEBUG_VALUE: HSUSBD_ConfigEp:u32EpDir <- 8
	@DEBUG_VALUE: HSUSBD_ConfigEp:u32EpType <- 6
	@DEBUG_VALUE: HSUSBD_ConfigEp:u32EpNum <- 1
	@DEBUG_VALUE: HSUSBD_ConfigEp:u32Ep <- 0
	.loc	9 241 29                        @ ../../../../Library/StdDriver/inc\hsusbd.h:241:29
	str	r1, [r0, #80]
	movw	r1, #1026
.Ltmp227:
	.loc	2 403 5                         @ ../Device/UVC/UVC.c:403:5
	str	r1, [r0, #40]
	mov.w	r1, #1024
.Ltmp228:
	.loc	2 337 20                        @ ../Device/UVC/UVC.c:337:20
	movt	r3, :upper16:gMaxPacketSize
	mov.w	lr, #3
.Ltmp229:
	@DEBUG_VALUE: HSUSBD_ConfigEp:u32EpDir <- 8
	@DEBUG_VALUE: HSUSBD_ConfigEp:u32EpType <- 4
	@DEBUG_VALUE: HSUSBD_ConfigEp:u32EpNum <- 3
	@DEBUG_VALUE: HSUSBD_ConfigEp:u32Ep <- 2
	str	r1, [r3]
	movs	r4, #4
.Ltmp230:
	.loc	9 245 38                        @ ../../../../Library/StdDriver/inc\hsusbd.h:245:38
	str	r2, [r0, #124]
	movw	r2, #2559
	.loc	9 246 36                        @ ../../../../Library/StdDriver/inc\hsusbd.h:246:36
	str.w	r2, [r0, #128]
.Ltmp231:
	.loc	2 340 5                         @ ../Device/UVC/UVC.c:340:5
	str	r1, [r0, #112]
	movs	r1, #31
.Ltmp232:
	.loc	9 0 0 is_stmt 0                 @ ../../../../Library/StdDriver/inc\hsusbd.h:0:0
	str.w	r12, [r0, #108]
.Ltmp233:
	.loc	9 273 29 is_stmt 1              @ ../../../../Library/StdDriver/inc\hsusbd.h:273:29
	str	r1, [r0, #120]
	mov.w	r1, #3584
.Ltmp234:
	@DEBUG_VALUE: HSUSBD_SetEpBufAddr:u32Len <- 8
	@DEBUG_VALUE: HSUSBD_SetEpBufAddr:u32Base <- 3584
	@DEBUG_VALUE: HSUSBD_SetEpBufAddr:u32Ep <- 2
	.loc	9 245 38                        @ ../../../../Library/StdDriver/inc\hsusbd.h:245:38
	str.w	r1, [r0, #204]
	movw	r1, #3591
	.loc	9 246 36                        @ ../../../../Library/StdDriver/inc\hsusbd.h:246:36
	str.w	r1, [r0, #208]
	movs	r1, #8
.Ltmp235:
	.loc	2 345 5                         @ ../Device/UVC/UVC.c:345:5
	str.w	r1, [r0, #192]
	movs	r1, #61
.Ltmp236:
	.loc	9 0 0 is_stmt 0                 @ ../../../../Library/StdDriver/inc\hsusbd.h:0:0
	str.w	lr, [r0, #188]
.Ltmp237:
	.loc	9 273 29 is_stmt 1              @ ../../../../Library/StdDriver/inc\hsusbd.h:273:29
	str.w	r1, [r0, #200]
.Ltmp238:
	.loc	2 408 23                        @ ../Device/UVC/UVC.c:408:23
	movw	r0, :lower16:uvcInfo
	.loc	2 410 26                        @ ../Device/UVC/UVC.c:410:26
	movw	r1, :lower16:uvcStatus
	.loc	2 408 23                        @ ../Device/UVC/UVC.c:408:23
	movt	r0, :upper16:uvcInfo
	.loc	2 410 26                        @ ../Device/UVC/UVC.c:410:26
	movt	r1, :upper16:uvcStatus
	.loc	2 408 23                        @ ../Device/UVC/UVC.c:408:23
	strb.w	r5, [r0, #84]
	.loc	2 409 25                        @ ../Device/UVC/UVC.c:409:25
	strb.w	r5, [r0, #85]
	.loc	2 410 26                        @ ../Device/UVC/UVC.c:410:26
	str	r5, [r1, #24]
	.loc	2 412 35                        @ ../Device/UVC/UVC.c:412:35
	ldr	r2, [r3]
	.loc	2 412 33 is_stmt 0              @ ../Device/UVC/UVC.c:412:33
	str	r2, [r0, #64]
	.loc	2 413 35 is_stmt 1              @ ../Device/UVC/UVC.c:413:35
	ldr	r2, [r3]
	.loc	2 413 33 is_stmt 0              @ ../Device/UVC/UVC.c:413:33
	str	r2, [r0, #68]
	.loc	2 414 35 is_stmt 1              @ ../Device/UVC/UVC.c:414:35
	ldr	r2, [r3]
	movs	r3, #1
	.loc	2 414 33 is_stmt 0              @ ../Device/UVC/UVC.c:414:33
	str	r2, [r0, #72]
	movs	r2, #2
	.loc	2 417 34 is_stmt 1              @ ../Device/UVC/UVC.c:417:34
	strh.w	r3, [r0, #39]
	.loc	2 418 44                        @ ../Device/UVC/UVC.c:418:44
	strb.w	r2, [r0, #45]
	.loc	2 419 34                        @ ../Device/UVC/UVC.c:419:34
	strh.w	r3, [r0, #39]
	.loc	2 420 32                        @ ../Device/UVC/UVC.c:420:32
	strh.w	r2, [r0, #41]
	.loc	2 421 27                        @ ../Device/UVC/UVC.c:421:27
	strh.w	lr, [r0, #43]
	.loc	2 422 34                        @ ../Device/UVC/UVC.c:422:34
	strh	r4, [r0, #46]
	movs	r4, #7
	.loc	2 423 33                        @ ../Device/UVC/UVC.c:423:33
	strh.w	r12, [r0, #48]
	.loc	2 424 29                        @ ../Device/UVC/UVC.c:424:29
	strh.w	lr, [r0, #50]
	.loc	2 425 33                        @ ../Device/UVC/UVC.c:425:33
	strh	r4, [r0, #52]
	mov.w	r4, #256
	.loc	2 428 5                         @ ../Device/UVC/UVC.c:428:5
	strh	r5, [r0, #24]
	strd	r5, r5, [r0, #8]
	strd	r5, r5, [r0, #16]
	.loc	2 429 33                        @ ../Device/UVC/UVC.c:429:33
	strh	r4, [r0]
	.loc	2 430 39                        @ ../Device/UVC/UVC.c:430:39
	strb	r3, [r0, #2]
	.loc	2 431 38                        @ ../Device/UVC/UVC.c:431:38
	strb	r2, [r0, #3]
	.loc	2 432 27                        @ ../Device/UVC/UVC.c:432:27
	str	r3, [r1, #8]
	.loc	2 433 26                        @ ../Device/UVC/UVC.c:433:26
	str	r2, [r1, #12]
	movw	r2, #5653
	movt	r2, #5
	.loc	2 434 42                        @ ../Device/UVC/UVC.c:434:42
	str	r2, [r0, #4]
	.loc	2 437 5                         @ ../Device/UVC/UVC.c:437:5
	str	r5, [r0, #28]
	str.w	r5, [r0, #35]
	str	r5, [r0, #32]
	.loc	2 439 44                        @ ../Device/UVC/UVC.c:439:44
	strb	r3, [r0, #28]
	.loc	2 440 43                        @ ../Device/UVC/UVC.c:440:43
	strb	r3, [r0, #29]
	movw	r0, #57604
	.loc	2 441 35                        @ ../Device/UVC/UVC.c:441:35
	str	r3, [r1, #16]
	.loc	2 442 34                        @ ../Device/UVC/UVC.c:442:34
	str	r3, [r1, #20]
	mov.w	r1, #536870912
.Ltmp239:
	@DEBUG_VALUE: __NVIC_EnableIRQ:IRQn <- 61
	.loc	2 0 34 is_stmt 0                @ ../Device/UVC/UVC.c:0:34
	movt	r0, #57344
.Ltmp240:
	.loc	8 3909 5 is_stmt 1              @ ../../../../Library/CMSIS/Core/Include\core_cm55.h:3909:5
	@APP
	@NO_APP
	.loc	8 3910 43                       @ ../../../../Library/CMSIS/Core/Include\core_cm55.h:3910:43
	str	r1, [r0]
	.loc	8 3911 5                        @ ../../../../Library/CMSIS/Core/Include\core_cm55.h:3911:5
	@APP
	@NO_APP
.Ltmp241:
	.loc	2 446 1 epilogue_begin          @ ../Device/UVC/UVC.c:446:1
	pop	{r4, r5, r7, pc}
.Ltmp242:
.Lfunc_end3:
	.size	UVC_Init, .Lfunc_end3-UVC_Init
	.cfi_endproc
	.cantunwind
	.fnend
                                        @ -- End function
	.section	.text.UVC_ClassRequest,"ax",%progbits
	.hidden	UVC_ClassRequest                @ -- Begin function UVC_ClassRequest
	.globl	UVC_ClassRequest
	.p2align	2
	.type	UVC_ClassRequest,%function
	.code	16                              @ @UVC_ClassRequest
	.thumb_func
UVC_ClassRequest:
.Lfunc_begin4:
	.loc	2 449 0                         @ ../Device/UVC/UVC.c:449:0
	.fnstart
	.cfi_startproc
@ %bb.0:
	.save	{r4, r5, r7, lr}
	push	{r4, r5, r7, lr}
	.cfi_def_cfa_offset 16
	.cfi_offset lr, -4
	.cfi_offset r7, -8
	.cfi_offset r5, -12
	.cfi_offset r4, -16
	.pad	#8
	sub	sp, #8
	.cfi_def_cfa_offset 24
.Ltmp243:
	@DEBUG_VALUE: UVC_ClassRequest:Data <- [DW_OP_plus_uconst 4, DW_OP_deref] $sp
	.loc	2 452 17 prologue_end           @ ../Device/UVC/UVC.c:452:17
	movw	r4, :lower16:gUsbCmd
	movt	r4, :upper16:gUsbCmd
	ldrsb.w	r1, [r4]
	.loc	2 0 0 is_stmt 0                 @ ../Device/UVC/UVC.c:0:0
	ldrh	r0, [r4, #4]
.Ltmp244:
	.loc	2 452 9                         @ ../Device/UVC/UVC.c:452:9
	cmp.w	r1, #-1
	ble	.LBB4_6
.Ltmp245:
@ %bb.1:
	@DEBUG_VALUE: UVC_ClassRequest:Data <- [DW_OP_plus_uconst 4, DW_OP_deref] $sp
	.loc	2 593 13 is_stmt 1              @ ../Device/UVC/UVC.c:593:13
	cmp	r0, #1
	beq	.LBB4_14
.Ltmp246:
@ %bb.2:
	@DEBUG_VALUE: UVC_ClassRequest:Data <- [DW_OP_plus_uconst 4, DW_OP_deref] $sp
	cmp.w	r0, #256
	beq	.LBB4_13
.Ltmp247:
@ %bb.3:
	@DEBUG_VALUE: UVC_ClassRequest:Data <- [DW_OP_plus_uconst 4, DW_OP_deref] $sp
	cmp.w	r0, #1280
	bne	.LBB4_22
.Ltmp248:
@ %bb.4:
	@DEBUG_VALUE: UVC_ClassRequest:Data <- [DW_OP_plus_uconst 4, DW_OP_deref] $sp
	.loc	2 597 25                        @ ../Device/UVC/UVC.c:597:25
	ldrb	r0, [r4, #1]
	movs	r5, #0
.Ltmp249:
	.loc	2 595 22                        @ ../Device/UVC/UVC.c:595:22
	strh.w	r5, [sp, #2]
	.loc	2 597 17                        @ ../Device/UVC/UVC.c:597:17
	cmp	r0, #1
	bne	.LBB4_19
.Ltmp250:
@ %bb.5:
	@DEBUG_VALUE: UVC_ClassRequest:Data <- [DW_OP_plus_uconst 4, DW_OP_deref] $sp
	.loc	2 599 62                        @ ../Device/UVC/UVC.c:599:62
	ldrh	r1, [r4, #6]
	add.w	r0, sp, #2
	.loc	2 599 17 is_stmt 0              @ ../Device/UVC/UVC.c:599:17
	bl	HSUSBD_CtrlOut
.Ltmp251:
	.loc	2 600 32 is_stmt 1              @ ../Device/UVC/UVC.c:600:32
	ldrsh.w	r0, [sp, #2]
	.loc	2 600 17 is_stmt 0              @ ../Device/UVC/UVC.c:600:17
	bl	UVC_PU_Control
.Ltmp252:
	.loc	2 0 17                          @ ../Device/UVC/UVC.c:0:17
	movw	r0, #20528
	mov.w	r1, #1024
	movt	r0, #16416
	.loc	2 602 17 is_stmt 1              @ ../Device/UVC/UVC.c:602:17
	str	r1, [r0, #4]
	.loc	2 603 17                        @ ../Device/UVC/UVC.c:603:17
	str	r5, [r0, #-4]
	b	.LBB4_17
.Ltmp253:
.LBB4_6:
	@DEBUG_VALUE: UVC_ClassRequest:Data <- [DW_OP_plus_uconst 4, DW_OP_deref] $sp
	.loc	2 0 17 is_stmt 0                @ ../Device/UVC/UVC.c:0:17
	ldrh	r1, [r4, #2]
.Ltmp254:
	.loc	2 458 38 is_stmt 1              @ ../Device/UVC/UVC.c:458:38
	cmp	r0, #0
	it	eq
	cmpeq.w	r1, #512
	beq	.LBB4_11
.Ltmp255:
@ %bb.7:
	@DEBUG_VALUE: UVC_ClassRequest:Data <- [DW_OP_plus_uconst 4, DW_OP_deref] $sp
	.loc	2 465 18                        @ ../Device/UVC/UVC.c:465:18
	cmp	r0, #1
	beq	.LBB4_23
.Ltmp256:
@ %bb.8:
	@DEBUG_VALUE: UVC_ClassRequest:Data <- [DW_OP_plus_uconst 4, DW_OP_deref] $sp
	cmp.w	r0, #256
	beq	.LBB4_20
.Ltmp257:
@ %bb.9:
	@DEBUG_VALUE: UVC_ClassRequest:Data <- [DW_OP_plus_uconst 4, DW_OP_deref] $sp
	cmp.w	r0, #1280
	bne	.LBB4_22
.Ltmp258:
@ %bb.10:
	@DEBUG_VALUE: UVC_ClassRequest:Data <- [DW_OP_plus_uconst 4, DW_OP_deref] $sp
	.loc	2 467 40                        @ ../Device/UVC/UVC.c:467:40
	ldrb	r0, [r4, #1]
	.loc	2 467 20 is_stmt 0              @ ../Device/UVC/UVC.c:467:20
	bl	UVC_PU_Info
.Ltmp259:
	.loc	2 467 18                        @ ../Device/UVC/UVC.c:467:18
	str	r0, [sp, #4]
.Ltmp260:
	@DEBUG_VALUE: UVC_ClassRequest:Data <- [DW_OP_plus_uconst 4, DW_OP_deref] $sp
.LBB4_11:
	@DEBUG_VALUE: UVC_ClassRequest:Data <- [DW_OP_plus_uconst 4, DW_OP_deref] $sp
	.loc	2 0 0                           @ ../Device/UVC/UVC.c:0:0
	movw	r0, :lower16:uvcInfo
	ldrh	r1, [r4, #6]
	movt	r0, :upper16:uvcInfo
	adds	r0, #84
.Ltmp261:
.LBB4_12:
	bl	HSUSBD_PrepareCtrlIn
.Ltmp262:
	movw	r0, #20528
	movs	r1, #8
	movt	r0, #16416
	str	r1, [r0, #4]
	movs	r1, #10
	b	.LBB4_18
.Ltmp263:
.LBB4_13:
	@DEBUG_VALUE: UVC_ClassRequest:Data <- [DW_OP_plus_uconst 4, DW_OP_deref] $sp
	.loc	2 609 31 is_stmt 1              @ ../Device/UVC/UVC.c:609:31
	movw	r0, :lower16:uvcInfo
	movs	r1, #7
	b	.LBB4_21
.Ltmp264:
.LBB4_14:
	@DEBUG_VALUE: UVC_ClassRequest:Data <- [DW_OP_plus_uconst 4, DW_OP_deref] $sp
	.loc	2 615 25                        @ ../Device/UVC/UVC.c:615:25
	ldrh	r0, [r4, #2]
.Ltmp265:
	.loc	2 615 17 is_stmt 0              @ ../Device/UVC/UVC.c:615:17
	sub.w	r0, r0, #256
	rev	r0, r0
	lsrs	r0, r0, #16
	cmp	r0, #4
	bhi	.LBB4_16
.Ltmp266:
@ %bb.15:
	@DEBUG_VALUE: UVC_ClassRequest:Data <- [DW_OP_plus_uconst 4, DW_OP_deref] $sp
	adr	r1, .LCPI4_0
	ldr.w	r0, [r1, r0, lsl #2]
.Ltmp267:
	.loc	2 0 0                           @ ../Device/UVC/UVC.c:0:0
	ldrh	r1, [r4, #6]
	bl	HSUSBD_CtrlOut
.Ltmp268:
.LBB4_16:
	@DEBUG_VALUE: UVC_ClassRequest:Data <- [DW_OP_plus_uconst 4, DW_OP_deref] $sp
	movw	r0, #20528
	mov.w	r1, #1024
	movt	r0, #16416
	.loc	2 623 13 is_stmt 1              @ ../Device/UVC/UVC.c:623:13
	str	r1, [r0, #4]
	movs	r1, #0
	.loc	2 624 13                        @ ../Device/UVC/UVC.c:624:13
	str	r1, [r0, #-4]
.Ltmp269:
.LBB4_17:
	@DEBUG_VALUE: UVC_ClassRequest:Data <- [DW_OP_plus_uconst 4, DW_OP_deref] $sp
	.loc	2 0 13 is_stmt 0                @ ../Device/UVC/UVC.c:0:13
	movw	r1, #1026
.Ltmp270:
.LBB4_18:
	str	r1, [r0]
.Ltmp271:
.LBB4_19:
	.loc	2 633 1 epilogue_begin is_stmt 1 @ ../Device/UVC/UVC.c:633:1
	add	sp, #8
	pop	{r4, r5, r7, pc}
.LBB4_20:
.Ltmp272:
	@DEBUG_VALUE: UVC_ClassRequest:Data <- [DW_OP_plus_uconst 4, DW_OP_deref] $sp
	.loc	2 475 31                        @ ../Device/UVC/UVC.c:475:31
	movw	r0, :lower16:uvcInfo
	movs	r1, #6
.Ltmp273:
.LBB4_21:
	@DEBUG_VALUE: UVC_ClassRequest:Data <- [DW_OP_plus_uconst 4, DW_OP_deref] $sp
	.loc	2 0 0 is_stmt 0                 @ ../Device/UVC/UVC.c:0:0
	movt	r0, :upper16:uvcInfo
	strb.w	r1, [r0, #84]
.Ltmp274:
.LBB4_22:
	@DEBUG_VALUE: UVC_ClassRequest:Data <- [DW_OP_plus_uconst 4, DW_OP_deref] $sp
	movw	r0, #20528
	movs	r1, #2
	movt	r0, #16416
	str	r1, [r0, #-4]
.Ltmp275:
	.loc	2 633 1 epilogue_begin is_stmt 1 @ ../Device/UVC/UVC.c:633:1
	add	sp, #8
	pop	{r4, r5, r7, pc}
.Ltmp276:
.LBB4_23:
	@DEBUG_VALUE: UVC_ClassRequest:Data <- [DW_OP_plus_uconst 4, DW_OP_deref] $sp
	.loc	2 482 54                        @ ../Device/UVC/UVC.c:482:54
	sub.w	r0, r1, #256
	rev	r0, r0
	lsrs	r0, r0, #16
	cmp	r0, #2
	blo	.LBB4_27
.Ltmp277:
@ %bb.24:
	@DEBUG_VALUE: UVC_ClassRequest:Data <- [DW_OP_plus_uconst 4, DW_OP_deref] $sp
	subs	r1, r0, #2
	cmp	r1, #2
	bhs	.LBB4_29
.Ltmp278:
@ %bb.25:
	@DEBUG_VALUE: UVC_ClassRequest:Data <- [DW_OP_plus_uconst 4, DW_OP_deref] $sp
	.loc	2 534 30                        @ ../Device/UVC/UVC.c:534:30
	ldrb	r0, [r4, #1]
	movw	r5, #20528
	movt	r5, #16416
	.loc	2 534 56 is_stmt 0              @ ../Device/UVC/UVC.c:534:56
	sub.w	r1, r0, #133
	cmp	r1, #1
	bhi	.LBB4_38
.Ltmp279:
@ %bb.26:
	@DEBUG_VALUE: UVC_ClassRequest:Data <- [DW_OP_plus_uconst 4, DW_OP_deref] $sp
	.loc	2 0 56                          @ ../Device/UVC/UVC.c:0:56
	movs	r1, #11
	cmp	r0, #134
	it	eq
	moveq	r1, #3
.Ltmp280:
	str	r1, [sp, #4]
.Ltmp281:
	.loc	2 541 68 is_stmt 1              @ ../Device/UVC/UVC.c:541:68
	ldrh	r1, [r4, #6]
	add	r0, sp, #4
	b	.LBB4_41
.Ltmp282:
.LBB4_27:
	@DEBUG_VALUE: UVC_ClassRequest:Data <- [DW_OP_plus_uconst 4, DW_OP_deref] $sp
	.loc	2 484 30                        @ ../Device/UVC/UVC.c:484:30
	ldrb	r0, [r4, #1]
	.loc	2 484 56 is_stmt 0              @ ../Device/UVC/UVC.c:484:56
	sub.w	r1, r0, #133
	cmp	r1, #1
	bhi	.LBB4_32
.Ltmp283:
@ %bb.28:
	@DEBUG_VALUE: UVC_ClassRequest:Data <- [DW_OP_plus_uconst 4, DW_OP_deref] $sp
	.loc	2 0 56                          @ ../Device/UVC/UVC.c:0:56
	movs	r1, #26
	cmp	r0, #134
	it	eq
	moveq	r1, #3
.Ltmp284:
	str	r1, [sp, #4]
	b	.LBB4_31
.Ltmp285:
.LBB4_29:
	@DEBUG_VALUE: UVC_ClassRequest:Data <- [DW_OP_plus_uconst 4, DW_OP_deref] $sp
	.loc	2 482 54 is_stmt 1              @ ../Device/UVC/UVC.c:482:54
	cmp	r0, #4
	bne	.LBB4_19
.Ltmp286:
@ %bb.30:
	@DEBUG_VALUE: UVC_ClassRequest:Data <- [DW_OP_plus_uconst 4, DW_OP_deref] $sp
	.loc	2 573 29                        @ ../Device/UVC/UVC.c:573:29
	ldrb	r0, [r4, #1]
.Ltmp287:
	.loc	2 573 21 is_stmt 0              @ ../Device/UVC/UVC.c:573:21
	cmp	r0, #134
	iteee	eq
	moveq	r0, #3
.Ltmp288:
	.loc	2 576 38 is_stmt 1              @ ../Device/UVC/UVC.c:576:38
	movwne	r0, :lower16:uvcStatus
	movtne	r0, :upper16:uvcStatus
	ldrne	r0, [r0, #24]
.Ltmp289:
	@DEBUG_VALUE: UVC_ClassRequest:Data <- $r0
	.loc	2 0 0 is_stmt 0                 @ ../Device/UVC/UVC.c:0:0
	str	r0, [sp, #4]
.Ltmp290:
.LBB4_31:
	ldrh	r1, [r4, #6]
	add	r0, sp, #4
	b	.LBB4_12
.LBB4_32:
.Ltmp291:
	@DEBUG_VALUE: UVC_ClassRequest:Data <- [DW_OP_plus_uconst 4, DW_OP_deref] $sp
	.loc	2 497 47 is_stmt 1              @ ../Device/UVC/UVC.c:497:47
	movw	r0, :lower16:uvcInfo
	movt	r0, :upper16:uvcInfo
	ldrb	r1, [r0, #2]
	.loc	2 497 71 is_stmt 0              @ ../Device/UVC/UVC.c:497:71
	ldr	r2, [r0, #60]
	.loc	2 497 86                        @ ../Device/UVC/UVC.c:497:86
	cmp	r2, r1
	bne	.LBB4_34
.Ltmp292:
@ %bb.33:
	@DEBUG_VALUE: UVC_ClassRequest:Data <- [DW_OP_plus_uconst 4, DW_OP_deref] $sp
	.loc	2 497 111                       @ ../Device/UVC/UVC.c:497:111
	ldrb	r1, [r0, #3]
	.loc	2 497 134                       @ ../Device/UVC/UVC.c:497:134
	ldr	r2, [r0, #56]
.Ltmp293:
	.loc	2 497 25                        @ ../Device/UVC/UVC.c:497:25
	cmp	r2, r1
	beq	.LBB4_35
.Ltmp294:
.LBB4_34:
	@DEBUG_VALUE: UVC_ClassRequest:Data <- [DW_OP_plus_uconst 4, DW_OP_deref] $sp
	.loc	2 499 94 is_stmt 1              @ ../Device/UVC/UVC.c:499:94
	ldrb	r1, [r0, #2]
	.loc	2 499 47 is_stmt 0              @ ../Device/UVC/UVC.c:499:47
	movw	r2, :lower16:uvcStatus
	movt	r2, :upper16:uvcStatus
	.loc	2 499 71                        @ ../Device/UVC/UVC.c:499:71
	str	r1, [r0, #60]
	.loc	2 499 47                        @ ../Device/UVC/UVC.c:499:47
	str	r1, [r2, #8]
	.loc	2 500 92 is_stmt 1              @ ../Device/UVC/UVC.c:500:92
	ldrb	r1, [r0, #3]
	.loc	2 500 69 is_stmt 0              @ ../Device/UVC/UVC.c:500:69
	str	r1, [r0, #56]
	.loc	2 500 46                        @ ../Device/UVC/UVC.c:500:46
	str	r1, [r2, #12]
	movs	r1, #1
	.loc	2 502 45 is_stmt 1              @ ../Device/UVC/UVC.c:502:45
	strb.w	r1, [r0, #85]
.Ltmp295:
.LBB4_35:
	@DEBUG_VALUE: UVC_ClassRequest:Data <- [DW_OP_plus_uconst 4, DW_OP_deref] $sp
	.loc	2 505 50                        @ ../Device/UVC/UVC.c:505:50
	ldrb	r1, [r0, #3]
	.loc	2 505 21 is_stmt 0              @ ../Device/UVC/UVC.c:505:21
	subs	r1, #1
	uxtb	r1, r1
	cmp	r1, #2
	bhi	.LBB4_37
.Ltmp296:
@ %bb.36:
	@DEBUG_VALUE: UVC_ClassRequest:Data <- [DW_OP_plus_uconst 4, DW_OP_deref] $sp
	movw	r2, :lower16:.Lswitch.table.UVC_ClassRequest.1
	movt	r2, :upper16:.Lswitch.table.UVC_ClassRequest.1
	ldr.w	r1, [r2, r1, lsl #2]
.Ltmp297:
	.loc	2 0 0                           @ ../Device/UVC/UVC.c:0:0
	str.w	r1, [r0, #18]
.Ltmp298:
.LBB4_37:
	@DEBUG_VALUE: UVC_ClassRequest:Data <- [DW_OP_plus_uconst 4, DW_OP_deref] $sp
	.loc	2 522 94 is_stmt 1              @ ../Device/UVC/UVC.c:522:94
	movw	r1, :lower16:gAltInterface
	.loc	2 524 49                        @ ../Device/UVC/UVC.c:524:49
	movw	r2, :lower16:uvcStatus
	.loc	2 522 94                        @ ../Device/UVC/UVC.c:522:94
	movt	r1, :upper16:gAltInterface
	ldrb	r1, [r1]
	.loc	2 524 49                        @ ../Device/UVC/UVC.c:524:49
	movt	r2, :upper16:uvcStatus
	.loc	2 522 69                        @ ../Device/UVC/UVC.c:522:69
	add.w	r1, r0, r1, lsl #2
	ldr	r1, [r1, #64]
	.loc	2 522 67 is_stmt 0              @ ../Device/UVC/UVC.c:522:67
	str.w	r1, [r0, #22]
	.loc	2 524 72 is_stmt 1              @ ../Device/UVC/UVC.c:524:72
	ldr.w	r1, [r0, #18]
	.loc	2 524 49 is_stmt 0              @ ../Device/UVC/UVC.c:524:49
	str	r1, [r2]
	.loc	2 525 69 is_stmt 1              @ ../Device/UVC/UVC.c:525:69
	movw	r1, :lower16:gMaxPacketSize
	movt	r1, :upper16:gMaxPacketSize
	ldr	r1, [r1]
	.loc	2 525 67 is_stmt 0              @ ../Device/UVC/UVC.c:525:67
	str.w	r1, [r0, #22]
	movs	r1, #61
	.loc	2 526 55 is_stmt 1              @ ../Device/UVC/UVC.c:526:55
	strh	r1, [r0, #12]
	.loc	2 527 84                        @ ../Device/UVC/UVC.c:527:84
	ldrh	r1, [r4, #6]
	.loc	2 527 21 is_stmt 0              @ ../Device/UVC/UVC.c:527:21
	b	.LBB4_12
.Ltmp299:
.LBB4_38:
	@DEBUG_VALUE: UVC_ClassRequest:Data <- [DW_OP_plus_uconst 4, DW_OP_deref] $sp
	.loc	2 547 55 is_stmt 1              @ ../Device/UVC/UVC.c:547:55
	movw	r1, :lower16:uvcInfo
	movt	r1, :upper16:uvcInfo
	ldrb	r0, [r1, #29]
	.loc	2 547 21 is_stmt 0              @ ../Device/UVC/UVC.c:547:21
	subs	r0, #1
	uxtb	r0, r0
	cmp	r0, #2
	bhi	.LBB4_40
.Ltmp300:
@ %bb.39:
	@DEBUG_VALUE: UVC_ClassRequest:Data <- [DW_OP_plus_uconst 4, DW_OP_deref] $sp
	movw	r2, :lower16:.Lswitch.table.UVC_ClassRequest.1
	movt	r2, :upper16:.Lswitch.table.UVC_ClassRequest.1
	ldr.w	r0, [r2, r0, lsl #2]
.Ltmp301:
	.loc	2 0 0                           @ ../Device/UVC/UVC.c:0:0
	str.w	r0, [r1, #31]
.Ltmp302:
.LBB4_40:
	@DEBUG_VALUE: UVC_ClassRequest:Data <- [DW_OP_plus_uconst 4, DW_OP_deref] $sp
	.loc	2 562 79 is_stmt 1              @ ../Device/UVC/UVC.c:562:79
	mov	r0, r1
	.loc	2 562 51 is_stmt 0              @ ../Device/UVC/UVC.c:562:51
	movw	r3, :lower16:uvcStatus
	.loc	2 562 79                        @ ../Device/UVC/UVC.c:562:79
	ldrb	r2, [r0, #28]!
	.loc	2 562 51                        @ ../Device/UVC/UVC.c:562:51
	movt	r3, :upper16:uvcStatus
	str	r2, [r3, #16]
	.loc	2 563 78 is_stmt 1              @ ../Device/UVC/UVC.c:563:78
	ldrb	r2, [r1, #29]
	.loc	2 563 50 is_stmt 0              @ ../Device/UVC/UVC.c:563:50
	str	r2, [r3, #20]
	.loc	2 564 136 is_stmt 1             @ ../Device/UVC/UVC.c:564:136
	movw	r2, :lower16:gAltInterface
	movt	r2, :upper16:gAltInterface
	ldrb	r2, [r2]
	.loc	2 564 111 is_stmt 0             @ ../Device/UVC/UVC.c:564:111
	add.w	r2, r1, r2, lsl #2
	ldr	r2, [r2, #64]
	.loc	2 564 109                       @ ../Device/UVC/UVC.c:564:109
	str.w	r2, [r1, #35]
	.loc	2 564 57                        @ ../Device/UVC/UVC.c:564:57
	str	r2, [r3, #4]
	.loc	2 565 89 is_stmt 1              @ ../Device/UVC/UVC.c:565:89
	ldrh	r1, [r4, #6]
.Ltmp303:
.LBB4_41:
	@DEBUG_VALUE: UVC_ClassRequest:Data <- [DW_OP_plus_uconst 4, DW_OP_deref] $sp
	.loc	2 0 0 is_stmt 0                 @ ../Device/UVC/UVC.c:0:0
	bl	HSUSBD_PrepareCtrlIn
.Ltmp304:
	movs	r0, #8
	str	r0, [r5, #4]
	movs	r0, #10
	str	r0, [r5]
.Ltmp305:
	.loc	2 633 1 epilogue_begin is_stmt 1 @ ../Device/UVC/UVC.c:633:1
	add	sp, #8
	pop	{r4, r5, r7, pc}
.Ltmp306:
	.loc	2 0 1 is_stmt 0                 @ :0:1
.Ltmp307:
	.p2align	2
@ %bb.42:
.LCPI4_0:
.Lswitch.table.UVC_ClassRequest.2:
	.long	uvcInfo
	.long	uvcInfo
	.long	uvcInfo+28
	.long	uvcInfo+28
	.long	uvcStatus+24
.Lfunc_end4:
	.size	UVC_ClassRequest, .Lfunc_end4-UVC_ClassRequest
	.cfi_endproc
	.cantunwind
	.fnend
                                        @ -- End function
	.section	.text.UVC_SetInterface,"ax",%progbits
	.hidden	UVC_SetInterface                @ -- Begin function UVC_SetInterface
	.globl	UVC_SetInterface
	.p2align	2
	.type	UVC_SetInterface,%function
	.code	16                              @ @UVC_SetInterface
	.thumb_func
UVC_SetInterface:
.Lfunc_begin5:
	.fnstart
	.cfi_startproc
@ %bb.0:
	@DEBUG_VALUE: UVC_SetInterface:u32AltInterface <- $r0
	.loc	2 646 35 prologue_end is_stmt 1 @ ../Device/UVC/UVC.c:646:35
	movw	r1, :lower16:gAppConnected
	movt	r1, :upper16:gAppConnected
	strb	r0, [r1]
	.loc	2 646 19 is_stmt 0              @ ../Device/UVC/UVC.c:646:19
	movw	r1, :lower16:gAltInterface
	movt	r1, :upper16:gAltInterface
	strb	r0, [r1]
.Ltmp308:
	.loc	2 648 17 is_stmt 1              @ ../Device/UVC/UVC.c:648:17
	movw	r0, :lower16:gUsbCmd
.Ltmp309:
	@DEBUG_VALUE: UVC_SetInterface:u32AltInterface <- [DW_OP_LLVM_entry_value 1] $r0
	movt	r0, :upper16:gUsbCmd
	ldrh	r0, [r0, #2]
.Ltmp310:
	.loc	2 648 9 is_stmt 0               @ ../Device/UVC/UVC.c:648:9
	cmp	r0, #0
	.loc	2 655 1 is_stmt 1               @ ../Device/UVC/UVC.c:655:1
	it	ne
	bxne	lr
.Ltmp311:
.LBB5_1:
	@DEBUG_VALUE: UVC_SetInterface:u32AltInterface <- [DW_OP_LLVM_entry_value 1] $r0
	.loc	2 650 26                        @ ../Device/UVC/UVC.c:650:26
	movw	r0, :lower16:g_hsusbd_DmaDone
	movs	r1, #1
	movt	r0, :upper16:g_hsusbd_DmaDone
	movs	r2, #128
	str	r1, [r0]
	movw	r0, #20572
	movt	r0, #16416
	movs	r1, #0
.Ltmp312:
	.loc	9 225 20                        @ ../../../../Library/StdDriver/inc\hsusbd.h:225:20
	str	r1, [r0, #4]
	.loc	9 226 20                        @ ../../../../Library/StdDriver/inc\hsusbd.h:226:20
	str	r2, [r0]
	.loc	9 227 20                        @ ../../../../Library/StdDriver/inc\hsusbd.h:227:20
	str	r1, [r0]
.Ltmp313:
	.loc	2 653 34                        @ ../Device/UVC/UVC.c:653:34
	ldr	r1, [r0, #24]
	orr	r1, r1, #1
	str	r1, [r0, #24]
.Ltmp314:
	.loc	2 655 1                         @ ../Device/UVC/UVC.c:655:1
	bx	lr
.Ltmp315:
.Lfunc_end5:
	.size	UVC_SetInterface, .Lfunc_end5-UVC_SetInterface
	.cfi_endproc
	.cantunwind
	.fnend
                                        @ -- End function
	.section	.text.UVC_PU_Info,"ax",%progbits
	.hidden	UVC_PU_Info                     @ -- Begin function UVC_PU_Info
	.globl	UVC_PU_Info
	.p2align	2
	.type	UVC_PU_Info,%function
	.code	16                              @ @UVC_PU_Info
	.thumb_func
UVC_PU_Info:
.Lfunc_begin6:
	.fnstart
	.cfi_startproc
@ %bb.0:
	@DEBUG_VALUE: UVC_PU_Info:Req <- $r0
	@DEBUG_VALUE: UVC_PU_Info:Unit <- $r1
	.loc	2 659 23 prologue_end           @ ../Device/UVC/UVC.c:659:23
	movw	r12, :lower16:uvcInfo
	.loc	2 661 5                         @ ../Device/UVC/UVC.c:661:5
	sub.w	r3, r0, #129
	.loc	2 659 23                        @ ../Device/UVC/UVC.c:659:23
	movt	r12, :upper16:uvcInfo
	movs	r0, #0
.Ltmp316:
	@DEBUG_VALUE: UVC_PU_Info:Req <- [DW_OP_LLVM_entry_value 1] $r0
	.loc	2 661 5                         @ ../Device/UVC/UVC.c:661:5
	cmp	r3, #6
	.loc	2 659 23                        @ ../Device/UVC/UVC.c:659:23
	strb.w	r0, [r12, #84]
	.loc	2 661 5                         @ ../Device/UVC/UVC.c:661:5
	bhi	.LBB6_8
.Ltmp317:
@ %bb.1:
	@DEBUG_VALUE: UVC_PU_Info:Req <- [DW_OP_LLVM_entry_value 1] $r0
	@DEBUG_VALUE: UVC_PU_Info:Unit <- $r1
	.loc	2 0 5 is_stmt 0                 @ ../Device/UVC/UVC.c:0:5
	movs	r0, #1
	.loc	2 661 5                         @ ../Device/UVC/UVC.c:661:5
.LCPI6_0:
	tbb	[pc, r3]
.Ltmp318:
@ %bb.2:
	.loc	2 0 5                           @ ../Device/UVC/UVC.c:0:5
.LJTI6_0:
	.byte	(.LBB6_3-(.LCPI6_0+4))/2
	.byte	(.LBB6_13-(.LCPI6_0+4))/2
	.byte	(.LBB6_9-(.LCPI6_0+4))/2
	.byte	(.LBB6_20-(.LCPI6_0+4))/2
	.byte	(.LBB6_7-(.LCPI6_0+4))/2
	.byte	(.LBB6_17-(.LCPI6_0+4))/2
	.byte	(.LBB6_21-(.LCPI6_0+4))/2
	.p2align	1
.LBB6_3:
.Ltmp319:
	@DEBUG_VALUE: UVC_PU_Info:Req <- [DW_OP_LLVM_entry_value 1] $r0
	@DEBUG_VALUE: UVC_PU_Info:Unit <- $r1
	.loc	2 664 13 is_stmt 1              @ ../Device/UVC/UVC.c:664:13
	sub.w	r0, r1, #256
	ror.w	r0, r0, #8
	cmp	r0, #8
	bhi.w	.LBB6_26
.Ltmp320:
@ %bb.4:
	@DEBUG_VALUE: UVC_PU_Info:Req <- [DW_OP_LLVM_entry_value 1] $r0
	@DEBUG_VALUE: UVC_PU_Info:Unit <- $r1
	adr.w	r1, .LJTI6_4
.Ltmp321:
	@DEBUG_VALUE: UVC_PU_Info:Unit <- [DW_OP_LLVM_entry_value 1] $r1
.LCPI6_1:
	tbh	[pc, r0, lsl #1]
.Ltmp322:
@ %bb.5:
	.loc	2 0 13 is_stmt 0                @ ../Device/UVC/UVC.c:0:13
.LJTI6_4:
	.short	(.LBB6_6-(.LCPI6_1+4))/2
	.short	(.LBB6_31-(.LCPI6_1+4))/2
	.short	(.LBB6_44-(.LCPI6_1+4))/2
	.short	(.LBB6_26-(.LCPI6_1+4))/2
	.short	(.LBB6_46-(.LCPI6_1+4))/2
	.short	(.LBB6_49-(.LCPI6_1+4))/2
	.short	(.LBB6_29-(.LCPI6_1+4))/2
	.short	(.LBB6_38-(.LCPI6_1+4))/2
	.short	(.LBB6_40-(.LCPI6_1+4))/2
	.p2align	1
.LBB6_6:
.Ltmp323:
	@DEBUG_VALUE: UVC_PU_Info:Unit <- [DW_OP_LLVM_entry_value 1] $r1
	@DEBUG_VALUE: UVC_PU_Info:Req <- [DW_OP_LLVM_entry_value 1] $r0
	.loc	2 667 46 is_stmt 1              @ ../Device/UVC/UVC.c:667:46
	ldrsh.w	r0, [r12, #52]
.Ltmp324:
	.loc	2 818 1                         @ ../Device/UVC/UVC.c:818:1
	bx	lr
.Ltmp325:
.LBB6_7:
	@DEBUG_VALUE: UVC_PU_Info:Req <- [DW_OP_LLVM_entry_value 1] $r0
	@DEBUG_VALUE: UVC_PU_Info:Unit <- $r1
	.loc	2 0 1 is_stmt 0                 @ ../Device/UVC/UVC.c:0:1
	movs	r0, #7
.Ltmp326:
	.loc	2 813 31 is_stmt 1              @ ../Device/UVC/UVC.c:813:31
	strb.w	r0, [r12, #84]
.Ltmp327:
.LBB6_8:
	@DEBUG_VALUE: UVC_PU_Info:Req <- [DW_OP_LLVM_entry_value 1] $r0
	@DEBUG_VALUE: UVC_PU_Info:Unit <- $r1
	.loc	2 0 31 is_stmt 0                @ ../Device/UVC/UVC.c:0:31
	movs	r0, #6
	.loc	2 818 1 is_stmt 1               @ ../Device/UVC/UVC.c:818:1
	bx	lr
.Ltmp328:
.LBB6_9:
	@DEBUG_VALUE: UVC_PU_Info:Req <- [DW_OP_LLVM_entry_value 1] $r0
	@DEBUG_VALUE: UVC_PU_Info:Unit <- $r1
	.loc	2 728 13                        @ ../Device/UVC/UVC.c:728:13
	sub.w	r0, r1, #256
	ror.w	r0, r0, #8
	cmp	r0, #8
	bhi	.LBB6_26
.Ltmp329:
@ %bb.10:
	@DEBUG_VALUE: UVC_PU_Info:Req <- [DW_OP_LLVM_entry_value 1] $r0
	@DEBUG_VALUE: UVC_PU_Info:Unit <- $r1
	adr.w	r1, .LJTI6_2
.Ltmp330:
	@DEBUG_VALUE: UVC_PU_Info:Unit <- [DW_OP_LLVM_entry_value 1] $r1
.LCPI6_2:
	tbb	[pc, r0]
.Ltmp331:
@ %bb.11:
	.loc	2 0 13 is_stmt 0                @ ../Device/UVC/UVC.c:0:13
.LJTI6_2:
	.byte	(.LBB6_12-(.LCPI6_2+4))/2
	.byte	(.LBB6_28-(.LCPI6_2+4))/2
	.byte	(.LBB6_36-(.LCPI6_2+4))/2
	.byte	(.LBB6_26-(.LCPI6_2+4))/2
	.byte	(.LBB6_37-(.LCPI6_2+4))/2
	.byte	(.LBB6_43-(.LCPI6_2+4))/2
	.byte	(.LBB6_27-(.LCPI6_2+4))/2
	.byte	(.LBB6_33-(.LCPI6_2+4))/2
	.byte	(.LBB6_34-(.LCPI6_2+4))/2
	.p2align	1
.LBB6_12:
.Ltmp332:
	@DEBUG_VALUE: UVC_PU_Info:Unit <- [DW_OP_LLVM_entry_value 1] $r1
	@DEBUG_VALUE: UVC_PU_Info:Req <- [DW_OP_LLVM_entry_value 1] $r0
	.loc	2 731 38 is_stmt 1              @ ../Device/UVC/UVC.c:731:38
	movw	r0, :lower16:uvcPuInfo
	movt	r0, :upper16:uvcPuInfo
	ldr	r0, [r0, #4]
.Ltmp333:
	.loc	2 818 1                         @ ../Device/UVC/UVC.c:818:1
	bx	lr
.Ltmp334:
.LBB6_13:
	@DEBUG_VALUE: UVC_PU_Info:Req <- [DW_OP_LLVM_entry_value 1] $r0
	@DEBUG_VALUE: UVC_PU_Info:Unit <- $r1
	.loc	2 696 13                        @ ../Device/UVC/UVC.c:696:13
	sub.w	r0, r1, #256
	ror.w	r0, r0, #8
	cmp	r0, #8
	bhi	.LBB6_26
.Ltmp335:
@ %bb.14:
	@DEBUG_VALUE: UVC_PU_Info:Req <- [DW_OP_LLVM_entry_value 1] $r0
	@DEBUG_VALUE: UVC_PU_Info:Unit <- $r1
	adr.w	r1, .LJTI6_3
.Ltmp336:
	@DEBUG_VALUE: UVC_PU_Info:Unit <- [DW_OP_LLVM_entry_value 1] $r1
.LCPI6_3:
	tbb	[pc, r0]
.Ltmp337:
@ %bb.15:
	.loc	2 0 13 is_stmt 0                @ ../Device/UVC/UVC.c:0:13
.LJTI6_3:
	.byte	(.LBB6_16-(.LCPI6_3+4))/2
	.byte	(.LBB6_32-(.LCPI6_3+4))/2
	.byte	(.LBB6_45-(.LCPI6_3+4))/2
	.byte	(.LBB6_26-(.LCPI6_3+4))/2
	.byte	(.LBB6_47-(.LCPI6_3+4))/2
	.byte	(.LBB6_50-(.LCPI6_3+4))/2
	.byte	(.LBB6_30-(.LCPI6_3+4))/2
	.byte	(.LBB6_39-(.LCPI6_3+4))/2
	.byte	(.LBB6_41-(.LCPI6_3+4))/2
	.p2align	1
.LBB6_16:
.Ltmp338:
	@DEBUG_VALUE: UVC_PU_Info:Unit <- [DW_OP_LLVM_entry_value 1] $r1
	@DEBUG_VALUE: UVC_PU_Info:Req <- [DW_OP_LLVM_entry_value 1] $r0
	.loc	2 699 38 is_stmt 1              @ ../Device/UVC/UVC.c:699:38
	movw	r0, :lower16:uvcPuInfo
	movt	r0, :upper16:uvcPuInfo
	ldr	r0, [r0]
.Ltmp339:
	.loc	2 818 1                         @ ../Device/UVC/UVC.c:818:1
	bx	lr
.Ltmp340:
.LBB6_17:
	@DEBUG_VALUE: UVC_PU_Info:Req <- [DW_OP_LLVM_entry_value 1] $r0
	@DEBUG_VALUE: UVC_PU_Info:Unit <- $r1
	.loc	2 763 13                        @ ../Device/UVC/UVC.c:763:13
	sub.w	r0, r1, #256
	ror.w	r0, r0, #8
	cmp	r0, #9
	bhs	.LBB6_25
.Ltmp341:
@ %bb.18:
	@DEBUG_VALUE: UVC_PU_Info:Req <- [DW_OP_LLVM_entry_value 1] $r0
	@DEBUG_VALUE: UVC_PU_Info:Unit <- $r1
	uxth	r0, r0
	movw	r1, #503
.Ltmp342:
	@DEBUG_VALUE: UVC_PU_Info:Unit <- [DW_OP_LLVM_entry_value 1] $r1
	lsr.w	r0, r1, r0
	lsls	r0, r0, #31
	beq	.LBB6_25
.Ltmp343:
@ %bb.19:
	@DEBUG_VALUE: UVC_PU_Info:Unit <- [DW_OP_LLVM_entry_value 1] $r1
	@DEBUG_VALUE: UVC_PU_Info:Req <- [DW_OP_LLVM_entry_value 1] $r0
	.loc	2 0 13 is_stmt 0                @ ../Device/UVC/UVC.c:0:13
	movs	r0, #3
.Ltmp344:
.LBB6_20:
	@DEBUG_VALUE: UVC_PU_Info:Req <- [DW_OP_LLVM_entry_value 1] $r0
	.loc	2 818 1 is_stmt 1               @ ../Device/UVC/UVC.c:818:1
	bx	lr
.Ltmp345:
.LBB6_21:
	@DEBUG_VALUE: UVC_PU_Info:Req <- [DW_OP_LLVM_entry_value 1] $r0
	@DEBUG_VALUE: UVC_PU_Info:Unit <- $r1
	.loc	2 781 13                        @ ../Device/UVC/UVC.c:781:13
	sub.w	r0, r1, #256
	ror.w	r0, r0, #8
	cmp	r0, #8
	bhi	.LBB6_26
.Ltmp346:
@ %bb.22:
	@DEBUG_VALUE: UVC_PU_Info:Req <- [DW_OP_LLVM_entry_value 1] $r0
	@DEBUG_VALUE: UVC_PU_Info:Unit <- $r1
	adr.w	r1, .LJTI6_1
.Ltmp347:
	@DEBUG_VALUE: UVC_PU_Info:Unit <- [DW_OP_LLVM_entry_value 1] $r1
.LCPI6_4:
	tbb	[pc, r0]
.Ltmp348:
@ %bb.23:
	.loc	2 0 13 is_stmt 0                @ ../Device/UVC/UVC.c:0:13
.LJTI6_1:
	.byte	(.LBB6_24-(.LCPI6_4+4))/2
	.byte	(.LBB6_42-(.LCPI6_4+4))/2
	.byte	(.LBB6_52-(.LCPI6_4+4))/2
	.byte	(.LBB6_26-(.LCPI6_4+4))/2
	.byte	(.LBB6_53-(.LCPI6_4+4))/2
	.byte	(.LBB6_54-(.LCPI6_4+4))/2
	.byte	(.LBB6_35-(.LCPI6_4+4))/2
	.byte	(.LBB6_48-(.LCPI6_4+4))/2
	.byte	(.LBB6_51-(.LCPI6_4+4))/2
	.p2align	1
.LBB6_24:
.Ltmp349:
	@DEBUG_VALUE: UVC_PU_Info:Unit <- [DW_OP_LLVM_entry_value 1] $r1
	@DEBUG_VALUE: UVC_PU_Info:Req <- [DW_OP_LLVM_entry_value 1] $r0
	.loc	2 784 38 is_stmt 1              @ ../Device/UVC/UVC.c:784:38
	movw	r0, :lower16:uvcPuInfo
	movt	r0, :upper16:uvcPuInfo
	ldr	r0, [r0, #8]
.Ltmp350:
	.loc	2 818 1                         @ ../Device/UVC/UVC.c:818:1
	bx	lr
.Ltmp351:
.LBB6_25:
	@DEBUG_VALUE: UVC_PU_Info:Req <- [DW_OP_LLVM_entry_value 1] $r0
	.loc	2 0 1 is_stmt 0                 @ ../Device/UVC/UVC.c:0:1
	movs	r0, #6
.Ltmp352:
	.loc	2 776 39 is_stmt 1              @ ../Device/UVC/UVC.c:776:39
	strb.w	r0, [r12, #84]
	movs	r0, #0
.Ltmp353:
	.loc	2 818 1                         @ ../Device/UVC/UVC.c:818:1
	bx	lr
.Ltmp354:
.LBB6_26:
	@DEBUG_VALUE: UVC_PU_Info:Req <- [DW_OP_LLVM_entry_value 1] $r0
	.loc	2 0 1 is_stmt 0                 @ ../Device/UVC/UVC.c:0:1
	movs	r0, #6
.Ltmp355:
	strb.w	r0, [r12, #84]
.Ltmp356:
	.loc	2 818 1                         @ ../Device/UVC/UVC.c:818:1
	bx	lr
.Ltmp357:
.LBB6_27:
	@DEBUG_VALUE: UVC_PU_Info:Unit <- [DW_OP_LLVM_entry_value 1] $r1
	@DEBUG_VALUE: UVC_PU_Info:Req <- [DW_OP_LLVM_entry_value 1] $r0
	.loc	2 743 38 is_stmt 1              @ ../Device/UVC/UVC.c:743:38
	movw	r0, :lower16:uvcPuInfo
	movt	r0, :upper16:uvcPuInfo
	ldr	r0, [r0, #52]
.Ltmp358:
	.loc	2 818 1                         @ ../Device/UVC/UVC.c:818:1
	bx	lr
.Ltmp359:
.LBB6_28:
	@DEBUG_VALUE: UVC_PU_Info:Unit <- [DW_OP_LLVM_entry_value 1] $r1
	@DEBUG_VALUE: UVC_PU_Info:Req <- [DW_OP_LLVM_entry_value 1] $r0
	.loc	2 734 38                        @ ../Device/UVC/UVC.c:734:38
	movw	r0, :lower16:uvcPuInfo
	movt	r0, :upper16:uvcPuInfo
	ldr	r0, [r0, #16]
.Ltmp360:
	.loc	2 818 1                         @ ../Device/UVC/UVC.c:818:1
	bx	lr
.Ltmp361:
.LBB6_29:
	@DEBUG_VALUE: UVC_PU_Info:Unit <- [DW_OP_LLVM_entry_value 1] $r1
	@DEBUG_VALUE: UVC_PU_Info:Req <- [DW_OP_LLVM_entry_value 1] $r0
	.loc	2 679 46                        @ ../Device/UVC/UVC.c:679:46
	ldrsh.w	r0, [r12, #46]
.Ltmp362:
	.loc	2 818 1                         @ ../Device/UVC/UVC.c:818:1
	bx	lr
.Ltmp363:
.LBB6_30:
	@DEBUG_VALUE: UVC_PU_Info:Unit <- [DW_OP_LLVM_entry_value 1] $r1
	@DEBUG_VALUE: UVC_PU_Info:Req <- [DW_OP_LLVM_entry_value 1] $r0
	.loc	2 711 38                        @ ../Device/UVC/UVC.c:711:38
	movw	r0, :lower16:uvcPuInfo
	movt	r0, :upper16:uvcPuInfo
	ldr	r0, [r0, #48]
.Ltmp364:
	.loc	2 818 1                         @ ../Device/UVC/UVC.c:818:1
	bx	lr
.Ltmp365:
.LBB6_31:
	@DEBUG_VALUE: UVC_PU_Info:Unit <- [DW_OP_LLVM_entry_value 1] $r1
	@DEBUG_VALUE: UVC_PU_Info:Req <- [DW_OP_LLVM_entry_value 1] $r0
	.loc	2 670 46                        @ ../Device/UVC/UVC.c:670:46
	ldrsh.w	r0, [r12, #39]
.Ltmp366:
	.loc	2 818 1                         @ ../Device/UVC/UVC.c:818:1
	bx	lr
.Ltmp367:
.LBB6_32:
	@DEBUG_VALUE: UVC_PU_Info:Unit <- [DW_OP_LLVM_entry_value 1] $r1
	@DEBUG_VALUE: UVC_PU_Info:Req <- [DW_OP_LLVM_entry_value 1] $r0
	.loc	2 702 38                        @ ../Device/UVC/UVC.c:702:38
	movw	r0, :lower16:uvcPuInfo
	movt	r0, :upper16:uvcPuInfo
	ldr	r0, [r0, #12]
.Ltmp368:
	.loc	2 818 1                         @ ../Device/UVC/UVC.c:818:1
	bx	lr
.Ltmp369:
.LBB6_33:
	@DEBUG_VALUE: UVC_PU_Info:Unit <- [DW_OP_LLVM_entry_value 1] $r1
	@DEBUG_VALUE: UVC_PU_Info:Req <- [DW_OP_LLVM_entry_value 1] $r0
	.loc	2 746 38                        @ ../Device/UVC/UVC.c:746:38
	movw	r0, :lower16:uvcPuInfo
	movt	r0, :upper16:uvcPuInfo
	ldr	r0, [r0, #64]
.Ltmp370:
	.loc	2 818 1                         @ ../Device/UVC/UVC.c:818:1
	bx	lr
.Ltmp371:
.LBB6_34:
	@DEBUG_VALUE: UVC_PU_Info:Unit <- [DW_OP_LLVM_entry_value 1] $r1
	@DEBUG_VALUE: UVC_PU_Info:Req <- [DW_OP_LLVM_entry_value 1] $r0
	.loc	2 749 38                        @ ../Device/UVC/UVC.c:749:38
	movw	r0, :lower16:uvcPuInfo
	movt	r0, :upper16:uvcPuInfo
	ldr	r0, [r0, #76]
.Ltmp372:
	.loc	2 818 1                         @ ../Device/UVC/UVC.c:818:1
	bx	lr
.Ltmp373:
.LBB6_35:
	@DEBUG_VALUE: UVC_PU_Info:Unit <- [DW_OP_LLVM_entry_value 1] $r1
	@DEBUG_VALUE: UVC_PU_Info:Req <- [DW_OP_LLVM_entry_value 1] $r0
	.loc	2 796 38                        @ ../Device/UVC/UVC.c:796:38
	movw	r0, :lower16:uvcPuInfo
	movt	r0, :upper16:uvcPuInfo
	ldr	r0, [r0, #56]
.Ltmp374:
	.loc	2 818 1                         @ ../Device/UVC/UVC.c:818:1
	bx	lr
.Ltmp375:
.LBB6_36:
	@DEBUG_VALUE: UVC_PU_Info:Unit <- [DW_OP_LLVM_entry_value 1] $r1
	@DEBUG_VALUE: UVC_PU_Info:Req <- [DW_OP_LLVM_entry_value 1] $r0
	.loc	2 737 38                        @ ../Device/UVC/UVC.c:737:38
	movw	r0, :lower16:uvcPuInfo
	movt	r0, :upper16:uvcPuInfo
	ldr	r0, [r0, #28]
.Ltmp376:
	.loc	2 818 1                         @ ../Device/UVC/UVC.c:818:1
	bx	lr
.Ltmp377:
.LBB6_37:
	@DEBUG_VALUE: UVC_PU_Info:Unit <- [DW_OP_LLVM_entry_value 1] $r1
	@DEBUG_VALUE: UVC_PU_Info:Req <- [DW_OP_LLVM_entry_value 1] $r0
	.loc	2 752 38                        @ ../Device/UVC/UVC.c:752:38
	movw	r0, :lower16:uvcPuInfo
	movt	r0, :upper16:uvcPuInfo
	ldr	r0, [r0, #88]
.Ltmp378:
	.loc	2 818 1                         @ ../Device/UVC/UVC.c:818:1
	bx	lr
.Ltmp379:
.LBB6_38:
	@DEBUG_VALUE: UVC_PU_Info:Unit <- [DW_OP_LLVM_entry_value 1] $r1
	@DEBUG_VALUE: UVC_PU_Info:Req <- [DW_OP_LLVM_entry_value 1] $r0
	.loc	2 682 46                        @ ../Device/UVC/UVC.c:682:46
	ldrsh.w	r0, [r12, #48]
.Ltmp380:
	.loc	2 818 1                         @ ../Device/UVC/UVC.c:818:1
	bx	lr
.Ltmp381:
.LBB6_39:
	@DEBUG_VALUE: UVC_PU_Info:Unit <- [DW_OP_LLVM_entry_value 1] $r1
	@DEBUG_VALUE: UVC_PU_Info:Req <- [DW_OP_LLVM_entry_value 1] $r0
	.loc	2 714 38                        @ ../Device/UVC/UVC.c:714:38
	movw	r0, :lower16:uvcPuInfo
	movt	r0, :upper16:uvcPuInfo
	ldr	r0, [r0, #60]
.Ltmp382:
	.loc	2 818 1                         @ ../Device/UVC/UVC.c:818:1
	bx	lr
.Ltmp383:
.LBB6_40:
	@DEBUG_VALUE: UVC_PU_Info:Unit <- [DW_OP_LLVM_entry_value 1] $r1
	@DEBUG_VALUE: UVC_PU_Info:Req <- [DW_OP_LLVM_entry_value 1] $r0
	.loc	2 685 46                        @ ../Device/UVC/UVC.c:685:46
	ldrsh.w	r0, [r12, #50]
.Ltmp384:
	.loc	2 818 1                         @ ../Device/UVC/UVC.c:818:1
	bx	lr
.Ltmp385:
.LBB6_41:
	@DEBUG_VALUE: UVC_PU_Info:Unit <- [DW_OP_LLVM_entry_value 1] $r1
	@DEBUG_VALUE: UVC_PU_Info:Req <- [DW_OP_LLVM_entry_value 1] $r0
	.loc	2 717 38                        @ ../Device/UVC/UVC.c:717:38
	movw	r0, :lower16:uvcPuInfo
	movt	r0, :upper16:uvcPuInfo
	ldr	r0, [r0, #72]
.Ltmp386:
	.loc	2 818 1                         @ ../Device/UVC/UVC.c:818:1
	bx	lr
.Ltmp387:
.LBB6_42:
	@DEBUG_VALUE: UVC_PU_Info:Unit <- [DW_OP_LLVM_entry_value 1] $r1
	@DEBUG_VALUE: UVC_PU_Info:Req <- [DW_OP_LLVM_entry_value 1] $r0
	.loc	2 787 38                        @ ../Device/UVC/UVC.c:787:38
	movw	r0, :lower16:uvcPuInfo
	movt	r0, :upper16:uvcPuInfo
	ldr	r0, [r0, #20]
.Ltmp388:
	.loc	2 818 1                         @ ../Device/UVC/UVC.c:818:1
	bx	lr
.Ltmp389:
.LBB6_43:
	@DEBUG_VALUE: UVC_PU_Info:Unit <- [DW_OP_LLVM_entry_value 1] $r1
	@DEBUG_VALUE: UVC_PU_Info:Req <- [DW_OP_LLVM_entry_value 1] $r0
	.loc	2 740 38                        @ ../Device/UVC/UVC.c:740:38
	movw	r0, :lower16:uvcPuInfo
	movt	r0, :upper16:uvcPuInfo
	ldr	r0, [r0, #40]
.Ltmp390:
	.loc	2 818 1                         @ ../Device/UVC/UVC.c:818:1
	bx	lr
.Ltmp391:
.LBB6_44:
	@DEBUG_VALUE: UVC_PU_Info:Unit <- [DW_OP_LLVM_entry_value 1] $r1
	@DEBUG_VALUE: UVC_PU_Info:Req <- [DW_OP_LLVM_entry_value 1] $r0
	.loc	2 673 46                        @ ../Device/UVC/UVC.c:673:46
	ldrsh.w	r0, [r12, #41]
.Ltmp392:
	.loc	2 818 1                         @ ../Device/UVC/UVC.c:818:1
	bx	lr
.Ltmp393:
.LBB6_45:
	@DEBUG_VALUE: UVC_PU_Info:Unit <- [DW_OP_LLVM_entry_value 1] $r1
	@DEBUG_VALUE: UVC_PU_Info:Req <- [DW_OP_LLVM_entry_value 1] $r0
	.loc	2 705 38                        @ ../Device/UVC/UVC.c:705:38
	movw	r0, :lower16:uvcPuInfo
	movt	r0, :upper16:uvcPuInfo
	ldr	r0, [r0, #24]
.Ltmp394:
	.loc	2 818 1                         @ ../Device/UVC/UVC.c:818:1
	bx	lr
.Ltmp395:
.LBB6_46:
	@DEBUG_VALUE: UVC_PU_Info:Unit <- [DW_OP_LLVM_entry_value 1] $r1
	@DEBUG_VALUE: UVC_PU_Info:Req <- [DW_OP_LLVM_entry_value 1] $r0
	.loc	2 688 46                        @ ../Device/UVC/UVC.c:688:46
	ldrb.w	r0, [r12, #45]
.Ltmp396:
	.loc	2 818 1                         @ ../Device/UVC/UVC.c:818:1
	bx	lr
.Ltmp397:
.LBB6_47:
	@DEBUG_VALUE: UVC_PU_Info:Unit <- [DW_OP_LLVM_entry_value 1] $r1
	@DEBUG_VALUE: UVC_PU_Info:Req <- [DW_OP_LLVM_entry_value 1] $r0
	.loc	2 720 38                        @ ../Device/UVC/UVC.c:720:38
	movw	r0, :lower16:uvcPuInfo
	movt	r0, :upper16:uvcPuInfo
	ldr	r0, [r0, #84]
.Ltmp398:
	.loc	2 818 1                         @ ../Device/UVC/UVC.c:818:1
	bx	lr
.Ltmp399:
.LBB6_48:
	@DEBUG_VALUE: UVC_PU_Info:Unit <- [DW_OP_LLVM_entry_value 1] $r1
	@DEBUG_VALUE: UVC_PU_Info:Req <- [DW_OP_LLVM_entry_value 1] $r0
	.loc	2 799 38                        @ ../Device/UVC/UVC.c:799:38
	movw	r0, :lower16:uvcPuInfo
	movt	r0, :upper16:uvcPuInfo
	ldr	r0, [r0, #68]
.Ltmp400:
	.loc	2 818 1                         @ ../Device/UVC/UVC.c:818:1
	bx	lr
.Ltmp401:
.LBB6_49:
	@DEBUG_VALUE: UVC_PU_Info:Unit <- [DW_OP_LLVM_entry_value 1] $r1
	@DEBUG_VALUE: UVC_PU_Info:Req <- [DW_OP_LLVM_entry_value 1] $r0
	.loc	2 676 46                        @ ../Device/UVC/UVC.c:676:46
	ldrsh.w	r0, [r12, #43]
.Ltmp402:
	.loc	2 818 1                         @ ../Device/UVC/UVC.c:818:1
	bx	lr
.Ltmp403:
.LBB6_50:
	@DEBUG_VALUE: UVC_PU_Info:Unit <- [DW_OP_LLVM_entry_value 1] $r1
	@DEBUG_VALUE: UVC_PU_Info:Req <- [DW_OP_LLVM_entry_value 1] $r0
	.loc	2 708 38                        @ ../Device/UVC/UVC.c:708:38
	movw	r0, :lower16:uvcPuInfo
	movt	r0, :upper16:uvcPuInfo
	ldr	r0, [r0, #36]
.Ltmp404:
	.loc	2 818 1                         @ ../Device/UVC/UVC.c:818:1
	bx	lr
.Ltmp405:
.LBB6_51:
	@DEBUG_VALUE: UVC_PU_Info:Unit <- [DW_OP_LLVM_entry_value 1] $r1
	@DEBUG_VALUE: UVC_PU_Info:Req <- [DW_OP_LLVM_entry_value 1] $r0
	.loc	2 802 38                        @ ../Device/UVC/UVC.c:802:38
	movw	r0, :lower16:uvcPuInfo
	movt	r0, :upper16:uvcPuInfo
	ldr	r0, [r0, #80]
.Ltmp406:
	.loc	2 818 1                         @ ../Device/UVC/UVC.c:818:1
	bx	lr
.Ltmp407:
.LBB6_52:
	@DEBUG_VALUE: UVC_PU_Info:Unit <- [DW_OP_LLVM_entry_value 1] $r1
	@DEBUG_VALUE: UVC_PU_Info:Req <- [DW_OP_LLVM_entry_value 1] $r0
	.loc	2 790 38                        @ ../Device/UVC/UVC.c:790:38
	movw	r0, :lower16:uvcPuInfo
	movt	r0, :upper16:uvcPuInfo
	ldr	r0, [r0, #32]
.Ltmp408:
	.loc	2 818 1                         @ ../Device/UVC/UVC.c:818:1
	bx	lr
.Ltmp409:
.LBB6_53:
	@DEBUG_VALUE: UVC_PU_Info:Unit <- [DW_OP_LLVM_entry_value 1] $r1
	@DEBUG_VALUE: UVC_PU_Info:Req <- [DW_OP_LLVM_entry_value 1] $r0
	.loc	2 805 38                        @ ../Device/UVC/UVC.c:805:38
	movw	r0, :lower16:uvcPuInfo
	movt	r0, :upper16:uvcPuInfo
	ldr	r0, [r0, #92]
.Ltmp410:
	.loc	2 818 1                         @ ../Device/UVC/UVC.c:818:1
	bx	lr
.Ltmp411:
.LBB6_54:
	@DEBUG_VALUE: UVC_PU_Info:Unit <- [DW_OP_LLVM_entry_value 1] $r1
	@DEBUG_VALUE: UVC_PU_Info:Req <- [DW_OP_LLVM_entry_value 1] $r0
	.loc	2 793 38                        @ ../Device/UVC/UVC.c:793:38
	movw	r0, :lower16:uvcPuInfo
	movt	r0, :upper16:uvcPuInfo
	ldr	r0, [r0, #44]
.Ltmp412:
	.loc	2 818 1                         @ ../Device/UVC/UVC.c:818:1
	bx	lr
.Ltmp413:
.Lfunc_end6:
	.size	UVC_PU_Info, .Lfunc_end6-UVC_PU_Info
	.cfi_endproc
	.cantunwind
	.fnend
                                        @ -- End function
	.section	.text.UVC_PU_Control,"ax",%progbits
	.hidden	UVC_PU_Control                  @ -- Begin function UVC_PU_Control
	.globl	UVC_PU_Control
	.p2align	2
	.type	UVC_PU_Control,%function
	.code	16                              @ @UVC_PU_Control
	.thumb_func
UVC_PU_Control:
.Lfunc_begin7:
	.fnstart
	.cfi_startproc
@ %bb.0:
	@DEBUG_VALUE: UVC_PU_Control:Value <- $r0
	.loc	2 866 23 prologue_end           @ ../Device/UVC/UVC.c:866:23
	movw	r1, :lower16:uvcInfo
	movs	r2, #0
	movt	r1, :upper16:uvcInfo
	strb.w	r2, [r1, #84]
	.loc	2 868 21                        @ ../Device/UVC/UVC.c:868:21
	movw	r2, :lower16:gUsbCmd
	movt	r2, :upper16:gUsbCmd
	ldrh	r2, [r2, #2]
	.loc	2 868 5 is_stmt 0               @ ../Device/UVC/UVC.c:868:5
	sub.w	r2, r2, #256
	ror.w	r2, r2, #8
	cmp	r2, #8
	bhi	.LBB7_17
.Ltmp414:
@ %bb.1:
	@DEBUG_VALUE: UVC_PU_Control:Value <- $r0
	@DEBUG_VALUE: UVC_PU_Control:Value <- $r0
.LCPI7_0:
	tbb	[pc, r2]
.Ltmp415:
@ %bb.2:
	.loc	2 0 5                           @ ../Device/UVC/UVC.c:0:5
.LJTI7_0:
	.byte	(.LBB7_3-(.LCPI7_0+4))/2
	.byte	(.LBB7_7-(.LCPI7_0+4))/2
	.byte	(.LBB7_13-(.LCPI7_0+4))/2
	.byte	(.LBB7_17-(.LCPI7_0+4))/2
	.byte	(.LBB7_15-(.LCPI7_0+4))/2
	.byte	(.LBB7_18-(.LCPI7_0+4))/2
	.byte	(.LBB7_5-(.LCPI7_0+4))/2
	.byte	(.LBB7_9-(.LCPI7_0+4))/2
	.byte	(.LBB7_11-(.LCPI7_0+4))/2
	.p2align	1
.LBB7_3:
.Ltmp416:
	@DEBUG_VALUE: UVC_PU_Control:Value <- $r0
	.loc	2 871 36 is_stmt 1              @ ../Device/UVC/UVC.c:871:36
	movw	r2, :lower16:uvcPuInfo
	movt	r2, :upper16:uvcPuInfo
	ldr	r3, [r2]
	.loc	2 871 66 is_stmt 0              @ ../Device/UVC/UVC.c:871:66
	cmp	r3, r0
	bgt	.LBB7_17
.Ltmp417:
@ %bb.4:
	@DEBUG_VALUE: UVC_PU_Control:Value <- $r0
	.loc	2 871 88                        @ ../Device/UVC/UVC.c:871:88
	ldr	r2, [r2, #4]
.Ltmp418:
	.loc	2 871 17                        @ ../Device/UVC/UVC.c:871:17
	cmp	r2, r0
.Ltmp419:
	.loc	2 873 45 is_stmt 1              @ ../Device/UVC/UVC.c:873:45
	itt	ge
	strhge	r0, [r1, #52]
.Ltmp420:
	.loc	2 952 1                         @ ../Device/UVC/UVC.c:952:1
	bxge	lr
	b	.LBB7_17
.Ltmp421:
.LBB7_5:
	@DEBUG_VALUE: UVC_PU_Control:Value <- $r0
	.loc	2 911 36                        @ ../Device/UVC/UVC.c:911:36
	movw	r2, :lower16:uvcPuInfo
	movt	r2, :upper16:uvcPuInfo
	ldr	r3, [r2, #48]
	.loc	2 911 54 is_stmt 0              @ ../Device/UVC/UVC.c:911:54
	cmp	r3, r0
	bgt	.LBB7_17
.Ltmp422:
@ %bb.6:
	@DEBUG_VALUE: UVC_PU_Control:Value <- $r0
	.loc	2 911 76                        @ ../Device/UVC/UVC.c:911:76
	ldr	r2, [r2, #52]
.Ltmp423:
	.loc	2 911 17                        @ ../Device/UVC/UVC.c:911:17
	cmp	r2, r0
.Ltmp424:
	.loc	2 913 46 is_stmt 1              @ ../Device/UVC/UVC.c:913:46
	itt	ge
	strhge	r0, [r1, #46]
.Ltmp425:
	.loc	2 952 1                         @ ../Device/UVC/UVC.c:952:1
	bxge	lr
	b	.LBB7_17
.Ltmp426:
.LBB7_7:
	@DEBUG_VALUE: UVC_PU_Control:Value <- $r0
	.loc	2 881 36                        @ ../Device/UVC/UVC.c:881:36
	movw	r2, :lower16:uvcPuInfo
	movt	r2, :upper16:uvcPuInfo
	ldr	r3, [r2, #12]
	.loc	2 881 54 is_stmt 0              @ ../Device/UVC/UVC.c:881:54
	cmp	r3, r0
	bgt	.LBB7_17
.Ltmp427:
@ %bb.8:
	@DEBUG_VALUE: UVC_PU_Control:Value <- $r0
	.loc	2 881 76                        @ ../Device/UVC/UVC.c:881:76
	ldr	r2, [r2, #16]
.Ltmp428:
	.loc	2 881 17                        @ ../Device/UVC/UVC.c:881:17
	cmp	r2, r0
.Ltmp429:
	.loc	2 883 46 is_stmt 1              @ ../Device/UVC/UVC.c:883:46
	itt	ge
	strhge.w	r0, [r1, #39]
.Ltmp430:
	.loc	2 952 1                         @ ../Device/UVC/UVC.c:952:1
	bxge	lr
	b	.LBB7_17
.Ltmp431:
.LBB7_9:
	@DEBUG_VALUE: UVC_PU_Control:Value <- $r0
	.loc	2 921 36                        @ ../Device/UVC/UVC.c:921:36
	movw	r2, :lower16:uvcPuInfo
	movt	r2, :upper16:uvcPuInfo
	ldr	r3, [r2, #60]
	.loc	2 921 53 is_stmt 0              @ ../Device/UVC/UVC.c:921:53
	cmp	r3, r0
	bgt	.LBB7_17
.Ltmp432:
@ %bb.10:
	@DEBUG_VALUE: UVC_PU_Control:Value <- $r0
	.loc	2 921 75                        @ ../Device/UVC/UVC.c:921:75
	ldr	r2, [r2, #64]
.Ltmp433:
	.loc	2 921 17                        @ ../Device/UVC/UVC.c:921:17
	cmp	r2, r0
.Ltmp434:
	.loc	2 923 45 is_stmt 1              @ ../Device/UVC/UVC.c:923:45
	itt	ge
	strhge	r0, [r1, #48]
.Ltmp435:
	.loc	2 952 1                         @ ../Device/UVC/UVC.c:952:1
	bxge	lr
	b	.LBB7_17
.Ltmp436:
.LBB7_11:
	@DEBUG_VALUE: UVC_PU_Control:Value <- $r0
	.loc	2 931 36                        @ ../Device/UVC/UVC.c:931:36
	movw	r2, :lower16:uvcPuInfo
	movt	r2, :upper16:uvcPuInfo
	ldr	r3, [r2, #72]
	.loc	2 931 49 is_stmt 0              @ ../Device/UVC/UVC.c:931:49
	cmp	r3, r0
	bgt	.LBB7_17
.Ltmp437:
@ %bb.12:
	@DEBUG_VALUE: UVC_PU_Control:Value <- $r0
	.loc	2 931 71                        @ ../Device/UVC/UVC.c:931:71
	ldr	r2, [r2, #76]
.Ltmp438:
	.loc	2 931 17                        @ ../Device/UVC/UVC.c:931:17
	cmp	r2, r0
.Ltmp439:
	.loc	2 933 41 is_stmt 1              @ ../Device/UVC/UVC.c:933:41
	itt	ge
	strhge	r0, [r1, #50]
.Ltmp440:
	.loc	2 952 1                         @ ../Device/UVC/UVC.c:952:1
	bxge	lr
	b	.LBB7_17
.Ltmp441:
.LBB7_13:
	@DEBUG_VALUE: UVC_PU_Control:Value <- $r0
	.loc	2 891 36                        @ ../Device/UVC/UVC.c:891:36
	movw	r2, :lower16:uvcPuInfo
	movt	r2, :upper16:uvcPuInfo
	ldr	r3, [r2, #24]
	.loc	2 891 52 is_stmt 0              @ ../Device/UVC/UVC.c:891:52
	cmp	r3, r0
	bgt	.LBB7_17
.Ltmp442:
@ %bb.14:
	@DEBUG_VALUE: UVC_PU_Control:Value <- $r0
	.loc	2 891 74                        @ ../Device/UVC/UVC.c:891:74
	ldr	r2, [r2, #28]
.Ltmp443:
	.loc	2 891 17                        @ ../Device/UVC/UVC.c:891:17
	cmp	r2, r0
.Ltmp444:
	.loc	2 893 44 is_stmt 1              @ ../Device/UVC/UVC.c:893:44
	itt	ge
	strhge.w	r0, [r1, #41]
.Ltmp445:
	.loc	2 952 1                         @ ../Device/UVC/UVC.c:952:1
	bxge	lr
	b	.LBB7_17
.Ltmp446:
.LBB7_15:
	@DEBUG_VALUE: UVC_PU_Control:Value <- $r0
	.loc	2 941 36                        @ ../Device/UVC/UVC.c:941:36
	movw	r2, :lower16:uvcPuInfo
	movt	r2, :upper16:uvcPuInfo
	ldr	r3, [r2, #84]
	.loc	2 941 64 is_stmt 0              @ ../Device/UVC/UVC.c:941:64
	cmp	r3, r0
	bgt	.LBB7_17
.Ltmp447:
@ %bb.16:
	@DEBUG_VALUE: UVC_PU_Control:Value <- $r0
	.loc	2 941 86                        @ ../Device/UVC/UVC.c:941:86
	ldr	r2, [r2, #88]
.Ltmp448:
	.loc	2 941 17                        @ ../Device/UVC/UVC.c:941:17
	cmp	r2, r0
.Ltmp449:
	.loc	2 943 56 is_stmt 1              @ ../Device/UVC/UVC.c:943:56
	itt	ge
	strbge.w	r0, [r1, #45]
.Ltmp450:
	.loc	2 952 1                         @ ../Device/UVC/UVC.c:952:1
	bxge	lr
.Ltmp451:
.LBB7_17:
	@DEBUG_VALUE: UVC_PU_Control:Value <- $r0
	.loc	2 0 1 is_stmt 0                 @ ../Device/UVC/UVC.c:0:1
	movs	r0, #4
.Ltmp452:
	.loc	2 951 23 is_stmt 1              @ ../Device/UVC/UVC.c:951:23
	strb.w	r0, [r1, #84]
	.loc	2 952 1                         @ ../Device/UVC/UVC.c:952:1
	bx	lr
.LBB7_18:
.Ltmp453:
	@DEBUG_VALUE: UVC_PU_Control:Value <- $r0
	.loc	2 901 36                        @ ../Device/UVC/UVC.c:901:36
	movw	r2, :lower16:uvcPuInfo
	movt	r2, :upper16:uvcPuInfo
	ldr	r3, [r2, #36]
	.loc	2 901 47 is_stmt 0              @ ../Device/UVC/UVC.c:901:47
	cmp	r3, r0
	bgt	.LBB7_17
.Ltmp454:
@ %bb.19:
	@DEBUG_VALUE: UVC_PU_Control:Value <- $r0
	.loc	2 901 69                        @ ../Device/UVC/UVC.c:901:69
	ldr	r2, [r2, #40]
.Ltmp455:
	.loc	2 901 17                        @ ../Device/UVC/UVC.c:901:17
	cmp	r2, r0
.Ltmp456:
	.loc	2 903 39 is_stmt 1              @ ../Device/UVC/UVC.c:903:39
	itt	ge
	strhge.w	r0, [r1, #43]
.Ltmp457:
	.loc	2 952 1                         @ ../Device/UVC/UVC.c:952:1
	bxge	lr
	b	.LBB7_17
.Ltmp458:
.Lfunc_end7:
	.size	UVC_PU_Control, .Lfunc_end7-UVC_PU_Control
	.cfi_endproc
	.cantunwind
	.fnend
                                        @ -- End function
	.section	.text.UVC_ProcessUnitControl,"ax",%progbits
	.hidden	UVC_ProcessUnitControl          @ -- Begin function UVC_ProcessUnitControl
	.globl	UVC_ProcessUnitControl
	.p2align	2
	.type	UVC_ProcessUnitControl,%function
	.code	16                              @ @UVC_ProcessUnitControl
	.thumb_func
UVC_ProcessUnitControl:
.Lfunc_begin8:
	.fnstart
	.cfi_startproc
@ %bb.0:
	@DEBUG_VALUE: UVC_ProcessUnitControl:u32ItemSelect <- $r0
	@DEBUG_VALUE: UVC_ProcessUnitControl:u32Value <- $r1
	.loc	2 861 5 prologue_end            @ ../Device/UVC/UVC.c:861:5
	movs	r0, #0
.Ltmp459:
	@DEBUG_VALUE: UVC_ProcessUnitControl:u32ItemSelect <- [DW_OP_LLVM_entry_value 1] $r0
	bx	lr
.Ltmp460:
.Lfunc_end8:
	.size	UVC_ProcessUnitControl, .Lfunc_end8-UVC_ProcessUnitControl
	.cfi_endproc
	.cantunwind
	.fnend
                                        @ -- End function
	.section	.text.UVC_ActiveDMA,"ax",%progbits
	.hidden	UVC_ActiveDMA                   @ -- Begin function UVC_ActiveDMA
	.globl	UVC_ActiveDMA
	.p2align	2
	.type	UVC_ActiveDMA,%function
	.code	16                              @ @UVC_ActiveDMA
	.thumb_func
UVC_ActiveDMA:
.Lfunc_begin9:
	.loc	2 956 0                         @ ../Device/UVC/UVC.c:956:0
	.fnstart
	.cfi_startproc
@ %bb.0:
	@DEBUG_VALUE: UVC_ActiveDMA:u32Addr <- $r0
	@DEBUG_VALUE: UVC_ActiveDMA:u32Len <- $r1
	.save	{r4, lr}
	push	{r4, lr}
	.cfi_def_cfa_offset 8
	.cfi_offset lr, -4
	.cfi_offset r4, -8
.Ltmp461:
	.loc	2 957 9 prologue_end            @ ../Device/UVC/UVC.c:957:9
	movw	r4, :lower16:gAppConnected
	movt	r4, :upper16:gAppConnected
	ldrb	r2, [r4]
.Ltmp462:
	.loc	2 957 9 is_stmt 0               @ ../Device/UVC/UVC.c:957:9
	cmp	r2, #0
	itt	eq
	moveq.w	r0, #-1
.Ltmp463:
	@DEBUG_VALUE: UVC_ActiveDMA:u32Addr <- [DW_OP_LLVM_entry_value 1] $r0
	.loc	2 988 1 epilogue_begin is_stmt 1 @ ../Device/UVC/UVC.c:988:1
	popeq	{r4, pc}
.Ltmp464:
.LBB9_1:
	@DEBUG_VALUE: UVC_ActiveDMA:u32Addr <- [DW_OP_LLVM_entry_value 1] $r0
	@DEBUG_VALUE: UVC_ActiveDMA:u32Len <- $r1
	.loc	2 0 1 is_stmt 0                 @ ../Device/UVC/UVC.c:0:1
	movw	r12, #20572
	movw	r2, #22272
	movt	r12, #16416
	mov.w	lr, #298
	movt	r2, #16416
	.loc	2 963 5 is_stmt 1               @ ../Device/UVC/UVC.c:963:5
	str	lr, [r12, #-72]
	.loc	2 965 5                         @ ../Device/UVC/UVC.c:965:5
	str	r0, [r2]
	.loc	2 967 22                        @ ../Device/UVC/UVC.c:967:22
	movw	r0, :lower16:g_hsusbd_DmaDone
	.loc	2 966 5                         @ ../Device/UVC/UVC.c:966:5
	str.w	r1, [r12, #4]
	movs	r1, #0
.Ltmp465:
	@DEBUG_VALUE: UVC_ActiveDMA:u32Len <- [DW_OP_LLVM_entry_value 1] $r1
	.loc	2 967 22                        @ ../Device/UVC/UVC.c:967:22
	movt	r0, :upper16:g_hsusbd_DmaDone
	str	r1, [r0]
	.loc	2 968 5                         @ ../Device/UVC/UVC.c:968:5
	ldr.w	r1, [r12]
	orr	r1, r1, #32
	str.w	r1, [r12]
	movw	r1, :lower16:g_hsusbd_Configured
	movt	r1, :upper16:g_hsusbd_Configured
.Ltmp466:
	.loc	2 0 5 is_stmt 0                 @ :0:5
.Ltmp467:
	.p2align	2
.LBB9_2:                                @ =>This Inner Loop Header: Depth=1
	@DEBUG_VALUE: UVC_ActiveDMA:u32Len <- [DW_OP_LLVM_entry_value 1] $r1
	@DEBUG_VALUE: UVC_ActiveDMA:u32Addr <- [DW_OP_LLVM_entry_value 1] $r0
	.loc	2 970 12 is_stmt 1              @ ../Device/UVC/UVC.c:970:12
	ldrb	r3, [r1]
	.loc	2 970 5 is_stmt 0               @ ../Device/UVC/UVC.c:970:5
	cbz	r3, .LBB9_8
.Ltmp468:
@ %bb.3:                                @   in Loop: Header=BB9_2 Depth=1
	@DEBUG_VALUE: UVC_ActiveDMA:u32Len <- [DW_OP_LLVM_entry_value 1] $r1
	@DEBUG_VALUE: UVC_ActiveDMA:u32Addr <- [DW_OP_LLVM_entry_value 1] $r0
	.loc	2 972 13 is_stmt 1              @ ../Device/UVC/UVC.c:972:13
	ldr	r3, [r0]
.Ltmp469:
	.loc	2 972 13 is_stmt 0              @ ../Device/UVC/UVC.c:972:13
	cbnz	r3, .LBB9_8
.Ltmp470:
@ %bb.4:                                @   in Loop: Header=BB9_2 Depth=1
	@DEBUG_VALUE: UVC_ActiveDMA:u32Len <- [DW_OP_LLVM_entry_value 1] $r1
	@DEBUG_VALUE: UVC_ActiveDMA:u32Addr <- [DW_OP_LLVM_entry_value 1] $r0
	.loc	2 975 14 is_stmt 1              @ ../Device/UVC/UVC.c:975:14
	ldr	r3, [r2, #4]
	.loc	2 975 41 is_stmt 0              @ ../Device/UVC/UVC.c:975:41
	cmp.w	r3, #-1
	bgt	.LBB9_6
.Ltmp471:
@ %bb.5:                                @   in Loop: Header=BB9_2 Depth=1
	@DEBUG_VALUE: UVC_ActiveDMA:u32Len <- [DW_OP_LLVM_entry_value 1] $r1
	@DEBUG_VALUE: UVC_ActiveDMA:u32Addr <- [DW_OP_LLVM_entry_value 1] $r0
	.loc	2 975 45                        @ ../Device/UVC/UVC.c:975:45
	ldrb	r3, [r4]
.Ltmp472:
	.loc	2 975 13                        @ ../Device/UVC/UVC.c:975:13
	cbz	r3, .LBB9_6
	le	.LBB9_2
.Ltmp473:
.LBB9_6:
	@DEBUG_VALUE: UVC_ActiveDMA:u32Len <- [DW_OP_LLVM_entry_value 1] $r1
	@DEBUG_VALUE: UVC_ActiveDMA:u32Addr <- [DW_OP_LLVM_entry_value 1] $r0
	.loc	2 977 25 is_stmt 1              @ ../Device/UVC/UVC.c:977:25
	ldr.w	r0, [r12]
.Ltmp474:
	.loc	2 977 17 is_stmt 0              @ ../Device/UVC/UVC.c:977:17
	lsls	r0, r0, #26
	mov.w	r0, #0
.Ltmp475:
	.loc	2 988 1 is_stmt 1               @ ../Device/UVC/UVC.c:988:1
	it	pl
	.loc	2 988 1 epilogue_begin is_stmt 0 @ ../Device/UVC/UVC.c:988:1
	poppl	{r4, pc}
.Ltmp476:
.LBB9_7:
	@DEBUG_VALUE: UVC_ActiveDMA:u32Len <- [DW_OP_LLVM_entry_value 1] $r1
	@DEBUG_VALUE: UVC_ActiveDMA:u32Addr <- [DW_OP_LLVM_entry_value 1] $r0
	.loc	2 0 1                           @ ../Device/UVC/UVC.c:0:1
	movs	r1, #128
.Ltmp477:
	.loc	9 225 20 is_stmt 1              @ ../../../../Library/StdDriver/inc\hsusbd.h:225:20
	str.w	r0, [r12, #4]
	.loc	9 226 20                        @ ../../../../Library/StdDriver/inc\hsusbd.h:226:20
	str.w	r1, [r12]
	.loc	9 227 20                        @ ../../../../Library/StdDriver/inc\hsusbd.h:227:20
	str.w	r0, [r12]
.Ltmp478:
	.loc	2 980 42                        @ ../Device/UVC/UVC.c:980:42
	ldr.w	r1, [r12, #24]
	orr	r1, r1, #1
	str.w	r1, [r12, #24]
.Ltmp479:
	.loc	2 988 1 epilogue_begin          @ ../Device/UVC/UVC.c:988:1
	pop	{r4, pc}
.Ltmp480:
.LBB9_8:
	@DEBUG_VALUE: UVC_ActiveDMA:u32Len <- [DW_OP_LLVM_entry_value 1] $r1
	@DEBUG_VALUE: UVC_ActiveDMA:u32Addr <- [DW_OP_LLVM_entry_value 1] $r0
	.loc	2 0 1 is_stmt 0                 @ ../Device/UVC/UVC.c:0:1
	movs	r0, #0
	.loc	2 988 1 epilogue_begin          @ ../Device/UVC/UVC.c:988:1
	pop	{r4, pc}
.Ltmp481:
.Lfunc_end9:
	.size	UVC_ActiveDMA, .Lfunc_end9-UVC_ActiveDMA
	.cfi_endproc
	.cantunwind
	.fnend
                                        @ -- End function
	.section	.text.UVC_IsoIn,"ax",%progbits
	.hidden	UVC_IsoIn                       @ -- Begin function UVC_IsoIn
	.globl	UVC_IsoIn
	.p2align	2
	.type	UVC_IsoIn,%function
	.code	16                              @ @UVC_IsoIn
	.thumb_func
UVC_IsoIn:
.Lfunc_begin10:
	.loc	2 992 0 is_stmt 1               @ ../Device/UVC/UVC.c:992:0
	.fnstart
	.cfi_startproc
@ %bb.0:
	@DEBUG_VALUE: UVC_IsoIn:u32Addr <- $r0
	@DEBUG_VALUE: UVC_IsoIn:u32Len <- $r1
	.save	{r4, r5, r6, r7, r8, r9, r10, r11, lr}
	push.w	{r4, r5, r6, r7, r8, r9, r10, r11, lr}
	.cfi_def_cfa_offset 36
	.cfi_offset lr, -4
	.cfi_offset r11, -8
	.cfi_offset r10, -12
	.cfi_offset r9, -16
	.cfi_offset r8, -20
	.cfi_offset r7, -24
	.cfi_offset r6, -28
	.cfi_offset r5, -32
	.cfi_offset r4, -36
	.pad	#4
	sub	sp, #4
	.cfi_def_cfa_offset 40
.Ltmp482:
	.loc	2 998 17 prologue_end           @ ../Device/UVC/UVC.c:998:17
	movw	r3, :lower16:uvcInfo
	movt	r3, :upper16:uvcInfo
	ldrb.w	r2, [r3, #85]
.Ltmp483:
	.loc	2 998 9 is_stmt 0               @ ../Device/UVC/UVC.c:998:9
	cmp	r2, #1
	movw	r2, #20572
	movt	r2, #16416
.Ltmp484:
	@DEBUG_VALUE: UVC_IsoIn:toggle <- 0
	bne	.LBB10_3
.Ltmp485:
@ %bb.1:
	@DEBUG_VALUE: UVC_IsoIn:toggle <- 0
	@DEBUG_VALUE: UVC_IsoIn:u32Len <- $r1
	@DEBUG_VALUE: UVC_IsoIn:u32Addr <- $r0
	.loc	2 0 9                           @ ../Device/UVC/UVC.c:0:9
	movs	r7, #0
.Ltmp486:
	.loc	2 1000 29 is_stmt 1             @ ../Device/UVC/UVC.c:1000:29
	strb.w	r7, [r3, #85]
.Ltmp487:
	.loc	2 1002 21                       @ ../Device/UVC/UVC.c:1002:21
	ldr	r3, [r2, #4]
.Ltmp488:
	.loc	2 1002 13 is_stmt 0             @ ../Device/UVC/UVC.c:1002:13
	lsls	r3, r3, #26
	bpl	.LBB10_3
.Ltmp489:
@ %bb.2:
	@DEBUG_VALUE: UVC_IsoIn:toggle <- 0
	@DEBUG_VALUE: UVC_IsoIn:u32Len <- $r1
	@DEBUG_VALUE: UVC_IsoIn:u32Addr <- $r0
	.loc	2 0 13                          @ ../Device/UVC/UVC.c:0:13
	movs	r3, #128
.Ltmp490:
	.loc	9 225 20 is_stmt 1              @ ../../../../Library/StdDriver/inc\hsusbd.h:225:20
	str	r7, [r2, #4]
	.loc	9 226 20                        @ ../../../../Library/StdDriver/inc\hsusbd.h:226:20
	str	r3, [r2]
	movs	r3, #1
	.loc	9 227 20                        @ ../../../../Library/StdDriver/inc\hsusbd.h:227:20
	str	r7, [r2]
.Ltmp491:
	.loc	2 1005 30                       @ ../Device/UVC/UVC.c:1005:30
	movw	r7, :lower16:uvcStatus
	movt	r7, :upper16:uvcStatus
	strb	r3, [r7, #28]
.Ltmp492:
.LBB10_3:
	@DEBUG_VALUE: UVC_IsoIn:toggle <- 0
	@DEBUG_VALUE: UVC_IsoIn:u32Len <- $r1
	@DEBUG_VALUE: UVC_IsoIn:u32Addr <- $r0
	.loc	2 1010 5                        @ ../Device/UVC/UVC.c:1010:5
	ldr	r7, [r2]
	movw	r3, #273
	orr.w	r6, r7, r3
	movw	r7, #8209
	.loc	2 1013 22                       @ ../Device/UVC/UVC.c:1013:22
	lsrs	r3, r1, #1
	movt	r7, #32832
	umull	r3, r7, r3, r7
	.loc	2 1010 5                        @ ../Device/UVC/UVC.c:1010:5
	bic	r3, r6, #14
	str	r3, [r2]
.Ltmp493:
	@DEBUG_VALUE: UVC_IsoIn:ptr <- $r0
	.loc	2 0 5 is_stmt 0                 @ ../Device/UVC/UVC.c:0:5
	movw	r3, #1022
.Ltmp494:
	.loc	2 1015 5 is_stmt 1              @ ../Device/UVC/UVC.c:1015:5
	cmp	r1, r3
.Ltmp495:
	.loc	2 1013 22                       @ ../Device/UVC/UVC.c:1013:22
	lsr.w	lr, r7, #8
.Ltmp496:
	@DEBUG_VALUE: UVC_IsoIn:i <- 0
	@DEBUG_VALUE: UVC_IsoIn:u32Loop <- $lr
	@DEBUG_VALUE: UVC_IsoIn:toggle <- 0
	.loc	2 1015 5                        @ ../Device/UVC/UVC.c:1015:5
	bhs	.LBB10_5
.Ltmp497:
@ %bb.4:
	@DEBUG_VALUE: UVC_IsoIn:u32Loop <- $lr
	@DEBUG_VALUE: UVC_IsoIn:i <- 0
	@DEBUG_VALUE: UVC_IsoIn:ptr <- $r0
	@DEBUG_VALUE: UVC_IsoIn:toggle <- 0
	@DEBUG_VALUE: UVC_IsoIn:u32Len <- $r1
	@DEBUG_VALUE: UVC_IsoIn:u32Addr <- $r0
	.loc	2 0 5 is_stmt 0                 @ ../Device/UVC/UVC.c:0:5
	movs	r7, #1
	.loc	2 1015 5                        @ ../Device/UVC/UVC.c:1015:5
	b	.LBB10_27
.Ltmp498:
.LBB10_5:
	@DEBUG_VALUE: UVC_IsoIn:u32Loop <- $lr
	@DEBUG_VALUE: UVC_IsoIn:i <- 0
	@DEBUG_VALUE: UVC_IsoIn:ptr <- $r0
	@DEBUG_VALUE: UVC_IsoIn:toggle <- 0
	@DEBUG_VALUE: UVC_IsoIn:u32Len <- $r1
	@DEBUG_VALUE: UVC_IsoIn:u32Addr <- $r0
	.loc	2 0 5                           @ ../Device/UVC/UVC.c:0:5
	movw	r4, #22272
	movw	r7, :lower16:gAppConnected
	movw	r12, :lower16:g_hsusbd_DmaDone
	movw	r8, :lower16:g_hsusbd_Configured
	str	r1, [sp]                        @ 4-byte Spill
.Ltmp499:
	@DEBUG_VALUE: UVC_IsoIn:u32Len <- [$sp+0]
	movs	r3, #0
	movt	r4, #16416
	movs	r1, #0
	movt	r7, :upper16:gAppConnected
	movs	r5, #0
	movt	r12, :upper16:g_hsusbd_DmaDone
	movt	r8, :upper16:g_hsusbd_Configured
	b	.LBB10_7
.Ltmp500:
	.p2align	2
.LBB10_6:                               @   in Loop: Header=BB10_7 Depth=1
	@DEBUG_VALUE: UVC_IsoIn:toggle <- $r11
	@DEBUG_VALUE: UVC_IsoIn:i <- $r1
	@DEBUG_VALUE: UVC_IsoIn:u32Len <- [$sp+0]
	@DEBUG_VALUE: UVC_IsoIn:u32Loop <- $lr
	@DEBUG_VALUE: UVC_IsoIn:ptr <- $r0
	@DEBUG_VALUE: UVC_IsoIn:ret <- 0
	.loc	2 1015 31                       @ ../Device/UVC/UVC.c:1015:31
	adds	r1, #1
.Ltmp501:
	@DEBUG_VALUE: UVC_IsoIn:i <- $r1
	.loc	2 1044 24 is_stmt 1             @ ../Device/UVC/UVC.c:1044:24
	eor	r5, r11, #1
.Ltmp502:
	@DEBUG_VALUE: UVC_IsoIn:toggle <- $r5
	.loc	2 1015 5                        @ ../Device/UVC/UVC.c:1015:5
	cmp	r1, lr
.Ltmp503:
	.loc	2 1045 21                       @ ../Device/UVC/UVC.c:1045:21
	addw	r0, r0, #1022
.Ltmp504:
	@DEBUG_VALUE: UVC_IsoIn:u32Addr <- [DW_OP_LLVM_entry_value 1] $r0
	@DEBUG_VALUE: UVC_IsoIn:ptr <- $r0
	.loc	2 1015 5                        @ ../Device/UVC/UVC.c:1015:5
	beq.w	.LBB10_26
.Ltmp505:
.LBB10_7:                               @ =>This Loop Header: Depth=1
                                        @     Child Loop BB10_8 Depth 2
                                        @     Child Loop BB10_14 Depth 2
                                        @     Child Loop BB10_20 Depth 2
	@DEBUG_VALUE: UVC_IsoIn:u32Len <- [$sp+0]
	@DEBUG_VALUE: UVC_IsoIn:u32Loop <- $lr
	@DEBUG_VALUE: UVC_IsoIn:ptr <- $r0
	.loc	2 1017 9                        @ ../Device/UVC/UVC.c:1017:9
	movs	r6, #12
	mov	r11, r5
.Ltmp506:
	@DEBUG_VALUE: UVC_IsoIn:i <- $r1
	@DEBUG_VALUE: UVC_IsoIn:ptr <- $r0
	@DEBUG_VALUE: UVC_IsoIn:toggle <- $r11
	str	r6, [r2, #16]
	.loc	2 1018 30                       @ ../Device/UVC/UVC.c:1018:30
	movw	r6, :lower16:g_hsusbd_ShortPacket
	movt	r6, :upper16:g_hsusbd_ShortPacket
	strb	r3, [r6]
	.loc	2 1020 20                       @ ../Device/UVC/UVC.c:1020:20
	movw	r6, :lower16:g_u8UVC_PD
	movt	r6, :upper16:g_u8UVC_PD
	ldrb.w	r9, [r6]
	.loc	2 1020 34 is_stmt 0             @ ../Device/UVC/UVC.c:1020:34
	movw	r6, :lower16:g_u8UVC_FID
	movt	r6, :upper16:g_u8UVC_FID
	ldrb	r6, [r6]
	.loc	2 1020 46                       @ ../Device/UVC/UVC.c:1020:46
	and	r10, r6, #1
.Ltmp507:
.LBB10_8:                               @   Parent Loop BB10_7 Depth=1
                                        @ =>  This Inner Loop Header: Depth=2
	@DEBUG_VALUE: UVC_IsoIn:toggle <- $r11
	@DEBUG_VALUE: UVC_IsoIn:i <- $r1
	@DEBUG_VALUE: UVC_IsoIn:u32Len <- [$sp+0]
	@DEBUG_VALUE: UVC_IsoIn:u32Loop <- $lr
	@DEBUG_VALUE: UVC_IsoIn:ptr <- $r0
	.loc	2 1024 17 is_stmt 1             @ ../Device/UVC/UVC.c:1024:17
	ldr	r5, [r2, #12]
.Ltmp508:
	.loc	2 1024 17 is_stmt 0             @ ../Device/UVC/UVC.c:1024:17
	lsls	r5, r5, #30
	bmi	.LBB10_11
.Ltmp509:
@ %bb.9:                                @   in Loop: Header=BB10_8 Depth=2
	@DEBUG_VALUE: UVC_IsoIn:toggle <- $r11
	@DEBUG_VALUE: UVC_IsoIn:i <- $r1
	@DEBUG_VALUE: UVC_IsoIn:u32Len <- [$sp+0]
	@DEBUG_VALUE: UVC_IsoIn:u32Loop <- $lr
	@DEBUG_VALUE: UVC_IsoIn:ptr <- $r0
	.loc	2 1024 17                       @ ../Device/UVC/UVC.c:1024:17
	ldr	r5, [r2, #12]
.Ltmp510:
	.loc	2 1024 17                       @ ../Device/UVC/UVC.c:1024:17
	lsls	r5, r5, #30
.Ltmp511:
	.loc	2 1024 17                       @ ../Device/UVC/UVC.c:1024:17
	itt	pl
	ldrpl	r5, [r2, #12]
.Ltmp512:
	.loc	2 1024 17                       @ ../Device/UVC/UVC.c:1024:17
	lslspl.w	r5, r5, #30
	bmi	.LBB10_11
.Ltmp513:
@ %bb.10:                               @   in Loop: Header=BB10_8 Depth=2
	@DEBUG_VALUE: UVC_IsoIn:toggle <- $r11
	@DEBUG_VALUE: UVC_IsoIn:i <- $r1
	@DEBUG_VALUE: UVC_IsoIn:u32Len <- [$sp+0]
	@DEBUG_VALUE: UVC_IsoIn:u32Loop <- $lr
	@DEBUG_VALUE: UVC_IsoIn:ptr <- $r0
	.loc	2 1024 17                       @ ../Device/UVC/UVC.c:1024:17
	ldr	r5, [r2, #12]
.Ltmp514:
	.loc	2 1024 17                       @ ../Device/UVC/UVC.c:1024:17
	lsls	r5, r5, #30
	bpl	.LBB10_8
.Ltmp515:
	.loc	2 0 17                          @ :0:17
.Ltmp516:
	.p2align	2
.LBB10_11:                              @   in Loop: Header=BB10_7 Depth=1
	@DEBUG_VALUE: UVC_IsoIn:toggle <- $r11
	@DEBUG_VALUE: UVC_IsoIn:i <- $r1
	@DEBUG_VALUE: UVC_IsoIn:u32Len <- [$sp+0]
	@DEBUG_VALUE: UVC_IsoIn:u32Loop <- $lr
	@DEBUG_VALUE: UVC_IsoIn:ptr <- $r0
	.loc	2 1020 31 is_stmt 1             @ ../Device/UVC/UVC.c:1020:31
	orr.w	r5, r10, r9
.Ltmp517:
	@DEBUG_VALUE: UVC_IsoIn:header <- undef
	.loc	2 1026 44                       @ ../Device/UVC/UVC.c:1026:44
	movs	r6, #2
	.loc	2 1029 21                       @ ../Device/UVC/UVC.c:1029:21
	cmp.w	r11, #0
	.loc	2 1026 44                       @ ../Device/UVC/UVC.c:1026:44
	strb	r6, [r2, #8]
	.loc	2 1027 44                       @ ../Device/UVC/UVC.c:1027:44
	strb	r5, [r2, #8]
	.loc	2 1029 21                       @ ../Device/UVC/UVC.c:1029:21
	beq	.LBB10_18
.Ltmp518:
@ %bb.12:                               @   in Loop: Header=BB10_7 Depth=1
	@DEBUG_VALUE: UVC_IsoIn:toggle <- $r11
	@DEBUG_VALUE: UVC_IsoIn:i <- $r1
	@DEBUG_VALUE: UVC_IsoIn:u32Len <- [$sp+0]
	@DEBUG_VALUE: UVC_IsoIn:u32Loop <- $lr
	@DEBUG_VALUE: UVC_IsoIn:ptr <- $r0
	.loc	2 1031 50                       @ ../Device/UVC/UVC.c:1031:50
	ldrb	r5, [r0]
	.loc	2 1031 48 is_stmt 0             @ ../Device/UVC/UVC.c:1031:48
	strb	r5, [r2, #8]
	.loc	2 1032 50 is_stmt 1             @ ../Device/UVC/UVC.c:1032:50
	ldrb	r5, [r0, #1]
	.loc	2 1032 48 is_stmt 0             @ ../Device/UVC/UVC.c:1032:48
	strb	r5, [r2, #8]
.Ltmp519:
	@DEBUG_VALUE: UVC_ActiveDMA:u32Len <- 1020
	@DEBUG_VALUE: UVC_ActiveDMA:u32Addr <- [DW_OP_plus_uconst 2, DW_OP_stack_value] $r0
	.loc	2 957 9 is_stmt 1               @ ../Device/UVC/UVC.c:957:9
	ldrb	r5, [r7]
.Ltmp520:
	.loc	2 957 9 is_stmt 0               @ ../Device/UVC/UVC.c:957:9
	cmp	r5, #0
	beq.w	.LBB10_48
.Ltmp521:
@ %bb.13:                               @   in Loop: Header=BB10_7 Depth=1
	@DEBUG_VALUE: UVC_ActiveDMA:u32Addr <- [DW_OP_plus_uconst 2, DW_OP_stack_value] $r0
	@DEBUG_VALUE: UVC_ActiveDMA:u32Len <- 1020
	@DEBUG_VALUE: UVC_IsoIn:toggle <- $r11
	@DEBUG_VALUE: UVC_IsoIn:i <- $r1
	@DEBUG_VALUE: UVC_IsoIn:u32Len <- [$sp+0]
	@DEBUG_VALUE: UVC_IsoIn:u32Loop <- $lr
	@DEBUG_VALUE: UVC_IsoIn:ptr <- $r0
	.loc	2 1034 56 is_stmt 1             @ ../Device/UVC/UVC.c:1034:56
	adds	r5, r0, #2
.Ltmp522:
	.loc	2 963 5                         @ ../Device/UVC/UVC.c:963:5
	mov.w	r6, #298
.Ltmp523:
	@DEBUG_VALUE: UVC_ActiveDMA:u32Addr <- $r5
	str	r6, [r2, #-72]
	.loc	2 965 5                         @ ../Device/UVC/UVC.c:965:5
	str	r5, [r4]
	.loc	2 966 5                         @ ../Device/UVC/UVC.c:966:5
	mov.w	r5, #1020
.Ltmp524:
	str	r5, [r2, #4]
	.loc	2 967 22                        @ ../Device/UVC/UVC.c:967:22
	str.w	r3, [r12]
	.loc	2 968 5                         @ ../Device/UVC/UVC.c:968:5
	ldr	r5, [r2]
	orr	r5, r5, #32
	str	r5, [r2]
.Ltmp525:
	.loc	2 0 5 is_stmt 0                 @ :0:5
.Ltmp526:
	.p2align	2
.LBB10_14:                              @   Parent Loop BB10_7 Depth=1
                                        @ =>  This Inner Loop Header: Depth=2
	@DEBUG_VALUE: UVC_ActiveDMA:u32Len <- 1020
	@DEBUG_VALUE: UVC_IsoIn:toggle <- $r11
	@DEBUG_VALUE: UVC_IsoIn:i <- $r1
	@DEBUG_VALUE: UVC_IsoIn:u32Len <- [$sp+0]
	@DEBUG_VALUE: UVC_IsoIn:u32Loop <- $lr
	@DEBUG_VALUE: UVC_IsoIn:ptr <- $r0
	.loc	2 970 12 is_stmt 1              @ ../Device/UVC/UVC.c:970:12
	ldrb.w	r5, [r8]
	.loc	2 970 5 is_stmt 0               @ ../Device/UVC/UVC.c:970:5
	cmp	r5, #0
	beq	.LBB10_6
.Ltmp527:
@ %bb.15:                               @   in Loop: Header=BB10_14 Depth=2
	@DEBUG_VALUE: UVC_ActiveDMA:u32Len <- 1020
	@DEBUG_VALUE: UVC_IsoIn:toggle <- $r11
	@DEBUG_VALUE: UVC_IsoIn:i <- $r1
	@DEBUG_VALUE: UVC_IsoIn:u32Len <- [$sp+0]
	@DEBUG_VALUE: UVC_IsoIn:u32Loop <- $lr
	@DEBUG_VALUE: UVC_IsoIn:ptr <- $r0
	.loc	2 972 13 is_stmt 1              @ ../Device/UVC/UVC.c:972:13
	ldr.w	r5, [r12]
.Ltmp528:
	.loc	2 972 13 is_stmt 0              @ ../Device/UVC/UVC.c:972:13
	cmp	r5, #0
	bne	.LBB10_6
.Ltmp529:
@ %bb.16:                               @   in Loop: Header=BB10_14 Depth=2
	@DEBUG_VALUE: UVC_ActiveDMA:u32Len <- 1020
	@DEBUG_VALUE: UVC_IsoIn:toggle <- $r11
	@DEBUG_VALUE: UVC_IsoIn:i <- $r1
	@DEBUG_VALUE: UVC_IsoIn:u32Len <- [$sp+0]
	@DEBUG_VALUE: UVC_IsoIn:u32Loop <- $lr
	@DEBUG_VALUE: UVC_IsoIn:ptr <- $r0
	.loc	2 975 14 is_stmt 1              @ ../Device/UVC/UVC.c:975:14
	ldr	r5, [r4, #4]
	.loc	2 975 41 is_stmt 0              @ ../Device/UVC/UVC.c:975:41
	cmp.w	r5, #-1
	bgt	.LBB10_24
.Ltmp530:
@ %bb.17:                               @   in Loop: Header=BB10_14 Depth=2
	@DEBUG_VALUE: UVC_ActiveDMA:u32Len <- 1020
	@DEBUG_VALUE: UVC_IsoIn:toggle <- $r11
	@DEBUG_VALUE: UVC_IsoIn:i <- $r1
	@DEBUG_VALUE: UVC_IsoIn:u32Len <- [$sp+0]
	@DEBUG_VALUE: UVC_IsoIn:u32Loop <- $lr
	@DEBUG_VALUE: UVC_IsoIn:ptr <- $r0
	.loc	2 975 45                        @ ../Device/UVC/UVC.c:975:45
	ldrb	r5, [r7]
.Ltmp531:
	.loc	2 975 13                        @ ../Device/UVC/UVC.c:975:13
	cbz	r5, .LBB10_24
	le	.LBB10_14
.Ltmp532:
	.loc	2 0 13                          @ :0:13
.Ltmp533:
	.p2align	2
.LBB10_18:                              @   in Loop: Header=BB10_7 Depth=1
	@DEBUG_VALUE: UVC_IsoIn:toggle <- $r11
	@DEBUG_VALUE: UVC_IsoIn:i <- $r1
	@DEBUG_VALUE: UVC_IsoIn:u32Len <- [$sp+0]
	@DEBUG_VALUE: UVC_IsoIn:u32Loop <- $lr
	@DEBUG_VALUE: UVC_IsoIn:ptr <- $r0
	@DEBUG_VALUE: UVC_ActiveDMA:u32Addr <- $r0
	@DEBUG_VALUE: UVC_ActiveDMA:u32Len <- 1022
	.loc	2 957 9 is_stmt 1               @ ../Device/UVC/UVC.c:957:9
	ldrb	r5, [r7]
.Ltmp534:
	.loc	2 957 9 is_stmt 0               @ ../Device/UVC/UVC.c:957:9
	cmp	r5, #0
	beq.w	.LBB10_48
.Ltmp535:
@ %bb.19:                               @   in Loop: Header=BB10_7 Depth=1
	@DEBUG_VALUE: UVC_ActiveDMA:u32Len <- 1022
	@DEBUG_VALUE: UVC_ActiveDMA:u32Addr <- $r0
	@DEBUG_VALUE: UVC_IsoIn:toggle <- $r11
	@DEBUG_VALUE: UVC_IsoIn:i <- $r1
	@DEBUG_VALUE: UVC_IsoIn:u32Len <- [$sp+0]
	@DEBUG_VALUE: UVC_IsoIn:u32Loop <- $lr
	@DEBUG_VALUE: UVC_IsoIn:ptr <- $r0
	@DEBUG_VALUE: UVC_ActiveDMA:u32Addr <- $r0
	.loc	2 963 5 is_stmt 1               @ ../Device/UVC/UVC.c:963:5
	mov.w	r5, #298
	str	r5, [r2, #-72]
	.loc	2 966 5                         @ ../Device/UVC/UVC.c:966:5
	movw	r5, #1022
	.loc	2 965 5                         @ ../Device/UVC/UVC.c:965:5
	str	r0, [r4]
	.loc	2 966 5                         @ ../Device/UVC/UVC.c:966:5
	str	r5, [r2, #4]
	.loc	2 967 22                        @ ../Device/UVC/UVC.c:967:22
	str.w	r3, [r12]
	.loc	2 968 5                         @ ../Device/UVC/UVC.c:968:5
	ldr	r5, [r2]
	orr	r5, r5, #32
	str	r5, [r2]
.Ltmp536:
	.loc	2 0 5 is_stmt 0                 @ :0:5
.Ltmp537:
	.p2align	2
.LBB10_20:                              @   Parent Loop BB10_7 Depth=1
                                        @ =>  This Inner Loop Header: Depth=2
	@DEBUG_VALUE: UVC_ActiveDMA:u32Len <- 1022
	@DEBUG_VALUE: UVC_ActiveDMA:u32Addr <- $r0
	@DEBUG_VALUE: UVC_IsoIn:toggle <- $r11
	@DEBUG_VALUE: UVC_IsoIn:i <- $r1
	@DEBUG_VALUE: UVC_IsoIn:u32Len <- [$sp+0]
	@DEBUG_VALUE: UVC_IsoIn:u32Loop <- $lr
	@DEBUG_VALUE: UVC_IsoIn:ptr <- $r0
	.loc	2 970 12 is_stmt 1              @ ../Device/UVC/UVC.c:970:12
	ldrb.w	r5, [r8]
	.loc	2 970 5 is_stmt 0               @ ../Device/UVC/UVC.c:970:5
	cmp	r5, #0
	beq	.LBB10_6
.Ltmp538:
@ %bb.21:                               @   in Loop: Header=BB10_20 Depth=2
	@DEBUG_VALUE: UVC_ActiveDMA:u32Len <- 1022
	@DEBUG_VALUE: UVC_ActiveDMA:u32Addr <- $r0
	@DEBUG_VALUE: UVC_IsoIn:toggle <- $r11
	@DEBUG_VALUE: UVC_IsoIn:i <- $r1
	@DEBUG_VALUE: UVC_IsoIn:u32Len <- [$sp+0]
	@DEBUG_VALUE: UVC_IsoIn:u32Loop <- $lr
	@DEBUG_VALUE: UVC_IsoIn:ptr <- $r0
	.loc	2 972 13 is_stmt 1              @ ../Device/UVC/UVC.c:972:13
	ldr.w	r5, [r12]
.Ltmp539:
	.loc	2 972 13 is_stmt 0              @ ../Device/UVC/UVC.c:972:13
	cmp	r5, #0
	bne.w	.LBB10_6
.Ltmp540:
@ %bb.22:                               @   in Loop: Header=BB10_20 Depth=2
	@DEBUG_VALUE: UVC_ActiveDMA:u32Len <- 1022
	@DEBUG_VALUE: UVC_ActiveDMA:u32Addr <- $r0
	@DEBUG_VALUE: UVC_IsoIn:toggle <- $r11
	@DEBUG_VALUE: UVC_IsoIn:i <- $r1
	@DEBUG_VALUE: UVC_IsoIn:u32Len <- [$sp+0]
	@DEBUG_VALUE: UVC_IsoIn:u32Loop <- $lr
	@DEBUG_VALUE: UVC_IsoIn:ptr <- $r0
	.loc	2 975 14 is_stmt 1              @ ../Device/UVC/UVC.c:975:14
	ldr	r5, [r4, #4]
	.loc	2 975 41 is_stmt 0              @ ../Device/UVC/UVC.c:975:41
	cmp.w	r5, #-1
	bgt	.LBB10_24
.Ltmp541:
@ %bb.23:                               @   in Loop: Header=BB10_20 Depth=2
	@DEBUG_VALUE: UVC_ActiveDMA:u32Len <- 1022
	@DEBUG_VALUE: UVC_ActiveDMA:u32Addr <- $r0
	@DEBUG_VALUE: UVC_IsoIn:toggle <- $r11
	@DEBUG_VALUE: UVC_IsoIn:i <- $r1
	@DEBUG_VALUE: UVC_IsoIn:u32Len <- [$sp+0]
	@DEBUG_VALUE: UVC_IsoIn:u32Loop <- $lr
	@DEBUG_VALUE: UVC_IsoIn:ptr <- $r0
	.loc	2 975 45                        @ ../Device/UVC/UVC.c:975:45
	ldrb	r5, [r7]
.Ltmp542:
	.loc	2 975 13                        @ ../Device/UVC/UVC.c:975:13
	cbz	r5, .LBB10_24
	le	.LBB10_20
.Ltmp543:
	.loc	2 0 13                          @ :0:13
.Ltmp544:
	.p2align	2
.LBB10_24:                              @   in Loop: Header=BB10_7 Depth=1
	@DEBUG_VALUE: UVC_IsoIn:toggle <- $r11
	@DEBUG_VALUE: UVC_IsoIn:i <- $r1
	@DEBUG_VALUE: UVC_IsoIn:u32Len <- [$sp+0]
	@DEBUG_VALUE: UVC_IsoIn:u32Loop <- $lr
	@DEBUG_VALUE: UVC_IsoIn:ptr <- $r0
	.loc	2 977 25 is_stmt 1              @ ../Device/UVC/UVC.c:977:25
	ldr	r5, [r2]
.Ltmp545:
	.loc	2 977 17 is_stmt 0              @ ../Device/UVC/UVC.c:977:17
	lsls	r5, r5, #26
	bpl.w	.LBB10_6
.Ltmp546:
@ %bb.25:                               @   in Loop: Header=BB10_7 Depth=1
	@DEBUG_VALUE: UVC_IsoIn:toggle <- $r11
	@DEBUG_VALUE: UVC_IsoIn:i <- $r1
	@DEBUG_VALUE: UVC_IsoIn:u32Len <- [$sp+0]
	@DEBUG_VALUE: UVC_IsoIn:u32Loop <- $lr
	@DEBUG_VALUE: UVC_IsoIn:ptr <- $r0
	.loc	9 226 20 is_stmt 1              @ ../../../../Library/StdDriver/inc\hsusbd.h:226:20
	movs	r5, #128
	.loc	9 225 20                        @ ../../../../Library/StdDriver/inc\hsusbd.h:225:20
	str	r3, [r2, #4]
	.loc	9 226 20                        @ ../../../../Library/StdDriver/inc\hsusbd.h:226:20
	str	r5, [r2]
	.loc	9 227 20                        @ ../../../../Library/StdDriver/inc\hsusbd.h:227:20
	str	r3, [r2]
.Ltmp547:
	.loc	2 980 42                        @ ../Device/UVC/UVC.c:980:42
	ldr	r5, [r2, #24]
	orr	r5, r5, #1
	str	r5, [r2, #24]
	b	.LBB10_6
.Ltmp548:
.LBB10_26:
	@DEBUG_VALUE: UVC_IsoIn:toggle <- $r5
	@DEBUG_VALUE: UVC_IsoIn:ret <- 0
	@DEBUG_VALUE: UVC_IsoIn:i <- $r1
	@DEBUG_VALUE: UVC_IsoIn:u32Len <- [$sp+0]
	@DEBUG_VALUE: UVC_IsoIn:u32Loop <- $lr
	@DEBUG_VALUE: UVC_IsoIn:ptr <- $r0
	.loc	2 1066 21                       @ ../Device/UVC/UVC.c:1066:21
	cmp.w	r11, #1
	ldr	r1, [sp]                        @ 4-byte Reload
.Ltmp549:
	@DEBUG_VALUE: UVC_IsoIn:u32Len <- $r1
	@DEBUG_VALUE: UVC_IsoIn:u32Len <- $r1
	cset	r7, eq
.Ltmp550:
.LBB10_27:
	@DEBUG_VALUE: UVC_IsoIn:u32Loop <- $lr
	@DEBUG_VALUE: UVC_IsoIn:ptr <- $r0
	@DEBUG_VALUE: UVC_IsoIn:u32Len <- $r1
	.loc	2 1051 22                       @ ../Device/UVC/UVC.c:1051:22
	rsb	r3, lr, lr, lsl #9
	sub.w	r3, r1, r3, lsl #1
.Ltmp551:
	@DEBUG_VALUE: UVC_IsoIn:u32Loop <- $r3
	.loc	2 1053 9                        @ ../Device/UVC/UVC.c:1053:9
	cmp	r3, #0
	beq.w	.LBB10_48
.Ltmp552:
@ %bb.28:
	@DEBUG_VALUE: UVC_IsoIn:u32Loop <- $r3
	@DEBUG_VALUE: UVC_IsoIn:ptr <- $r0
	@DEBUG_VALUE: UVC_IsoIn:u32Len <- $r1
	.loc	2 0 9 is_stmt 0                 @ ../Device/UVC/UVC.c:0:9
	movs	r1, #12
.Ltmp553:
	@DEBUG_VALUE: UVC_IsoIn:u32Len <- [DW_OP_LLVM_entry_value 1] $r1
	movs	r6, #1
.Ltmp554:
	.loc	2 1055 9 is_stmt 1              @ ../Device/UVC/UVC.c:1055:9
	str	r1, [r2, #16]
	.loc	2 1056 30                       @ ../Device/UVC/UVC.c:1056:30
	movw	r1, :lower16:g_hsusbd_ShortPacket
	movt	r1, :upper16:g_hsusbd_ShortPacket
	strb	r6, [r1]
	.loc	2 1057 20                       @ ../Device/UVC/UVC.c:1057:20
	movw	r1, :lower16:g_u8UVC_PD
	movt	r1, :upper16:g_u8UVC_PD
	ldrb	r6, [r1]
	.loc	2 1057 54 is_stmt 0             @ ../Device/UVC/UVC.c:1057:54
	movw	r1, :lower16:g_u8UVC_FID
	movt	r1, :upper16:g_u8UVC_FID
	ldrb	r5, [r1]
	.loc	2 1057 66                       @ ../Device/UVC/UVC.c:1057:66
	and	r5, r5, #1
	.loc	2 1057 51                       @ ../Device/UVC/UVC.c:1057:51
	orrs	r6, r5
.Ltmp555:
.LBB10_29:                              @ =>This Inner Loop Header: Depth=1
	@DEBUG_VALUE: UVC_IsoIn:u32Len <- [DW_OP_LLVM_entry_value 1] $r1
	@DEBUG_VALUE: UVC_IsoIn:u32Loop <- $r3
	@DEBUG_VALUE: UVC_IsoIn:ptr <- $r0
	.loc	2 1061 17 is_stmt 1             @ ../Device/UVC/UVC.c:1061:17
	ldr	r5, [r2, #12]
.Ltmp556:
	.loc	2 1061 17 is_stmt 0             @ ../Device/UVC/UVC.c:1061:17
	lsls	r5, r5, #30
	bmi	.LBB10_32
.Ltmp557:
@ %bb.30:                               @   in Loop: Header=BB10_29 Depth=1
	@DEBUG_VALUE: UVC_IsoIn:u32Len <- [DW_OP_LLVM_entry_value 1] $r1
	@DEBUG_VALUE: UVC_IsoIn:u32Loop <- $r3
	@DEBUG_VALUE: UVC_IsoIn:ptr <- $r0
	.loc	2 1061 17                       @ ../Device/UVC/UVC.c:1061:17
	ldr	r5, [r2, #12]
.Ltmp558:
	.loc	2 1061 17                       @ ../Device/UVC/UVC.c:1061:17
	lsls	r5, r5, #30
.Ltmp559:
	.loc	2 1061 17                       @ ../Device/UVC/UVC.c:1061:17
	itt	pl
	ldrpl	r5, [r2, #12]
.Ltmp560:
	.loc	2 1061 17                       @ ../Device/UVC/UVC.c:1061:17
	lslspl.w	r5, r5, #30
	bmi	.LBB10_32
.Ltmp561:
@ %bb.31:                               @   in Loop: Header=BB10_29 Depth=1
	@DEBUG_VALUE: UVC_IsoIn:u32Len <- [DW_OP_LLVM_entry_value 1] $r1
	@DEBUG_VALUE: UVC_IsoIn:u32Loop <- $r3
	@DEBUG_VALUE: UVC_IsoIn:ptr <- $r0
	.loc	2 1061 17                       @ ../Device/UVC/UVC.c:1061:17
	ldr	r5, [r2, #12]
.Ltmp562:
	.loc	2 1061 17                       @ ../Device/UVC/UVC.c:1061:17
	lsls	r5, r5, #30
	bpl	.LBB10_29
.Ltmp563:
.LBB10_32:
	@DEBUG_VALUE: UVC_IsoIn:u32Len <- [DW_OP_LLVM_entry_value 1] $r1
	@DEBUG_VALUE: UVC_IsoIn:u32Loop <- $r3
	@DEBUG_VALUE: UVC_IsoIn:ptr <- $r0
	.loc	2 1057 51 is_stmt 1             @ ../Device/UVC/UVC.c:1057:51
	orr	r6, r6, #2
.Ltmp564:
	@DEBUG_VALUE: UVC_IsoIn:header <- [DW_OP_LLVM_convert 8 7, DW_OP_LLVM_convert 32 7, DW_OP_constu 8, DW_OP_shl, DW_OP_constu 2, DW_OP_or, DW_OP_stack_value] $r6
	.loc	2 0 51 is_stmt 0                @ ../Device/UVC/UVC.c:0:51
	movs	r5, #2
.Ltmp565:
	.loc	2 1063 44 is_stmt 1             @ ../Device/UVC/UVC.c:1063:44
	strb	r5, [r2, #8]
	.loc	2 1064 44                       @ ../Device/UVC/UVC.c:1064:44
	strb	r6, [r2, #8]
	.loc	2 1066 21                       @ ../Device/UVC/UVC.c:1066:21
	cbz	r7, .LBB10_39
.Ltmp566:
@ %bb.33:
	@DEBUG_VALUE: UVC_IsoIn:header <- [DW_OP_LLVM_convert 8 7, DW_OP_LLVM_convert 32 7, DW_OP_constu 8, DW_OP_shl, DW_OP_constu 2, DW_OP_or, DW_OP_stack_value] $r6
	@DEBUG_VALUE: UVC_IsoIn:u32Len <- [DW_OP_LLVM_entry_value 1] $r1
	@DEBUG_VALUE: UVC_IsoIn:u32Loop <- $r3
	@DEBUG_VALUE: UVC_IsoIn:ptr <- $r0
	@DEBUG_VALUE: UVC_ActiveDMA:u32Addr <- $r0
	@DEBUG_VALUE: UVC_ActiveDMA:u32Len <- $r3
	.loc	2 957 9                         @ ../Device/UVC/UVC.c:957:9
	movw	r7, :lower16:gAppConnected
	movt	r7, :upper16:gAppConnected
	ldrb	r6, [r7]
.Ltmp567:
	.loc	2 957 9 is_stmt 0               @ ../Device/UVC/UVC.c:957:9
	cmp	r6, #0
	beq	.LBB10_48
.Ltmp568:
@ %bb.34:
	@DEBUG_VALUE: UVC_ActiveDMA:u32Len <- $r3
	@DEBUG_VALUE: UVC_ActiveDMA:u32Addr <- $r0
	@DEBUG_VALUE: UVC_IsoIn:u32Len <- [DW_OP_LLVM_entry_value 1] $r1
	@DEBUG_VALUE: UVC_IsoIn:u32Loop <- $r3
	@DEBUG_VALUE: UVC_IsoIn:ptr <- $r0
	.loc	2 0 9                           @ ../Device/UVC/UVC.c:0:9
	movw	r6, #22272
	mov.w	r5, #298
	movt	r6, #16416
	@DEBUG_VALUE: UVC_ActiveDMA:u32Addr <- $r0
	.loc	2 963 5 is_stmt 1               @ ../Device/UVC/UVC.c:963:5
	str	r5, [r2, #-72]
	.loc	2 965 5                         @ ../Device/UVC/UVC.c:965:5
	str	r0, [r6]
	.loc	2 967 22                        @ ../Device/UVC/UVC.c:967:22
	movw	r0, :lower16:g_hsusbd_DmaDone
.Ltmp569:
	.loc	2 966 5                         @ ../Device/UVC/UVC.c:966:5
	str	r3, [r2, #4]
	movs	r3, #0
.Ltmp570:
	.loc	2 967 22                        @ ../Device/UVC/UVC.c:967:22
	movt	r0, :upper16:g_hsusbd_DmaDone
	str	r3, [r0]
	.loc	2 968 5                         @ ../Device/UVC/UVC.c:968:5
	ldr	r3, [r2]
	orr	r3, r3, #32
	str	r3, [r2]
	movw	r3, :lower16:g_hsusbd_Configured
	movt	r3, :upper16:g_hsusbd_Configured
.Ltmp571:
	.loc	2 0 5 is_stmt 0                 @ :0:5
.Ltmp572:
	.p2align	2
.LBB10_35:                              @ =>This Inner Loop Header: Depth=1
	@DEBUG_VALUE: UVC_IsoIn:u32Len <- [DW_OP_LLVM_entry_value 1] $r1
	.loc	2 970 12 is_stmt 1              @ ../Device/UVC/UVC.c:970:12
	ldrb	r5, [r3]
	.loc	2 970 5 is_stmt 0               @ ../Device/UVC/UVC.c:970:5
	cmp	r5, #0
	beq	.LBB10_47
.Ltmp573:
@ %bb.36:                               @   in Loop: Header=BB10_35 Depth=1
	@DEBUG_VALUE: UVC_IsoIn:u32Len <- [DW_OP_LLVM_entry_value 1] $r1
	.loc	2 972 13 is_stmt 1              @ ../Device/UVC/UVC.c:972:13
	ldr	r5, [r0]
.Ltmp574:
	.loc	2 972 13 is_stmt 0              @ ../Device/UVC/UVC.c:972:13
	cmp	r5, #0
	bne	.LBB10_47
.Ltmp575:
@ %bb.37:                               @   in Loop: Header=BB10_35 Depth=1
	@DEBUG_VALUE: UVC_IsoIn:u32Len <- [DW_OP_LLVM_entry_value 1] $r1
	.loc	2 975 14 is_stmt 1              @ ../Device/UVC/UVC.c:975:14
	ldr	r5, [r6, #4]
	.loc	2 975 41 is_stmt 0              @ ../Device/UVC/UVC.c:975:41
	cmp.w	r5, #-1
	bgt	.LBB10_45
.Ltmp576:
@ %bb.38:                               @   in Loop: Header=BB10_35 Depth=1
	@DEBUG_VALUE: UVC_IsoIn:u32Len <- [DW_OP_LLVM_entry_value 1] $r1
	.loc	2 975 45                        @ ../Device/UVC/UVC.c:975:45
	ldrb	r5, [r7]
.Ltmp577:
	.loc	2 975 13                        @ ../Device/UVC/UVC.c:975:13
	cbz	r5, .LBB10_45
	le	.LBB10_35
.Ltmp578:
.LBB10_39:
	@DEBUG_VALUE: UVC_IsoIn:header <- [DW_OP_LLVM_convert 8 7, DW_OP_LLVM_convert 32 7, DW_OP_constu 8, DW_OP_shl, DW_OP_constu 2, DW_OP_or, DW_OP_stack_value] $r6
	@DEBUG_VALUE: UVC_IsoIn:u32Len <- [DW_OP_LLVM_entry_value 1] $r1
	@DEBUG_VALUE: UVC_IsoIn:u32Loop <- $r3
	@DEBUG_VALUE: UVC_IsoIn:ptr <- $r0
	.loc	2 1068 50 is_stmt 1             @ ../Device/UVC/UVC.c:1068:50
	ldrb	r7, [r0]
	.loc	2 1068 48 is_stmt 0             @ ../Device/UVC/UVC.c:1068:48
	strb	r7, [r2, #8]
	.loc	2 1069 50 is_stmt 1             @ ../Device/UVC/UVC.c:1069:50
	ldrb	r7, [r0, #1]
	.loc	2 1069 48 is_stmt 0             @ ../Device/UVC/UVC.c:1069:48
	strb	r7, [r2, #8]
.Ltmp579:
	@DEBUG_VALUE: UVC_ActiveDMA:u32Len <- [DW_OP_constu 2, DW_OP_minus, DW_OP_stack_value] $r3
	@DEBUG_VALUE: UVC_ActiveDMA:u32Addr <- [DW_OP_plus_uconst 2, DW_OP_stack_value] $r0
	.loc	2 957 9 is_stmt 1               @ ../Device/UVC/UVC.c:957:9
	movw	r7, :lower16:gAppConnected
	movt	r7, :upper16:gAppConnected
	ldrb	r6, [r7]
.Ltmp580:
	.loc	2 957 9 is_stmt 0               @ ../Device/UVC/UVC.c:957:9
	cbz	r6, .LBB10_48
.Ltmp581:
@ %bb.40:
	@DEBUG_VALUE: UVC_ActiveDMA:u32Addr <- [DW_OP_plus_uconst 2, DW_OP_stack_value] $r0
	@DEBUG_VALUE: UVC_ActiveDMA:u32Len <- [DW_OP_constu 2, DW_OP_minus, DW_OP_stack_value] $r3
	@DEBUG_VALUE: UVC_IsoIn:u32Len <- [DW_OP_LLVM_entry_value 1] $r1
	@DEBUG_VALUE: UVC_IsoIn:u32Loop <- $r3
	@DEBUG_VALUE: UVC_IsoIn:ptr <- $r0
	.loc	2 0 9                           @ ../Device/UVC/UVC.c:0:9
	movw	r6, #22272
	mov.w	r5, #298
	@DEBUG_VALUE: UVC_ActiveDMA:u32Addr <- undef
	movt	r6, #16416
	.loc	2 1071 56 is_stmt 1             @ ../Device/UVC/UVC.c:1071:56
	adds	r0, #2
.Ltmp582:
	@DEBUG_VALUE: UVC_ActiveDMA:u32Addr <- $r0
	.loc	2 963 5                         @ ../Device/UVC/UVC.c:963:5
	str	r5, [r2, #-72]
.Ltmp583:
	.loc	2 1071 70                       @ ../Device/UVC/UVC.c:1071:70
	subs	r3, #2
.Ltmp584:
	@DEBUG_VALUE: UVC_ActiveDMA:u32Len <- $r3
	.loc	2 965 5                         @ ../Device/UVC/UVC.c:965:5
	str	r0, [r6]
	.loc	2 967 22                        @ ../Device/UVC/UVC.c:967:22
	movw	r0, :lower16:g_hsusbd_DmaDone
.Ltmp585:
	.loc	2 966 5                         @ ../Device/UVC/UVC.c:966:5
	str	r3, [r2, #4]
	movs	r3, #0
.Ltmp586:
	.loc	2 967 22                        @ ../Device/UVC/UVC.c:967:22
	movt	r0, :upper16:g_hsusbd_DmaDone
	str	r3, [r0]
	.loc	2 968 5                         @ ../Device/UVC/UVC.c:968:5
	ldr	r3, [r2]
	orr	r3, r3, #32
	str	r3, [r2]
	movw	r3, :lower16:g_hsusbd_Configured
	movt	r3, :upper16:g_hsusbd_Configured
.Ltmp587:
	.loc	2 0 5 is_stmt 0                 @ :0:5
.Ltmp588:
	.p2align	2
.LBB10_41:                              @ =>This Inner Loop Header: Depth=1
	@DEBUG_VALUE: UVC_IsoIn:u32Len <- [DW_OP_LLVM_entry_value 1] $r1
	.loc	2 970 12 is_stmt 1              @ ../Device/UVC/UVC.c:970:12
	ldrb	r5, [r3]
	.loc	2 970 5 is_stmt 0               @ ../Device/UVC/UVC.c:970:5
	cbz	r5, .LBB10_47
.Ltmp589:
@ %bb.42:                               @   in Loop: Header=BB10_41 Depth=1
	@DEBUG_VALUE: UVC_IsoIn:u32Len <- [DW_OP_LLVM_entry_value 1] $r1
	.loc	2 972 13 is_stmt 1              @ ../Device/UVC/UVC.c:972:13
	ldr	r5, [r0]
.Ltmp590:
	.loc	2 972 13 is_stmt 0              @ ../Device/UVC/UVC.c:972:13
	cbnz	r5, .LBB10_47
.Ltmp591:
@ %bb.43:                               @   in Loop: Header=BB10_41 Depth=1
	@DEBUG_VALUE: UVC_IsoIn:u32Len <- [DW_OP_LLVM_entry_value 1] $r1
	.loc	2 975 14 is_stmt 1              @ ../Device/UVC/UVC.c:975:14
	ldr	r5, [r6, #4]
	.loc	2 975 41 is_stmt 0              @ ../Device/UVC/UVC.c:975:41
	cmp.w	r5, #-1
	bgt	.LBB10_45
.Ltmp592:
@ %bb.44:                               @   in Loop: Header=BB10_41 Depth=1
	@DEBUG_VALUE: UVC_IsoIn:u32Len <- [DW_OP_LLVM_entry_value 1] $r1
	.loc	2 975 45                        @ ../Device/UVC/UVC.c:975:45
	ldrb	r5, [r7]
.Ltmp593:
	.loc	2 975 13                        @ ../Device/UVC/UVC.c:975:13
	cbz	r5, .LBB10_45
	le	.LBB10_41
.Ltmp594:
.LBB10_45:
	@DEBUG_VALUE: UVC_IsoIn:u32Len <- [DW_OP_LLVM_entry_value 1] $r1
	.loc	2 977 25 is_stmt 1              @ ../Device/UVC/UVC.c:977:25
	ldr	r0, [r2]
.Ltmp595:
	.loc	2 977 17 is_stmt 0              @ ../Device/UVC/UVC.c:977:17
	lsls	r0, r0, #26
	bpl	.LBB10_47
.Ltmp596:
@ %bb.46:
	@DEBUG_VALUE: UVC_IsoIn:u32Len <- [DW_OP_LLVM_entry_value 1] $r1
	.loc	2 0 17                          @ ../Device/UVC/UVC.c:0:17
	movs	r0, #0
	movs	r3, #128
.Ltmp597:
	.loc	9 225 20 is_stmt 1              @ ../../../../Library/StdDriver/inc\hsusbd.h:225:20
	str	r0, [r2, #4]
	.loc	9 226 20                        @ ../../../../Library/StdDriver/inc\hsusbd.h:226:20
	str	r3, [r2]
	.loc	9 227 20                        @ ../../../../Library/StdDriver/inc\hsusbd.h:227:20
	str	r0, [r2]
.Ltmp598:
	.loc	2 980 42                        @ ../Device/UVC/UVC.c:980:42
	ldr	r0, [r2, #24]
	orr	r0, r0, #1
	str	r0, [r2, #24]
.Ltmp599:
.LBB10_47:
	@DEBUG_VALUE: UVC_IsoIn:u32Len <- [DW_OP_LLVM_entry_value 1] $r1
	@DEBUG_VALUE: UVC_IsoIn:ret <- 0
	.loc	2 1081 28                       @ ../Device/UVC/UVC.c:1081:28
	ldrb	r0, [r1]
	adds	r0, #1
	strb	r0, [r1]
.Ltmp600:
.LBB10_48:
	.loc	2 1086 1 epilogue_begin         @ ../Device/UVC/UVC.c:1086:1
	add	sp, #4
	pop.w	{r4, r5, r6, r7, r8, r9, r10, r11, pc}
.Ltmp601:
.Lfunc_end10:
	.size	UVC_IsoIn, .Lfunc_end10-UVC_IsoIn
	.cfi_endproc
	.cantunwind
	.fnend
                                        @ -- End function
	.section	.text.UVC_SendImage,"ax",%progbits
	.hidden	UVC_SendImage                   @ -- Begin function UVC_SendImage
	.globl	UVC_SendImage
	.p2align	2
	.type	UVC_SendImage,%function
	.code	16                              @ @UVC_SendImage
	.thumb_func
UVC_SendImage:
.Lfunc_begin11:
	.loc	2 1089 0                        @ ../Device/UVC/UVC.c:1089:0
	.fnstart
	.cfi_startproc
@ %bb.0:
	@DEBUG_VALUE: UVC_SendImage:u32Addr <- $r0
	@DEBUG_VALUE: UVC_SendImage:u32transferSize <- $r1
	@DEBUG_VALUE: UVC_SendImage:bStillImage <- $r2
	mov.w	r3, #0
.Ltmp602:
	.loc	2 1090 9 prologue_end           @ ../Device/UVC/UVC.c:1090:9
	cbz	r1, .LBB11_5
.Ltmp603:
@ %bb.1:
	@DEBUG_VALUE: UVC_SendImage:bStillImage <- $r2
	@DEBUG_VALUE: UVC_SendImage:u32transferSize <- $r1
	@DEBUG_VALUE: UVC_SendImage:u32Addr <- $r0
	.save	{r4, lr}
	push	{r4, lr}
	.cfi_def_cfa_offset 8
	.cfi_offset lr, -4
	.cfi_offset r4, -8
.Ltmp604:
	.loc	2 1093 26                       @ ../Device/UVC/UVC.c:1093:26
	movw	r12, :lower16:uvcStatus
	movw	lr, #20572
	movt	r12, :upper16:uvcStatus
	strb.w	r3, [r12, #28]
	movt	lr, #16416
	.loc	2 1095 34                       @ ../Device/UVC/UVC.c:1095:34
	ldr.w	r4, [lr, #24]
	.loc	2 1098 13                       @ ../Device/UVC/UVC.c:1098:13
	cmp	r2, #0
.Ltmp605:
	.loc	2 1104 24                       @ ../Device/UVC/UVC.c:1104:24
	movw	r2, :lower16:g_u8UVC_PD
.Ltmp606:
	@DEBUG_VALUE: UVC_SendImage:bStillImage <- [DW_OP_LLVM_entry_value 1] $r2
	.loc	2 1095 34                       @ ../Device/UVC/UVC.c:1095:34
	orr	r4, r4, #1
	str.w	r4, [lr, #24]
	mov.w	r4, #128
.Ltmp607:
	.loc	2 1104 24                       @ ../Device/UVC/UVC.c:1104:24
	movt	r2, :upper16:g_u8UVC_PD
.Ltmp608:
	.loc	9 225 20                        @ ../../../../Library/StdDriver/inc\hsusbd.h:225:20
	str.w	r3, [lr, #4]
	.loc	9 226 20                        @ ../../../../Library/StdDriver/inc\hsusbd.h:226:20
	str.w	r4, [lr]
	.loc	9 227 20                        @ ../../../../Library/StdDriver/inc\hsusbd.h:227:20
	str.w	r3, [lr]
.Ltmp609:
	.loc	2 1098 13                       @ ../Device/UVC/UVC.c:1098:13
	beq	.LBB11_3
.Ltmp610:
@ %bb.2:
	@DEBUG_VALUE: UVC_SendImage:bStillImage <- [DW_OP_LLVM_entry_value 1] $r2
	@DEBUG_VALUE: UVC_SendImage:u32transferSize <- $r1
	@DEBUG_VALUE: UVC_SendImage:u32Addr <- $r0
	.loc	2 0 13 is_stmt 0                @ ../Device/UVC/UVC.c:0:13
	movs	r3, #32
.Ltmp611:
	.loc	2 1100 24 is_stmt 1             @ ../Device/UVC/UVC.c:1100:24
	strb	r3, [r2]
	movs	r2, #0
	.loc	2 1101 34                       @ ../Device/UVC/UVC.c:1101:34
	str.w	r2, [r12, #24]
	.loc	2 1102 9                        @ ../Device/UVC/UVC.c:1102:9
	b	.LBB11_4
.Ltmp612:
.LBB11_3:
	@DEBUG_VALUE: UVC_SendImage:bStillImage <- [DW_OP_LLVM_entry_value 1] $r2
	@DEBUG_VALUE: UVC_SendImage:u32transferSize <- $r1
	@DEBUG_VALUE: UVC_SendImage:u32Addr <- $r0
	.loc	2 0 9 is_stmt 0                 @ ../Device/UVC/UVC.c:0:9
	movs	r3, #0
	.loc	2 1104 24 is_stmt 1             @ ../Device/UVC/UVC.c:1104:24
	strb	r3, [r2]
.Ltmp613:
.LBB11_4:
	@DEBUG_VALUE: UVC_SendImage:bStillImage <- [DW_OP_LLVM_entry_value 1] $r2
	@DEBUG_VALUE: UVC_SendImage:u32transferSize <- $r1
	@DEBUG_VALUE: UVC_SendImage:u32Addr <- $r0
	.loc	2 1106 9                        @ ../Device/UVC/UVC.c:1106:9
	bl	UVC_IsoIn
.Ltmp614:
	@DEBUG_VALUE: UVC_SendImage:u32transferSize <- [DW_OP_LLVM_entry_value 1] $r1
	@DEBUG_VALUE: UVC_SendImage:u32Addr <- [DW_OP_LLVM_entry_value 1] $r0
	.loc	2 0 9 is_stmt 0                 @ ../Device/UVC/UVC.c:0:9
	movs	r3, #1
	pop.w	{r4, lr}
.Ltmp615:
.LBB11_5:
	.loc	2 1112 1 is_stmt 1              @ ../Device/UVC/UVC.c:1112:1
	mov	r0, r3
	bx	lr
.Ltmp616:
.Lfunc_end11:
	.size	UVC_SendImage, .Lfunc_end11-UVC_SendImage
	.cfi_endproc
	.cantunwind
	.fnend
                                        @ -- End function
	.section	.text.UVC_IsConnect,"ax",%progbits
	.hidden	UVC_IsConnect                   @ -- Begin function UVC_IsConnect
	.globl	UVC_IsConnect
	.p2align	2
	.type	UVC_IsConnect,%function
	.code	16                              @ @UVC_IsConnect
	.thumb_func
UVC_IsConnect:
.Lfunc_begin12:
	.fnstart
	.cfi_startproc
@ %bb.0:
	.loc	2 1116 10 prologue_end          @ ../Device/UVC/UVC.c:1116:10
	movw	r0, :lower16:gAppConnected
	movt	r0, :upper16:gAppConnected
	ldrb	r0, [r0]
	.loc	2 1116 25 is_stmt 0             @ ../Device/UVC/UVC.c:1116:25
	cbz	r0, .LBB12_2
@ %bb.1:
	.loc	2 0 25                          @ ../Device/UVC/UVC.c:0:25
	movw	r0, #22276
	movt	r0, #16416
	.loc	2 1116 29                       @ ../Device/UVC/UVC.c:1116:29
	ldr	r0, [r0]
.Ltmp617:
	.loc	2 1116 9                        @ ../Device/UVC/UVC.c:1116:9
	cmp	r0, #0
	itt	mi
	movmi	r0, #1
	.loc	2 1120 1 is_stmt 1              @ ../Device/UVC/UVC.c:1120:1
	bxmi	lr
.LBB12_2:
	.loc	2 0 1 is_stmt 0                 @ ../Device/UVC/UVC.c:0:1
	movs	r0, #0
	.loc	2 1120 1                        @ ../Device/UVC/UVC.c:1120:1
	bx	lr
.Ltmp618:
.Lfunc_end12:
	.size	UVC_IsConnect, .Lfunc_end12-UVC_IsConnect
	.cfi_endproc
	.cantunwind
	.fnend
                                        @ -- End function
	.hidden	gAppConnected                   @ @gAppConnected
	.type	gAppConnected,%object
	.section	.bss.gAppConnected,"aw",%nobits
	.globl	gAppConnected
gAppConnected:
	.byte	0                               @ 0x0
	.size	gAppConnected, 1

	.hidden	gMaxPacketSize                  @ @gMaxPacketSize
	.type	gMaxPacketSize,%object
	.section	.bss.gMaxPacketSize,"aw",%nobits
	.globl	gMaxPacketSize
	.p2align	2, 0x0
gMaxPacketSize:
	.long	0                               @ 0x0
	.size	gMaxPacketSize, 4

	.type	uvcInfo,%object                 @ @uvcInfo
	.section	.bss.uvcInfo,"aw",%nobits
	.p2align	2, 0x0
uvcInfo:
	.zero	88
	.size	uvcInfo, 88

	.hidden	uvcStatus                       @ @uvcStatus
	.type	uvcStatus,%object
	.section	.bss.uvcStatus,"aw",%nobits
	.globl	uvcStatus
	.p2align	2, 0x0
uvcStatus:
	.zero	32
	.size	uvcStatus, 32

	.type	gAltInterface,%object           @ @gAltInterface
	.section	.bss.gAltInterface,"aw",%nobits
gAltInterface:
	.byte	0                               @ 0x0
	.size	gAltInterface, 1

	.type	uvcPuInfo,%object               @ @uvcPuInfo
	.section	.data.uvcPuInfo,"aw",%progbits
	.p2align	2, 0x0
uvcPuInfo:
	.long	0                               @ 0x0
	.long	70                              @ 0x46
	.long	7                               @ 0x7
	.long	4294967286                      @ 0xfffffff6
	.long	10                              @ 0xa
	.long	1                               @ 0x1
	.long	0                               @ 0x0
	.long	20                              @ 0x14
	.long	2                               @ 0x2
	.long	4294967266                      @ 0xffffffe2
	.long	30                              @ 0x1e
	.long	0                               @ 0x0
	.long	0                               @ 0x0
	.long	40                              @ 0x28
	.long	4                               @ 0x4
	.long	0                               @ 0x0
	.long	50                              @ 0x32
	.long	5                               @ 0x5
	.long	1                               @ 0x1
	.long	5                               @ 0x5
	.long	3                               @ 0x3
	.long	0                               @ 0x0
	.long	2                               @ 0x2
	.long	2                               @ 0x2
	.size	uvcPuInfo, 96

	.type	g_u8UVC_PD,%object              @ @g_u8UVC_PD
	.section	.bss.g_u8UVC_PD,"aw",%nobits
g_u8UVC_PD:
	.byte	0                               @ 0x0
	.size	g_u8UVC_PD, 1

	.type	g_u8UVC_FID,%object             @ @g_u8UVC_FID
	.section	.bss.g_u8UVC_FID,"aw",%nobits
g_u8UVC_FID:
	.byte	0                               @ 0x0
	.size	g_u8UVC_FID, 1

	.type	.Lswitch.table.UVC_ClassRequest.1,%object @ @switch.table.UVC_ClassRequest.1
	.section	.rodata..Lswitch.table.UVC_ClassRequest.1,"a",%progbits
	.p2align	2, 0x0
.Lswitch.table.UVC_ClassRequest.1:
	.long	153600                          @ 0x25800
	.long	38400                           @ 0x9600
	.long	614400                          @ 0x96000
	.size	.Lswitch.table.UVC_ClassRequest.1, 12

	.section	".note.GNU-stack","",%progbits
	.eabi_attribute	30, 1	@ Tag_ABI_optimization_goals
	.ARM_attribute	16, 1	@ Tag_AV_eba