	.text
	.syntax unified
	.eabi_attribute	67, "2.09"	@ Tag_conformance
	.cpu	cortex-m55
	.eabi_attribute	6, 21	@ Tag_CPU_arch
	.eabi_attribute	7, 77	@ Tag_CPU_arch_profile
	.eabi_attribute	8, 0	@ Tag_ARM_ISA_use
	.eabi_attribute	9, 3	@ Tag_THUMB_ISA_use
	.fpu	fpv5-d16
	.arch_extension	mve.fp
	.eabi_attribute	36, 1	@ Tag_FP_HP_extension
	.eabi_attribute	48, 2	@ Tag_MVE_arch
	.eabi_attribute	46, 1	@ Tag_DSP_extension
	.eabi_attribute	34, 1	@ Tag_CPU_unaligned_access
	.eabi_attribute	17, 1	@ Tag_ABI_PCS_GOT_use
	.eabi_attribute	20, 2	@ Tag_ABI_FP_denormal
	.eabi_attribute	21, 0	@ Tag_ABI_FP_exceptions
	.eabi_attribute	23, 1	@ Tag_ABI_FP_number_model
	.eabi_attribute	24, 1	@ Tag_ABI_align_needed
	.eabi_attribute	25, 1	@ Tag_ABI_align_preserved
	.eabi_attribute	28, 1	@ Tag_ABI_VFP_args
	.eabi_attribute	38, 1	@ Tag_ABI_FP_16bit_format
	.eabi_attribute	18, 2	@ Tag_ABI_PCS_wchar_t
	.eabi_attribute	26, 1	@ Tag_ABI_enum_size
	.eabi_attribute	14, 0	@ Tag_ABI_PCS_R9_use
	.file	"YOLOv8nODPostProcessing.cpp"
	.file	1 "C:\\Users\\jimmy\\Desktop\\Nuvoton\\Nuvoton-Team\\repos\\m55m1-ElevatorCounting-YOLOv8n\\KEIL" "../YOLOv8nODPostProcessing.cpp"
	.file	2 "C:\\Users\\jimmy" "AppData\\Local\\Keil_v5\\ARM\\ARMCLANG\\bin\\..\\include\\libcxx\\vector"
	.file	3 "C:\\Users\\jimmy" "AppData\\Local\\Keil_v5\\ARM\\ARMCLANG\\bin\\..\\include\\libcxx\\stdexcept"
	.file	4 "C:\\Users\\jimmy" "AppData\\Local\\Keil_v5\\ARM\\ARMCLANG\\bin\\..\\include\\libcxx\\new"
	.file	5 "C:\\Users\\jimmy" "AppData\\Local\\Keil_v5\\ARM\\ARMCLANG\\bin\\..\\include\\stdlib.h"
	.file	6 "C:\\Users\\jimmy" "AppData\\Local\\Keil_v5\\ARM\\ARMCLANG\\bin\\..\\include\\libcxx\\__type_traits\\datasizeof.h"
	.file	7 "C:\\Users\\jimmy\\Desktop\\Nuvoton\\Nuvoton-Team\\repos\\m55m1-ElevatorCounting-YOLOv8n\\KEIL" "../../../../ThirdParty/tflite_micro\\tensorflow/lite/core/c/common.h"
	.file	8 "C:\\Users\\jimmy\\Desktop\\Nuvoton\\Nuvoton-Team\\repos\\m55m1-ElevatorCounting-YOLOv8n\\KEIL" "../../../../ThirdParty/tflite_micro\\tensorflow/lite/core/c/c_api_types.h"
	.file	9 "C:\\Users\\jimmy" "AppData\\Local\\Keil_v5\\ARM\\ARMCLANG\\bin\\..\\include\\libcxx\\limits"
	.file	10 "C:\\Users\\jimmy" "AppData\\Local\\Keil_v5\\ARM\\ARMCLANG\\bin\\..\\include\\libcxx\\__string\\constexpr_c_functions.h"
	.file	11 "C:\\Users\\jimmy" "AppData\\Local\\Keil_v5\\ARM\\ARMCLANG\\bin\\..\\include\\stdint.h"
	.file	12 "C:\\Users\\jimmy\\Desktop\\Nuvoton\\Nuvoton-Team\\repos\\m55m1-ElevatorCounting-YOLOv8n\\KEIL" "..\\YOLOv8nODPostProcessing.hpp"
	.file	13 "C:\\Users\\jimmy" "AppData\\Local\\Keil_v5\\ARM\\ARMCLANG\\bin\\..\\include\\libcxx\\__memory\\allocator.h"
	.file	14 "C:\\Users\\jimmy" "AppData\\Local\\Keil_v5\\ARM\\ARMCLANG\\bin\\..\\include\\time.h"
	.file	15 "C:\\Users\\jimmy" "AppData\\Local\\Keil_v5\\ARM\\ARMCLANG\\bin\\..\\include\\libcxx\\__memory\\allocator_traits.h"
	.file	16 "C:\\Users\\jimmy" "AppData\\Local\\Keil_v5\\ARM\\ARMCLANG\\bin\\..\\include\\libcxx\\__memory\\compressed_pair.h"
	.file	17 "C:\\Users\\jimmy" "AppData\\Local\\Keil_v5\\ARM\\ARMCLANG\\bin\\..\\include\\libcxx\\__type_traits\\type_identity.h"
	.file	18 "C:\\Users\\jimmy" "AppData\\Local\\Keil_v5\\ARM\\ARMCLANG\\bin\\..\\include\\libcxx\\__split_buffer"
	.file	19 "C:\\Users\\jimmy" "AppData\\Local\\Keil_v5\\ARM\\ARMCLANG\\bin\\..\\include\\libcxx\\__type_traits\\remove_reference.h"
	.file	20 "C:\\Users\\jimmy" "AppData\\Local\\Keil_v5\\ARM\\ARMCLANG\\bin\\..\\include\\libcxx\\__type_traits\\integral_constant.h"
	.file	21 "C:\\Users\\jimmy" "AppData\\Local\\Keil_v5\\ARM\\ARMCLANG\\bin\\..\\include\\libcxx\\forward_list"
	.file	22 "C:\\Users\\jimmy" "AppData\\Local\\Keil_v5\\ARM\\ARMCLANG\\bin\\..\\include\\libcxx\\__memory\\pointer_traits.h"
	.file	23 "C:\\Users\\jimmy" "AppData\\Local\\Keil_v5\\ARM\\ARMCLANG\\bin\\..\\include\\libcxx\\stddef.h"
	.file	24 "C:\\Users\\jimmy" "AppData\\Local\\Keil_v5\\ARM\\ARMCLANG\\bin\\..\\include\\libcxx\\__iterator\\iterator_traits.h"
	.file	25 "C:\\Users\\jimmy" "AppData\\Local\\Keil_v5\\ARM\\ARMCLANG\\bin\\..\\include\\stddef.h"
	.file	26 "C:\\Users\\jimmy" "AppData\\Local\\Keil_v5\\ARM\\ARMCLANG\\bin\\..\\include\\libcxx\\__iterator\\advance.h"
	.file	27 "C:\\Users\\jimmy" "AppData\\Local\\Keil_v5\\ARM\\ARMCLANG\\bin\\..\\include\\libcxx\\__utility\\exception_guard.h"
	.file	28 "C:\\Users\\jimmy" "AppData\\Local\\Keil_v5\\ARM\\ARMCLANG\\bin\\..\\include\\libcxx\\__type_traits\\promote.h"
	.file	29 "C:\\Users\\jimmy" "AppData\\Local\\Keil_v5\\ARM\\ARMCLANG\\bin\\..\\include\\libcxx\\__math\\exponential_functions.h"
	.file	30 "C:\\Users\\jimmy\\Desktop\\Nuvoton\\Nuvoton-Team\\repos\\m55m1-ElevatorCounting-YOLOv8n\\KEIL" "..\\DetectionResult.hpp"
	.file	31 "C:\\Users\\jimmy" "AppData\\Local\\Keil_v5\\ARM\\ARMCLANG\\bin\\..\\include\\libcxx\\__memory\\allocation_guard.h"
	.file	32 "C:\\Users\\jimmy" "AppData\\Local\\Keil_v5\\ARM\\ARMCLANG\\bin\\..\\include\\libcxx\\__utility\\pair.h"
	.section	.text._Z21AnchorMatrixConstructRNSt3__26vectorIN3arm3app10yolov8n_od9AnchorBoxENS_9allocatorIS4_EEEEii,"ax",%progbits
	.hidden	_Z21AnchorMatrixConstructRNSt3__26vectorIN3arm3app10yolov8n_od9AnchorBoxENS_9allocatorIS4_EEEEii @ -- Begin function _Z21AnchorMatrixConstructRNSt3__26vectorIN3arm3app10yolov8n_od9AnchorBoxENS_9allocatorIS4_EEEEii
	.globl	_Z21AnchorMatrixConstructRNSt3__26vectorIN3arm3app10yolov8n_od9AnchorBoxENS_9allocatorIS4_EEEEii
	.p2align	2
	.type	_Z21AnchorMatrixConstructRNSt3__26vectorIN3arm3app10yolov8n_od9AnchorBoxENS_9allocatorIS4_EEEEii,%function
	.code	16                              @ @_Z21AnchorMatrixConstructRNSt3__26vectorIN3arm3app10yolov8n_od9AnchorBoxENS_9allocatorIS4_EEEEii
	.thumb_func
_Z21AnchorMatrixConstructRNSt3__26vectorIN3arm3app10yolov8n_od9AnchorBoxENS_9allocatorIS4_EEEEii:
.Lfunc_begin0:
	.loc	1 26 0                          @ ../YOLOv8nODPostProcessing.cpp:26:0
	.fnstart
	.cfi_sections .debug_frame
	.cfi_startproc
@ %bb.0:
	@DEBUG_VALUE: AnchorMatrixConstruct:vAnchorBoxs <- $r0
	@DEBUG_VALUE: AnchorMatrixConstruct:i32Stride <- $r1
	@DEBUG_VALUE: AnchorMatrixConstruct:i32StrideTotalAnchors <- $r2
	@DEBUG_VALUE: AnchorMatrixConstruct:i32StrideTotalAnchors <- $r2
	.save	{r4, r5, r6, r7, r8, r9, r10, r11, lr}
	push.w	{r4, r5, r6, r7, r8, r9, r10, r11, lr}
	.cfi_def_cfa_offset 36
	.cfi_offset lr, -4
	.cfi_offset r11, -8
	.cfi_offset r10, -12
	.cfi_offset r9, -16
	.cfi_offset r8, -20
	.cfi_offset r7, -24
	.cfi_offset r6, -28
	.cfi_offset r5, -32
	.cfi_offset r4, -36
	.pad	#4
	sub	sp, #4
	.cfi_def_cfa_offset 40
	.vsave	{d8, d9, d10, d11, d12, d13, d14}
	vpush	{d8, d9, d10, d11, d12, d13, d14}
	.cfi_def_cfa_offset 96
	.cfi_offset d14, -48
	.cfi_offset d13, -56
	.cfi_offset d12, -64
	.cfi_offset d11, -72
	.cfi_offset d10, -80
	.cfi_offset d9, -88
	.cfi_offset d8, -96
	.pad	#8
	sub	sp, #8
	.cfi_def_cfa_offset 104
.Ltmp0:
	.loc	1 33 2 prologue_end             @ ../YOLOv8nODPostProcessing.cpp:33:2
	cmp	r2, #1
.Ltmp1:
	@DEBUG_VALUE: i <- 0
	@DEBUG_VALUE: AnchorMatrixConstruct:fAnchor1StepValue <- -1.000000e+00
	@DEBUG_VALUE: AnchorMatrixConstruct:fAnchor0StepValue <- 0.000000e+00
	@DEBUG_VALUE: AnchorMatrixConstruct:iMaxAnchorValue <- undef
	@DEBUG_VALUE: AnchorMatrixConstruct:fStartAnchorValue <- 5.000000e-01
	@DEBUG_VALUE: AnchorMatrixConstruct:vAnchorBoxs <- $r0
	blt	.LBB0_13
.Ltmp2:
@ %bb.1:
	@DEBUG_VALUE: AnchorMatrixConstruct:fStartAnchorValue <- 5.000000e-01
	@DEBUG_VALUE: AnchorMatrixConstruct:fAnchor0StepValue <- 0.000000e+00
	@DEBUG_VALUE: AnchorMatrixConstruct:fAnchor1StepValue <- -1.000000e+00
	@DEBUG_VALUE: i <- 0
	@DEBUG_VALUE: AnchorMatrixConstruct:i32StrideTotalAnchors <- $r2
	@DEBUG_VALUE: AnchorMatrixConstruct:i32Stride <- $r1
	@DEBUG_VALUE: AnchorMatrixConstruct:vAnchorBoxs <- $r0
	.loc	1 0 2 is_stmt 0                 @ ../YOLOv8nODPostProcessing.cpp:0:2
	mov	r7, r0
.Ltmp3:
	@DEBUG_VALUE: AnchorMatrixConstruct:vAnchorBoxs <- $r7
	@DEBUG_VALUE: AnchorMatrixConstruct:vAnchorBoxs <- $r7
	movs	r0, #192
	vldr	s16, .LCPI0_0
	sdiv	r1, r0, r1
.Ltmp4:
	@DEBUG_VALUE: AnchorMatrixConstruct:i32Stride <- [DW_OP_LLVM_entry_value 1] $r1
	@DEBUG_VALUE: AnchorMatrixConstruct:iMaxAnchorValue <- $r1
	.loc	2 1508 25 is_stmt 1             @ AppData\Local\Keil_v5\ARM\ARMCLANG\bin\..\include\libcxx\vector:1508:25
	ldr.w	r10, [r7, #4]
	mov	r11, r2
.Ltmp5:
	@DEBUG_VALUE: AnchorMatrixConstruct:i32StrideTotalAnchors <- $r11
	@DEBUG_VALUE: AnchorMatrixConstruct:i32StrideTotalAnchors <- $r11
	.loc	2 0 25 is_stmt 0                @ AppData\Local\Keil_v5\ARM\ARMCLANG\bin\..\include\libcxx\vector:0:25
	vmov.f32	s18, #-1.000000e+00
	movs	r4, #0
	vmov.f32	s20, #1.000000e+00
	vmov.f32	s22, #5.000000e-01
	vmov.f32	s0, s16
	strd	r1, r7, [sp]                    @ 8-byte Folded Spill
.Ltmp6:
	@DEBUG_VALUE: AnchorMatrixConstruct:iMaxAnchorValue <- [$sp+0]
	b	.LBB0_4
.Ltmp7:
	.p2align	2
.LBB0_2:                                @   in Loop: Header=BB0_4 Depth=1
	@DEBUG_VALUE: sAnchorBox <- [DW_OP_LLVM_fragment 32 32] $s26
	@DEBUG_VALUE: push_back:this <- [DW_OP_plus_uconst 4] [$sp+0]
	@DEBUG_VALUE: push_back:__end <- $r10
	@DEBUG_VALUE: sAnchorBox <- [DW_OP_LLVM_fragment 0 32] $s28
	@DEBUG_VALUE: AnchorMatrixConstruct:fAnchor0StepValue <- $s24
	@DEBUG_VALUE: i <- $r4
	@DEBUG_VALUE: AnchorMatrixConstruct:fAnchor1StepValue <- $s18
	@DEBUG_VALUE: AnchorMatrixConstruct:iMaxAnchorValue <- [$sp+0]
	@DEBUG_VALUE: AnchorMatrixConstruct:i32Stride <- [DW_OP_LLVM_entry_value 1] $r1
	@DEBUG_VALUE: AnchorMatrixConstruct:fStartAnchorValue <- 5.000000e-01
	@DEBUG_VALUE: __construct_one_at_end<const arm::app::yolov8n_od::AnchorBox &>:this <- [DW_OP_plus_uconst 4] [$sp+0]
	@DEBUG_VALUE: __construct_one_at_end<const arm::app::yolov8n_od::AnchorBox &>:__args <- undef
	@DEBUG_VALUE: __construct_one_at_end<const arm::app::yolov8n_od::AnchorBox &>:__tx <- [DW_OP_plus_uconst 4, DW_OP_LLVM_fragment 0 32] [$sp+0]
	@DEBUG_VALUE: __construct_one_at_end<const arm::app::yolov8n_od::AnchorBox &>:__tx <- [DW_OP_LLVM_fragment 32 32] $r10
	@DEBUG_VALUE: __construct_one_at_end<const arm::app::yolov8n_od::AnchorBox &>:__tx <- [DW_OP_plus_uconst 8, DW_OP_stack_value, DW_OP_LLVM_fragment 64 32] $r10
	@DEBUG_VALUE: construct<arm::app::yolov8n_od::AnchorBox, const arm::app::yolov8n_od::AnchorBox &, 0>:__a <- [DW_OP_plus_uconst 4, DW_OP_deref_size 4, DW_OP_plus_uconst 8, DW_OP_stack_value] $sp
	@DEBUG_VALUE: construct<arm::app::yolov8n_od::AnchorBox, const arm::app::yolov8n_od::AnchorBox &, 0>:__p <- $r10
	@DEBUG_VALUE: construct<arm::app::yolov8n_od::AnchorBox, const arm::app::yolov8n_od::AnchorBox &, 0>:__args <- undef
	@DEBUG_VALUE: construct<arm::app::yolov8n_od::AnchorBox, const arm::app::yolov8n_od::AnchorBox &>:this <- [DW_OP_plus_uconst 4, DW_OP_deref_size 4, DW_OP_plus_uconst 8, DW_OP_stack_value] $sp
	@DEBUG_VALUE: construct<arm::app::yolov8n_od::AnchorBox, const arm::app::yolov8n_od::AnchorBox &>:__p <- $r10
	@DEBUG_VALUE: construct<arm::app::yolov8n_od::AnchorBox, const arm::app::yolov8n_od::AnchorBox &>:__args <- undef
	.loc	13 151 24 is_stmt 1             @ AppData\Local\Keil_v5\ARM\ARMCLANG\bin\..\include\libcxx\__memory\allocator.h:151:24
	vstr	s28, [r10]
	vstr	s26, [r10, #4]
.Ltmp8:
	.loc	2 961 5                         @ AppData\Local\Keil_v5\ARM\ARMCLANG\bin\..\include\libcxx\vector:961:5
	add.w	r10, r10, #8
.Ltmp9:
	@DEBUG_VALUE: __construct_one_at_end<const arm::app::yolov8n_od::AnchorBox &>:__tx <- [DW_OP_LLVM_fragment 32 32] $r10
	@DEBUG_VALUE: push_back:__end <- $r10
.LBB0_3:                                @   in Loop: Header=BB0_4 Depth=1
	@DEBUG_VALUE: sAnchorBox <- [DW_OP_LLVM_fragment 32 32] $s26
	@DEBUG_VALUE: push_back:this <- [DW_OP_plus_uconst 4] [$sp+0]
	@DEBUG_VALUE: sAnchorBox <- [DW_OP_LLVM_fragment 0 32] $s28
	@DEBUG_VALUE: AnchorMatrixConstruct:fAnchor0StepValue <- $s24
	@DEBUG_VALUE: i <- $r4
	@DEBUG_VALUE: AnchorMatrixConstruct:fAnchor1StepValue <- $s18
	@DEBUG_VALUE: AnchorMatrixConstruct:iMaxAnchorValue <- [$sp+0]
	@DEBUG_VALUE: AnchorMatrixConstruct:i32Stride <- [DW_OP_LLVM_entry_value 1] $r1
	@DEBUG_VALUE: AnchorMatrixConstruct:fStartAnchorValue <- 5.000000e-01
	.loc	1 0 0 is_stmt 0                 @ ../YOLOv8nODPostProcessing.cpp:0:0
	vadd.f32	s0, s24, s20
.Ltmp10:
	@DEBUG_VALUE: AnchorMatrixConstruct:fAnchor0StepValue <- $s0
	.loc	1 33 19 is_stmt 1               @ ../YOLOv8nODPostProcessing.cpp:33:19
	subs.w	r11, r11, #1
.Ltmp11:
	@DEBUG_VALUE: AnchorMatrixConstruct:i32StrideTotalAnchors <- [DW_OP_LLVM_entry_value 1] $r2
	@DEBUG_VALUE: push_back:__end <- $r10
	.loc	1 33 45 is_stmt 0               @ ../YOLOv8nODPostProcessing.cpp:33:45
	add.w	r4, r4, #1
.Ltmp12:
	@DEBUG_VALUE: i <- $r4
	@DEBUG_VALUE: AnchorMatrixConstruct:fAnchor1StepValue <- $s18
	@DEBUG_VALUE: AnchorMatrixConstruct:fStartAnchorValue <- 5.000000e-01
	.loc	2 1515 16 is_stmt 1             @ AppData\Local\Keil_v5\ARM\ARMCLANG\bin\..\include\libcxx\vector:1515:16
	str.w	r10, [r7, #4]
.Ltmp13:
	.loc	1 33 2                          @ ../YOLOv8nODPostProcessing.cpp:33:2
	beq	.LBB0_13
.Ltmp14:
.LBB0_4:                                @ =>This Inner Loop Header: Depth=1
	@DEBUG_VALUE: AnchorMatrixConstruct:iMaxAnchorValue <- [$sp+0]
	@DEBUG_VALUE: AnchorMatrixConstruct:i32Stride <- [DW_OP_LLVM_entry_value 1] $r1
	@DEBUG_VALUE: AnchorMatrixConstruct:fStartAnchorValue <- 5.000000e-01
	@DEBUG_VALUE: AnchorMatrixConstruct:fAnchor0StepValue <- $s0
	@DEBUG_VALUE: AnchorMatrixConstruct:fAnchor1StepValue <- $s18
	@DEBUG_VALUE: i <- $r4
	.loc	1 37 9                          @ ../YOLOv8nODPostProcessing.cpp:37:9
	sdiv	r0, r4, r1
	vadd.f32	s2, s18, s20
	mls	r0, r0, r1, r4
.Ltmp15:
	.loc	1 37 6 is_stmt 0                @ ../YOLOv8nODPostProcessing.cpp:37:6
	cmp	r0, #0
	vseleq.f32	s18, s2, s18
.Ltmp16:
	@DEBUG_VALUE: AnchorMatrixConstruct:fAnchor1StepValue <- $s18
	@DEBUG_VALUE: AnchorMatrixConstruct:fAnchor0StepValue <- undef
	@DEBUG_VALUE: AnchorMatrixConstruct:fStartAnchorValue <- 5.000000e-01
	vseleq.f32	s24, s16, s0
.Ltmp17:
	@DEBUG_VALUE: AnchorMatrixConstruct:fAnchor0StepValue <- $s24
	.loc	2 1509 21 is_stmt 1             @ AppData\Local\Keil_v5\ARM\ARMCLANG\bin\..\include\libcxx\vector:1509:21
	ldr	r0, [r7, #8]
.Ltmp18:
	.loc	1 44 36                         @ ../YOLOv8nODPostProcessing.cpp:44:36
	vadd.f32	s28, s24, s22
.Ltmp19:
	@DEBUG_VALUE: sAnchorBox <- [DW_OP_LLVM_fragment 0 32] $s28
	.loc	1 45 36                         @ ../YOLOv8nODPostProcessing.cpp:45:36
	vadd.f32	s26, s18, s22
.Ltmp20:
	@DEBUG_VALUE: push_back:__end <- $r10
	@DEBUG_VALUE: push_back:__x <- undef
	@DEBUG_VALUE: push_back:this <- [DW_OP_plus_uconst 4] [$sp+0]
	@DEBUG_VALUE: sAnchorBox <- [DW_OP_LLVM_fragment 32 32] $s26
	.loc	2 1509 7                        @ AppData\Local\Keil_v5\ARM\ARMCLANG\bin\..\include\libcxx\vector:1509:7
	cmp	r10, r0
	blo	.LBB0_2
.Ltmp21:
@ %bb.5:                                @   in Loop: Header=BB0_4 Depth=1
	@DEBUG_VALUE: sAnchorBox <- [DW_OP_LLVM_fragment 32 32] $s26
	@DEBUG_VALUE: push_back:this <- [DW_OP_plus_uconst 4] [$sp+0]
	@DEBUG_VALUE: push_back:__end <- $r10
	@DEBUG_VALUE: sAnchorBox <- [DW_OP_LLVM_fragment 0 32] $s28
	@DEBUG_VALUE: AnchorMatrixConstruct:fAnchor0StepValue <- $s24
	@DEBUG_VALUE: i <- $r4
	@DEBUG_VALUE: AnchorMatrixConstruct:fAnchor1StepValue <- $s18
	@DEBUG_VALUE: AnchorMatrixConstruct:iMaxAnchorValue <- [$sp+0]
	@DEBUG_VALUE: AnchorMatrixConstruct:i32Stride <- [DW_OP_LLVM_entry_value 1] $r1
	@DEBUG_VALUE: AnchorMatrixConstruct:fStartAnchorValue <- 5.000000e-01
	@DEBUG_VALUE: ~__split_buffer:this <- undef
	@DEBUG_VALUE: __swap_out_circular_buffer:__v <- undef
	@DEBUG_VALUE: __split_buffer:this <- undef
	@DEBUG_VALUE: __push_back_slow_path<const arm::app::yolov8n_od::AnchorBox &>:this <- [DW_OP_plus_uconst 4] [$sp+0]
	@DEBUG_VALUE: __push_back_slow_path<const arm::app::yolov8n_od::AnchorBox &>:__x <- undef
	@DEBUG_VALUE: __push_back_slow_path<const arm::app::yolov8n_od::AnchorBox &>:__a <- [DW_OP_plus_uconst 4, DW_OP_deref_size 4, DW_OP_plus_uconst 8, DW_OP_stack_value] $sp
	@DEBUG_VALUE: size:this <- [DW_OP_plus_uconst 4] [$sp+0]
	.loc	2 634 56                        @ AppData\Local\Keil_v5\ARM\ARMCLANG\bin\..\include\libcxx\vector:634:56
	ldr	r6, [r7]
.Ltmp22:
	.loc	2 1497 70                       @ AppData\Local\Keil_v5\ARM\ARMCLANG\bin\..\include\libcxx\vector:1497:70
	movs	r1, #1
.Ltmp23:
	.loc	2 634 48                        @ AppData\Local\Keil_v5\ARM\ARMCLANG\bin\..\include\libcxx\vector:634:48
	sub.w	r8, r10, r6
.Ltmp24:
	.loc	2 1497 70                       @ AppData\Local\Keil_v5\ARM\ARMCLANG\bin\..\include\libcxx\vector:1497:70
	add.w	r5, r1, r8, asr #3
.Ltmp25:
	@DEBUG_VALUE: __recommend:__ms <- 536870911
	@DEBUG_VALUE: __recommend:this <- [DW_OP_plus_uconst 4] [$sp+0]
	@DEBUG_VALUE: __recommend:__new_size <- $r5
	.loc	2 1114 7                        @ AppData\Local\Keil_v5\ARM\ARMCLANG\bin\..\include\libcxx\vector:1114:7
	cmp.w	r5, #536870912
	bhs	.LBB0_14
.Ltmp26:
@ %bb.6:                                @   in Loop: Header=BB0_4 Depth=1
	@DEBUG_VALUE: __recommend:__new_size <- $r5
	@DEBUG_VALUE: __recommend:this <- [DW_OP_plus_uconst 4] [$sp+0]
	@DEBUG_VALUE: __recommend:__ms <- 536870911
	@DEBUG_VALUE: __push_back_slow_path<const arm::app::yolov8n_od::AnchorBox &>:__a <- [DW_OP_plus_uconst 4, DW_OP_deref_size 4, DW_OP_plus_uconst 8, DW_OP_stack_value] $sp
	@DEBUG_VALUE: __push_back_slow_path<const arm::app::yolov8n_od::AnchorBox &>:this <- [DW_OP_plus_uconst 4] [$sp+0]
	@DEBUG_VALUE: sAnchorBox <- [DW_OP_LLVM_fragment 32 32] $s26
	@DEBUG_VALUE: push_back:this <- [DW_OP_plus_uconst 4] [$sp+0]
	@DEBUG_VALUE: push_back:__end <- $r10
	@DEBUG_VALUE: sAnchorBox <- [DW_OP_LLVM_fragment 0 32] $s28
	@DEBUG_VALUE: AnchorMatrixConstruct:fAnchor0StepValue <- $s24
	@DEBUG_VALUE: i <- $r4
	@DEBUG_VALUE: AnchorMatrixConstruct:fAnchor1StepValue <- $s18
	@DEBUG_VALUE: AnchorMatrixConstruct:iMaxAnchorValue <- [$sp+0]
	@DEBUG_VALUE: AnchorMatrixConstruct:i32Stride <- [DW_OP_LLVM_entry_value 1] $r1
	@DEBUG_VALUE: AnchorMatrixConstruct:fStartAnchorValue <- 5.000000e-01
	@DEBUG_VALUE: capacity:this <- [DW_OP_plus_uconst 4] [$sp+0]
	.loc	2 637 47                        @ AppData\Local\Keil_v5\ARM\ARMCLANG\bin\..\include\libcxx\vector:637:47
	sub.w	r9, r0, r6
.Ltmp27:
	@DEBUG_VALUE: __recommend:__cap <- [DW_OP_constu 3, DW_OP_shra, DW_OP_stack_value] $r9
	.loc	2 1117 7                        @ AppData\Local\Keil_v5\ARM\ARMCLANG\bin\..\include\libcxx\vector:1117:7
	movw	r0, #65528
	cmp.w	r5, r9, asr #2
	movt	r0, #32767
	it	lo
	asrlo.w	r5, r9, #2
.Ltmp28:
	cmp	r9, r0
	it	hs
	mvnhs	r5, #-536870912
.Ltmp29:
	@DEBUG_VALUE: __push_back_slow_path<const arm::app::yolov8n_od::AnchorBox &>:__v <- [DW_OP_plus_uconst 4, DW_OP_deref_size 4, DW_OP_plus_uconst 8, DW_OP_stack_value, DW_OP_LLVM_fragment 128 32] $sp
	@DEBUG_VALUE: __push_back_slow_path<const arm::app::yolov8n_od::AnchorBox &>:__v <- [DW_OP_LLVM_fragment 96 32] 0
	@DEBUG_VALUE: __split_buffer:__a <- [DW_OP_plus_uconst 4, DW_OP_deref_size 4, DW_OP_plus_uconst 8, DW_OP_stack_value] $sp
	@DEBUG_VALUE: __split_buffer:__start <- undef
	@DEBUG_VALUE: size:this <- [DW_OP_plus_uconst 4] [$sp+0]
	@DEBUG_VALUE: __split_buffer:__cap <- $r5
	@DEBUG_VALUE: __split_buffer:this <- undef
	.loc	18 350 7                        @ AppData\Local\Keil_v5\ARM\ARMCLANG\bin\..\include\libcxx\__split_buffer:350:7
	cbz	r5, .LBB0_9
.Ltmp30:
@ %bb.7:                                @   in Loop: Header=BB0_4 Depth=1
	@DEBUG_VALUE: __split_buffer:__cap <- $r5
	@DEBUG_VALUE: __split_buffer:__a <- [DW_OP_plus_uconst 4, DW_OP_deref_size 4, DW_OP_plus_uconst 8, DW_OP_stack_value] $sp
	@DEBUG_VALUE: __push_back_slow_path<const arm::app::yolov8n_od::AnchorBox &>:__v <- [DW_OP_LLVM_fragment 96 32] 0
	@DEBUG_VALUE: __push_back_slow_path<const arm::app::yolov8n_od::AnchorBox &>:__v <- [DW_OP_plus_uconst 4, DW_OP_deref_size 4, DW_OP_plus_uconst 8, DW_OP_stack_value, DW_OP_LLVM_fragment 128 32] $sp
	@DEBUG_VALUE: __push_back_slow_path<const arm::app::yolov8n_od::AnchorBox &>:__a <- [DW_OP_plus_uconst 4, DW_OP_deref_size 4, DW_OP_plus_uconst 8, DW_OP_stack_value] $sp
	@DEBUG_VALUE: __push_back_slow_path<const arm::app::yolov8n_od::AnchorBox &>:this <- [DW_OP_plus_uconst 4] [$sp+0]
	@DEBUG_VALUE: sAnchorBox <- [DW_OP_LLVM_fragment 32 32] $s26
	@DEBUG_VALUE: push_back:this <- [DW_OP_plus_uconst 4] [$sp+0]
	@DEBUG_VALUE: push_back:__end <- $r10
	@DEBUG_VALUE: sAnchorBox <- [DW_OP_LLVM_fragment 0 32] $s28
	@DEBUG_VALUE: AnchorMatrixConstruct:fAnchor0StepValue <- $s24
	@DEBUG_VALUE: i <- $r4
	@DEBUG_VALUE: AnchorMatrixConstruct:fAnchor1StepValue <- $s18
	@DEBUG_VALUE: AnchorMatrixConstruct:iMaxAnchorValue <- [$sp+0]
	@DEBUG_VALUE: AnchorMatrixConstruct:i32Stride <- [DW_OP_LLVM_entry_value 1] $r1
	@DEBUG_VALUE: AnchorMatrixConstruct:fStartAnchorValue <- 5.000000e-01
	@DEBUG_VALUE: __allocate_at_least<std::__2::allocator<arm::app::yolov8n_od::AnchorBox> >:__alloc <- undef
	@DEBUG_VALUE: __allocate_at_least<std::__2::allocator<arm::app::yolov8n_od::AnchorBox> >:__n <- $r5
	@DEBUG_VALUE: allocate:this <- undef
	@DEBUG_VALUE: allocate:__n <- $r5
	.loc	13 98 9                         @ AppData\Local\Keil_v5\ARM\ARMCLANG\bin\..\include\libcxx\__memory\allocator.h:98:9
	cmp.w	r5, #536870912
	bhs	.LBB0_15
.Ltmp31:
@ %bb.8:                                @   in Loop: Header=BB0_4 Depth=1
	@DEBUG_VALUE: allocate:__n <- $r5
	@DEBUG_VALUE: __allocate_at_least<std::__2::allocator<arm::app::yolov8n_od::AnchorBox> >:__n <- $r5
	@DEBUG_VALUE: __split_buffer:__cap <- $r5
	@DEBUG_VALUE: __split_buffer:__a <- [DW_OP_plus_uconst 4, DW_OP_deref_size 4, DW_OP_plus_uconst 8, DW_OP_stack_value] $sp
	@DEBUG_VALUE: __push_back_slow_path<const arm::app::yolov8n_od::AnchorBox &>:__v <- [DW_OP_LLVM_fragment 96 32] 0
	@DEBUG_VALUE: __push_back_slow_path<const arm::app::yolov8n_od::AnchorBox &>:__v <- [DW_OP_plus_uconst 4, DW_OP_deref_size 4, DW_OP_plus_uconst 8, DW_OP_stack_value, DW_OP_LLVM_fragment 128 32] $sp
	@DEBUG_VALUE: __push_back_slow_path<const arm::app::yolov8n_od::AnchorBox &>:__a <- [DW_OP_plus_uconst 4, DW_OP_deref_size 4, DW_OP_plus_uconst 8, DW_OP_stack_value] $sp
	@DEBUG_VALUE: __push_back_slow_path<const arm::app::yolov8n_od::AnchorBox &>:this <- [DW_OP_plus_uconst 4] [$sp+0]
	@DEBUG_VALUE: sAnchorBox <- [DW_OP_LLVM_fragment 32 32] $s26
	@DEBUG_VALUE: push_back:this <- [DW_OP_plus_uconst 4] [$sp+0]
	@DEBUG_VALUE: push_back:__end <- $r10
	@DEBUG_VALUE: sAnchorBox <- [DW_OP_LLVM_fragment 0 32] $s28
	@DEBUG_VALUE: AnchorMatrixConstruct:fAnchor0StepValue <- $s24
	@DEBUG_VALUE: i <- $r4
	@DEBUG_VALUE: AnchorMatrixConstruct:fAnchor1StepValue <- $s18
	@DEBUG_VALUE: AnchorMatrixConstruct:iMaxAnchorValue <- [$sp+0]
	@DEBUG_VALUE: AnchorMatrixConstruct:i32Stride <- [DW_OP_LLVM_entry_value 1] $r1
	@DEBUG_VALUE: AnchorMatrixConstruct:fStartAnchorValue <- 5.000000e-01
	.loc	13 103 59                       @ AppData\Local\Keil_v5\ARM\ARMCLANG\bin\..\include\libcxx\__memory\allocator.h:103:59
	lsls	r0, r5, #3
.Ltmp32:
	@DEBUG_VALUE: __libcpp_allocate:__align <- 4
	@DEBUG_VALUE: __libcpp_operator_new<unsigned int>:__args <- $r0
	@DEBUG_VALUE: __libcpp_allocate:__size <- $r0
	.loc	4 272 10                        @ AppData\Local\Keil_v5\ARM\ARMCLANG\bin\..\include\libcxx\new:272:10
	bl	_Znwj
.Ltmp33:
	mov	r7, r0
.Ltmp34:
	@DEBUG_VALUE: __allocation <- [DW_OP_LLVM_fragment 32 32] $r5
	@DEBUG_VALUE: __allocation <- [DW_OP_LLVM_fragment 0 32] $r7
	@DEBUG_VALUE: __split_buffer:__cap <- $r5
	.loc	4 0 10 is_stmt 0                @ AppData\Local\Keil_v5\ARM\ARMCLANG\bin\..\include\libcxx\new:0:10
	b	.LBB0_10
.Ltmp35:
.LBB0_9:                                @   in Loop: Header=BB0_4 Depth=1
	@DEBUG_VALUE: __split_buffer:__cap <- $r5
	@DEBUG_VALUE: size:this <- [DW_OP_plus_uconst 4] [$sp+0]
	@DEBUG_VALUE: __split_buffer:__a <- [DW_OP_plus_uconst 4, DW_OP_deref_size 4, DW_OP_plus_uconst 8, DW_OP_stack_value] $sp
	@DEBUG_VALUE: __push_back_slow_path<const arm::app::yolov8n_od::AnchorBox &>:__v <- [DW_OP_LLVM_fragment 96 32] 0
	@DEBUG_VALUE: __push_back_slow_path<const arm::app::yolov8n_od::AnchorBox &>:__v <- [DW_OP_plus_uconst 4, DW_OP_deref_size 4, DW_OP_plus_uconst 8, DW_OP_stack_value, DW_OP_LLVM_fragment 128 32] $sp
	@DEBUG_VALUE: __recommend:__cap <- [DW_OP_constu 3, DW_OP_shra, DW_OP_stack_value] $r9
	@DEBUG_VALUE: capacity:this <- [DW_OP_plus_uconst 4] [$sp+0]
	@DEBUG_VALUE: __recommend:this <- [DW_OP_plus_uconst 4] [$sp+0]
	@DEBUG_VALUE: __recommend:__ms <- 536870911
	@DEBUG_VALUE: __push_back_slow_path<const arm::app::yolov8n_od::AnchorBox &>:__a <- [DW_OP_plus_uconst 4, DW_OP_deref_size 4, DW_OP_plus_uconst 8, DW_OP_stack_value] $sp
	@DEBUG_VALUE: __push_back_slow_path<const arm::app::yolov8n_od::AnchorBox &>:this <- [DW_OP_plus_uconst 4] [$sp+0]
	@DEBUG_VALUE: sAnchorBox <- [DW_OP_LLVM_fragment 32 32] $s26
	@DEBUG_VALUE: push_back:this <- [DW_OP_plus_uconst 4] [$sp+0]
	@DEBUG_VALUE: push_back:__end <- $r10
	@DEBUG_VALUE: sAnchorBox <- [DW_OP_LLVM_fragment 0 32] $s28
	@DEBUG_VALUE: AnchorMatrixConstruct:fAnchor0StepValue <- $s24
	@DEBUG_VALUE: i <- $r4
	@DEBUG_VALUE: AnchorMatrixConstruct:fAnchor1StepValue <- $s18
	@DEBUG_VALUE: AnchorMatrixConstruct:iMaxAnchorValue <- [$sp+0]
	@DEBUG_VALUE: AnchorMatrixConstruct:i32Stride <- [DW_OP_LLVM_entry_value 1] $r1
	@DEBUG_VALUE: AnchorMatrixConstruct:fStartAnchorValue <- 5.000000e-01
	movs	r7, #0
.Ltmp36:
.LBB0_10:                               @   in Loop: Header=BB0_4 Depth=1
	@DEBUG_VALUE: __split_buffer:__cap <- $r5
	@DEBUG_VALUE: __split_buffer:__a <- [DW_OP_plus_uconst 4, DW_OP_deref_size 4, DW_OP_plus_uconst 8, DW_OP_stack_value] $sp
	@DEBUG_VALUE: __push_back_slow_path<const arm::app::yolov8n_od::AnchorBox &>:__v <- [DW_OP_LLVM_fragment 96 32] 0
	@DEBUG_VALUE: __push_back_slow_path<const arm::app::yolov8n_od::AnchorBox &>:__v <- [DW_OP_plus_uconst 4, DW_OP_deref_size 4, DW_OP_plus_uconst 8, DW_OP_stack_value, DW_OP_LLVM_fragment 128 32] $sp
	@DEBUG_VALUE: __push_back_slow_path<const arm::app::yolov8n_od::AnchorBox &>:__a <- [DW_OP_plus_uconst 4, DW_OP_deref_size 4, DW_OP_plus_uconst 8, DW_OP_stack_value] $sp
	@DEBUG_VALUE: __push_back_slow_path<const arm::app::yolov8n_od::AnchorBox &>:this <- [DW_OP_plus_uconst 4] [$sp+0]
	@DEBUG_VALUE: sAnchorBox <- [DW_OP_LLVM_fragment 32 32] $s26
	@DEBUG_VALUE: push_back:this <- [DW_OP_plus_uconst 4] [$sp+0]
	@DEBUG_VALUE: push_back:__end <- $r10
	@DEBUG_VALUE: sAnchorBox <- [DW_OP_LLVM_fragment 0 32] $s28
	@DEBUG_VALUE: AnchorMatrixConstruct:fAnchor0StepValue <- $s24
	@DEBUG_VALUE: i <- $r4
	@DEBUG_VALUE: AnchorMatrixConstruct:fAnchor1StepValue <- $s18
	@DEBUG_VALUE: AnchorMatrixConstruct:iMaxAnchorValue <- [$sp+0]
	@DEBUG_VALUE: AnchorMatrixConstruct:i32Stride <- [DW_OP_LLVM_entry_value 1] $r1
	@DEBUG_VALUE: AnchorMatrixConstruct:fStartAnchorValue <- 5.000000e-01
	asr.w	r0, r8, #3
.Ltmp37:
	@DEBUG_VALUE: __push_back_slow_path<const arm::app::yolov8n_od::AnchorBox &>:__v <- [DW_OP_LLVM_fragment 0 32] $r7
	@DEBUG_VALUE: __split_buffer:__start <- $r0
	@DEBUG_VALUE: __split_buffer:__cap <- $r5
	.file	33 "C:\\Users\\jimmy" "AppData\\Local\\Keil_v5\\ARM\\ARMCLANG\\bin\\..\\include\\libcxx\\__memory\\uninitialized_algorithms.h"
	.loc	33 641 5 is_stmt 1              @ AppData\Local\Keil_v5\ARM\ARMCLANG\bin\..\include\libcxx\__memory\uninitialized_algorithms.h:641:5
	mov	r1, r6
.Ltmp38:
	.loc	18 357 32                       @ AppData\Local\Keil_v5\ARM\ARMCLANG\bin\..\include\libcxx\__split_buffer:357:32
	add.w	r0, r7, r0, lsl #3
.Ltmp39:
	@DEBUG_VALUE: __push_back_slow_path<const arm::app::yolov8n_od::AnchorBox &>:__v <- [DW_OP_LLVM_fragment 32 32] $r0
	@DEBUG_VALUE: __push_back_slow_path<const arm::app::yolov8n_od::AnchorBox &>:__v <- [DW_OP_LLVM_fragment 64 32] $r0
	.loc	33 641 5                        @ AppData\Local\Keil_v5\ARM\ARMCLANG\bin\..\include\libcxx\__memory\uninitialized_algorithms.h:641:5
	mov	r2, r8
.Ltmp40:
	.loc	13 151 24                       @ AppData\Local\Keil_v5\ARM\ARMCLANG\bin\..\include\libcxx\__memory\allocator.h:151:24
	vstr	s28, [r0]
	vstr	s26, [r0, #4]
.Ltmp41:
	.loc	2 1500 13                       @ AppData\Local\Keil_v5\ARM\ARMCLANG\bin\..\include\libcxx\vector:1500:13
	add.w	r10, r0, #8
.Ltmp42:
	@DEBUG_VALUE: __uninitialized_allocator_relocate<std::__2::allocator<arm::app::yolov8n_od::AnchorBox>, arm::app::yolov8n_od::AnchorBox>:__result <- $r7
	@DEBUG_VALUE: __uninitialized_allocator_relocate<std::__2::allocator<arm::app::yolov8n_od::AnchorBox>, arm::app::yolov8n_od::AnchorBox>:__last <- $r10
	@DEBUG_VALUE: __uninitialized_allocator_relocate<std::__2::allocator<arm::app::yolov8n_od::AnchorBox>, arm::app::yolov8n_od::AnchorBox>:__first <- $r6
	@DEBUG_VALUE: __uninitialized_allocator_relocate<std::__2::allocator<arm::app::yolov8n_od::AnchorBox>, arm::app::yolov8n_od::AnchorBox>:__alloc <- [DW_OP_plus_uconst 4, DW_OP_deref_size 4, DW_OP_plus_uconst 8, DW_OP_stack_value] $sp
	@DEBUG_VALUE: __swap_out_circular_buffer:__new_begin <- $r7
	@DEBUG_VALUE: __swap_out_circular_buffer:this <- [DW_OP_plus_uconst 4] [$sp+0]
	@DEBUG_VALUE: __push_back_slow_path<const arm::app::yolov8n_od::AnchorBox &>:__v <- [DW_OP_LLVM_fragment 64 32] $r10
	@DEBUG_VALUE: __swap_out_circular_buffer:__v <- undef
	.loc	33 641 5                        @ AppData\Local\Keil_v5\ARM\ARMCLANG\bin\..\include\libcxx\__memory\uninitialized_algorithms.h:641:5
	mov	r0, r7
.Ltmp43:
	.loc	18 358 32                       @ AppData\Local\Keil_v5\ARM\ARMCLANG\bin\..\include\libcxx\__split_buffer:358:32
	add.w	r5, r7, r5, lsl #3
.Ltmp44:
	@DEBUG_VALUE: construct<arm::app::yolov8n_od::AnchorBox, const arm::app::yolov8n_od::AnchorBox &>:__args <- undef
	@DEBUG_VALUE: construct<arm::app::yolov8n_od::AnchorBox, const arm::app::yolov8n_od::AnchorBox &>:__p <- $r0
	@DEBUG_VALUE: construct<arm::app::yolov8n_od::AnchorBox, const arm::app::yolov8n_od::AnchorBox &>:this <- [DW_OP_plus_uconst 4, DW_OP_deref_size 4, DW_OP_plus_uconst 8, DW_OP_stack_value] $sp
	@DEBUG_VALUE: construct<arm::app::yolov8n_od::AnchorBox, const arm::app::yolov8n_od::AnchorBox &, 0>:__args <- undef
	@DEBUG_VALUE: construct<arm::app::yolov8n_od::AnchorBox, const arm::app::yolov8n_od::AnchorBox &, 0>:__p <- $r0
	@DEBUG_VALUE: construct<arm::app::yolov8n_od::AnchorBox, const arm::app::yolov8n_od::AnchorBox &, 0>:__a <- [DW_OP_plus_uconst 4, DW_OP_deref_size 4, DW_OP_plus_uconst 8, DW_OP_stack_value] $sp
	@DEBUG_VALUE: __push_back_slow_path<const arm::app::yolov8n_od::AnchorBox &>:__v <- [DW_OP_LLVM_fragment 96 32] $r5
	.loc	33 641 5                        @ AppData\Local\Keil_v5\ARM\ARMCLANG\bin\..\include\libcxx\__memory\uninitialized_algorithms.h:641:5
	bl	__aeabi_memcpy4
.Ltmp45:
	@DEBUG_VALUE: swap<arm::app::yolov8n_od::AnchorBox *>:__t <- undef
	@DEBUG_VALUE: swap<arm::app::yolov8n_od::AnchorBox *>:__y <- undef
	@DEBUG_VALUE: swap<arm::app::yolov8n_od::AnchorBox *>:__y <- undef
	@DEBUG_VALUE: swap<arm::app::yolov8n_od::AnchorBox *>:__y <- undef
	@DEBUG_VALUE: __push_back_slow_path<const arm::app::yolov8n_od::AnchorBox &>:__v <- [DW_OP_LLVM_fragment 32 32] $r6
	@DEBUG_VALUE: __push_back_slow_path<const arm::app::yolov8n_od::AnchorBox &>:__v <- [DW_OP_LLVM_fragment 64 32] $r6
	@DEBUG_VALUE: __push_back_slow_path<const arm::app::yolov8n_od::AnchorBox &>:__v <- [DW_OP_LLVM_fragment 0 32] $r6
	@DEBUG_VALUE: __push_back_slow_path<const arm::app::yolov8n_od::AnchorBox &>:__v <- [DW_OP_LLVM_fragment 96 32] undef
	@DEBUG_VALUE: ~__split_buffer:this <- undef
	.loc	33 0 5 is_stmt 0                @ AppData\Local\Keil_v5\ARM\ARMCLANG\bin\..\include\libcxx\__memory\uninitialized_algorithms.h:0:5
	ldr	r0, [sp, #4]                    @ 4-byte Reload
.Ltmp46:
	@DEBUG_VALUE: swap<arm::app::yolov8n_od::AnchorBox *>:__t <- $r6
	@DEBUG_VALUE: swap<arm::app::yolov8n_od::AnchorBox *>:__x <- [DW_OP_plus_uconst 4] [$sp+0]
	@DEBUG_VALUE: swap<arm::app::yolov8n_od::AnchorBox *>:__x <- [DW_OP_plus_uconst 4, DW_OP_deref_size 4, DW_OP_plus_uconst 8, DW_OP_stack_value] $sp
	.file	34 "C:\\Users\\jimmy" "AppData\\Local\\Keil_v5\\ARM\\ARMCLANG\\bin\\..\\include\\libcxx\\__utility\\swap.h"
	.loc	34 43 7 is_stmt 1               @ AppData\Local\Keil_v5\ARM\ARMCLANG\bin\..\include\libcxx\__utility\swap.h:43:7
	str	r7, [r0]
	mov	r7, r0
.Ltmp47:
	@DEBUG_VALUE: swap<arm::app::yolov8n_od::AnchorBox *>:__x <- [DW_OP_plus_uconst 4, DW_OP_deref_size 4, DW_OP_plus_uconst 4, DW_OP_stack_value] $sp
	@DEBUG_VALUE: swap<arm::app::yolov8n_od::AnchorBox *>:__t <- $r6
	.loc	34 43 7 is_stmt 0               @ AppData\Local\Keil_v5\ARM\ARMCLANG\bin\..\include\libcxx\__utility\swap.h:43:7
	str.w	r10, [r0, #4]
.Ltmp48:
	.loc	34 43 7                         @ AppData\Local\Keil_v5\ARM\ARMCLANG\bin\..\include\libcxx\__utility\swap.h:43:7
	str	r5, [r0, #8]
.Ltmp49:
	@DEBUG_VALUE: __swap_out_circular_buffer:this <- [DW_OP_plus_uconst 4] [$sp+0]
	.loc	18 364 7 is_stmt 1              @ AppData\Local\Keil_v5\ARM\ARMCLANG\bin\..\include\libcxx\__split_buffer:364:7
	cbz	r6, .LBB0_12
.Ltmp50:
@ %bb.11:                               @   in Loop: Header=BB0_4 Depth=1
	@DEBUG_VALUE: __push_back_slow_path<const arm::app::yolov8n_od::AnchorBox &>:__v <- [DW_OP_LLVM_fragment 0 32] $r6
	@DEBUG_VALUE: __push_back_slow_path<const arm::app::yolov8n_od::AnchorBox &>:__v <- [DW_OP_LLVM_fragment 64 32] $r6
	@DEBUG_VALUE: __push_back_slow_path<const arm::app::yolov8n_od::AnchorBox &>:__v <- [DW_OP_LLVM_fragment 32 32] $r6
	@DEBUG_VALUE: __push_back_slow_path<const arm::app::yolov8n_od::AnchorBox &>:__v <- [DW_OP_plus_uconst 4, DW_OP_deref_size 4, DW_OP_plus_uconst 8, DW_OP_stack_value, DW_OP_LLVM_fragment 128 32] $sp
	@DEBUG_VALUE: __push_back_slow_path<const arm::app::yolov8n_od::AnchorBox &>:__a <- [DW_OP_plus_uconst 4, DW_OP_deref_size 4, DW_OP_plus_uconst 8, DW_OP_stack_value] $sp
	@DEBUG_VALUE: __push_back_slow_path<const arm::app::yolov8n_od::AnchorBox &>:this <- [DW_OP_plus_uconst 4] [$sp+0]
	@DEBUG_VALUE: sAnchorBox <- [DW_OP_LLVM_fragment 32 32] $s26
	@DEBUG_VALUE: push_back:this <- [DW_OP_plus_uconst 4] [$sp+0]
	@DEBUG_VALUE: sAnchorBox <- [DW_OP_LLVM_fragment 0 32] $s28
	@DEBUG_VALUE: AnchorMatrixConstruct:fAnchor0StepValue <- $s24
	@DEBUG_VALUE: i <- $r4
	@DEBUG_VALUE: AnchorMatrixConstruct:fAnchor1StepValue <- $s18
	@DEBUG_VALUE: AnchorMatrixConstruct:iMaxAnchorValue <- [$sp+0]
	@DEBUG_VALUE: AnchorMatrixConstruct:i32Stride <- [DW_OP_LLVM_entry_value 1] $r1
	@DEBUG_VALUE: AnchorMatrixConstruct:fStartAnchorValue <- 5.000000e-01
	@DEBUG_VALUE: deallocate:__a <- undef
	@DEBUG_VALUE: deallocate:__p <- $r6
	@DEBUG_VALUE: deallocate:__n <- [DW_OP_constu 3, DW_OP_shra, DW_OP_stack_value] $r9
	@DEBUG_VALUE: deallocate:this <- undef
	@DEBUG_VALUE: deallocate:__p <- $r6
	@DEBUG_VALUE: deallocate:__n <- [DW_OP_constu 3, DW_OP_shra, DW_OP_stack_value] $r9
	@DEBUG_VALUE: __libcpp_deallocate:__ptr <- $r6
	@DEBUG_VALUE: __libcpp_deallocate:__size <- $r9
	@DEBUG_VALUE: __libcpp_deallocate:__align <- 4
	@DEBUG_VALUE: __do_deallocate_handle_size<>:__ptr <- $r6
	@DEBUG_VALUE: __do_deallocate_handle_size<>:__size <- $r9
	@DEBUG_VALUE: __libcpp_operator_delete<void *, unsigned int>:__args <- $r6
	@DEBUG_VALUE: __libcpp_operator_delete<void *, unsigned int>:__args <- $r9
	.loc	4 281 3                         @ AppData\Local\Keil_v5\ARM\ARMCLANG\bin\..\include\libcxx\new:281:3
	mov	r0, r6
	mov	r1, r9
	bl	_ZdlPvj
.Ltmp51:
.LBB0_12:                               @   in Loop: Header=BB0_4 Depth=1
	@DEBUG_VALUE: __push_back_slow_path<const arm::app::yolov8n_od::AnchorBox &>:__v <- [DW_OP_LLVM_fragment 0 32] $r6
	@DEBUG_VALUE: __push_back_slow_path<const arm::app::yolov8n_od::AnchorBox &>:__v <- [DW_OP_LLVM_fragment 64 32] $r6
	@DEBUG_VALUE: __push_back_slow_path<const arm::app::yolov8n_od::AnchorBox &>:__v <- [DW_OP_LLVM_fragment 32 32] $r6
	@DEBUG_VALUE: __push_back_slow_path<const arm::app::yolov8n_od::AnchorBox &>:__v <- [DW_OP_plus_uconst 4, DW_OP_deref_size 4, DW_OP_plus_uconst 8, DW_OP_stack_value, DW_OP_LLVM_fragment 128 32] $sp
	@DEBUG_VALUE: __push_back_slow_path<const arm::app::yolov8n_od::AnchorBox &>:__a <- [DW_OP_plus_uconst 4, DW_OP_deref_size 4, DW_OP_plus_uconst 8, DW_OP_stack_value] $sp
	@DEBUG_VALUE: __push_back_slow_path<const arm::app::yolov8n_od::AnchorBox &>:this <- [DW_OP_plus_uconst 4] [$sp+0]
	@DEBUG_VALUE: sAnchorBox <- [DW_OP_LLVM_fragment 32 32] $s26
	@DEBUG_VALUE: push_back:this <- [DW_OP_plus_uconst 4] [$sp+0]
	@DEBUG_VALUE: sAnchorBox <- [DW_OP_LLVM_fragment 0 32] $s28
	@DEBUG_VALUE: AnchorMatrixConstruct:fAnchor0StepValue <- $s24
	@DEBUG_VALUE: i <- $r4
	@DEBUG_VALUE: AnchorMatrixConstruct:fAnchor1StepValue <- $s18
	@DEBUG_VALUE: AnchorMatrixConstruct:iMaxAnchorValue <- [$sp+0]
	@DEBUG_VALUE: AnchorMatrixConstruct:i32Stride <- [DW_OP_LLVM_entry_value 1] $r1
	@DEBUG_VALUE: AnchorMatrixConstruct:fStartAnchorValue <- 5.000000e-01
	.loc	4 0 3 is_stmt 0                 @ AppData\Local\Keil_v5\ARM\ARMCLANG\bin\..\include\libcxx\new:0:3
	ldr	r1, [sp]                        @ 4-byte Reload
	b	.LBB0_3
.Ltmp52:
.LBB0_13:
	@DEBUG_VALUE: AnchorMatrixConstruct:fStartAnchorValue <- 5.000000e-01
	.loc	1 55 1 epilogue_begin is_stmt 1 @ ../YOLOv8nODPostProcessing.cpp:55:1
	add	sp, #8
	vpop	{d8, d9, d10, d11, d12, d13, d14}
	add	sp, #4
	pop.w	{r4, r5, r6, r7, r8, r9, r10, r11, pc}
.Ltmp53:
.LBB0_14:
	@DEBUG_VALUE: __recommend:__new_size <- $r5
	@DEBUG_VALUE: __recommend:this <- [DW_OP_plus_uconst 4] [$sp+0]
	@DEBUG_VALUE: __recommend:__ms <- 536870911
	@DEBUG_VALUE: __push_back_slow_path<const arm::app::yolov8n_od::AnchorBox &>:__a <- [DW_OP_plus_uconst 4, DW_OP_deref_size 4, DW_OP_plus_uconst 8, DW_OP_stack_value] $sp
	@DEBUG_VALUE: __push_back_slow_path<const arm::app::yolov8n_od::AnchorBox &>:this <- [DW_OP_plus_uconst 4] [$sp+0]
	@DEBUG_VALUE: sAnchorBox <- [DW_OP_LLVM_fragment 32 32] $s26
	@DEBUG_VALUE: push_back:this <- [DW_OP_plus_uconst 4] [$sp+0]
	@DEBUG_VALUE: push_back:__end <- $r10
	@DEBUG_VALUE: sAnchorBox <- [DW_OP_LLVM_fragment 0 32] $s28
	@DEBUG_VALUE: AnchorMatrixConstruct:fAnchor0StepValue <- $s24
	@DEBUG_VALUE: i <- $r4
	@DEBUG_VALUE: AnchorMatrixConstruct:fAnchor1StepValue <- $s18
	@DEBUG_VALUE: AnchorMatrixConstruct:iMaxAnchorValue <- [$sp+0]
	@DEBUG_VALUE: AnchorMatrixConstruct:i32Stride <- [DW_OP_LLVM_entry_value 1] $r1
	@DEBUG_VALUE: AnchorMatrixConstruct:fStartAnchorValue <- 5.000000e-01
	.loc	2 1115 11                       @ AppData\Local\Keil_v5\ARM\ARMCLANG\bin\..\include\libcxx\vector:1115:11
	mov	r0, r7
	bl	_ZNKSt3__26vectorIN3arm3app10yolov8n_od9AnchorBoxENS_9allocatorIS4_EEE20__throw_length_errorB8nn200000Ev
.Ltmp54:
.LBB0_15:
	@DEBUG_VALUE: allocate:__n <- $r5
	@DEBUG_VALUE: __allocate_at_least<std::__2::allocator<arm::app::yolov8n_od::AnchorBox> >:__n <- $r5
	@DEBUG_VALUE: __split_buffer:__cap <- $r5
	@DEBUG_VALUE: __split_buffer:__a <- [DW_OP_plus_uconst 4, DW_OP_deref_size 4, DW_OP_plus_uconst 8, DW_OP_stack_value] $sp
	@DEBUG_VALUE: __push_back_slow_path<const arm::app::yolov8n_od::AnchorBox &>:__v <- [DW_OP_LLVM_fragment 96 32] 0
	@DEBUG_VALUE: __push_back_slow_path<const arm::app::yolov8n_od::AnchorBox &>:__v <- [DW_OP_plus_uconst 4, DW_OP_deref_size 4, DW_OP_plus_uconst 8, DW_OP_stack_value, DW_OP_LLVM_fragment 128 32] $sp
	@DEBUG_VALUE: __push_back_slow_path<const arm::app::yolov8n_od::AnchorBox &>:__a <- [DW_OP_plus_uconst 4, DW_OP_deref_size 4, DW_OP_plus_uconst 8, DW_OP_stack_value] $sp
	@DEBUG_VALUE: __push_back_slow_path<const arm::app::yolov8n_od::AnchorBox &>:this <- [DW_OP_plus_uconst 4] [$sp+0]
	@DEBUG_VALUE: sAnchorBox <- [DW_OP_LLVM_fragment 32 32] $s26
	@DEBUG_VALUE: push_back:this <- [DW_OP_plus_uconst 4] [$sp+0]
	@DEBUG_VALUE: push_back:__end <- $r10
	@DEBUG_VALUE: sAnchorBox <- [DW_OP_LLVM_fragment 0 32] $s28
	@DEBUG_VALUE: AnchorMatrixConstruct:fAnchor0StepValue <- $s24
	@DEBUG_VALUE: i <- $r4
	@DEBUG_VALUE: AnchorMatrixConstruct:fAnchor1StepValue <- $s18
	@DEBUG_VALUE: AnchorMatrixConstruct:iMaxAnchorValue <- [$sp+0]
	@DEBUG_VALUE: AnchorMatrixConstruct:i32Stride <- [DW_OP_LLVM_entry_value 1] $r1
	@DEBUG_VALUE: AnchorMatrixConstruct:fStartAnchorValue <- 5.000000e-01
	.loc	13 99 7                         @ AppData\Local\Keil_v5\ARM\ARMCLANG\bin\..\include\libcxx\__memory\allocator.h:99:7
	bl	_ZSt28__throw_bad_array_new_lengthB8nn200000v
.Ltmp55:
	.loc	13 0 7 is_stmt 0                @ :0:7
.Ltmp56:
	.p2align	2
@ %bb.16:
.LCPI0_0:
	.long	0x00000000                      @ float 0
.Lfunc_end0:
	.size	_Z21AnchorMatrixConstructRNSt3__26vectorIN3arm3app10yolov8n_od9AnchorBoxENS_9allocatorIS4_EEEEii, .Lfunc_end0-_Z21AnchorMatrixConstructRNSt3__26vectorIN3arm3app10yolov8n_od9AnchorBoxENS_9allocatorIS4_EEEEii
	.cfi_endproc
	.file	35 "C:\\Users\\jimmy" "AppData\\Local\\Keil_v5\\ARM\\ARMCLANG\\bin\\..\\include\\libcxx\\__memory\\allocate_at_least.h"
	.file	36 "C:\\Users\\jimmy" "AppData\\Local\\Keil_v5\\ARM\\ARMCLANG\\bin\\..\\include\\libcxx\\__type_traits\\enable_if.h"
	.cantunwind
	.fnend
                                        @ -- End function
	.section	.text._Z10CalBoxXYWHP12TfLiteTensorRNSt3__26vectorIN3arm3app10yolov8n_od9AnchorBoxENS1_9allocatorIS6_EEEEiiiRNS5_9DetectionE,"ax",%progbits
	.hidden	_Z10CalBoxXYWHP12TfLiteTensorRNSt3__26vectorIN3arm3app10yolov8n_od9AnchorBoxENS1_9allocatorIS6_EEEEiiiRNS5_9DetectionE @ -- Begin function _Z10CalBoxXYWHP12TfLiteTensorRNSt3__26vectorIN3arm3app10yolov8n_od9AnchorBoxENS1_9allocatorIS6_EEEEiiiRNS5_9DetectionE
	.globl	_Z10CalBoxXYWHP12TfLiteTensorRNSt3__26vectorIN3arm3app10yolov8n_od9AnchorBoxENS1_9allocatorIS6_EEEEiiiRNS5_9DetectionE
	.p2align	2
	.type	_Z10CalBoxXYWHP12TfLiteTensorRNSt3__26vectorIN3arm3app10yolov8n_od9AnchorBoxENS1_9allocatorIS6_EEEEiiiRNS5_9DetectionE,%function
	.code	16                              @ @_Z10CalBoxXYWHP12TfLiteTensorRNSt3__26vectorIN3arm3app10yolov8n_od9AnchorBoxENS1_9allocatorIS6_EEEEiiiRNS5_9DetectionE
	.thumb_func
_Z10CalBoxXYWHP12TfLiteTensorRNSt3__26vectorIN3arm3app10yolov8n_od9AnchorBoxENS1_9allocatorIS6_EEEEiiiRNS5_9DetectionE:
.Lfunc_begin1:
	.loc	1 65 0 is_stmt 1                @ ../YOLOv8nODPostProcessing.cpp:65:0
	.fnstart
	.cfi_startproc
@ %bb.0:
	@DEBUG_VALUE: CalBoxXYWH:psBoxOutputTensor <- $r0
	@DEBUG_VALUE: CalBoxXYWH:vAnchorBoxs <- $r1
	@DEBUG_VALUE: CalBoxXYWH:i32AnchorIndex <- $r2
	@DEBUG_VALUE: CalBoxXYWH:i32Stride <- $r3
	.save	{r4, r5, r6, r7, r8, r9, r10, r11, lr}
	push.w	{r4, r5, r6, r7, r8, r9, r10, r11, lr}
	.cfi_def_cfa_offset 36
	.cfi_offset lr, -4
	.cfi_offset r11, -8
	.cfi_offset r10, -12
	.cfi_offset r9, -16
	.cfi_offset r8, -20
	.cfi_offset r7, -24
	.cfi_offset r6, -28
	.cfi_offset r5, -32
	.cfi_offset r4, -36
	.pad	#4
	sub	sp, #4
	.cfi_def_cfa_offset 40
	.vsave	{d8, d9, d10, d11, d12, d13, d14, d15}
	vpush	{d8, d9, d10, d11, d12, d13, d14, d15}
	.cfi_def_cfa_offset 104
	.cfi_offset d15, -48
	.cfi_offset d14, -56
	.cfi_offset d13, -64
	.cfi_offset d12, -72
	.cfi_offset d11, -80
	.cfi_offset d10, -88
	.cfi_offset d9, -96
	.cfi_offset d8, -104
	.pad	#32
	sub	sp, #32
	.cfi_def_cfa_offset 136
.Ltmp57:
	@DEBUG_VALUE: CalBoxXYWH:i32StrideTotalAnchors <- [DW_OP_plus_uconst 136] [$sp+0]
	@DEBUG_VALUE: CalBoxXYWH:sDetection <- [DW_OP_plus_uconst 140] [$sp+0]
	.loc	1 77 31 prologue_end            @ ../YOLOv8nODPostProcessing.cpp:77:31
	ldr	r7, [r0, #20]
.Ltmp58:
	@DEBUG_VALUE: CalBoxXYWH:zeroPointBox <- undef
	@DEBUG_VALUE: CalBoxXYWH:scaleBox <- undef
	.loc	1 0 31 is_stmt 0                @ ../YOLOv8nODPostProcessing.cpp:0:31
	ldr	r6, [sp, #136]
.Ltmp59:
	@DEBUG_VALUE: CalBoxXYWH:tensorOutputBox <- undef
	@DEBUG_VALUE: XYWHSoftmaxTemp <- [DW_OP_plus_uconst 4, DW_OP_deref] $sp
	@DEBUG_VALUE: CalBoxXYWH:XYWHResult <- [DW_OP_plus_uconst 16, DW_OP_deref] $sp
	.loc	1 77 12                         @ ../YOLOv8nODPostProcessing.cpp:77:12
	ldr	r5, [r7, #8]
.Ltmp60:
	@DEBUG_VALUE: CalBoxXYWH:anchors <- $r5
	.loc	1 80 5 is_stmt 1                @ ../YOLOv8nODPostProcessing.cpp:80:5
	cmp	r5, r6
	bne.w	.LBB1_5
.Ltmp61:
@ %bb.1:
	@DEBUG_VALUE: CalBoxXYWH:anchors <- $r5
	@DEBUG_VALUE: CalBoxXYWH:XYWHResult <- [DW_OP_plus_uconst 16, DW_OP_deref] $sp
	@DEBUG_VALUE: CalBoxXYWH:sDetection <- [DW_OP_plus_uconst 140] [$sp+0]
	@DEBUG_VALUE: CalBoxXYWH:i32StrideTotalAnchors <- [DW_OP_plus_uconst 136] [$sp+0]
	@DEBUG_VALUE: CalBoxXYWH:i32Stride <- $r3
	@DEBUG_VALUE: CalBoxXYWH:i32AnchorIndex <- $r2
	@DEBUG_VALUE: CalBoxXYWH:vAnchorBoxs <- $r1
	@DEBUG_VALUE: CalBoxXYWH:psBoxOutputTensor <- $r0
	@DEBUG_VALUE: CalBoxXYWH:scaleBox <- undef
	@DEBUG_VALUE: CalBoxXYWH:zeroPointBox <- undef
	@DEBUG_VALUE: CalBoxXYWH:tensorOutputBox <- undef
	.loc	1 78 16                         @ ../YOLOv8nODPostProcessing.cpp:78:16
	ldr	r7, [r7, #12]
.Ltmp62:
	@DEBUG_VALUE: CalBoxXYWH:boxDataSize <- $r7
	.loc	1 87 5                          @ ../YOLOv8nODPostProcessing.cpp:87:5
	cmp	r7, #64
	bne.w	.LBB1_5
.Ltmp63:
@ %bb.2:
	@DEBUG_VALUE: CalBoxXYWH:boxDataSize <- $r7
	@DEBUG_VALUE: CalBoxXYWH:anchors <- $r5
	@DEBUG_VALUE: CalBoxXYWH:XYWHResult <- [DW_OP_plus_uconst 16, DW_OP_deref] $sp
	@DEBUG_VALUE: CalBoxXYWH:sDetection <- [DW_OP_plus_uconst 140] [$sp+0]
	@DEBUG_VALUE: CalBoxXYWH:i32StrideTotalAnchors <- [DW_OP_plus_uconst 136] [$sp+0]
	@DEBUG_VALUE: CalBoxXYWH:i32Stride <- $r3
	@DEBUG_VALUE: CalBoxXYWH:i32AnchorIndex <- $r2
	@DEBUG_VALUE: CalBoxXYWH:vAnchorBoxs <- $r1
	@DEBUG_VALUE: CalBoxXYWH:psBoxOutputTensor <- $r0
	.loc	1 0 5 is_stmt 0                 @ ../YOLOv8nODPostProcessing.cpp:0:5
	mov	r9, r1
.Ltmp64:
	@DEBUG_VALUE: CalBoxXYWH:vAnchorBoxs <- $r9
	ldr	r1, [r0, #4]
	mov	r8, r3
.Ltmp65:
	@DEBUG_VALUE: CalBoxXYWH:i32Stride <- $r8
	ldr	r0, [r0, #16]
.Ltmp66:
	@DEBUG_VALUE: CalBoxXYWH:psBoxOutputTensor <- [DW_OP_LLVM_entry_value 1] $r0
	@DEBUG_VALUE: CalBoxXYWH:tensorOutputBox <- $r0
	ldrd	r1, r3, [r1]
	mov	r10, r2
	.loc	1 93 36 is_stmt 1               @ ../YOLOv8nODPostProcessing.cpp:93:36
	add.w	r0, r0, r2, lsl #6
.Ltmp67:
	@DEBUG_VALUE: k <- 0
	@DEBUG_VALUE: CalBoxXYWH:tensorOutputBox <- $r0
	.loc	1 0 0 is_stmt 0                 @ ../YOLOv8nODPostProcessing.cpp:0:0
	vldr	s16, [r1, #4]
.Ltmp68:
	@DEBUG_VALUE: CalBoxXYWH:scaleBox <- $s16
	ldr.w	r11, [sp, #140]
	adds	r7, r0, #7
.Ltmp69:
	ldr	r1, [r3, #4]
.Ltmp70:
	@DEBUG_VALUE: CalBoxXYWH:zeroPointBox <- $r1
	movs	r6, #4
	add	r5, sp, #16
.Ltmp71:
	add	r4, sp, #4
	vmov	s0, r1
.Ltmp72:
	@DEBUG_VALUE: CalBoxXYWH:zeroPointBox <- $s0
	vmov.f32	s20, #2.000000e+00
	vcvt.f32.s32	s18, s0
	vmov.f32	s22, #3.000000e+00
	vmov.f32	s24, #4.000000e+00
	vmov.f32	s26, #5.000000e+00
	vmov.f32	s28, #6.000000e+00
	vmov.f32	s30, #7.000000e+00
	vmov.f32	s17, #8.000000e+00
	vmov.f32	s19, #9.000000e+00
	vmov.f32	s21, #1.000000e+01
	vmov.f32	s23, #1.100000e+01
	vmov.f32	s25, #1.200000e+01
	vmov.f32	s27, #1.300000e+01
	vmov.f32	s29, #1.400000e+01
	vmov.f32	s31, #1.500000e+01
.Ltmp73:
	.p2align	2
.LBB1_3:                                @ =>This Inner Loop Header: Depth=1
	@DEBUG_VALUE: CalBoxXYWH:scaleBox <- $s16
	@DEBUG_VALUE: CalBoxXYWH:i32Stride <- $r8
	@DEBUG_VALUE: CalBoxXYWH:vAnchorBoxs <- $r9
	@DEBUG_VALUE: CalBoxXYWH:psBoxOutputTensor <- [DW_OP_LLVM_entry_value 1] $r0
	@DEBUG_VALUE: CalBoxXYWH:XYWHResult <- [DW_OP_plus_uconst 16, DW_OP_deref] $sp
	@DEBUG_VALUE: CalBoxXYWH:sDetection <- [DW_OP_plus_uconst 140] [$sp+0]
	@DEBUG_VALUE: CalBoxXYWH:i32StrideTotalAnchors <- [DW_OP_plus_uconst 136] [$sp+0]
	@DEBUG_VALUE: k <- [DW_OP_consts 4, DW_OP_minus, DW_OP_consts 18446744073709551615, DW_OP_div, DW_OP_stack_value] $r6
	@DEBUG_VALUE: vector:this <- [DW_OP_plus_uconst 4, DW_OP_stack_value] $sp
	@DEBUG_VALUE: vector:__n <- 16
	@DEBUG_VALUE: XYWHSoftmaxTemp <- [DW_OP_LLVM_fragment 0 32] 0
	@DEBUG_VALUE: XYWHSoftmaxTemp <- [DW_OP_LLVM_fragment 32 32] 0
	@DEBUG_VALUE: __compressed_pair<std::nullptr_t, std::__2::__default_init_tag>:this <- [DW_OP_plus_uconst 4, DW_OP_plus_uconst 8, DW_OP_stack_value] $sp
	@DEBUG_VALUE: __compressed_pair<std::nullptr_t, std::__2::__default_init_tag>:__t1 <- undef
	@DEBUG_VALUE: __compressed_pair<std::nullptr_t, std::__2::__default_init_tag>:__t2 <- undef
	@DEBUG_VALUE: __compressed_pair_elem<std::nullptr_t, 0>:this <- [DW_OP_plus_uconst 4, DW_OP_plus_uconst 8, DW_OP_stack_value] $sp
	@DEBUG_VALUE: __compressed_pair_elem<std::nullptr_t, 0>:__u <- undef
	@DEBUG_VALUE: XYWHSoftmaxTemp <- [DW_OP_LLVM_fragment 64 32] 0
	@DEBUG_VALUE: __guard <- 0
	@DEBUG_VALUE: __vallocate:this <- [DW_OP_plus_uconst 4, DW_OP_stack_value] $sp
	@DEBUG_VALUE: __vallocate:__n <- 16
	@DEBUG_VALUE: __allocate_at_least<std::__2::allocator<float> >:__alloc <- [DW_OP_plus_uconst 4, DW_OP_plus_uconst 8, DW_OP_stack_value] $sp
	@DEBUG_VALUE: __allocate_at_least<std::__2::allocator<float> >:__n <- 16
	@DEBUG_VALUE: allocate:this <- [DW_OP_plus_uconst 4, DW_OP_plus_uconst 8, DW_OP_stack_value] $sp
	@DEBUG_VALUE: allocate:__n <- 16
	@DEBUG_VALUE: __libcpp_allocate:__size <- 64
	@DEBUG_VALUE: __libcpp_allocate:__align <- 4
	@DEBUG_VALUE: __libcpp_operator_new<unsigned int>:__args <- 64
	.loc	4 272 10 is_stmt 1              @ AppData\Local\Keil_v5\ARM\ARMCLANG\bin\..\include\libcxx\new:272:10
	movs	r0, #64
	bl	_Znwj
.Ltmp74:
	@DEBUG_VALUE: CalBoxXYWH:i32AnchorIndex <- [DW_OP_LLVM_entry_value 1] $r2
	@DEBUG_VALUE: __vallocate:__allocation <- [DW_OP_LLVM_fragment 32 32] 16
	@DEBUG_VALUE: __vallocate:__allocation <- [DW_OP_LLVM_fragment 0 32] $r0
	.loc	2 783 34                        @ AppData\Local\Keil_v5\ARM\ARMCLANG\bin\..\include\libcxx\vector:783:34
	add.w	r1, r0, #64
.Ltmp75:
	@DEBUG_VALUE: __pos <- undef
	@DEBUG_VALUE: construct<float>:__p <- undef
	@DEBUG_VALUE: construct<float>:this <- [DW_OP_plus_uconst 4, DW_OP_plus_uconst 8, DW_OP_stack_value] $sp
	@DEBUG_VALUE: construct<float, 0>:__p <- undef
	@DEBUG_VALUE: construct<float, 0>:__a <- [DW_OP_plus_uconst 4, DW_OP_plus_uconst 8, DW_OP_stack_value] $sp
	@DEBUG_VALUE: __construct_at_end:__tx <- [DW_OP_LLVM_fragment 32 32] undef
	@DEBUG_VALUE: __construct_at_end:__tx <- [DW_OP_plus_uconst 4, DW_OP_stack_value, DW_OP_LLVM_fragment 0 32] $sp
	@DEBUG_VALUE: __construct_at_end:__n <- 16
	@DEBUG_VALUE: __construct_at_end:this <- [DW_OP_plus_uconst 4, DW_OP_stack_value] $sp
	@DEBUG_VALUE: ~_ConstructTransaction:this <- undef
	@DEBUG_VALUE: __construct_at_end:__new_end <- [DW_OP_LLVM_arg 0, DW_OP_LLVM_arg 1, DW_OP_constu 4, DW_OP_mul, DW_OP_plus, DW_OP_stack_value] $r0, 16
	@DEBUG_VALUE: __construct_at_end:__tx <- [DW_OP_LLVM_arg 0, DW_OP_LLVM_arg 1, DW_OP_constu 4, DW_OP_mul, DW_OP_plus, DW_OP_stack_value, DW_OP_LLVM_fragment 64 32] $r0, 16
	@DEBUG_VALUE: XYWHSoftmaxTemp <- [DW_OP_plus_uconst 4, DW_OP_plus_uconst 8, DW_OP_deref, DW_OP_LLVM_fragment 64 32] $sp
	.loc	2 781 23                        @ AppData\Local\Keil_v5\ARM\ARMCLANG\bin\..\include\libcxx\vector:781:23
	str	r0, [sp, #4]
.Ltmp76:
	@DEBUG_VALUE: XYWHSoftmaxTemp <- [DW_OP_plus_uconst 4, DW_OP_deref, DW_OP_LLVM_fragment 0 32] $sp
	.loc	2 941 19                        @ AppData\Local\Keil_v5\ARM\ARMCLANG\bin\..\include\libcxx\vector:941:19
	strd	r1, r1, [sp, #8]
.Ltmp77:
	@DEBUG_VALUE: i <- 0
	@DEBUG_VALUE: XYWHSoftmaxResult <- 0.000000e+00
	@DEBUG_VALUE: __guard <- 1
	@DEBUG_VALUE: XYWHSoftmaxTemp <- [DW_OP_plus_uconst 4, DW_OP_plus_uconst 4, DW_OP_deref, DW_OP_LLVM_fragment 32 32] $sp
	.loc	1 102 56                        @ ../YOLOv8nODPostProcessing.cpp:102:56
	ldrsb	r1, [r7, #-7]
	vmov	s0, r1
	vcvt.f32.s32	s0, s0
	.loc	1 102 83 is_stmt 0              @ ../YOLOv8nODPostProcessing.cpp:102:83
	vsub.f32	s0, s0, s18
	.loc	1 102 34                        @ ../YOLOv8nODPostProcessing.cpp:102:34
	vmul.f32	s0, s16, s0
.Ltmp78:
	@DEBUG_VALUE: operator[]:__n <- 0
	@DEBUG_VALUE: operator[]:this <- [DW_OP_plus_uconst 4, DW_OP_stack_value] $sp
	.loc	1 102 23                        @ ../YOLOv8nODPostProcessing.cpp:102:23
	vstr	s0, [r0]
.Ltmp79:
	@DEBUG_VALUE: i <- 1
	.loc	1 102 56                        @ ../YOLOv8nODPostProcessing.cpp:102:56
	ldrsb	r1, [r7, #-6]
	vmov	s0, r1
	vcvt.f32.s32	s0, s0
	.loc	1 102 83                        @ ../YOLOv8nODPostProcessing.cpp:102:83
	vsub.f32	s0, s0, s18
	.loc	1 102 34                        @ ../YOLOv8nODPostProcessing.cpp:102:34
	vmul.f32	s0, s16, s0
.Ltmp80:
	@DEBUG_VALUE: operator[]:__n <- 1
	.loc	1 102 23                        @ ../YOLOv8nODPostProcessing.cpp:102:23
	vstr	s0, [r0, #4]
.Ltmp81:
	@DEBUG_VALUE: i <- 2
	.loc	1 102 56                        @ ../YOLOv8nODPostProcessing.cpp:102:56
	ldrsb	r1, [r7, #-5]
	vmov	s0, r1
	vcvt.f32.s32	s0, s0
	.loc	1 102 83                        @ ../YOLOv8nODPostProcessing.cpp:102:83
	vsub.f32	s0, s0, s18
	.loc	1 102 34                        @ ../YOLOv8nODPostProcessing.cpp:102:34
	vmul.f32	s0, s16, s0
.Ltmp82:
	@DEBUG_VALUE: operator[]:__n <- 2
	.loc	1 102 23                        @ ../YOLOv8nODPostProcessing.cpp:102:23
	vstr	s0, [r0, #8]
.Ltmp83:
	@DEBUG_VALUE: i <- 3
	.loc	1 102 56                        @ ../YOLOv8nODPostProcessing.cpp:102:56
	ldrsb	r1, [r7, #-4]
	vmov	s0, r1
	vcvt.f32.s32	s0, s0
	.loc	1 102 83                        @ ../YOLOv8nODPostProcessing.cpp:102:83
	vsub.f32	s0, s0, s18
	.loc	1 102 34                        @ ../YOLOv8nODPostProcessing.cpp:102:34
	vmul.f32	s0, s16, s0
.Ltmp84:
	@DEBUG_VALUE: operator[]:__n <- 3
	.loc	1 102 23                        @ ../YOLOv8nODPostProcessing.cpp:102:23
	vstr	s0, [r0, #12]
.Ltmp85:
	@DEBUG_VALUE: i <- 4
	.loc	1 102 56                        @ ../YOLOv8nODPostProcessing.cpp:102:56
	ldrsb	r1, [r7, #-3]
	vmov	s0, r1
	vcvt.f32.s32	s0, s0
	.loc	1 102 83                        @ ../YOLOv8nODPostProcessing.cpp:102:83
	vsub.f32	s0, s0, s18
	.loc	1 102 34                        @ ../YOLOv8nODPostProcessing.cpp:102:34
	vmul.f32	s0, s16, s0
.Ltmp86:
	@DEBUG_VALUE: operator[]:__n <- 4
	.loc	1 102 23                        @ ../YOLOv8nODPostProcessing.cpp:102:23
	vstr	s0, [r0, #16]
.Ltmp87:
	@DEBUG_VALUE: i <- 5
	.loc	1 102 56                        @ ../YOLOv8nODPostProcessing.cpp:102:56
	ldrsb	r1, [r7, #-2]
	vmov	s0, r1
	vcvt.f32.s32	s0, s0
	.loc	1 102 83                        @ ../YOLOv8nODPostProcessing.cpp:102:83
	vsub.f32	s0, s0, s18
	.loc	1 102 34                        @ ../YOLOv8nODPostProcessing.cpp:102:34
	vmul.f32	s0, s16, s0
.Ltmp88:
	@DEBUG_VALUE: operator[]:__n <- 5
	.loc	1 102 23                        @ ../YOLOv8nODPostProcessing.cpp:102:23
	vstr	s0, [r0, #20]
.Ltmp89:
	@DEBUG_VALUE: i <- 6
	.loc	1 102 56                        @ ../YOLOv8nODPostProcessing.cpp:102:56
	ldrsb	r1, [r7, #-1]
	vmov	s0, r1
	vcvt.f32.s32	s0, s0
	.loc	1 102 83                        @ ../YOLOv8nODPostProcessing.cpp:102:83
	vsub.f32	s0, s0, s18
	.loc	1 102 34                        @ ../YOLOv8nODPostProcessing.cpp:102:34
	vmul.f32	s0, s16, s0
.Ltmp90:
	@DEBUG_VALUE: operator[]:__n <- 6
	.loc	1 102 23                        @ ../YOLOv8nODPostProcessing.cpp:102:23
	vstr	s0, [r0, #24]
.Ltmp91:
	@DEBUG_VALUE: i <- 7
	.loc	1 102 56                        @ ../YOLOv8nODPostProcessing.cpp:102:56
	ldrsb	r1, [r7], #16
	vmov	s0, r1
	vcvt.f32.s32	s0, s0
	.loc	1 102 83                        @ ../YOLOv8nODPostProcessing.cpp:102:83
	vsub.f32	s0, s0, s18
	.loc	1 102 34                        @ ../YOLOv8nODPostProcessing.cpp:102:34
	vmul.f32	s0, s16, s0
.Ltmp92:
	@DEBUG_VALUE: operator[]:__n <- 7
	.loc	1 102 23                        @ ../YOLOv8nODPostProcessing.cpp:102:23
	vstr	s0, [r0, #28]
.Ltmp93:
	@DEBUG_VALUE: i <- 8
	.loc	1 102 56                        @ ../YOLOv8nODPostProcessing.cpp:102:56
	ldrsb	r1, [r7, #-15]
	vmov	s0, r1
	vcvt.f32.s32	s0, s0
	.loc	1 102 83                        @ ../YOLOv8nODPostProcessing.cpp:102:83
	vsub.f32	s0, s0, s18
	.loc	1 102 34                        @ ../YOLOv8nODPostProcessing.cpp:102:34
	vmul.f32	s0, s16, s0
.Ltmp94:
	@DEBUG_VALUE: operator[]:__n <- 8
	.loc	1 102 23                        @ ../YOLOv8nODPostProcessing.cpp:102:23
	vstr	s0, [r0, #32]
.Ltmp95:
	@DEBUG_VALUE: i <- 9
	.loc	1 102 56                        @ ../YOLOv8nODPostProcessing.cpp:102:56
	ldrsb	r1, [r7, #-14]
	vmov	s0, r1
	vcvt.f32.s32	s0, s0
	.loc	1 102 83                        @ ../YOLOv8nODPostProcessing.cpp:102:83
	vsub.f32	s0, s0, s18
	.loc	1 102 34                        @ ../YOLOv8nODPostProcessing.cpp:102:34
	vmul.f32	s0, s16, s0
.Ltmp96:
	@DEBUG_VALUE: operator[]:__n <- 9
	.loc	1 102 23                        @ ../YOLOv8nODPostProcessing.cpp:102:23
	vstr	s0, [r0, #36]
.Ltmp97:
	@DEBUG_VALUE: i <- 10
	.loc	1 102 56                        @ ../YOLOv8nODPostProcessing.cpp:102:56
	ldrsb	r1, [r7, #-13]
	vmov	s0, r1
	vcvt.f32.s32	s0, s0
	.loc	1 102 83                        @ ../YOLOv8nODPostProcessing.cpp:102:83
	vsub.f32	s0, s0, s18
	.loc	1 102 34                        @ ../YOLOv8nODPostProcessing.cpp:102:34
	vmul.f32	s0, s16, s0
.Ltmp98:
	@DEBUG_VALUE: operator[]:__n <- 10
	.loc	1 102 23                        @ ../YOLOv8nODPostProcessing.cpp:102:23
	vstr	s0, [r0, #40]
.Ltmp99:
	@DEBUG_VALUE: i <- 11
	.loc	1 102 56                        @ ../YOLOv8nODPostProcessing.cpp:102:56
	ldrsb	r1, [r7, #-12]
	vmov	s0, r1
	vcvt.f32.s32	s0, s0
	.loc	1 102 83                        @ ../YOLOv8nODPostProcessing.cpp:102:83
	vsub.f32	s0, s0, s18
	.loc	1 102 34                        @ ../YOLOv8nODPostProcessing.cpp:102:34
	vmul.f32	s0, s16, s0
.Ltmp100:
	@DEBUG_VALUE: operator[]:__n <- 11
	.loc	1 102 23                        @ ../YOLOv8nODPostProcessing.cpp:102:23
	vstr	s0, [r0, #44]
.Ltmp101:
	@DEBUG_VALUE: i <- 12
	.loc	1 102 56                        @ ../YOLOv8nODPostProcessing.cpp:102:56
	ldrsb	r1, [r7, #-11]
	vmov	s0, r1
	vcvt.f32.s32	s0, s0
	.loc	1 102 83                        @ ../YOLOv8nODPostProcessing.cpp:102:83
	vsub.f32	s0, s0, s18
	.loc	1 102 34                        @ ../YOLOv8nODPostProcessing.cpp:102:34
	vmul.f32	s0, s16, s0
.Ltmp102:
	@DEBUG_VALUE: operator[]:__n <- 12
	.loc	1 102 23                        @ ../YOLOv8nODPostProcessing.cpp:102:23
	vstr	s0, [r0, #48]
.Ltmp103:
	@DEBUG_VALUE: i <- 13
	.loc	1 102 56                        @ ../YOLOv8nODPostProcessing.cpp:102:56
	ldrsb	r1, [r7, #-10]
	vmov	s0, r1
	vcvt.f32.s32	s0, s0
	.loc	1 102 83                        @ ../YOLOv8nODPostProcessing.cpp:102:83
	vsub.f32	s0, s0, s18
	.loc	1 102 34                        @ ../YOLOv8nODPostProcessing.cpp:102:34
	vmul.f32	s0, s16, s0
.Ltmp104:
	@DEBUG_VALUE: operator[]:__n <- 13
	.loc	1 102 23                        @ ../YOLOv8nODPostProcessing.cpp:102:23
	vstr	s0, [r0, #52]
.Ltmp105:
	@DEBUG_VALUE: i <- 14
	.loc	1 102 56                        @ ../YOLOv8nODPostProcessing.cpp:102:56
	ldrsb	r1, [r7, #-9]
	vmov	s0, r1
	vcvt.f32.s32	s0, s0
	.loc	1 102 83                        @ ../YOLOv8nODPostProcessing.cpp:102:83
	vsub.f32	s0, s0, s18
	.loc	1 102 34                        @ ../YOLOv8nODPostProcessing.cpp:102:34
	vmul.f32	s0, s16, s0
.Ltmp106:
	@DEBUG_VALUE: operator[]:__n <- 14
	.loc	1 102 23                        @ ../YOLOv8nODPostProcessing.cpp:102:23
	vstr	s0, [r0, #56]
.Ltmp107:
	@DEBUG_VALUE: i <- 15
	.loc	1 102 56                        @ ../YOLOv8nODPostProcessing.cpp:102:56
	ldrsb	r1, [r7, #-8]
	vmov	s0, r1
	vcvt.f32.s32	s0, s0
	.loc	1 102 83                        @ ../YOLOv8nODPostProcessing.cpp:102:83
	vsub.f32	s0, s0, s18
	.loc	1 102 34                        @ ../YOLOv8nODPostProcessing.cpp:102:34
	vmul.f32	s0, s16, s0
.Ltmp108:
	@DEBUG_VALUE: operator[]:__n <- 15
	.loc	1 102 23                        @ ../YOLOv8nODPostProcessing.cpp:102:23
	vstr	s0, [r0, #60]
.Ltmp109:
	@DEBUG_VALUE: i <- 16
	.loc	1 105 3 is_stmt 1               @ ../YOLOv8nODPostProcessing.cpp:105:3
	mov	r0, r4
.Ltmp110:
	bl	_ZN3arm3app4math9MathUtils10SoftmaxF32ERNSt3__26vectorIfNS3_9allocatorIfEEEE
.Ltmp111:
	@DEBUG_VALUE: i <- 0
	.loc	1 0 3 is_stmt 0                 @ ../YOLOv8nODPostProcessing.cpp:0:3
	ldr	r0, [sp, #4]
.Ltmp112:
	.loc	2 637 35 is_stmt 1              @ AppData\Local\Keil_v5\ARM\ARMCLANG\bin\..\include\libcxx\vector:637:35
	ldr	r1, [sp, #12]
.Ltmp113:
	@DEBUG_VALUE: operator[]:this <- [DW_OP_plus_uconst 4, DW_OP_stack_value] $sp
	@DEBUG_VALUE: __base_destruct_at_end:__new_last <- $r0
	@DEBUG_VALUE: __base_destruct_at_end:this <- [DW_OP_plus_uconst 4, DW_OP_stack_value] $sp
	@DEBUG_VALUE: __clear:this <- [DW_OP_plus_uconst 4, DW_OP_stack_value] $sp
	@DEBUG_VALUE: operator[]:__n <- 4
	@DEBUG_VALUE: i <- 4
	@DEBUG_VALUE: XYWHSoftmaxResult <- undef
	.loc	1 109 53                        @ ../YOLOv8nODPostProcessing.cpp:109:53
	vldr	s0, [r0, #4]
.Ltmp114:
	@DEBUG_VALUE: XYWHSoftmaxResult <- $s0
	vldr	s2, [r0, #8]
.Ltmp115:
	.loc	2 637 47                        @ AppData\Local\Keil_v5\ARM\ARMCLANG\bin\..\include\libcxx\vector:637:47
	subs	r1, r1, r0
.Ltmp116:
	@DEBUG_VALUE: __libcpp_operator_delete<void *, unsigned int>:__args <- $r0
	@DEBUG_VALUE: __do_deallocate_handle_size<>:__ptr <- $r0
	@DEBUG_VALUE: __libcpp_deallocate:__align <- 4
	@DEBUG_VALUE: __libcpp_deallocate:__ptr <- $r0
	@DEBUG_VALUE: deallocate:__p <- $r0
	@DEBUG_VALUE: deallocate:this <- [DW_OP_plus_uconst 4, DW_OP_plus_uconst 8, DW_OP_stack_value] $sp
	@DEBUG_VALUE: deallocate:__p <- $r0
	@DEBUG_VALUE: deallocate:__a <- [DW_OP_plus_uconst 4, DW_OP_plus_uconst 8, DW_OP_stack_value] $sp
	@DEBUG_VALUE: __libcpp_operator_delete<void *, unsigned int>:__args <- $r1
	@DEBUG_VALUE: __do_deallocate_handle_size<>:__size <- $r1
	@DEBUG_VALUE: __libcpp_deallocate:__size <- $r1
	@DEBUG_VALUE: deallocate:__n <- [DW_OP_constu 2, DW_OP_shra, DW_OP_stack_value] $r1
	@DEBUG_VALUE: deallocate:__n <- [DW_OP_constu 2, DW_OP_shra, DW_OP_stack_value] $r1
	@DEBUG_VALUE: capacity:this <- [DW_OP_plus_uconst 4, DW_OP_stack_value] $sp
	.loc	1 109 51                        @ ../YOLOv8nODPostProcessing.cpp:109:51
	vfma.f32	s0, s2, s20
.Ltmp117:
	@DEBUG_VALUE: XYWHSoftmaxResult <- $s0
	.loc	1 109 53 is_stmt 0              @ ../YOLOv8nODPostProcessing.cpp:109:53
	vldr	s2, [r0, #12]
.Ltmp118:
	.loc	2 985 18 is_stmt 1              @ AppData\Local\Keil_v5\ARM\ARMCLANG\bin\..\include\libcxx\vector:985:18
	str	r0, [sp, #8]
.Ltmp119:
	.loc	1 109 51                        @ ../YOLOv8nODPostProcessing.cpp:109:51
	vfma.f32	s0, s2, s22
.Ltmp120:
	@DEBUG_VALUE: XYWHSoftmaxResult <- $s0
	.loc	1 109 53 is_stmt 0              @ ../YOLOv8nODPostProcessing.cpp:109:53
	vldr	s2, [r0, #16]
	.loc	1 109 51                        @ ../YOLOv8nODPostProcessing.cpp:109:51
	vfma.f32	s0, s2, s24
.Ltmp121:
	@DEBUG_VALUE: operator[]:__n <- 5
	@DEBUG_VALUE: i <- 5
	@DEBUG_VALUE: XYWHSoftmaxResult <- $s0
	.loc	1 109 53                        @ ../YOLOv8nODPostProcessing.cpp:109:53
	vldr	s2, [r0, #20]
	.loc	1 109 51                        @ ../YOLOv8nODPostProcessing.cpp:109:51
	vfma.f32	s0, s2, s26
.Ltmp122:
	@DEBUG_VALUE: operator[]:__n <- 6
	@DEBUG_VALUE: i <- 6
	@DEBUG_VALUE: XYWHSoftmaxResult <- $s0
	.loc	1 109 53                        @ ../YOLOv8nODPostProcessing.cpp:109:53
	vldr	s2, [r0, #24]
	.loc	1 109 51                        @ ../YOLOv8nODPostProcessing.cpp:109:51
	vfma.f32	s0, s2, s28
.Ltmp123:
	@DEBUG_VALUE: operator[]:__n <- 7
	@DEBUG_VALUE: i <- 7
	@DEBUG_VALUE: XYWHSoftmaxResult <- $s0
	.loc	1 109 53                        @ ../YOLOv8nODPostProcessing.cpp:109:53
	vldr	s2, [r0, #28]
	.loc	1 109 51                        @ ../YOLOv8nODPostProcessing.cpp:109:51
	vfma.f32	s0, s2, s30
.Ltmp124:
	@DEBUG_VALUE: operator[]:__n <- 8
	@DEBUG_VALUE: i <- 8
	@DEBUG_VALUE: XYWHSoftmaxResult <- $s0
	.loc	1 109 53                        @ ../YOLOv8nODPostProcessing.cpp:109:53
	vldr	s2, [r0, #32]
	.loc	1 109 51                        @ ../YOLOv8nODPostProcessing.cpp:109:51
	vfma.f32	s0, s2, s17
.Ltmp125:
	@DEBUG_VALUE: operator[]:__n <- 9
	@DEBUG_VALUE: i <- 9
	@DEBUG_VALUE: XYWHSoftmaxResult <- $s0
	.loc	1 109 53                        @ ../YOLOv8nODPostProcessing.cpp:109:53
	vldr	s2, [r0, #36]
	.loc	1 109 51                        @ ../YOLOv8nODPostProcessing.cpp:109:51
	vfma.f32	s0, s2, s19
.Ltmp126:
	@DEBUG_VALUE: operator[]:__n <- 10
	@DEBUG_VALUE: i <- 10
	@DEBUG_VALUE: XYWHSoftmaxResult <- $s0
	.loc	1 109 53                        @ ../YOLOv8nODPostProcessing.cpp:109:53
	vldr	s2, [r0, #40]
	.loc	1 109 51                        @ ../YOLOv8nODPostProcessing.cpp:109:51
	vfma.f32	s0, s2, s21
.Ltmp127:
	@DEBUG_VALUE: operator[]:__n <- 11
	@DEBUG_VALUE: i <- 11
	@DEBUG_VALUE: XYWHSoftmaxResult <- $s0
	.loc	1 109 53                        @ ../YOLOv8nODPostProcessing.cpp:109:53
	vldr	s2, [r0, #44]
	.loc	1 109 51                        @ ../YOLOv8nODPostProcessing.cpp:109:51
	vfma.f32	s0, s2, s23
.Ltmp128:
	@DEBUG_VALUE: operator[]:__n <- 12
	@DEBUG_VALUE: i <- 12
	@DEBUG_VALUE: XYWHSoftmaxResult <- $s0
	.loc	1 109 53                        @ ../YOLOv8nODPostProcessing.cpp:109:53
	vldr	s2, [r0, #48]
	.loc	1 109 51                        @ ../YOLOv8nODPostProcessing.cpp:109:51
	vfma.f32	s0, s2, s25
.Ltmp129:
	@DEBUG_VALUE: operator[]:__n <- 13
	@DEBUG_VALUE: i <- 13
	@DEBUG_VALUE: XYWHSoftmaxResult <- $s0
	.loc	1 109 53                        @ ../YOLOv8nODPostProcessing.cpp:109:53
	vldr	s2, [r0, #52]
	.loc	1 109 51                        @ ../YOLOv8nODPostProcessing.cpp:109:51
	vfma.f32	s0, s2, s27
.Ltmp130:
	@DEBUG_VALUE: operator[]:__n <- 14
	@DEBUG_VALUE: i <- 14
	@DEBUG_VALUE: XYWHSoftmaxResult <- $s0
	.loc	1 109 53                        @ ../YOLOv8nODPostProcessing.cpp:109:53
	vldr	s2, [r0, #56]
	.loc	1 109 51                        @ ../YOLOv8nODPostProcessing.cpp:109:51
	vfma.f32	s0, s2, s29
.Ltmp131:
	@DEBUG_VALUE: operator[]:__n <- 15
	@DEBUG_VALUE: i <- 15
	@DEBUG_VALUE: XYWHSoftmaxResult <- $s0
	.loc	1 109 53                        @ ../YOLOv8nODPostProcessing.cpp:109:53
	vldr	s2, [r0, #60]
	.loc	1 109 51                        @ ../YOLOv8nODPostProcessing.cpp:109:51
	vfma.f32	s0, s2, s31
.Ltmp132:
	@DEBUG_VALUE: i <- 16
	@DEBUG_VALUE: XYWHSoftmaxResult <- $s0
	.loc	1 111 23 is_stmt 1              @ ../YOLOv8nODPostProcessing.cpp:111:23
	vstmia	r5!, {s0}
.Ltmp133:
	@DEBUG_VALUE: __base_destruct_at_end:__soon_to_be_end <- undef
	@DEBUG_VALUE: operator():this <- undef
	@DEBUG_VALUE: ~vector:this <- [DW_OP_plus_uconst 4, DW_OP_stack_value] $sp
	@DEBUG_VALUE: capacity:this <- [DW_OP_plus_uconst 4, DW_OP_stack_value] $sp
	.loc	4 281 3                         @ AppData\Local\Keil_v5\ARM\ARMCLANG\bin\..\include\libcxx\new:281:3
	bl	_ZdlPvj
.Ltmp134:
	@DEBUG_VALUE: k <- [DW_OP_consts 4, DW_OP_minus, DW_OP_consts 18446744073709551615, DW_OP_div, DW_OP_consts 1, DW_OP_plus, DW_OP_stack_value] $r6
	.loc	1 95 23                         @ ../YOLOv8nODPostProcessing.cpp:95:23
	subs	r6, #1
.Ltmp135:
	.loc	1 95 5 is_stmt 0                @ ../YOLOv8nODPostProcessing.cpp:95:5
	bne.w	.LBB1_3
.Ltmp136:
@ %bb.4:
	@DEBUG_VALUE: CalBoxXYWH:scaleBox <- $s16
	@DEBUG_VALUE: CalBoxXYWH:i32Stride <- $r8
	@DEBUG_VALUE: CalBoxXYWH:vAnchorBoxs <- $r9
	@DEBUG_VALUE: CalBoxXYWH:psBoxOutputTensor <- [DW_OP_LLVM_entry_value 1] $r0
	@DEBUG_VALUE: CalBoxXYWH:XYWHResult <- [DW_OP_plus_uconst 16, DW_OP_deref] $sp
	@DEBUG_VALUE: CalBoxXYWH:sDetection <- [DW_OP_plus_uconst 140] [$sp+0]
	@DEBUG_VALUE: CalBoxXYWH:i32StrideTotalAnchors <- [DW_OP_plus_uconst 136] [$sp+0]
	@DEBUG_VALUE: operator[]:this <- $r9
	@DEBUG_VALUE: operator[]:__n <- $r10
	.loc	2 1436 16 is_stmt 1             @ AppData\Local\Keil_v5\ARM\ARMCLANG\bin\..\include\libcxx\vector:1436:16
	ldr.w	r0, [r9]
.Ltmp137:
	.loc	1 115 49                        @ ../YOLOv8nODPostProcessing.cpp:115:49
	vldr	s4, [sp, #16]
.Ltmp138:
	.loc	2 1436 10                       @ AppData\Local\Keil_v5\ARM\ARMCLANG\bin\..\include\libcxx\vector:1436:10
	add.w	r0, r0, r10, lsl #3
.Ltmp139:
	@DEBUG_VALUE: operator[]:__n <- undef
	@DEBUG_VALUE: operator[]:this <- undef
	.loc	1 116 49                        @ ../YOLOv8nODPostProcessing.cpp:116:49
	vldr	s6, [sp, #20]
.Ltmp140:
	@DEBUG_VALUE: operator[]:__n <- undef
	@DEBUG_VALUE: operator[]:this <- undef
	.loc	1 115 44                        @ ../YOLOv8nODPostProcessing.cpp:115:44
	vldr	s0, [r0]
	.loc	1 116 44                        @ ../YOLOv8nODPostProcessing.cpp:116:44
	vldr	s2, [r0, #4]
	.loc	1 117 49                        @ ../YOLOv8nODPostProcessing.cpp:117:49
	vldr	s8, [sp, #24]
.Ltmp141:
	@DEBUG_VALUE: operator[]:__n <- undef
	@DEBUG_VALUE: operator[]:this <- undef
	.loc	1 118 49                        @ ../YOLOv8nODPostProcessing.cpp:118:49
	vldr	s10, [sp, #28]
	.loc	1 115 46                        @ ../YOLOv8nODPostProcessing.cpp:115:46
	vsub.f32	s4, s0, s4
.Ltmp142:
	@DEBUG_VALUE: CalBoxXYWH:x1 <- $s4
	.loc	1 116 46                        @ ../YOLOv8nODPostProcessing.cpp:116:46
	vsub.f32	s6, s2, s6
.Ltmp143:
	@DEBUG_VALUE: CalBoxXYWH:y1 <- $s6
	.loc	1 117 46                        @ ../YOLOv8nODPostProcessing.cpp:117:46
	vadd.f32	s0, s0, s8
.Ltmp144:
	@DEBUG_VALUE: CalBoxXYWH:x2 <- $s0
	.loc	1 118 46                        @ ../YOLOv8nODPostProcessing.cpp:118:46
	vadd.f32	s2, s2, s10
.Ltmp145:
	@DEBUG_VALUE: CalBoxXYWH:y2 <- $s2
	.loc	1 120 20                        @ ../YOLOv8nODPostProcessing.cpp:120:20
	vadd.f32	s8, s4, s0
	.loc	1 121 20                        @ ../YOLOv8nODPostProcessing.cpp:121:20
	vadd.f32	s12, s6, s2
	.loc	1 122 18                        @ ../YOLOv8nODPostProcessing.cpp:122:18
	vsub.f32	s0, s0, s4
.Ltmp146:
	@DEBUG_VALUE: CalBoxXYWH:w <- $s0
	.loc	1 125 26                        @ ../YOLOv8nODPostProcessing.cpp:125:26
	vmov	s4, r8
.Ltmp147:
	.loc	1 0 26 is_stmt 0                @ ../YOLOv8nODPostProcessing.cpp:0:26
	vmov.f32	s10, #5.000000e-01
	.loc	1 120 16 is_stmt 1              @ ../YOLOv8nODPostProcessing.cpp:120:16
	vmul.f32	s8, s8, s10
.Ltmp148:
	@DEBUG_VALUE: CalBoxXYWH:cx <- $s8
	.loc	1 121 16                        @ ../YOLOv8nODPostProcessing.cpp:121:16
	vmul.f32	s10, s12, s10
.Ltmp149:
	@DEBUG_VALUE: CalBoxXYWH:cy <- $s10
	.loc	1 125 26                        @ ../YOLOv8nODPostProcessing.cpp:125:26
	vcvt.f32.s32	s4, s4
	.loc	1 123 18                        @ ../YOLOv8nODPostProcessing.cpp:123:18
	vsub.f32	s2, s2, s6
.Ltmp150:
	@DEBUG_VALUE: CalBoxXYWH:h <- $s2
	.loc	1 125 24                        @ ../YOLOv8nODPostProcessing.cpp:125:24
	vmul.f32	s6, s8, s4
.Ltmp151:
	@DEBUG_VALUE: CalBoxXYWH:XYWHResult <- [DW_OP_plus_uconst 16, DW_OP_plus_uconst 4, DW_OP_deref, DW_OP_LLVM_fragment 32 96] $sp
	@DEBUG_VALUE: CalBoxXYWH:XYWHResult <- [DW_OP_LLVM_fragment 0 32] $s6
	.loc	1 126 24                        @ ../YOLOv8nODPostProcessing.cpp:126:24
	vmul.f32	s8, s10, s4
.Ltmp152:
	@DEBUG_VALUE: CalBoxXYWH:XYWHResult <- [DW_OP_plus_uconst 16, DW_OP_plus_uconst 8, DW_OP_deref, DW_OP_LLVM_fragment 64 64] $sp
	@DEBUG_VALUE: CalBoxXYWH:XYWHResult <- [DW_OP_LLVM_fragment 32 32] $s8
	.loc	1 127 23                        @ ../YOLOv8nODPostProcessing.cpp:127:23
	vmul.f32	s0, s0, s4
.Ltmp153:
	@DEBUG_VALUE: CalBoxXYWH:XYWHResult <- [DW_OP_plus_uconst 16, DW_OP_plus_uconst 12, DW_OP_deref, DW_OP_LLVM_fragment 96 32] $sp
	@DEBUG_VALUE: CalBoxXYWH:XYWHResult <- [DW_OP_LLVM_fragment 64 32] $s0
	.loc	1 128 23                        @ ../YOLOv8nODPostProcessing.cpp:128:23
	vmul.f32	s2, s2, s4
.Ltmp154:
	@DEBUG_VALUE: CalBoxXYWH:XYWHResult <- [DW_OP_LLVM_fragment 96 32] $s2
	.loc	1 130 22                        @ ../YOLOv8nODPostProcessing.cpp:130:22
	vcvt.f64.f32	d2, s6
	.loc	1 130 45 is_stmt 0              @ ../YOLOv8nODPostProcessing.cpp:130:45
	vcvt.f64.f32	d3, s0
.Ltmp155:
	.loc	1 131 25 is_stmt 1              @ ../YOLOv8nODPostProcessing.cpp:131:25
	vcvt.f64.f32	d4, s8
.Ltmp156:
	.loc	1 131 48 is_stmt 0              @ ../YOLOv8nODPostProcessing.cpp:131:48
	vcvt.f64.f32	d6, s2
	vmov.f64	d5, #-5.000000e-01
.Ltmp157:
	.loc	1 130 36 is_stmt 1              @ ../YOLOv8nODPostProcessing.cpp:130:36
	vfma.f64	d2, d3, d5
	.loc	1 131 39                        @ ../YOLOv8nODPostProcessing.cpp:131:39
	vfma.f64	d4, d6, d5
	.loc	1 132 23                        @ ../YOLOv8nODPostProcessing.cpp:132:23
	vstr	s0, [r11, #8]
	.loc	1 133 23                        @ ../YOLOv8nODPostProcessing.cpp:133:23
	vstr	s2, [r11, #12]
	.loc	1 130 22                        @ ../YOLOv8nODPostProcessing.cpp:130:22
	vcvt.f32.f64	s4, d2
	.loc	1 131 25                        @ ../YOLOv8nODPostProcessing.cpp:131:25
	vcvt.f32.f64	s6, d4
	.loc	1 130 20                        @ ../YOLOv8nODPostProcessing.cpp:130:20
	vstr	s4, [r11]
	.loc	1 131 23                        @ ../YOLOv8nODPostProcessing.cpp:131:23
	vstr	s6, [r11, #4]
	.loc	1 134 1 epilogue_begin          @ ../YOLOv8nODPostProcessing.cpp:134:1
	add	sp, #32
	vpop	{d8, d9, d10, d11, d12, d13, d14, d15}
.Ltmp158:
	add	sp, #4
	pop.w	{r4, r5, r6, r7, r8, r9, r10, r11, pc}
.Ltmp159:
.LBB1_5:
	@DEBUG_VALUE: CalBoxXYWH:anchors <- $r5
	@DEBUG_VALUE: CalBoxXYWH:XYWHResult <- [DW_OP_plus_uconst 16, DW_OP_deref] $sp
	@DEBUG_VALUE: CalBoxXYWH:sDetection <- [DW_OP_plus_uconst 140] [$sp+0]
	@DEBUG_VALUE: CalBoxXYWH:i32StrideTotalAnchors <- [DW_OP_plus_uconst 136] [$sp+0]
	@DEBUG_VALUE: CalBoxXYWH:i32Stride <- $r3
	@DEBUG_VALUE: CalBoxXYWH:i32AnchorIndex <- $r2
	@DEBUG_VALUE: CalBoxXYWH:vAnchorBoxs <- $r1
	@DEBUG_VALUE: CalBoxXYWH:psBoxOutputTensor <- $r0
	.loc	1 0 0 is_stmt 0                 @ ../YOLOv8nODPostProcessing.cpp:0:0
	movw	r0, :lower16:.Lstr.5
.Ltmp160:
	@DEBUG_VALUE: CalBoxXYWH:psBoxOutputTensor <- [DW_OP_LLVM_entry_value 1] $r0
	movt	r0, :upper16:.Lstr.5
	add	sp, #32
	vpop	{d8, d9, d10, d11, d12, d13, d14, d15}
	add	sp, #4
	pop.w	{r4, r5, r6, r7, r8, r9, r10, r11, lr}
.Ltmp161:
	b	puts
.Ltmp162:
.Lfunc_end1:
	.size	_Z10CalBoxXYWHP12TfLiteTensorRNSt3__26vectorIN3arm3app10yolov8n_od9AnchorBoxENS1_9allocatorIS6_EEEEiiiRNS5_9DetectionE, .Lfunc_end1-_Z10CalBoxXYWHP12TfLiteTensorRNSt3__26vectorIN3arm3app10yolov8n_od9AnchorBoxENS1_9allocatorIS6_EEEEiiiRNS5_9DetectionE
	.cfi_endproc
	.cantunwind
	.fnend
                                        @ -- End function
	.section	.text._Z18Calculate1DOverlapffff,"ax",%progbits
	.hidden	_Z18Calculate1DOverlapffff      @ -- Begin function _Z18Calculate1DOverlapffff
	.globl	_Z18Calculate1DOverlapffff
	.p2align	2
	.type	_Z18Calculate1DOverlapffff,%function
	.code	16                              @ @_Z18Calculate1DOverlapffff
	.thumb_func
_Z18Calculate1DOverlapffff:
.Lfunc_begin2:
	.loc	1 137 0 is_stmt 1               @ ../YOLOv8nODPostProcessing.cpp:137:0
	.fnstart
	.cfi_startproc
@ %bb.0:
	@DEBUG_VALUE: Calculate1DOverlap:x1Center <- $s0
	@DEBUG_VALUE: Calculate1DOverlap:width1 <- $s1
	@DEBUG_VALUE: Calculate1DOverlap:x2Center <- $s2
	@DEBUG_VALUE: Calculate1DOverlap:width2 <- $s3
	vmov.f32	s4, #5.000000e-01
.Ltmp163:
	.loc	1 138 34 prologue_end           @ ../YOLOv8nODPostProcessing.cpp:138:34
	vmul.f32	s6, s1, s4
	.loc	1 139 34                        @ ../YOLOv8nODPostProcessing.cpp:139:34
	vmul.f32	s4, s3, s4
	.loc	1 138 26                        @ ../YOLOv8nODPostProcessing.cpp:138:26
	vsub.f32	s8, s0, s6
.Ltmp164:
	@DEBUG_VALUE: Calculate1DOverlap:left_1 <- $s8
	.loc	1 139 26                        @ ../YOLOv8nODPostProcessing.cpp:139:26
	vsub.f32	s10, s2, s4
.Ltmp165:
	@DEBUG_VALUE: Calculate1DOverlap:left_2 <- $s10
	.loc	1 142 27                        @ ../YOLOv8nODPostProcessing.cpp:142:27
	vadd.f32	s0, s0, s6
.Ltmp166:
	@DEBUG_VALUE: Calculate1DOverlap:x1Center <- [DW_OP_LLVM_entry_value 1] $s0
	@DEBUG_VALUE: Calculate1DOverlap:right_1 <- $s0
	.loc	1 143 27                        @ ../YOLOv8nODPostProcessing.cpp:143:27
	vadd.f32	s2, s2, s4
.Ltmp167:
	@DEBUG_VALUE: Calculate1DOverlap:x2Center <- [DW_OP_LLVM_entry_value 1] $s2
	@DEBUG_VALUE: Calculate1DOverlap:right_2 <- $s2
	.loc	1 140 18                        @ ../YOLOv8nODPostProcessing.cpp:140:18
	vmaxnm.f32	s4, s8, s10
.Ltmp168:
	@DEBUG_VALUE: Calculate1DOverlap:leftest <- $s4
	.loc	1 144 19                        @ ../YOLOv8nODPostProcessing.cpp:144:19
	vminnm.f32	s0, s0, s2
.Ltmp169:
	@DEBUG_VALUE: Calculate1DOverlap:rightest <- $s0
	.loc	1 146 18                        @ ../YOLOv8nODPostProcessing.cpp:146:18
	vsub.f32	s0, s0, s4
.Ltmp170:
	.loc	1 146 2 is_stmt 0               @ ../YOLOv8nODPostProcessing.cpp:146:2
	bx	lr
.Ltmp171:
.Lfunc_end2:
	.size	_Z18Calculate1DOverlapffff, .Lfunc_end2-_Z18Calculate1DOverlapffff
	.cfi_endproc
	.cantunwind
	.fnend
                                        @ -- End function
	.section	.text._Z21CalculateBoxIntersectRN3arm3app10yolov8n_od3BoxES3_,"ax",%progbits
	.hidden	_Z21CalculateBoxIntersectRN3arm3app10yolov8n_od3BoxES3_ @ -- Begin function _Z21CalculateBoxIntersectRN3arm3app10yolov8n_od3BoxES3_
	.globl	_Z21CalculateBoxIntersectRN3arm3app10yolov8n_od3BoxES3_
	.p2align	2
	.type	_Z21CalculateBoxIntersectRN3arm3app10yolov8n_od3BoxES3_,%function
	.code	16                              @ @_Z21CalculateBoxIntersectRN3arm3app10yolov8n_od3BoxES3_
	.thumb_func
_Z21CalculateBoxIntersectRN3arm3app10yolov8n_od3BoxES3_:
.Lfunc_begin3:
	.fnstart
	.cfi_startproc
@ %bb.0:
	@DEBUG_VALUE: CalculateBoxIntersect:box1 <- $r0
	@DEBUG_VALUE: CalculateBoxIntersect:box2 <- $r1
	.loc	1 151 48 prologue_end is_stmt 1 @ ../YOLOv8nODPostProcessing.cpp:151:48
	vldr	s4, [r0, #8]
	.loc	1 151 64 is_stmt 0              @ ../YOLOv8nODPostProcessing.cpp:151:64
	vldr	s8, [r1, #8]
	vmov.f32	s0, #5.000000e-01
	@DEBUG_VALUE: Calculate1DOverlap:x2Center <- $s6
.Ltmp172:
	@DEBUG_VALUE: Calculate1DOverlap:width1 <- $s4
	@DEBUG_VALUE: Calculate1DOverlap:x1Center <- $s2
	@DEBUG_VALUE: Calculate1DOverlap:width2 <- $s8
	.loc	1 151 40                        @ ../YOLOv8nODPostProcessing.cpp:151:40
	vldr	s2, [r0]
	.loc	1 151 56                        @ ../YOLOv8nODPostProcessing.cpp:151:56
	vldr	s6, [r1]
.Ltmp173:
	.loc	1 138 34 is_stmt 1              @ ../YOLOv8nODPostProcessing.cpp:138:34
	vmul.f32	s4, s4, s0
.Ltmp174:
	.loc	1 139 34                        @ ../YOLOv8nODPostProcessing.cpp:139:34
	vmul.f32	s8, s8, s0
.Ltmp175:
	.loc	1 138 26                        @ ../YOLOv8nODPostProcessing.cpp:138:26
	vsub.f32	s10, s2, s4
.Ltmp176:
	@DEBUG_VALUE: Calculate1DOverlap:left_1 <- $s10
	.loc	1 139 26                        @ ../YOLOv8nODPostProcessing.cpp:139:26
	vsub.f32	s12, s6, s8
.Ltmp177:
	@DEBUG_VALUE: Calculate1DOverlap:left_2 <- $s12
	.loc	1 142 27                        @ ../YOLOv8nODPostProcessing.cpp:142:27
	vadd.f32	s2, s2, s4
.Ltmp178:
	@DEBUG_VALUE: Calculate1DOverlap:right_1 <- $s2
	.loc	1 143 27                        @ ../YOLOv8nODPostProcessing.cpp:143:27
	vadd.f32	s4, s6, s8
.Ltmp179:
	@DEBUG_VALUE: Calculate1DOverlap:right_2 <- $s4
	.loc	1 140 18                        @ ../YOLOv8nODPostProcessing.cpp:140:18
	vmaxnm.f32	s6, s10, s12
.Ltmp180:
	@DEBUG_VALUE: Calculate1DOverlap:leftest <- $s6
	.loc	1 144 19                        @ ../YOLOv8nODPostProcessing.cpp:144:19
	vminnm.f32	s2, s2, s4
.Ltmp181:
	@DEBUG_VALUE: Calculate1DOverlap:rightest <- $s2
	.loc	1 146 18                        @ ../YOLOv8nODPostProcessing.cpp:146:18
	vsub.f32	s2, s2, s6
.Ltmp182:
	@DEBUG_VALUE: CalculateBoxIntersect:width <- $s2
	.loc	1 152 6                         @ ../YOLOv8nODPostProcessing.cpp:152:6
	vcmp.f32	s2, #0
	vmrs	APSR_nzcv, fpscr
	itt	lt
	vldrlt	s0, .LCPI3_0
	.loc	1 162 1                         @ ../YOLOv8nODPostProcessing.cpp:162:1
	bxlt	lr
.Ltmp183:
.LBB3_1:
	@DEBUG_VALUE: CalculateBoxIntersect:width <- $s2
	@DEBUG_VALUE: CalculateBoxIntersect:box2 <- $r1
	@DEBUG_VALUE: CalculateBoxIntersect:box1 <- $r0
	.loc	1 155 49                        @ ../YOLOv8nODPostProcessing.cpp:155:49
	vldr	s6, [r0, #12]
	.loc	1 155 65 is_stmt 0              @ ../YOLOv8nODPostProcessing.cpp:155:65
	vldr	s10, [r1, #12]
	@DEBUG_VALUE: Calculate1DOverlap:x2Center <- $s8
.Ltmp184:
	@DEBUG_VALUE: Calculate1DOverlap:width1 <- $s6
	@DEBUG_VALUE: Calculate1DOverlap:x1Center <- $s4
	@DEBUG_VALUE: Calculate1DOverlap:width2 <- $s10
	.loc	1 155 41                        @ ../YOLOv8nODPostProcessing.cpp:155:41
	vldr	s4, [r0, #4]
	.loc	1 155 57                        @ ../YOLOv8nODPostProcessing.cpp:155:57
	vldr	s8, [r1, #4]
.Ltmp185:
	.loc	1 138 34 is_stmt 1              @ ../YOLOv8nODPostProcessing.cpp:138:34
	vmul.f32	s6, s6, s0
.Ltmp186:
	.loc	1 139 34                        @ ../YOLOv8nODPostProcessing.cpp:139:34
	vmul.f32	s0, s10, s0
	.loc	1 138 26                        @ ../YOLOv8nODPostProcessing.cpp:138:26
	vsub.f32	s10, s4, s6
.Ltmp187:
	@DEBUG_VALUE: Calculate1DOverlap:left_1 <- $s10
	.loc	1 139 26                        @ ../YOLOv8nODPostProcessing.cpp:139:26
	vsub.f32	s12, s8, s0
.Ltmp188:
	@DEBUG_VALUE: Calculate1DOverlap:left_2 <- $s12
	.loc	1 142 27                        @ ../YOLOv8nODPostProcessing.cpp:142:27
	vadd.f32	s4, s4, s6
.Ltmp189:
	@DEBUG_VALUE: Calculate1DOverlap:right_1 <- $s4
	.loc	1 143 27                        @ ../YOLOv8nODPostProcessing.cpp:143:27
	vadd.f32	s0, s8, s0
.Ltmp190:
	@DEBUG_VALUE: Calculate1DOverlap:right_2 <- $s0
	.loc	1 140 18                        @ ../YOLOv8nODPostProcessing.cpp:140:18
	vmaxnm.f32	s6, s10, s12
.Ltmp191:
	@DEBUG_VALUE: Calculate1DOverlap:leftest <- $s6
	.loc	1 144 19                        @ ../YOLOv8nODPostProcessing.cpp:144:19
	vminnm.f32	s0, s4, s0
.Ltmp192:
	@DEBUG_VALUE: Calculate1DOverlap:rightest <- $s0
	.loc	1 146 18                        @ ../YOLOv8nODPostProcessing.cpp:146:18
	vsub.f32	s4, s0, s6
.Ltmp193:
	@DEBUG_VALUE: CalculateBoxIntersect:height <- $s4
	.loc	1 156 6                         @ ../YOLOv8nODPostProcessing.cpp:156:6
	vmul.f32	s0, s2, s4
.Ltmp194:
	vcmp.f32	s4, #0
	vldr	s2, .LCPI3_0
.Ltmp195:
	vmrs	APSR_nzcv, fpscr
	it	lt
	vmovlt.f32	s0, s2
	.loc	1 162 1                         @ ../YOLOv8nODPostProcessing.cpp:162:1
	bx	lr
.Ltmp196:
	.loc	1 0 1 is_stmt 0                 @ :0:1
.Ltmp197:
	.p2align	2
@ %bb.2:
.LCPI3_0:
	.long	0x00000000                      @ float 0
.Lfunc_end3:
	.size	_Z21CalculateBoxIntersectRN3arm3app10yolov8n_od3BoxES3_, .Lfunc_end3-_Z21CalculateBoxIntersectRN3arm3app10yolov8n_od3BoxES3_
	.cfi_endproc
	.cantunwind
	.fnend
                                        @ -- End function
	.section	.text._Z17CalculateBoxUnionRN3arm3app10yolov8n_od3BoxES3_,"ax",%progbits
	.hidden	_Z17CalculateBoxUnionRN3arm3app10yolov8n_od3BoxES3_ @ -- Begin function _Z17CalculateBoxUnionRN3arm3app10yolov8n_od3BoxES3_
	.globl	_Z17CalculateBoxUnionRN3arm3app10yolov8n_od3BoxES3_
	.p2align	2
	.type	_Z17CalculateBoxUnionRN3arm3app10yolov8n_od3BoxES3_,%function
	.code	16                              @ @_Z17CalculateBoxUnionRN3arm3app10yolov8n_od3BoxES3_
	.thumb_func
_Z17CalculateBoxUnionRN3arm3app10yolov8n_od3BoxES3_:
.Lfunc_begin4:
	.fnstart
	.cfi_startproc
@ %bb.0:
	@DEBUG_VALUE: CalculateBoxUnion:box1 <- $r0
	@DEBUG_VALUE: CalculateBoxUnion:box2 <- $r1
	@DEBUG_VALUE: CalculateBoxIntersect:box1 <- $r0
	@DEBUG_VALUE: CalculateBoxIntersect:box2 <- $r1
	.loc	1 151 48 prologue_end is_stmt 1 @ ../YOLOv8nODPostProcessing.cpp:151:48
	vldr	s0, [r0, #8]
	.loc	1 151 64 is_stmt 0              @ ../YOLOv8nODPostProcessing.cpp:151:64
	vldr	s2, [r1, #8]
	vmov.f32	s8, #5.000000e-01
	@DEBUG_VALUE: Calculate1DOverlap:x2Center <- $s6
.Ltmp198:
	@DEBUG_VALUE: Calculate1DOverlap:width1 <- $s0
	@DEBUG_VALUE: Calculate1DOverlap:x1Center <- $s4
	@DEBUG_VALUE: Calculate1DOverlap:width2 <- $s2
	.loc	1 151 40                        @ ../YOLOv8nODPostProcessing.cpp:151:40
	vldr	s4, [r0]
	.loc	1 151 56                        @ ../YOLOv8nODPostProcessing.cpp:151:56
	vldr	s6, [r1]
.Ltmp199:
	.loc	1 138 34 is_stmt 1              @ ../YOLOv8nODPostProcessing.cpp:138:34
	vmul.f32	s10, s0, s8
	.loc	1 139 34                        @ ../YOLOv8nODPostProcessing.cpp:139:34
	vmul.f32	s12, s2, s8
	.loc	1 138 26                        @ ../YOLOv8nODPostProcessing.cpp:138:26
	vsub.f32	s14, s4, s10
.Ltmp200:
	@DEBUG_VALUE: Calculate1DOverlap:left_1 <- $s14
	.loc	1 139 26                        @ ../YOLOv8nODPostProcessing.cpp:139:26
	vsub.f32	s1, s6, s12
.Ltmp201:
	@DEBUG_VALUE: Calculate1DOverlap:left_2 <- $s1
	.loc	1 142 27                        @ ../YOLOv8nODPostProcessing.cpp:142:27
	vadd.f32	s4, s4, s10
.Ltmp202:
	@DEBUG_VALUE: Calculate1DOverlap:right_1 <- $s4
	.loc	1 143 27                        @ ../YOLOv8nODPostProcessing.cpp:143:27
	vadd.f32	s6, s6, s12
.Ltmp203:
	@DEBUG_VALUE: Calculate1DOverlap:right_2 <- $s6
	.loc	1 140 18                        @ ../YOLOv8nODPostProcessing.cpp:140:18
	vmaxnm.f32	s10, s14, s1
.Ltmp204:
	@DEBUG_VALUE: Calculate1DOverlap:leftest <- $s10
	.loc	1 144 19                        @ ../YOLOv8nODPostProcessing.cpp:144:19
	vminnm.f32	s4, s4, s6
.Ltmp205:
	@DEBUG_VALUE: Calculate1DOverlap:rightest <- $s4
	.loc	1 146 18                        @ ../YOLOv8nODPostProcessing.cpp:146:18
	vsub.f32	s10, s4, s10
.Ltmp206:
	@DEBUG_VALUE: CalculateBoxIntersect:width <- $s10
	.loc	1 152 6                         @ ../YOLOv8nODPostProcessing.cpp:152:6
	vcmp.f32	s10, #0
	vmrs	APSR_nzcv, fpscr
	bge	.LBB4_2
.Ltmp207:
@ %bb.1:
	@DEBUG_VALUE: CalculateBoxIntersect:width <- $s10
	@DEBUG_VALUE: CalculateBoxIntersect:box2 <- $r1
	@DEBUG_VALUE: CalculateBoxIntersect:box1 <- $r0
	@DEBUG_VALUE: CalculateBoxUnion:box2 <- $r1
	@DEBUG_VALUE: CalculateBoxUnion:box1 <- $r0
	.loc	1 167 36                        @ ../YOLOv8nODPostProcessing.cpp:167:36
	vldr	s4, [r0, #12]
	.loc	1 167 54 is_stmt 0              @ ../YOLOv8nODPostProcessing.cpp:167:54
	vldr	s6, [r1, #12]
	vldr	s8, .LCPI4_0
.Ltmp208:
	.loc	1 152 6 is_stmt 1               @ ../YOLOv8nODPostProcessing.cpp:152:6
	b	.LBB4_3
.Ltmp209:
.LBB4_2:
	@DEBUG_VALUE: CalculateBoxIntersect:width <- $s10
	@DEBUG_VALUE: CalculateBoxIntersect:box2 <- $r1
	@DEBUG_VALUE: CalculateBoxIntersect:box1 <- $r0
	@DEBUG_VALUE: CalculateBoxUnion:box2 <- $r1
	@DEBUG_VALUE: CalculateBoxUnion:box1 <- $r0
	.loc	1 155 49                        @ ../YOLOv8nODPostProcessing.cpp:155:49
	vldr	s4, [r0, #12]
	.loc	1 155 65 is_stmt 0              @ ../YOLOv8nODPostProcessing.cpp:155:65
	vldr	s6, [r1, #12]
	@DEBUG_VALUE: Calculate1DOverlap:x2Center <- $s14
.Ltmp210:
	@DEBUG_VALUE: Calculate1DOverlap:width1 <- $s4
	@DEBUG_VALUE: Calculate1DOverlap:x1Center <- $s12
	@DEBUG_VALUE: Calculate1DOverlap:width2 <- $s6
	.loc	1 155 41                        @ ../YOLOv8nODPostProcessing.cpp:155:41
	vldr	s12, [r0, #4]
	.loc	1 155 57                        @ ../YOLOv8nODPostProcessing.cpp:155:57
	vldr	s14, [r1, #4]
.Ltmp211:
	.loc	1 138 34 is_stmt 1              @ ../YOLOv8nODPostProcessing.cpp:138:34
	vmul.f32	s1, s4, s8
	.loc	1 139 34                        @ ../YOLOv8nODPostProcessing.cpp:139:34
	vmul.f32	s8, s6, s8
	.loc	1 138 26                        @ ../YOLOv8nODPostProcessing.cpp:138:26
	vsub.f32	s3, s12, s1
.Ltmp212:
	@DEBUG_VALUE: Calculate1DOverlap:left_1 <- $s3
	.loc	1 139 26                        @ ../YOLOv8nODPostProcessing.cpp:139:26
	vsub.f32	s5, s14, s8
.Ltmp213:
	@DEBUG_VALUE: Calculate1DOverlap:left_2 <- $s5
	.loc	1 142 27                        @ ../YOLOv8nODPostProcessing.cpp:142:27
	vadd.f32	s12, s12, s1
.Ltmp214:
	@DEBUG_VALUE: Calculate1DOverlap:right_1 <- $s12
	.loc	1 143 27                        @ ../YOLOv8nODPostProcessing.cpp:143:27
	vadd.f32	s8, s14, s8
.Ltmp215:
	@DEBUG_VALUE: Calculate1DOverlap:right_2 <- $s8
	.loc	1 140 18                        @ ../YOLOv8nODPostProcessing.cpp:140:18
	vmaxnm.f32	s14, s3, s5
.Ltmp216:
	@DEBUG_VALUE: Calculate1DOverlap:leftest <- $s14
	.loc	1 144 19                        @ ../YOLOv8nODPostProcessing.cpp:144:19
	vminnm.f32	s8, s12, s8
.Ltmp217:
	@DEBUG_VALUE: Calculate1DOverlap:rightest <- $s8
	.loc	1 146 18                        @ ../YOLOv8nODPostProcessing.cpp:146:18
	vsub.f32	s12, s8, s14
.Ltmp218:
	@DEBUG_VALUE: CalculateBoxIntersect:height <- $s12
	.loc	1 156 6                         @ ../YOLOv8nODPostProcessing.cpp:156:6
	vmul.f32	s8, s10, s12
.Ltmp219:
	vcmp.f32	s12, #0
	vldr	s10, .LCPI4_0
.Ltmp220:
	vmrs	APSR_nzcv, fpscr
	it	lt
	vmovlt.f32	s8, s10
.Ltmp221:
.LBB4_3:
	@DEBUG_VALUE: CalculateBoxUnion:box2 <- $r1
	@DEBUG_VALUE: CalculateBoxUnion:box1 <- $r0
	@DEBUG_VALUE: CalculateBoxUnion:boxes_intersection <- $s8
	.loc	1 167 47                        @ ../YOLOv8nODPostProcessing.cpp:167:47
	vmul.f32	s2, s2, s6
	.loc	1 167 38 is_stmt 0              @ ../YOLOv8nODPostProcessing.cpp:167:38
	vfma.f32	s2, s0, s4
	.loc	1 167 56                        @ ../YOLOv8nODPostProcessing.cpp:167:56
	vsub.f32	s0, s2, s8
.Ltmp222:
	@DEBUG_VALUE: CalculateBoxUnion:boxes_union <- $s0
	.loc	1 168 2 is_stmt 1               @ ../YOLOv8nODPostProcessing.cpp:168:2
	bx	lr
.Ltmp223:
	.loc	1 0 2 is_stmt 0                 @ :0:2
.Ltmp224:
	.p2align	2
@ %bb.4:
.LCPI4_0:
	.long	0x00000000                      @ float 0
.Lfunc_end4:
	.size	_Z17CalculateBoxUnionRN3arm3app10yolov8n_od3BoxES3_, .Lfunc_end4-_Z17CalculateBoxUnionRN3arm3app10yolov8n_od3BoxES3_
	.cfi_endproc
	.cantunwind
	.fnend
                                        @ -- End function
	.section	.text._Z15CalculateBoxIOURN3arm3app10yolov8n_od3BoxES3_,"ax",%progbits
	.hidden	_Z15CalculateBoxIOURN3arm3app10yolov8n_od3BoxES3_ @ -- Begin function _Z15CalculateBoxIOURN3arm3app10yolov8n_od3BoxES3_
	.globl	_Z15CalculateBoxIOURN3arm3app10yolov8n_od3BoxES3_
	.p2align	2
	.type	_Z15CalculateBoxIOURN3arm3app10yolov8n_od3BoxES3_,%function
	.code	16                              @ @_Z15CalculateBoxIOURN3arm3app10yolov8n_od3BoxES3_
	.thumb_func
_Z15CalculateBoxIOURN3arm3app10yolov8n_od3BoxES3_:
.Lfunc_begin5:
	.fnstart
	.cfi_startproc
@ %bb.0:
	@DEBUG_VALUE: CalculateBoxIOU:box1 <- $r0
	@DEBUG_VALUE: CalculateBoxIOU:box2 <- $r1
	@DEBUG_VALUE: CalculateBoxIntersect:box1 <- $r0
	@DEBUG_VALUE: CalculateBoxIntersect:box2 <- $r1
	.loc	1 151 48 prologue_end is_stmt 1 @ ../YOLOv8nODPostProcessing.cpp:151:48
	vldr	s2, [r0, #8]
	.loc	1 151 64 is_stmt 0              @ ../YOLOv8nODPostProcessing.cpp:151:64
	vldr	s4, [r1, #8]
	vmov.f32	s12, #5.000000e-01
	@DEBUG_VALUE: Calculate1DOverlap:x2Center <- $s6
.Ltmp225:
	@DEBUG_VALUE: Calculate1DOverlap:width1 <- $s2
	@DEBUG_VALUE: Calculate1DOverlap:x1Center <- $s0
	@DEBUG_VALUE: Calculate1DOverlap:width2 <- $s4
	.loc	1 151 40                        @ ../YOLOv8nODPostProcessing.cpp:151:40
	vldr	s0, [r0]
	.loc	1 151 56                        @ ../YOLOv8nODPostProcessing.cpp:151:56
	vldr	s6, [r1]
.Ltmp226:
	.loc	1 138 34 is_stmt 1              @ ../YOLOv8nODPostProcessing.cpp:138:34
	vmul.f32	s8, s2, s12
	.loc	1 139 34                        @ ../YOLOv8nODPostProcessing.cpp:139:34
	vmul.f32	s10, s4, s12
	.loc	1 138 26                        @ ../YOLOv8nODPostProcessing.cpp:138:26
	vsub.f32	s14, s0, s8
.Ltmp227:
	@DEBUG_VALUE: Calculate1DOverlap:left_1 <- $s14
	.loc	1 139 26                        @ ../YOLOv8nODPostProcessing.cpp:139:26
	vsub.f32	s1, s6, s10
.Ltmp228:
	@DEBUG_VALUE: Calculate1DOverlap:left_2 <- $s1
	.loc	1 142 27                        @ ../YOLOv8nODPostProcessing.cpp:142:27
	vadd.f32	s0, s0, s8
.Ltmp229:
	@DEBUG_VALUE: Calculate1DOverlap:right_1 <- $s0
	.loc	1 143 27                        @ ../YOLOv8nODPostProcessing.cpp:143:27
	vadd.f32	s6, s6, s10
.Ltmp230:
	@DEBUG_VALUE: Calculate1DOverlap:right_2 <- $s6
	.loc	1 140 18                        @ ../YOLOv8nODPostProcessing.cpp:140:18
	vmaxnm.f32	s8, s14, s1
.Ltmp231:
	@DEBUG_VALUE: Calculate1DOverlap:leftest <- $s8
	.loc	1 144 19                        @ ../YOLOv8nODPostProcessing.cpp:144:19
	vminnm.f32	s0, s0, s6
.Ltmp232:
	@DEBUG_VALUE: Calculate1DOverlap:rightest <- $s0
	.loc	1 146 18                        @ ../YOLOv8nODPostProcessing.cpp:146:18
	vsub.f32	s8, s0, s8
.Ltmp233:
	@DEBUG_VALUE: CalculateBoxIntersect:width <- $s8
	.loc	1 0 18 is_stmt 0                @ ../YOLOv8nODPostProcessing.cpp:0:18
	vldr	s0, .LCPI5_0
.Ltmp234:
	.loc	1 152 6 is_stmt 1               @ ../YOLOv8nODPostProcessing.cpp:152:6
	vcmp.f32	s8, #0
	vmrs	APSR_nzcv, fpscr
	blt	.LBB5_4
.Ltmp235:
@ %bb.1:
	@DEBUG_VALUE: CalculateBoxIntersect:width <- $s8
	@DEBUG_VALUE: CalculateBoxIntersect:box2 <- $r1
	@DEBUG_VALUE: CalculateBoxIntersect:box1 <- $r0
	@DEBUG_VALUE: CalculateBoxIOU:box2 <- $r1
	@DEBUG_VALUE: CalculateBoxIOU:box1 <- $r0
	.loc	1 155 49                        @ ../YOLOv8nODPostProcessing.cpp:155:49
	vldr	s6, [r0, #12]
	.loc	1 155 65 is_stmt 0              @ ../YOLOv8nODPostProcessing.cpp:155:65
	vldr	s10, [r1, #12]
	@DEBUG_VALUE: Calculate1DOverlap:x2Center <- $s1
.Ltmp236:
	@DEBUG_VALUE: Calculate1DOverlap:width1 <- $s6
	@DEBUG_VALUE: Calculate1DOverlap:x1Center <- $s14
	@DEBUG_VALUE: Calculate1DOverlap:width2 <- $s10
	.loc	1 155 41                        @ ../YOLOv8nODPostProcessing.cpp:155:41
	vldr	s14, [r0, #4]
	.loc	1 155 57                        @ ../YOLOv8nODPostProcessing.cpp:155:57
	vldr	s1, [r1, #4]
.Ltmp237:
	.loc	1 138 34 is_stmt 1              @ ../YOLOv8nODPostProcessing.cpp:138:34
	vmul.f32	s3, s6, s12
	.loc	1 139 34                        @ ../YOLOv8nODPostProcessing.cpp:139:34
	vmul.f32	s12, s10, s12
	.loc	1 138 26                        @ ../YOLOv8nODPostProcessing.cpp:138:26
	vsub.f32	s5, s14, s3
.Ltmp238:
	@DEBUG_VALUE: Calculate1DOverlap:left_1 <- $s5
	.loc	1 139 26                        @ ../YOLOv8nODPostProcessing.cpp:139:26
	vsub.f32	s7, s1, s12
.Ltmp239:
	@DEBUG_VALUE: Calculate1DOverlap:left_2 <- $s7
	.loc	1 142 27                        @ ../YOLOv8nODPostProcessing.cpp:142:27
	vadd.f32	s14, s14, s3
.Ltmp240:
	@DEBUG_VALUE: Calculate1DOverlap:right_1 <- $s14
	.loc	1 143 27                        @ ../YOLOv8nODPostProcessing.cpp:143:27
	vadd.f32	s12, s1, s12
.Ltmp241:
	@DEBUG_VALUE: Calculate1DOverlap:right_2 <- $s12
	.loc	1 140 18                        @ ../YOLOv8nODPostProcessing.cpp:140:18
	vmaxnm.f32	s1, s5, s7
.Ltmp242:
	@DEBUG_VALUE: Calculate1DOverlap:leftest <- $s1
	.loc	1 144 19                        @ ../YOLOv8nODPostProcessing.cpp:144:19
	vminnm.f32	s12, s14, s12
.Ltmp243:
	@DEBUG_VALUE: Calculate1DOverlap:rightest <- $s12
	.loc	1 146 18                        @ ../YOLOv8nODPostProcessing.cpp:146:18
	vsub.f32	s12, s12, s1
.Ltmp244:
	@DEBUG_VALUE: CalculateBoxIOU:boxes_intersection <- undef
	@DEBUG_VALUE: CalculateBoxIntersect:height <- $s12
	.loc	1 0 18 is_stmt 0                @ ../YOLOv8nODPostProcessing.cpp:0:18
	vcmp.f32	s12, #0
	vmrs	APSR_nzcv, fpscr
	blt	.LBB5_4
.Ltmp245:
@ %bb.2:
	@DEBUG_VALUE: CalculateBoxIOU:box2 <- $r1
	@DEBUG_VALUE: CalculateBoxIOU:box1 <- $r0
	vmul.f32	s8, s8, s12
.Ltmp246:
	@DEBUG_VALUE: CalculateBoxIOU:boxes_intersection <- $s8
	vcmp.f32	s8, #0
	vmrs	APSR_nzcv, fpscr
	.loc	1 184 1 is_stmt 1               @ ../YOLOv8nODPostProcessing.cpp:184:1
	it	eq
	bxeq	lr
.Ltmp247:
.LBB5_3:
	@DEBUG_VALUE: CalculateBoxIOU:boxes_intersection <- $s8
	@DEBUG_VALUE: CalculateBoxIOU:box2 <- $r1
	@DEBUG_VALUE: CalculateBoxIOU:box1 <- $r0
	@DEBUG_VALUE: CalculateBoxUnion:box1 <- undef
	@DEBUG_VALUE: CalculateBoxUnion:box2 <- undef
	@DEBUG_VALUE: CalculateBoxIntersect:box1 <- undef
	@DEBUG_VALUE: CalculateBoxIntersect:box2 <- undef
	@DEBUG_VALUE: Calculate1DOverlap:width1 <- $s2
	@DEBUG_VALUE: Calculate1DOverlap:width2 <- $s4
	@DEBUG_VALUE: CalculateBoxIntersect:width <- undef
	@DEBUG_VALUE: Calculate1DOverlap:x1Center <- undef
	@DEBUG_VALUE: Calculate1DOverlap:width1 <- $s6
	@DEBUG_VALUE: Calculate1DOverlap:x2Center <- undef
	@DEBUG_VALUE: Calculate1DOverlap:width2 <- $s10
	@DEBUG_VALUE: Calculate1DOverlap:left_1 <- undef
	@DEBUG_VALUE: Calculate1DOverlap:left_2 <- undef
	@DEBUG_VALUE: Calculate1DOverlap:leftest <- undef
	@DEBUG_VALUE: Calculate1DOverlap:right_1 <- undef
	@DEBUG_VALUE: Calculate1DOverlap:right_2 <- undef
	@DEBUG_VALUE: Calculate1DOverlap:rightest <- undef
	@DEBUG_VALUE: CalculateBoxUnion:boxes_intersection <- $s8
	.loc	1 167 47                        @ ../YOLOv8nODPostProcessing.cpp:167:47
	vmul.f32	s0, s4, s10
	vldr	s4, .LCPI5_0
.Ltmp248:
	.loc	1 167 38 is_stmt 0              @ ../YOLOv8nODPostProcessing.cpp:167:38
	vfma.f32	s0, s2, s6
	.loc	1 167 56                        @ ../YOLOv8nODPostProcessing.cpp:167:56
	vsub.f32	s0, s0, s8
.Ltmp249:
	@DEBUG_VALUE: CalculateBoxIOU:boxes_union <- $s0
	@DEBUG_VALUE: CalculateBoxUnion:boxes_union <- $s0
	.loc	1 179 6 is_stmt 1               @ ../YOLOv8nODPostProcessing.cpp:179:6
	vdiv.f32	s2, s8, s0
.Ltmp250:
	vcmp.f32	s0, #0
	vmrs	APSR_nzcv, fpscr
	vseleq.f32	s0, s4, s2
.Ltmp251:
	@DEBUG_VALUE: CalculateBoxIntersect:height <- undef
	@DEBUG_VALUE: Calculate1DOverlap:rightest <- undef
	@DEBUG_VALUE: Calculate1DOverlap:right_2 <- undef
	@DEBUG_VALUE: Calculate1DOverlap:right_1 <- undef
	@DEBUG_VALUE: Calculate1DOverlap:leftest <- undef
	@DEBUG_VALUE: Calculate1DOverlap:left_2 <- undef
	@DEBUG_VALUE: Calculate1DOverlap:left_1 <- undef
	@DEBUG_VALUE: Calculate1DOverlap:x2Center <- undef
	@DEBUG_VALUE: Calculate1DOverlap:x1Center <- undef
.LBB5_4:
	@DEBUG_VALUE: CalculateBoxIOU:box2 <- $r1
	@DEBUG_VALUE: CalculateBoxIOU:box1 <- $r0
	.loc	1 184 1                         @ ../YOLOv8nODPostProcessing.cpp:184:1
	bx	lr
.Ltmp252:
	.loc	1 0 1 is_stmt 0                 @ :0:1
.Ltmp253:
	.p2align	2
@ %bb.5:
.LCPI5_0:
	.long	0x00000000                      @ float 0
.Lfunc_end5:
	.size	_Z15CalculateBoxIOURN3arm3app10yolov8n_od3BoxES3_, .Lfunc_end5-_Z15CalculateBoxIOURN3arm3app10yolov8n_od3BoxES3_
	.cfi_endproc
	.cantunwind
	.fnend
                                        @ -- End function
	.section	.text._Z12CalculateNMSRNSt3__212forward_listIN3arm3app10yolov8n_od9DetectionENS_9allocatorIS4_EEEEif,"ax",%progbits
	.hidden	_Z12CalculateNMSRNSt3__212forward_listIN3arm3app10yolov8n_od9DetectionENS_9allocatorIS4_EEEEif @ -- Begin function _Z12CalculateNMSRNSt3__212forward_listIN3arm3app10yolov8n_od9DetectionENS_9allocatorIS4_EEEEif
	.globl	_Z12CalculateNMSRNSt3__212forward_listIN3arm3app10yolov8n_od9DetectionENS_9allocatorIS4_EEEEif
	.p2align	2
	.type	_Z12CalculateNMSRNSt3__212forward_listIN3arm3app10yolov8n_od9DetectionENS_9allocatorIS4_EEEEif,%function
	.code	16                              @ @_Z12CalculateNMSRNSt3__212forward_listIN3arm3app10yolov8n_od9DetectionENS_9allocatorIS4_EEEEif
	.thumb_func
_Z12CalculateNMSRNSt3__212forward_listIN3arm3app10yolov8n_od9DetectionENS_9allocatorIS4_EEEEif:
.Lfunc_begin6:
	.fnstart
	.cfi_startproc
@ %bb.0:
	@DEBUG_VALUE: CalculateNMS:detections <- $r0
	@DEBUG_VALUE: CalculateNMS:classes <- $r1
	@DEBUG_VALUE: CalculateNMS:iouThreshold <- $s0
	@DEBUG_VALUE: CalculateNMS:iouThreshold <- $s0
	@DEBUG_VALUE: CalculateNMS:classes <- $r1
	.loc	1 193 2 prologue_end is_stmt 1  @ ../YOLOv8nODPostProcessing.cpp:193:2
	cmp	r1, #1
.Ltmp254:
	@DEBUG_VALUE: CalculateNMS:idxClass <- 0
	@DEBUG_VALUE: CalculateNMS:CompareProbs <- 0
	@DEBUG_VALUE: CalculateNMS:detections <- $r0
	.loc	1 208 1                         @ ../YOLOv8nODPostProcessing.cpp:208:1
	it	lt
	bxlt	lr
.Ltmp255:
.LBB6_1:
	@DEBUG_VALUE: CalculateNMS:CompareProbs <- 0
	@DEBUG_VALUE: CalculateNMS:idxClass <- 0
	@DEBUG_VALUE: CalculateNMS:iouThreshold <- $s0
	@DEBUG_VALUE: CalculateNMS:classes <- $r1
	@DEBUG_VALUE: CalculateNMS:detections <- $r0
	.save	{r4, r5, r6, r7, r8, r9, lr}
	push.w	{r4, r5, r6, r7, r8, r9, lr}
	.cfi_def_cfa_offset 28
	.cfi_offset lr, -4
	.cfi_offset r9, -8
	.cfi_offset r8, -12
	.cfi_offset r7, -16
	.cfi_offset r6, -20
	.cfi_offset r5, -24
	.cfi_offset r4, -28
	.pad	#4
	sub	sp, #4
	.cfi_def_cfa_offset 32
	.vsave	{d8, d9, d10}
	vpush	{d8, d9, d10}
	.cfi_def_cfa_offset 56
	.cfi_offset d10, -40
	.cfi_offset d9, -48
	.cfi_offset d8, -56
	.pad	#8
	sub	sp, #8
	.cfi_def_cfa_offset 64
	mov	r9, r0
.Ltmp256:
	@DEBUG_VALUE: CalculateNMS:detections <- $r9
	.loc	21 1425 68                      @ AppData\Local\Keil_v5\ARM\ARMCLANG\bin\..\include\libcxx\forward_list:1425:68
	ldr	r0, [r0]
	vldr	s20, .LCPI6_0
	vmov.f32	s16, s0
.Ltmp257:
	@DEBUG_VALUE: CalculateNMS:iouThreshold <- $s16
	@DEBUG_VALUE: CalculateNMS:iouThreshold <- $s16
	.loc	21 0 68 is_stmt 0               @ AppData\Local\Keil_v5\ARM\ARMCLANG\bin\..\include\libcxx\forward_list:0:68
	mov	r4, r1
.Ltmp258:
	@DEBUG_VALUE: CalculateNMS:classes <- $r4
	@DEBUG_VALUE: CalculateNMS:classes <- $r4
	movs	r7, #0
	vmov.f32	s18, #5.000000e-01
	add.w	r8, sp, #4
	movs	r6, #0
	b	.LBB6_3
.Ltmp259:
	.p2align	2
.LBB6_2:                                @   in Loop: Header=BB6_3 Depth=1
	@DEBUG_VALUE: CalculateNMS:idxClass <- $r6
	@DEBUG_VALUE: CalculateNMS:classes <- $r4
	@DEBUG_VALUE: CalculateNMS:iouThreshold <- $s16
	@DEBUG_VALUE: CalculateNMS:detections <- $r9
	@DEBUG_VALUE: CalculateNMS:CompareProbs <- 0
	.loc	1 193 41 is_stmt 1              @ ../YOLOv8nODPostProcessing.cpp:193:41
	adds	r6, #1
.Ltmp260:
	@DEBUG_VALUE: CalculateNMS:idxClass <- $r6
	.loc	1 193 2 is_stmt 0               @ ../YOLOv8nODPostProcessing.cpp:193:2
	cmp	r6, r4
	beq.w	.LBB6_25
.Ltmp261:
.LBB6_3:                                @ =>This Loop Header: Depth=1
                                        @     Child Loop BB6_5 Depth 2
                                        @     Child Loop BB6_15 Depth 2
                                        @       Child Loop BB6_20 Depth 3
	@DEBUG_VALUE: CalculateNMS:classes <- $r4
	@DEBUG_VALUE: CalculateNMS:iouThreshold <- $s16
	@DEBUG_VALUE: CalculateNMS:detections <- $r9
	@DEBUG_VALUE: CalculateNMS:CompareProbs <- 0
	@DEBUG_VALUE: CalculateNMS:idxClass <- $r6
	@DEBUG_VALUE: sort<(lambda at ../YOLOv8nODPostProcessing.cpp:189:22)>:__comp <- undef
	.loc	1 0 2                           @ ../YOLOv8nODPostProcessing.cpp:0:2
	str	r7, [sp, #4]
.Ltmp262:
	@DEBUG_VALUE: operator==:__y <- undef
	@DEBUG_VALUE: operator==:__x <- undef
	@DEBUG_VALUE: operator!=:__y <- undef
	@DEBUG_VALUE: operator!=:__x <- undef
	@DEBUG_VALUE: __distance<std::__2::__forward_list_iterator<std::__2::__forward_list_node<arm::app::yolov8n_od::Detection, void *> *> >:__first <- $r0
	@DEBUG_VALUE: __distance<std::__2::__forward_list_iterator<std::__2::__forward_list_node<arm::app::yolov8n_od::Detection, void *> *> >:__r <- 0
	@DEBUG_VALUE: __distance<std::__2::__forward_list_iterator<std::__2::__forward_list_node<arm::app::yolov8n_od::Detection, void *> *> >:__last <- 0
	@DEBUG_VALUE: operator++:this <- undef
	@DEBUG_VALUE: distance<std::__2::__forward_list_iterator<std::__2::__forward_list_node<arm::app::yolov8n_od::Detection, void *> *> >:__last <- undef
	@DEBUG_VALUE: distance<std::__2::__forward_list_iterator<std::__2::__forward_list_node<arm::app::yolov8n_od::Detection, void *> *> >:__first <- undef
	@DEBUG_VALUE: sort<(lambda at ../YOLOv8nODPostProcessing.cpp:189:22)>:this <- $r9
	@DEBUG_VALUE: sort<(lambda at ../YOLOv8nODPostProcessing.cpp:189:22)>:__comp <- [DW_OP_plus_uconst 4, DW_OP_deref] $sp
	.file	37 "C:\\Users\\jimmy" "AppData\\Local\\Keil_v5\\ARM\\ARMCLANG\\bin\\..\\include\\libcxx\\__iterator\\distance.h"
	.loc	37 33 3 is_stmt 1               @ AppData\Local\Keil_v5\ARM\ARMCLANG\bin\..\include\libcxx\__iterator\distance.h:33:3
	cbz	r0, .LBB6_10
.Ltmp263:
@ %bb.4:                                @   in Loop: Header=BB6_3 Depth=1
	@DEBUG_VALUE: sort<(lambda at ../YOLOv8nODPostProcessing.cpp:189:22)>:__comp <- [DW_OP_plus_uconst 4, DW_OP_deref] $sp
	@DEBUG_VALUE: sort<(lambda at ../YOLOv8nODPostProcessing.cpp:189:22)>:this <- $r9
	@DEBUG_VALUE: __distance<std::__2::__forward_list_iterator<std::__2::__forward_list_node<arm::app::yolov8n_od::Detection, void *> *> >:__last <- 0
	@DEBUG_VALUE: __distance<std::__2::__forward_list_iterator<std::__2::__forward_list_node<arm::app::yolov8n_od::Detection, void *> *> >:__r <- 0
	@DEBUG_VALUE: __distance<std::__2::__forward_list_iterator<std::__2::__forward_list_node<arm::app::yolov8n_od::Detection, void *> *> >:__first <- $r0
	@DEBUG_VALUE: CalculateNMS:idxClass <- $r6
	@DEBUG_VALUE: CalculateNMS:classes <- $r4
	@DEBUG_VALUE: CalculateNMS:iouThreshold <- $s16
	@DEBUG_VALUE: CalculateNMS:detections <- $r9
	@DEBUG_VALUE: CalculateNMS:CompareProbs <- 0
	.loc	37 0 3 is_stmt 0                @ AppData\Local\Keil_v5\ARM\ARMCLANG\bin\..\include\libcxx\__iterator\distance.h:0:3
	movs	r1, #1
	mov	r2, r0
.Ltmp264:
	.p2align	2
.LBB6_5:                                @   Parent Loop BB6_3 Depth=1
                                        @ =>  This Inner Loop Header: Depth=2
	@DEBUG_VALUE: sort<(lambda at ../YOLOv8nODPostProcessing.cpp:189:22)>:__comp <- [DW_OP_plus_uconst 4, DW_OP_deref] $sp
	@DEBUG_VALUE: sort<(lambda at ../YOLOv8nODPostProcessing.cpp:189:22)>:this <- $r9
	@DEBUG_VALUE: __distance<std::__2::__forward_list_iterator<std::__2::__forward_list_node<arm::app::yolov8n_od::Detection, void *> *> >:__last <- 0
	@DEBUG_VALUE: CalculateNMS:idxClass <- $r6
	@DEBUG_VALUE: CalculateNMS:classes <- $r4
	@DEBUG_VALUE: CalculateNMS:iouThreshold <- $s16
	@DEBUG_VALUE: CalculateNMS:detections <- $r9
	@DEBUG_VALUE: CalculateNMS:CompareProbs <- 0
	@DEBUG_VALUE: operator++:this <- undef
	@DEBUG_VALUE: __distance<std::__2::__forward_list_iterator<std::__2::__forward_list_node<arm::app::yolov8n_od::Detection, void *> *> >:__r <- [DW_OP_constu 1, DW_OP_or, DW_OP_stack_value] $r1
	@DEBUG_VALUE: __distance<std::__2::__forward_list_iterator<std::__2::__forward_list_node<arm::app::yolov8n_od::Detection, void *> *> >:__first <- $r2
	.loc	21 392 47 is_stmt 1             @ AppData\Local\Keil_v5\ARM\ARMCLANG\bin\..\include\libcxx\forward_list:392:47
	ldr	r2, [r2]
.Ltmp265:
	@DEBUG_VALUE: operator==:__y <- undef
	@DEBUG_VALUE: operator==:__x <- undef
	@DEBUG_VALUE: operator!=:__y <- undef
	@DEBUG_VALUE: operator!=:__x <- undef
	@DEBUG_VALUE: __distance<std::__2::__forward_list_iterator<std::__2::__forward_list_node<arm::app::yolov8n_od::Detection, void *> *> >:__first <- $r2
	.loc	37 33 3                         @ AppData\Local\Keil_v5\ARM\ARMCLANG\bin\..\include\libcxx\__iterator\distance.h:33:3
	cbz	r2, .LBB6_13
.Ltmp266:
@ %bb.6:                                @   in Loop: Header=BB6_5 Depth=2
	@DEBUG_VALUE: __distance<std::__2::__forward_list_iterator<std::__2::__forward_list_node<arm::app::yolov8n_od::Detection, void *> *> >:__first <- $r2
	@DEBUG_VALUE: __distance<std::__2::__forward_list_iterator<std::__2::__forward_list_node<arm::app::yolov8n_od::Detection, void *> *> >:__r <- [DW_OP_constu 1, DW_OP_or, DW_OP_stack_value] $r1
	@DEBUG_VALUE: sort<(lambda at ../YOLOv8nODPostProcessing.cpp:189:22)>:__comp <- [DW_OP_plus_uconst 4, DW_OP_deref] $sp
	@DEBUG_VALUE: sort<(lambda at ../YOLOv8nODPostProcessing.cpp:189:22)>:this <- $r9
	@DEBUG_VALUE: __distance<std::__2::__forward_list_iterator<std::__2::__forward_list_node<arm::app::yolov8n_od::Detection, void *> *> >:__last <- 0
	@DEBUG_VALUE: CalculateNMS:idxClass <- $r6
	@DEBUG_VALUE: CalculateNMS:classes <- $r4
	@DEBUG_VALUE: CalculateNMS:iouThreshold <- $s16
	@DEBUG_VALUE: CalculateNMS:detections <- $r9
	@DEBUG_VALUE: CalculateNMS:CompareProbs <- 0
	@DEBUG_VALUE: operator++:this <- undef
	@DEBUG_VALUE: __distance<std::__2::__forward_list_iterator<std::__2::__forward_list_node<arm::app::yolov8n_od::Detection, void *> *> >:__r <- [DW_OP_constu 2, DW_OP_or, DW_OP_stack_value] $r1
	@DEBUG_VALUE: __distance<std::__2::__forward_list_iterator<std::__2::__forward_list_node<arm::app::yolov8n_od::Detection, void *> *> >:__first <- $r2
	.loc	21 392 47                       @ AppData\Local\Keil_v5\ARM\ARMCLANG\bin\..\include\libcxx\forward_list:392:47
	ldr	r2, [r2]
.Ltmp267:
	@DEBUG_VALUE: operator==:__y <- undef
	@DEBUG_VALUE: operator==:__x <- undef
	@DEBUG_VALUE: operator!=:__y <- undef
	@DEBUG_VALUE: operator!=:__x <- undef
	@DEBUG_VALUE: __distance<std::__2::__forward_list_iterator<std::__2::__forward_list_node<arm::app::yolov8n_od::Detection, void *> *> >:__first <- $r2
	.loc	37 33 3                         @ AppData\Local\Keil_v5\ARM\ARMCLANG\bin\..\include\libcxx\__iterator\distance.h:33:3
	cbz	r2, .LBB6_11
.Ltmp268:
@ %bb.7:                                @   in Loop: Header=BB6_5 Depth=2
	@DEBUG_VALUE: __distance<std::__2::__forward_list_iterator<std::__2::__forward_list_node<arm::app::yolov8n_od::Detection, void *> *> >:__r <- [DW_OP_constu 2, DW_OP_or, DW_OP_stack_value] $r1
	@DEBUG_VALUE: __distance<std::__2::__forward_list_iterator<std::__2::__forward_list_node<arm::app::yolov8n_od::Detection, void *> *> >:__first <- $r2
	@DEBUG_VALUE: sort<(lambda at ../YOLOv8nODPostProcessing.cpp:189:22)>:__comp <- [DW_OP_plus_uconst 4, DW_OP_deref] $sp
	@DEBUG_VALUE: sort<(lambda at ../YOLOv8nODPostProcessing.cpp:189:22)>:this <- $r9
	@DEBUG_VALUE: __distance<std::__2::__forward_list_iterator<std::__2::__forward_list_node<arm::app::yolov8n_od::Detection, void *> *> >:__last <- 0
	@DEBUG_VALUE: CalculateNMS:idxClass <- $r6
	@DEBUG_VALUE: CalculateNMS:classes <- $r4
	@DEBUG_VALUE: CalculateNMS:iouThreshold <- $s16
	@DEBUG_VALUE: CalculateNMS:detections <- $r9
	@DEBUG_VALUE: CalculateNMS:CompareProbs <- 0
	@DEBUG_VALUE: operator++:this <- undef
	@DEBUG_VALUE: __distance<std::__2::__forward_list_iterator<std::__2::__forward_list_node<arm::app::yolov8n_od::Detection, void *> *> >:__r <- [DW_OP_constu 3, DW_OP_or, DW_OP_stack_value] $r1
	@DEBUG_VALUE: __distance<std::__2::__forward_list_iterator<std::__2::__forward_list_node<arm::app::yolov8n_od::Detection, void *> *> >:__first <- $r2
	.loc	21 392 47                       @ AppData\Local\Keil_v5\ARM\ARMCLANG\bin\..\include\libcxx\forward_list:392:47
	ldr	r2, [r2]
.Ltmp269:
	@DEBUG_VALUE: operator==:__y <- undef
	@DEBUG_VALUE: operator==:__x <- undef
	@DEBUG_VALUE: operator!=:__y <- undef
	@DEBUG_VALUE: operator!=:__x <- undef
	@DEBUG_VALUE: __distance<std::__2::__forward_list_iterator<std::__2::__forward_list_node<arm::app::yolov8n_od::Detection, void *> *> >:__first <- $r2
	.loc	37 33 3                         @ AppData\Local\Keil_v5\ARM\ARMCLANG\bin\..\include\libcxx\__iterator\distance.h:33:3
	cbz	r2, .LBB6_12
.Ltmp270:
@ %bb.8:                                @   in Loop: Header=BB6_5 Depth=2
	@DEBUG_VALUE: __distance<std::__2::__forward_list_iterator<std::__2::__forward_list_node<arm::app::yolov8n_od::Detection, void *> *> >:__r <- [DW_OP_constu 3, DW_OP_or, DW_OP_stack_value] $r1
	@DEBUG_VALUE: __distance<std::__2::__forward_list_iterator<std::__2::__forward_list_node<arm::app::yolov8n_od::Detection, void *> *> >:__first <- $r2
	@DEBUG_VALUE: sort<(lambda at ../YOLOv8nODPostProcessing.cpp:189:22)>:__comp <- [DW_OP_plus_uconst 4, DW_OP_deref] $sp
	@DEBUG_VALUE: sort<(lambda at ../YOLOv8nODPostProcessing.cpp:189:22)>:this <- $r9
	@DEBUG_VALUE: __distance<std::__2::__forward_list_iterator<std::__2::__forward_list_node<arm::app::yolov8n_od::Detection, void *> *> >:__last <- 0
	@DEBUG_VALUE: CalculateNMS:idxClass <- $r6
	@DEBUG_VALUE: CalculateNMS:classes <- $r4
	@DEBUG_VALUE: CalculateNMS:iouThreshold <- $s16
	@DEBUG_VALUE: CalculateNMS:detections <- $r9
	@DEBUG_VALUE: CalculateNMS:CompareProbs <- 0
	@DEBUG_VALUE: operator++:this <- undef
	@DEBUG_VALUE: __distance<std::__2::__forward_list_iterator<std::__2::__forward_list_node<arm::app::yolov8n_od::Detection, void *> *> >:__r <- [DW_OP_plus_uconst 3, DW_OP_stack_value] $r1
	@DEBUG_VALUE: __distance<std::__2::__forward_list_iterator<std::__2::__forward_list_node<arm::app::yolov8n_od::Detection, void *> *> >:__first <- $r2
	.loc	21 392 47                       @ AppData\Local\Keil_v5\ARM\ARMCLANG\bin\..\include\libcxx\forward_list:392:47
	ldr	r2, [r2]
.Ltmp271:
	@DEBUG_VALUE: operator==:__y <- undef
	@DEBUG_VALUE: operator==:__x <- undef
	@DEBUG_VALUE: operator!=:__y <- undef
	@DEBUG_VALUE: operator!=:__x <- undef
	@DEBUG_VALUE: __distance<std::__2::__forward_list_iterator<std::__2::__forward_list_node<arm::app::yolov8n_od::Detection, void *> *> >:__first <- $r2
	.loc	37 33 3                         @ AppData\Local\Keil_v5\ARM\ARMCLANG\bin\..\include\libcxx\__iterator\distance.h:33:3
	adds	r1, #4
.Ltmp272:
	cbz	r2, .LBB6_9
	le	.LBB6_5
.Ltmp273:
.LBB6_9:                                @   in Loop: Header=BB6_3 Depth=1
	@DEBUG_VALUE: sort<(lambda at ../YOLOv8nODPostProcessing.cpp:189:22)>:__comp <- [DW_OP_plus_uconst 4, DW_OP_deref] $sp
	@DEBUG_VALUE: sort<(lambda at ../YOLOv8nODPostProcessing.cpp:189:22)>:this <- $r9
	@DEBUG_VALUE: CalculateNMS:idxClass <- $r6
	@DEBUG_VALUE: CalculateNMS:classes <- $r4
	@DEBUG_VALUE: CalculateNMS:iouThreshold <- $s16
	@DEBUG_VALUE: CalculateNMS:detections <- $r9
	@DEBUG_VALUE: CalculateNMS:CompareProbs <- 0
	.loc	21 1425 37                      @ AppData\Local\Keil_v5\ARM\ARMCLANG\bin\..\include\libcxx\forward_list:1425:37
	subs	r1, #1
	b	.LBB6_13
.Ltmp274:
	.loc	21 0 37 is_stmt 0               @ :0:37
.Ltmp275:
	.p2align	2
.LBB6_10:                               @   in Loop: Header=BB6_3 Depth=1
	@DEBUG_VALUE: sort<(lambda at ../YOLOv8nODPostProcessing.cpp:189:22)>:__comp <- [DW_OP_plus_uconst 4, DW_OP_deref] $sp
	@DEBUG_VALUE: sort<(lambda at ../YOLOv8nODPostProcessing.cpp:189:22)>:this <- $r9
	@DEBUG_VALUE: __distance<std::__2::__forward_list_iterator<std::__2::__forward_list_node<arm::app::yolov8n_od::Detection, void *> *> >:__last <- 0
	@DEBUG_VALUE: __distance<std::__2::__forward_list_iterator<std::__2::__forward_list_node<arm::app::yolov8n_od::Detection, void *> *> >:__r <- 0
	@DEBUG_VALUE: __distance<std::__2::__forward_list_iterator<std::__2::__forward_list_node<arm::app::yolov8n_od::Detection, void *> *> >:__first <- $r0
	@DEBUG_VALUE: CalculateNMS:idxClass <- $r6
	@DEBUG_VALUE: CalculateNMS:classes <- $r4
	@DEBUG_VALUE: CalculateNMS:iouThreshold <- $s16
	@DEBUG_VALUE: CalculateNMS:detections <- $r9
	@DEBUG_VALUE: CalculateNMS:CompareProbs <- 0
	movs	r1, #0
.Ltmp276:
	.loc	37 33 3 is_stmt 1               @ AppData\Local\Keil_v5\ARM\ARMCLANG\bin\..\include\libcxx\__iterator\distance.h:33:3
	b	.LBB6_13
.Ltmp277:
.LBB6_11:                               @   in Loop: Header=BB6_3 Depth=1
	@DEBUG_VALUE: sort<(lambda at ../YOLOv8nODPostProcessing.cpp:189:22)>:__comp <- [DW_OP_plus_uconst 4, DW_OP_deref] $sp
	@DEBUG_VALUE: sort<(lambda at ../YOLOv8nODPostProcessing.cpp:189:22)>:this <- $r9
	@DEBUG_VALUE: CalculateNMS:idxClass <- $r6
	@DEBUG_VALUE: CalculateNMS:classes <- $r4
	@DEBUG_VALUE: CalculateNMS:iouThreshold <- $s16
	@DEBUG_VALUE: CalculateNMS:detections <- $r9
	@DEBUG_VALUE: CalculateNMS:CompareProbs <- 0
	.loc	21 1425 37                      @ AppData\Local\Keil_v5\ARM\ARMCLANG\bin\..\include\libcxx\forward_list:1425:37
	adds	r1, #1
	b	.LBB6_13
.Ltmp278:
.LBB6_12:                               @   in Loop: Header=BB6_3 Depth=1
	@DEBUG_VALUE: sort<(lambda at ../YOLOv8nODPostProcessing.cpp:189:22)>:__comp <- [DW_OP_plus_uconst 4, DW_OP_deref] $sp
	@DEBUG_VALUE: sort<(lambda at ../YOLOv8nODPostProcessing.cpp:189:22)>:this <- $r9
	@DEBUG_VALUE: CalculateNMS:idxClass <- $r6
	@DEBUG_VALUE: CalculateNMS:classes <- $r4
	@DEBUG_VALUE: CalculateNMS:iouThreshold <- $s16
	@DEBUG_VALUE: CalculateNMS:detections <- $r9
	@DEBUG_VALUE: CalculateNMS:CompareProbs <- 0
	adds	r1, #2
.Ltmp279:
	.loc	21 0 37 is_stmt 0               @ :0:37
.Ltmp280:
	.p2align	2
.LBB6_13:                               @   in Loop: Header=BB6_3 Depth=1
	@DEBUG_VALUE: sort<(lambda at ../YOLOv8nODPostProcessing.cpp:189:22)>:__comp <- [DW_OP_plus_uconst 4, DW_OP_deref] $sp
	@DEBUG_VALUE: sort<(lambda at ../YOLOv8nODPostProcessing.cpp:189:22)>:this <- $r9
	@DEBUG_VALUE: CalculateNMS:idxClass <- $r6
	@DEBUG_VALUE: CalculateNMS:classes <- $r4
	@DEBUG_VALUE: CalculateNMS:iouThreshold <- $s16
	@DEBUG_VALUE: CalculateNMS:detections <- $r9
	@DEBUG_VALUE: CalculateNMS:CompareProbs <- 0
	.loc	21 1425 37                      @ AppData\Local\Keil_v5\ARM\ARMCLANG\bin\..\include\libcxx\forward_list:1425:37
	mov	r2, r8
	bl	_ZNSt3__212forward_listIN3arm3app10yolov8n_od9DetectionENS_9allocatorIS4_EEE6__sortIZ12CalculateNMSRS7_ifE3$_0EEPNS_19__forward_list_nodeIS4_PvEESE_iRT_
.Ltmp281:
	@DEBUG_VALUE: it <- $r0
	.loc	21 0 37                         @ AppData\Local\Keil_v5\ARM\ARMCLANG\bin\..\include\libcxx\forward_list:0:37
	mov	r1, r0
	.loc	21 1425 35                      @ AppData\Local\Keil_v5\ARM\ARMCLANG\bin\..\include\libcxx\forward_list:1425:35
	str.w	r0, [r9]
.Ltmp282:
	@DEBUG_VALUE: operator==:__y <- undef
	@DEBUG_VALUE: operator==:__x <- undef
	@DEBUG_VALUE: operator!=:__y <- undef
	@DEBUG_VALUE: operator!=:__x <- undef
	.loc	1 196 3 is_stmt 1               @ ../YOLOv8nODPostProcessing.cpp:196:3
	cbnz	r0, .LBB6_15
	b	.LBB6_2
.Ltmp283:
	.loc	1 0 3 is_stmt 0                 @ :0:3
.Ltmp284:
	.p2align	2
.LBB6_14:                               @   in Loop: Header=BB6_15 Depth=2
	@DEBUG_VALUE: it <- $r1
	@DEBUG_VALUE: CalculateNMS:idxClass <- $r6
	@DEBUG_VALUE: CalculateNMS:classes <- $r4
	@DEBUG_VALUE: CalculateNMS:iouThreshold <- $s16
	@DEBUG_VALUE: CalculateNMS:detections <- $r9
	@DEBUG_VALUE: CalculateNMS:CompareProbs <- 0
	@DEBUG_VALUE: it <- $r2
	@DEBUG_VALUE: operator!=:__x <- undef
	@DEBUG_VALUE: operator!=:__y <- undef
	@DEBUG_VALUE: operator==:__x <- undef
	@DEBUG_VALUE: operator==:__y <- undef
	@DEBUG_VALUE: operator++:this <- undef
	.loc	1 196 3                         @ ../YOLOv8nODPostProcessing.cpp:196:3
	cmp	r2, #0
	mov	r1, r2
.Ltmp285:
	@DEBUG_VALUE: it <- $r1
	beq	.LBB6_2
.Ltmp286:
.LBB6_15:                               @   Parent Loop BB6_3 Depth=1
                                        @ =>  This Loop Header: Depth=2
                                        @       Child Loop BB6_20 Depth 3
	@DEBUG_VALUE: CalculateNMS:idxClass <- $r6
	@DEBUG_VALUE: CalculateNMS:classes <- $r4
	@DEBUG_VALUE: CalculateNMS:iouThreshold <- $s16
	@DEBUG_VALUE: CalculateNMS:detections <- $r9
	@DEBUG_VALUE: CalculateNMS:CompareProbs <- 0
	@DEBUG_VALUE: it <- $r1
	@DEBUG_VALUE: operator->:this <- undef
	@DEBUG_VALUE: __get_value:this <- $r1
	@DEBUG_VALUE: operator[]:this <- [DW_OP_plus_uconst 32, DW_OP_stack_value] $r1
	.loc	2 1436 16 is_stmt 1             @ AppData\Local\Keil_v5\ARM\ARMCLANG\bin\..\include\libcxx\vector:1436:16
	ldr	r2, [r1, #32]
	.loc	2 1436 10 is_stmt 0             @ AppData\Local\Keil_v5\ARM\ARMCLANG\bin\..\include\libcxx\vector:1436:10
	add.w	r2, r2, r6, lsl #2
.Ltmp287:
	.loc	1 197 8 is_stmt 1               @ ../YOLOv8nODPostProcessing.cpp:197:8
	vldr	s0, [r2]
.Ltmp288:
	.loc	21 392 47                       @ AppData\Local\Keil_v5\ARM\ARMCLANG\bin\..\include\libcxx\forward_list:392:47
	ldr	r2, [r1]
.Ltmp289:
	@DEBUG_VALUE: operator[]:__n <- $r6
	.loc	1 197 8                         @ ../YOLOv8nODPostProcessing.cpp:197:8
	vcmp.f32	s0, #0
	vmrs	APSR_nzcv, fpscr
	beq	.LBB6_14
.Ltmp290:
@ %bb.16:                               @   in Loop: Header=BB6_15 Depth=2
	@DEBUG_VALUE: it <- $r1
	@DEBUG_VALUE: CalculateNMS:idxClass <- $r6
	@DEBUG_VALUE: CalculateNMS:classes <- $r4
	@DEBUG_VALUE: CalculateNMS:iouThreshold <- $s16
	@DEBUG_VALUE: CalculateNMS:detections <- $r9
	@DEBUG_VALUE: CalculateNMS:CompareProbs <- 0
	@DEBUG_VALUE: operator++:this <- undef
	@DEBUG_VALUE: itc <- $r2
	@DEBUG_VALUE: operator!=:__x <- undef
	@DEBUG_VALUE: operator!=:__y <- undef
	@DEBUG_VALUE: operator==:__x <- undef
	@DEBUG_VALUE: operator==:__y <- undef
	.loc	1 198 4                         @ ../YOLOv8nODPostProcessing.cpp:198:4
	cmp	r2, #0
	beq	.LBB6_2
.Ltmp291:
@ %bb.17:                               @   in Loop: Header=BB6_15 Depth=2
	@DEBUG_VALUE: itc <- $r2
	@DEBUG_VALUE: it <- $r1
	@DEBUG_VALUE: CalculateNMS:idxClass <- $r6
	@DEBUG_VALUE: CalculateNMS:classes <- $r4
	@DEBUG_VALUE: CalculateNMS:iouThreshold <- $s16
	@DEBUG_VALUE: CalculateNMS:detections <- $r9
	@DEBUG_VALUE: CalculateNMS:CompareProbs <- 0
	.loc	1 0 4 is_stmt 0                 @ ../YOLOv8nODPostProcessing.cpp:0:4
	mov	r3, r2
	b	.LBB6_20
.Ltmp292:
	.p2align	2
.LBB6_18:                               @   in Loop: Header=BB6_20 Depth=3
	@DEBUG_VALUE: itc <- $r3
	@DEBUG_VALUE: it <- $r1
	@DEBUG_VALUE: CalculateNMS:idxClass <- $r6
	@DEBUG_VALUE: CalculateNMS:classes <- $r4
	@DEBUG_VALUE: CalculateNMS:iouThreshold <- $s16
	@DEBUG_VALUE: CalculateNMS:detections <- $r9
	@DEBUG_VALUE: CalculateNMS:CompareProbs <- 0
	.loc	1 202 9 is_stmt 1               @ ../YOLOv8nODPostProcessing.cpp:202:9
	vcmp.f32	s10, s16
	vmrs	APSR_nzcv, fpscr
.Ltmp293:
	@DEBUG_VALUE: operator->:this <- undef
	@DEBUG_VALUE: __get_value:this <- $r3
	@DEBUG_VALUE: operator[]:__n <- $r6
	@DEBUG_VALUE: operator[]:this <- [DW_OP_plus_uconst 32, DW_OP_stack_value] $r3
	.loc	1 203 26                        @ ../YOLOv8nODPostProcessing.cpp:203:26
	it	gt
	strgt	r7, [r5]
.Ltmp294:
.LBB6_19:                               @   in Loop: Header=BB6_20 Depth=3
	@DEBUG_VALUE: itc <- $r3
	@DEBUG_VALUE: it <- $r1
	@DEBUG_VALUE: CalculateNMS:idxClass <- $r6
	@DEBUG_VALUE: CalculateNMS:classes <- $r4
	@DEBUG_VALUE: CalculateNMS:iouThreshold <- $s16
	@DEBUG_VALUE: CalculateNMS:detections <- $r9
	@DEBUG_VALUE: CalculateNMS:CompareProbs <- 0
	@DEBUG_VALUE: operator++:this <- undef
	.loc	21 392 47                       @ AppData\Local\Keil_v5\ARM\ARMCLANG\bin\..\include\libcxx\forward_list:392:47
	ldr	r3, [r3]
.Ltmp295:
	@DEBUG_VALUE: operator==:__y <- undef
	@DEBUG_VALUE: operator==:__x <- undef
	@DEBUG_VALUE: operator!=:__y <- undef
	@DEBUG_VALUE: operator!=:__x <- undef
	@DEBUG_VALUE: itc <- $r3
	.loc	1 198 4                         @ ../YOLOv8nODPostProcessing.cpp:198:4
	cmp	r3, #0
	beq	.LBB6_14
.Ltmp296:
.LBB6_20:                               @   Parent Loop BB6_3 Depth=1
                                        @     Parent Loop BB6_15 Depth=2
                                        @ =>    This Inner Loop Header: Depth=3
	@DEBUG_VALUE: it <- $r1
	@DEBUG_VALUE: CalculateNMS:idxClass <- $r6
	@DEBUG_VALUE: CalculateNMS:classes <- $r4
	@DEBUG_VALUE: CalculateNMS:iouThreshold <- $s16
	@DEBUG_VALUE: CalculateNMS:detections <- $r9
	@DEBUG_VALUE: CalculateNMS:CompareProbs <- 0
	@DEBUG_VALUE: itc <- $r3
	@DEBUG_VALUE: operator->:this <- undef
	@DEBUG_VALUE: __get_value:this <- $r3
	@DEBUG_VALUE: operator[]:this <- [DW_OP_plus_uconst 32, DW_OP_stack_value] $r3
	@DEBUG_VALUE: operator[]:__n <- $r6
	.loc	2 1436 16                       @ AppData\Local\Keil_v5\ARM\ARMCLANG\bin\..\include\libcxx\vector:1436:16
	ldr	r5, [r3, #32]
	.loc	2 1436 10 is_stmt 0             @ AppData\Local\Keil_v5\ARM\ARMCLANG\bin\..\include\libcxx\vector:1436:10
	add.w	r5, r5, r6, lsl #2
.Ltmp297:
	.loc	1 199 9 is_stmt 1               @ ../YOLOv8nODPostProcessing.cpp:199:9
	vldr	s0, [r5]
.Ltmp298:
	.loc	1 199 9 is_stmt 0               @ ../YOLOv8nODPostProcessing.cpp:199:9
	vcmp.f32	s0, #0
	vmrs	APSR_nzcv, fpscr
	beq	.LBB6_19
.Ltmp299:
@ %bb.21:                               @   in Loop: Header=BB6_20 Depth=3
	@DEBUG_VALUE: itc <- $r3
	@DEBUG_VALUE: it <- $r1
	@DEBUG_VALUE: CalculateNMS:idxClass <- $r6
	@DEBUG_VALUE: CalculateNMS:classes <- $r4
	@DEBUG_VALUE: CalculateNMS:iouThreshold <- $s16
	@DEBUG_VALUE: CalculateNMS:detections <- $r9
	@DEBUG_VALUE: CalculateNMS:CompareProbs <- 0
	@DEBUG_VALUE: CalculateBoxIOU:box2 <- [DW_OP_plus_uconst 4, DW_OP_stack_value] $r3
	@DEBUG_VALUE: CalculateBoxIntersect:box2 <- [DW_OP_plus_uconst 4, DW_OP_stack_value] $r3
	@DEBUG_VALUE: operator->:this <- undef
	@DEBUG_VALUE: __get_value:this <- $r1
	@DEBUG_VALUE: operator->:this <- undef
	@DEBUG_VALUE: __get_value:this <- $r3
	@DEBUG_VALUE: CalculateBoxIOU:box1 <- [DW_OP_plus_uconst 4, DW_OP_stack_value] $r1
	@DEBUG_VALUE: CalculateBoxIntersect:box1 <- [DW_OP_plus_uconst 4, DW_OP_stack_value] $r1
	.loc	1 151 48 is_stmt 1              @ ../YOLOv8nODPostProcessing.cpp:151:48
	vldr	s0, [r1, #12]
	.loc	1 151 64 is_stmt 0              @ ../YOLOv8nODPostProcessing.cpp:151:64
	vldr	s2, [r3, #12]
	@DEBUG_VALUE: Calculate1DOverlap:x2Center <- $s6
.Ltmp300:
	@DEBUG_VALUE: Calculate1DOverlap:width1 <- $s0
	@DEBUG_VALUE: Calculate1DOverlap:x1Center <- $s4
	@DEBUG_VALUE: Calculate1DOverlap:width2 <- $s2
	.loc	1 151 40                        @ ../YOLOv8nODPostProcessing.cpp:151:40
	vldr	s4, [r1, #4]
	.loc	1 151 56                        @ ../YOLOv8nODPostProcessing.cpp:151:56
	vldr	s6, [r3, #4]
.Ltmp301:
	.loc	1 138 34 is_stmt 1              @ ../YOLOv8nODPostProcessing.cpp:138:34
	vmul.f32	s8, s0, s18
	.loc	1 139 34                        @ ../YOLOv8nODPostProcessing.cpp:139:34
	vmul.f32	s10, s2, s18
	.loc	1 138 26                        @ ../YOLOv8nODPostProcessing.cpp:138:26
	vsub.f32	s12, s4, s8
.Ltmp302:
	@DEBUG_VALUE: Calculate1DOverlap:left_1 <- $s12
	.loc	1 139 26                        @ ../YOLOv8nODPostProcessing.cpp:139:26
	vsub.f32	s14, s6, s10
.Ltmp303:
	@DEBUG_VALUE: Calculate1DOverlap:left_2 <- $s14
	.loc	1 142 27                        @ ../YOLOv8nODPostProcessing.cpp:142:27
	vadd.f32	s4, s4, s8
.Ltmp304:
	@DEBUG_VALUE: Calculate1DOverlap:right_1 <- $s4
	.loc	1 143 27                        @ ../YOLOv8nODPostProcessing.cpp:143:27
	vadd.f32	s6, s6, s10
.Ltmp305:
	@DEBUG_VALUE: Calculate1DOverlap:right_2 <- $s6
	.loc	1 140 18                        @ ../YOLOv8nODPostProcessing.cpp:140:18
	vmaxnm.f32	s8, s12, s14
.Ltmp306:
	@DEBUG_VALUE: Calculate1DOverlap:leftest <- $s8
	.loc	1 144 19                        @ ../YOLOv8nODPostProcessing.cpp:144:19
	vminnm.f32	s4, s4, s6
.Ltmp307:
	@DEBUG_VALUE: Calculate1DOverlap:rightest <- $s4
	.loc	1 0 19 is_stmt 0                @ ../YOLOv8nODPostProcessing.cpp:0:19
	vmov.f32	s10, s20
	.loc	1 146 18 is_stmt 1              @ ../YOLOv8nODPostProcessing.cpp:146:18
	vsub.f32	s6, s4, s8
.Ltmp308:
	@DEBUG_VALUE: CalculateBoxIntersect:width <- $s6
	.loc	1 152 6                         @ ../YOLOv8nODPostProcessing.cpp:152:6
	vcmp.f32	s6, #0
	vmrs	APSR_nzcv, fpscr
	blt	.LBB6_18
.Ltmp309:
@ %bb.22:                               @   in Loop: Header=BB6_20 Depth=3
	@DEBUG_VALUE: CalculateBoxIntersect:width <- $s6
	@DEBUG_VALUE: CalculateBoxIntersect:box1 <- [DW_OP_plus_uconst 4, DW_OP_stack_value] $r1
	@DEBUG_VALUE: CalculateBoxIOU:box1 <- [DW_OP_plus_uconst 4, DW_OP_stack_value] $r1
	@DEBUG_VALUE: CalculateBoxIntersect:box2 <- [DW_OP_plus_uconst 4, DW_OP_stack_value] $r3
	@DEBUG_VALUE: CalculateBoxIOU:box2 <- [DW_OP_plus_uconst 4, DW_OP_stack_value] $r3
	@DEBUG_VALUE: itc <- $r3
	@DEBUG_VALUE: it <- $r1
	@DEBUG_VALUE: CalculateNMS:idxClass <- $r6
	@DEBUG_VALUE: CalculateNMS:classes <- $r4
	@DEBUG_VALUE: CalculateNMS:iouThreshold <- $s16
	@DEBUG_VALUE: CalculateNMS:detections <- $r9
	@DEBUG_VALUE: CalculateNMS:CompareProbs <- 0
	.loc	1 155 49                        @ ../YOLOv8nODPostProcessing.cpp:155:49
	vldr	s4, [r1, #16]
	.loc	1 155 65 is_stmt 0              @ ../YOLOv8nODPostProcessing.cpp:155:65
	vldr	s8, [r3, #16]
	@DEBUG_VALUE: Calculate1DOverlap:x2Center <- $s12
.Ltmp310:
	@DEBUG_VALUE: Calculate1DOverlap:width1 <- $s4
	@DEBUG_VALUE: Calculate1DOverlap:x1Center <- $s10
	@DEBUG_VALUE: Calculate1DOverlap:width2 <- $s8
	.loc	1 155 41                        @ ../YOLOv8nODPostProcessing.cpp:155:41
	vldr	s10, [r1, #8]
	.loc	1 155 57                        @ ../YOLOv8nODPostProcessing.cpp:155:57
	vldr	s12, [r3, #8]
.Ltmp311:
	.loc	1 138 34 is_stmt 1              @ ../YOLOv8nODPostProcessing.cpp:138:34
	vmul.f32	s14, s4, s18
	.loc	1 139 34                        @ ../YOLOv8nODPostProcessing.cpp:139:34
	vmul.f32	s1, s8, s18
	.loc	1 138 26                        @ ../YOLOv8nODPostProcessing.cpp:138:26
	vsub.f32	s3, s10, s14
.Ltmp312:
	@DEBUG_VALUE: Calculate1DOverlap:left_1 <- $s3
	.loc	1 139 26                        @ ../YOLOv8nODPostProcessing.cpp:139:26
	vsub.f32	s5, s12, s1
.Ltmp313:
	@DEBUG_VALUE: Calculate1DOverlap:left_2 <- $s5
	.loc	1 142 27                        @ ../YOLOv8nODPostProcessing.cpp:142:27
	vadd.f32	s10, s10, s14
.Ltmp314:
	@DEBUG_VALUE: Calculate1DOverlap:right_1 <- $s10
	.loc	1 143 27                        @ ../YOLOv8nODPostProcessing.cpp:143:27
	vadd.f32	s12, s12, s1
.Ltmp315:
	@DEBUG_VALUE: Calculate1DOverlap:right_2 <- $s12
	.loc	1 140 18                        @ ../YOLOv8nODPostProcessing.cpp:140:18
	vmaxnm.f32	s14, s3, s5
.Ltmp316:
	@DEBUG_VALUE: Calculate1DOverlap:leftest <- $s14
	.loc	1 144 19                        @ ../YOLOv8nODPostProcessing.cpp:144:19
	vminnm.f32	s10, s10, s12
.Ltmp317:
	@DEBUG_VALUE: Calculate1DOverlap:rightest <- $s10
	.loc	1 146 18                        @ ../YOLOv8nODPostProcessing.cpp:146:18
	vsub.f32	s12, s10, s14
.Ltmp318:
	@DEBUG_VALUE: CalculateBoxIOU:boxes_intersection <- undef
	@DEBUG_VALUE: CalculateBoxIntersect:height <- $s12
	.loc	1 0 18 is_stmt 0                @ ../YOLOv8nODPostProcessing.cpp:0:18
	vmov.f32	s10, s20
.Ltmp319:
	vcmp.f32	s12, #0
	vmrs	APSR_nzcv, fpscr
	blt	.LBB6_18
.Ltmp320:
@ %bb.23:                               @   in Loop: Header=BB6_20 Depth=3
	@DEBUG_VALUE: CalculateBoxIntersect:height <- $s12
	@DEBUG_VALUE: Calculate1DOverlap:leftest <- $s14
	@DEBUG_VALUE: Calculate1DOverlap:left_2 <- $s5
	@DEBUG_VALUE: Calculate1DOverlap:left_1 <- $s3
	@DEBUG_VALUE: Calculate1DOverlap:width2 <- $s8
	@DEBUG_VALUE: Calculate1DOverlap:width1 <- $s4
	@DEBUG_VALUE: CalculateBoxIntersect:width <- $s6
	@DEBUG_VALUE: CalculateBoxIntersect:box1 <- [DW_OP_plus_uconst 4, DW_OP_stack_value] $r1
	@DEBUG_VALUE: CalculateBoxIOU:box1 <- [DW_OP_plus_uconst 4, DW_OP_stack_value] $r1
	@DEBUG_VALUE: CalculateBoxIntersect:box2 <- [DW_OP_plus_uconst 4, DW_OP_stack_value] $r3
	@DEBUG_VALUE: CalculateBoxIOU:box2 <- [DW_OP_plus_uconst 4, DW_OP_stack_value] $r3
	@DEBUG_VALUE: itc <- $r3
	@DEBUG_VALUE: it <- $r1
	@DEBUG_VALUE: CalculateNMS:idxClass <- $r6
	@DEBUG_VALUE: CalculateNMS:classes <- $r4
	@DEBUG_VALUE: CalculateNMS:iouThreshold <- $s16
	@DEBUG_VALUE: CalculateNMS:detections <- $r9
	@DEBUG_VALUE: CalculateNMS:CompareProbs <- 0
	vmul.f32	s6, s6, s12
.Ltmp321:
	@DEBUG_VALUE: CalculateBoxIOU:boxes_intersection <- $s6
	vmov.f32	s10, s20
	vcmp.f32	s6, #0
	vmrs	APSR_nzcv, fpscr
	beq	.LBB6_18
.Ltmp322:
@ %bb.24:                               @   in Loop: Header=BB6_20 Depth=3
	@DEBUG_VALUE: CalculateBoxIOU:boxes_intersection <- $s6
	@DEBUG_VALUE: CalculateBoxIOU:box1 <- [DW_OP_plus_uconst 4, DW_OP_stack_value] $r1
	@DEBUG_VALUE: CalculateBoxIOU:box2 <- [DW_OP_plus_uconst 4, DW_OP_stack_value] $r3
	@DEBUG_VALUE: itc <- $r3
	@DEBUG_VALUE: it <- $r1
	@DEBUG_VALUE: CalculateNMS:idxClass <- $r6
	@DEBUG_VALUE: CalculateNMS:classes <- $r4
	@DEBUG_VALUE: CalculateNMS:iouThreshold <- $s16
	@DEBUG_VALUE: CalculateNMS:detections <- $r9
	@DEBUG_VALUE: CalculateNMS:CompareProbs <- 0
	@DEBUG_VALUE: CalculateBoxUnion:box1 <- [DW_OP_plus_uconst 4, DW_OP_stack_value] $r1
	@DEBUG_VALUE: CalculateBoxIntersect:box1 <- [DW_OP_plus_uconst 4, DW_OP_stack_value] $r1
	@DEBUG_VALUE: Calculate1DOverlap:width1 <- $s0
	@DEBUG_VALUE: Calculate1DOverlap:width2 <- $s2
	@DEBUG_VALUE: CalculateBoxIntersect:width <- undef
	@DEBUG_VALUE: Calculate1DOverlap:x1Center <- undef
	@DEBUG_VALUE: Calculate1DOverlap:width1 <- $s4
	@DEBUG_VALUE: Calculate1DOverlap:x2Center <- undef
	@DEBUG_VALUE: Calculate1DOverlap:width2 <- $s8
	@DEBUG_VALUE: Calculate1DOverlap:left_1 <- undef
	@DEBUG_VALUE: Calculate1DOverlap:left_2 <- undef
	@DEBUG_VALUE: Calculate1DOverlap:leftest <- undef
	@DEBUG_VALUE: Calculate1DOverlap:right_1 <- undef
	@DEBUG_VALUE: Calculate1DOverlap:right_2 <- undef
	@DEBUG_VALUE: Calculate1DOverlap:rightest <- undef
	@DEBUG_VALUE: CalculateBoxUnion:boxes_intersection <- $s6
	@DEBUG_VALUE: CalculateBoxUnion:box2 <- [DW_OP_plus_uconst 4, DW_OP_stack_value] $r3
	@DEBUG_VALUE: CalculateBoxIntersect:box2 <- [DW_OP_plus_uconst 4, DW_OP_stack_value] $r3
	.loc	1 167 47 is_stmt 1              @ ../YOLOv8nODPostProcessing.cpp:167:47
	vmul.f32	s2, s2, s8
.Ltmp323:
	.loc	1 167 38 is_stmt 0              @ ../YOLOv8nODPostProcessing.cpp:167:38
	vfma.f32	s2, s0, s4
	.loc	1 167 56                        @ ../YOLOv8nODPostProcessing.cpp:167:56
	vsub.f32	s0, s2, s6
.Ltmp324:
	@DEBUG_VALUE: CalculateBoxIOU:boxes_union <- $s0
	@DEBUG_VALUE: CalculateBoxUnion:boxes_union <- $s0
	.loc	1 179 6 is_stmt 1               @ ../YOLOv8nODPostProcessing.cpp:179:6
	vdiv.f32	s2, s6, s0
	vcmp.f32	s0, #0
	vmrs	APSR_nzcv, fpscr
	vseleq.f32	s10, s20, s2
.Ltmp325:
	@DEBUG_VALUE: CalculateBoxIntersect:height <- undef
	@DEBUG_VALUE: Calculate1DOverlap:rightest <- undef
	@DEBUG_VALUE: Calculate1DOverlap:right_2 <- undef
	@DEBUG_VALUE: Calculate1DOverlap:right_1 <- undef
	@DEBUG_VALUE: Calculate1DOverlap:leftest <- undef
	@DEBUG_VALUE: Calculate1DOverlap:left_2 <- undef
	@DEBUG_VALUE: Calculate1DOverlap:left_1 <- undef
	@DEBUG_VALUE: Calculate1DOverlap:x2Center <- undef
	@DEBUG_VALUE: Calculate1DOverlap:x1Center <- undef
	.loc	1 0 6 is_stmt 0                 @ ../YOLOv8nODPostProcessing.cpp:0:6
	b	.LBB6_18
.Ltmp326:
.LBB6_25:
	@DEBUG_VALUE: CalculateNMS:idxClass <- $r6
	@DEBUG_VALUE: CalculateNMS:classes <- $r4
	@DEBUG_VALUE: CalculateNMS:iouThreshold <- $s16
	@DEBUG_VALUE: CalculateNMS:detections <- $r9
	@DEBUG_VALUE: CalculateNMS:CompareProbs <- 0
	add	sp, #8
	vpop	{d8, d9, d10}
.Ltmp327:
	@DEBUG_VALUE: CalculateNMS:iouThreshold <- [DW_OP_LLVM_entry_value 1] $s0
	add	sp, #4
	pop.w	{r4, r5, r6, r7, r8, r9, lr}
.Ltmp328:
	@DEBUG_VALUE: CalculateNMS:classes <- [DW_OP_LLVM_entry_value 1] $r1
	.loc	1 208 1 is_stmt 1               @ ../YOLOv8nODPostProcessing.cpp:208:1
	bx	lr
.Ltmp329:
	.loc	1 0 1 is_stmt 0                 @ :0:1
.Ltmp330:
	.p2align	2
@ %bb.26:
.LCPI6_0:
	.long	0x00000000                      @ float 0
.Lfunc_end6:
	.size	_Z12CalculateNMSRNSt3__212forward_listIN3arm3app10yolov8n_od9DetectionENS_9allocatorIS4_EEEEif, .Lfunc_end6-_Z12CalculateNMSRNSt3__212forward_listIN3arm3app10yolov8n_od9DetectionENS_9allocatorIS4_EEEEif
	.cfi_endproc
	.cantunwind
	.fnend
                                        @ -- End function
	.section	.text._Z15CalDetectionBoxP12TfLiteTensorS0_RNSt3__26vectorIN3arm3app10yolov8n_od9AnchorBoxENS1_9allocatorIS6_EEEEiifRNS1_12forward_listINS5_9DetectionENS7_ISC_EEEE,"ax",%progbits
	.hidden	_Z15CalDetectionBoxP12TfLiteTensorS0_RNSt3__26vectorIN3arm3app10yolov8n_od9AnchorBoxENS1_9allocatorIS6_EEEEiifRNS1_12forward_listINS5_9DetectionENS7_ISC_EEEE @ -- Begin function _Z15CalDetectionBoxP12TfLiteTensorS0_RNSt3__26vectorIN3arm3app10yolov8n_od9AnchorBoxENS1_9allocatorIS6_EEEEiifRNS1_12forward_listINS5_9DetectionENS7_ISC_EEEE
	.globl	_Z15CalDetectionBoxP12TfLiteTensorS0_RNSt3__26vectorIN3arm3app10yolov8n_od9AnchorBoxENS1_9allocatorIS6_EEEEiifRNS1_12forward_listINS5_9DetectionENS7_ISC_EEEE
	.p2align	2
	.type	_Z15CalDetectionBoxP12TfLiteTensorS0_RNSt3__26vectorIN3arm3app10yolov8n_od9AnchorBoxENS1_9allocatorIS6_EEEEiifRNS1_12forward_listINS5_9DetectionENS7_ISC_EEEE,%function
	.code	16                              @ @_Z15CalDetectionBoxP12TfLiteTensorS0_RNSt3__26vectorIN3arm3app10yolov8n_od9AnchorBoxENS1_9allocatorIS6_EEEEiifRNS1_12forward_listINS5_9DetectionENS7_ISC_EEEE
	.thumb_func
_Z15CalDetectionBoxP12TfLiteTensorS0_RNSt3__26vectorIN3arm3app10yolov8n_od9AnchorBoxENS1_9allocatorIS6_EEEEiifRNS1_12forward_listINS5_9DetectionENS7_ISC_EEEE:
.Lfunc_begin7:
	.loc	1 219 0 is_stmt 1               @ ../YOLOv8nODPostProcessing.cpp:219:0
	.fnstart
	.cfi_startproc
@ %bb.0:
	@DEBUG_VALUE: CalDetectionBox:psConfidenceOutputTensor <- $r0
	@DEBUG_VALUE: CalDetectionBox:psBoxOutputTensor <- $r1
	@DEBUG_VALUE: CalDetectionBox:vAnchorBoxs <- $r2
	@DEBUG_VALUE: CalDetectionBox:i32Stride <- $r3
	@DEBUG_VALUE: CalDetectionBox:fThreshold <- $s0
	.save	{r4, r5, r6, r7, r8, r9, r10, r11, lr}
	push.w	{r4, r5, r6, r7, r8, r9, r10, r11, lr}
	.cfi_def_cfa_offset 36
	.cfi_offset lr, -4
	.cfi_offset r11, -8
	.cfi_offset r10, -12
	.cfi_offset r9, -16
	.cfi_offset r8, -20
	.cfi_offset r7, -24
	.cfi_offset r6, -28
	.cfi_offset r5, -32
	.cfi_offset r4, -36
	.pad	#4
	sub	sp, #4
	.cfi_def_cfa_offset 40
	.vsave	{d8, d9, d10}
	vpush	{d8, d9, d10}
	.cfi_def_cfa_offset 64
	.cfi_offset d10, -48
	.cfi_offset d9, -56
	.cfi_offset d8, -64
	.pad	#72
	sub	sp, #72
	.cfi_def_cfa_offset 136
.Ltmp331:
	@DEBUG_VALUE: CalDetectionBox:i32StrideTotalAnchors <- [DW_OP_plus_uconst 136] [$sp+0]
	@DEBUG_VALUE: CalDetectionBox:sDetections <- [DW_OP_plus_uconst 140] [$sp+0]
	.loc	1 232 48 prologue_end           @ ../YOLOv8nODPostProcessing.cpp:232:48
	ldr	r7, [r0, #20]
.Ltmp332:
	@DEBUG_VALUE: CalDetectionBox:zeroPointConf <- undef
	@DEBUG_VALUE: CalDetectionBox:scaleConf <- undef
	.loc	1 0 48 is_stmt 0                @ ../YOLOv8nODPostProcessing.cpp:0:48
	str	r3, [sp, #28]                   @ 4-byte Spill
.Ltmp333:
	@DEBUG_VALUE: CalDetectionBox:i32Stride <- [DW_OP_plus_uconst 28] [$sp+0]
	@DEBUG_VALUE: CalDetectionBox:i32Stride <- [DW_OP_plus_uconst 28] [$sp+0]
	@DEBUG_VALUE: CalDetectionBox:fThreshold <- $s0
	.loc	1 232 22                        @ ../YOLOv8nODPostProcessing.cpp:232:22
	ldrd	r7, r6, [r7, #8]
	ldr	r5, [sp, #136]
.Ltmp334:
	@DEBUG_VALUE: CalDetectionBox:tensorOutputConf <- undef
	@DEBUG_VALUE: CalDetectionBox:cls <- 0
	@DEBUG_VALUE: CalDetectionBox:maxScore <- 0.000000e+00
	@DEBUG_VALUE: det <- [DW_OP_plus_uconst 32, DW_OP_deref] $sp
	.loc	1 0 22                          @ ../YOLOv8nODPostProcessing.cpp:0:22
	str	r2, [sp, #24]                   @ 4-byte Spill
.Ltmp335:
	@DEBUG_VALUE: CalDetectionBox:vAnchorBoxs <- [DW_OP_plus_uconst 24] [$sp+0]
	@DEBUG_VALUE: CalDetectionBox:vAnchorBoxs <- [DW_OP_plus_uconst 24] [$sp+0]
	str	r1, [sp, #20]                   @ 4-byte Spill
.Ltmp336:
	@DEBUG_VALUE: CalDetectionBox:psBoxOutputTensor <- [DW_OP_plus_uconst 20] [$sp+0]
	@DEBUG_VALUE: CalDetectionBox:psBoxOutputTensor <- [DW_OP_plus_uconst 20] [$sp+0]
	.loc	1 232 62                        @ ../YOLOv8nODPostProcessing.cpp:232:62
	mul	r3, r6, r7
.Ltmp337:
	@DEBUG_VALUE: CalDetectionBox:tensorSizeConf <- $r3
	.loc	1 234 5 is_stmt 1               @ ../YOLOv8nODPostProcessing.cpp:234:5
	cmp	r3, r5
	bne.w	.LBB7_11
.Ltmp338:
@ %bb.1:
	@DEBUG_VALUE: CalDetectionBox:tensorSizeConf <- $r3
	@DEBUG_VALUE: CalDetectionBox:psBoxOutputTensor <- [DW_OP_plus_uconst 20] [$sp+0]
	@DEBUG_VALUE: CalDetectionBox:vAnchorBoxs <- [DW_OP_plus_uconst 24] [$sp+0]
	@DEBUG_VALUE: CalDetectionBox:maxScore <- 0.000000e+00
	@DEBUG_VALUE: CalDetectionBox:cls <- 0
	@DEBUG_VALUE: CalDetectionBox:i32Stride <- [DW_OP_plus_uconst 28] [$sp+0]
	@DEBUG_VALUE: CalDetectionBox:sDetections <- [DW_OP_plus_uconst 140] [$sp+0]
	@DEBUG_VALUE: CalDetectionBox:i32StrideTotalAnchors <- [DW_OP_plus_uconst 136] [$sp+0]
	@DEBUG_VALUE: CalDetectionBox:fThreshold <- $s0
	@DEBUG_VALUE: CalDetectionBox:psConfidenceOutputTensor <- $r0
	@DEBUG_VALUE: CalDetectionBox:fThreshold <- $s0
	@DEBUG_VALUE: CalDetectionBox:scaleConf <- undef
	@DEBUG_VALUE: CalDetectionBox:zeroPointConf <- undef
	@DEBUG_VALUE: CalDetectionBox:tensorOutputConf <- undef
	@DEBUG_VALUE: CalDetectionBox:i <- 0
	.loc	1 241 2                         @ ../YOLOv8nODPostProcessing.cpp:241:2
	cmp	r5, #1
	blt.w	.LBB7_12
.Ltmp339:
@ %bb.2:
	@DEBUG_VALUE: CalDetectionBox:i <- 0
	@DEBUG_VALUE: CalDetectionBox:tensorSizeConf <- $r3
	@DEBUG_VALUE: CalDetectionBox:psBoxOutputTensor <- [DW_OP_plus_uconst 20] [$sp+0]
	@DEBUG_VALUE: CalDetectionBox:vAnchorBoxs <- [DW_OP_plus_uconst 24] [$sp+0]
	@DEBUG_VALUE: CalDetectionBox:maxScore <- 0.000000e+00
	@DEBUG_VALUE: CalDetectionBox:cls <- 0
	@DEBUG_VALUE: CalDetectionBox:i32Stride <- [DW_OP_plus_uconst 28] [$sp+0]
	@DEBUG_VALUE: CalDetectionBox:sDetections <- [DW_OP_plus_uconst 140] [$sp+0]
	@DEBUG_VALUE: CalDetectionBox:i32StrideTotalAnchors <- [DW_OP_plus_uconst 136] [$sp+0]
	@DEBUG_VALUE: CalDetectionBox:fThreshold <- $s0
	@DEBUG_VALUE: CalDetectionBox:psConfidenceOutputTensor <- $r0
	.loc	1 0 2 is_stmt 0                 @ ../YOLOv8nODPostProcessing.cpp:0:2
	ldr	r1, [r0, #4]
	mov	r8, r5
	ldr.w	r10, [sp, #140]
	movs	r7, #0
	ldrd	r1, r2, [r1]
	mov.w	r11, #0
	ldr.w	r9, [r0, #16]
.Ltmp340:
	@DEBUG_VALUE: CalDetectionBox:tensorOutputConf <- $r9
	vldr	s20, [r1, #4]
.Ltmp341:
	@DEBUG_VALUE: CalDetectionBox:scaleConf <- $s20
	vmov.f32	s16, s0
.Ltmp342:
	@DEBUG_VALUE: CalDetectionBox:fThreshold <- $s16
	@DEBUG_VALUE: CalDetectionBox:fThreshold <- $s16
	ldr	r6, [r2, #4]
.Ltmp343:
	@DEBUG_VALUE: CalDetectionBox:zeroPointConf <- $r6
	.loc	1 241 2                         @ ../YOLOv8nODPostProcessing.cpp:241:2
	str	r5, [sp, #16]                   @ 4-byte Spill
	strd	r10, r6, [sp, #8]               @ 8-byte Folded Spill
	b	.LBB7_5
.Ltmp344:
	.loc	1 0 2                           @ :0:2
.Ltmp345:
	.p2align	2
.LBB7_3:                                @   in Loop: Header=BB7_5 Depth=1
	@DEBUG_VALUE: ~Detection:this <- [DW_OP_plus_uconst 32, DW_OP_stack_value] $sp
	@DEBUG_VALUE: ~vector:this <- [DW_OP_plus_uconst 32, DW_OP_plus_uconst 28, DW_OP_stack_value] $sp
	@DEBUG_VALUE: det <- [DW_OP_plus_uconst 32, DW_OP_plus_uconst 32, DW_OP_deref, DW_OP_LLVM_fragment 256 32] $sp
	@DEBUG_VALUE: det <- [DW_OP_plus_uconst 32, DW_OP_plus_uconst 36, DW_OP_deref, DW_OP_LLVM_fragment 288 32] $sp
	@DEBUG_VALUE: CalDetectionBox:maxScore <- $s18
	@DEBUG_VALUE: CalDetectionBox:i <- $r7
	@DEBUG_VALUE: CalDetectionBox:fThreshold <- $s16
	@DEBUG_VALUE: CalDetectionBox:scaleConf <- $s20
	@DEBUG_VALUE: CalDetectionBox:psBoxOutputTensor <- [DW_OP_plus_uconst 20] [$sp+0]
	@DEBUG_VALUE: CalDetectionBox:vAnchorBoxs <- [DW_OP_plus_uconst 24] [$sp+0]
	@DEBUG_VALUE: CalDetectionBox:cls <- 0
	@DEBUG_VALUE: CalDetectionBox:i32Stride <- [DW_OP_plus_uconst 28] [$sp+0]
	@DEBUG_VALUE: CalDetectionBox:sDetections <- [DW_OP_plus_uconst 140] [$sp+0]
	@DEBUG_VALUE: CalDetectionBox:i32StrideTotalAnchors <- [DW_OP_plus_uconst 136] [$sp+0]
	ldrd	r6, r5, [sp, #12]               @ 8-byte Folded Reload
.Ltmp346:
.LBB7_4:                                @   in Loop: Header=BB7_5 Depth=1
	@DEBUG_VALUE: CalDetectionBox:i <- $r7
	@DEBUG_VALUE: CalDetectionBox:fThreshold <- $s16
	@DEBUG_VALUE: CalDetectionBox:scaleConf <- $s20
	@DEBUG_VALUE: CalDetectionBox:psBoxOutputTensor <- [DW_OP_plus_uconst 20] [$sp+0]
	@DEBUG_VALUE: CalDetectionBox:vAnchorBoxs <- [DW_OP_plus_uconst 24] [$sp+0]
	@DEBUG_VALUE: CalDetectionBox:cls <- 0
	@DEBUG_VALUE: CalDetectionBox:i32Stride <- [DW_OP_plus_uconst 28] [$sp+0]
	@DEBUG_VALUE: CalDetectionBox:sDetections <- [DW_OP_plus_uconst 140] [$sp+0]
	@DEBUG_VALUE: CalDetectionBox:i32StrideTotalAnchors <- [DW_OP_plus_uconst 136] [$sp+0]
	.loc	1 241 16                        @ ../YOLOv8nODPostProcessing.cpp:241:16
	subs.w	r8, r8, #1
	.loc	1 241 41                        @ ../YOLOv8nODPostProcessing.cpp:241:41
	add.w	r7, r7, #1
.Ltmp347:
	@DEBUG_VALUE: CalDetectionBox:i <- $r7
	.loc	1 241 16                        @ ../YOLOv8nODPostProcessing.cpp:241:16
	add.w	r9, r9, #1
.Ltmp348:
	.loc	1 241 2                         @ ../YOLOv8nODPostProcessing.cpp:241:2
	beq	.LBB7_12
.Ltmp349:
.LBB7_5:                                @ =>This Inner Loop Header: Depth=1
	@DEBUG_VALUE: CalDetectionBox:fThreshold <- $s16
	@DEBUG_VALUE: CalDetectionBox:scaleConf <- $s20
	@DEBUG_VALUE: CalDetectionBox:psBoxOutputTensor <- [DW_OP_plus_uconst 20] [$sp+0]
	@DEBUG_VALUE: CalDetectionBox:vAnchorBoxs <- [DW_OP_plus_uconst 24] [$sp+0]
	@DEBUG_VALUE: CalDetectionBox:cls <- 0
	@DEBUG_VALUE: CalDetectionBox:i32Stride <- [DW_OP_plus_uconst 28] [$sp+0]
	@DEBUG_VALUE: CalDetectionBox:sDetections <- [DW_OP_plus_uconst 140] [$sp+0]
	@DEBUG_VALUE: CalDetectionBox:i32StrideTotalAnchors <- [DW_OP_plus_uconst 136] [$sp+0]
	@DEBUG_VALUE: CalDetectionBox:cls <- 0
	@DEBUG_VALUE: CalDetectionBox:i <- $r7
	@DEBUG_VALUE: CalDetectionBox:j <- undef
	@DEBUG_VALUE: CalDetectionBox:maxConf <- -128
	.loc	1 0 2                           @ ../YOLOv8nODPostProcessing.cpp:0:2
	ldrsb.w	r0, [r9]
.Ltmp350:
	@DEBUG_VALUE: CalDetectionBox:psConfidenceOutputTensor <- [DW_OP_LLVM_entry_value 1] $r0
	@DEBUG_VALUE: CalDetectionBox:maxConf <- $r0
	.loc	1 260 92 is_stmt 1              @ ../YOLOv8nODPostProcessing.cpp:260:92
	subs	r0, r0, r6
.Ltmp351:
	.loc	1 260 84 is_stmt 0              @ ../YOLOv8nODPostProcessing.cpp:260:84
	vmov	s0, r0
	vcvt.f32.s32	s0, s0
	.loc	1 260 62                        @ ../YOLOv8nODPostProcessing.cpp:260:62
	vmul.f32	s0, s20, s0
	.loc	1 260 14                        @ ../YOLOv8nODPostProcessing.cpp:260:14
	bl	_ZN3arm3app4math9MathUtils10SigmoidF32Ef
.Ltmp352:
	@DEBUG_VALUE: CalDetectionBox:maxScore <- $s0
	.loc	1 262 6 is_stmt 1               @ ../YOLOv8nODPostProcessing.cpp:262:6
	vcmp.f32	s0, s16
	vmrs	APSR_nzcv, fpscr
	blt	.LBB7_4
.Ltmp353:
@ %bb.6:                                @   in Loop: Header=BB7_5 Depth=1
	@DEBUG_VALUE: CalDetectionBox:maxScore <- $s0
	@DEBUG_VALUE: CalDetectionBox:i <- $r7
	@DEBUG_VALUE: CalDetectionBox:fThreshold <- $s16
	@DEBUG_VALUE: CalDetectionBox:scaleConf <- $s20
	@DEBUG_VALUE: CalDetectionBox:psBoxOutputTensor <- [DW_OP_plus_uconst 20] [$sp+0]
	@DEBUG_VALUE: CalDetectionBox:vAnchorBoxs <- [DW_OP_plus_uconst 24] [$sp+0]
	@DEBUG_VALUE: CalDetectionBox:cls <- 0
	@DEBUG_VALUE: CalDetectionBox:i32Stride <- [DW_OP_plus_uconst 28] [$sp+0]
	@DEBUG_VALUE: CalDetectionBox:sDetections <- [DW_OP_plus_uconst 140] [$sp+0]
	@DEBUG_VALUE: CalDetectionBox:i32StrideTotalAnchors <- [DW_OP_plus_uconst 136] [$sp+0]
	@DEBUG_VALUE: Detection:this <- [DW_OP_plus_uconst 32, DW_OP_stack_value] $sp
	@DEBUG_VALUE: vector:this <- [DW_OP_plus_uconst 32, DW_OP_plus_uconst 28, DW_OP_stack_value] $sp
	@DEBUG_VALUE: det <- [DW_OP_LLVM_fragment 224 32] 0
	@DEBUG_VALUE: det <- [DW_OP_plus_uconst 32, DW_OP_deref, DW_OP_LLVM_fragment 0 224] $sp
	@DEBUG_VALUE: det <- [DW_OP_LLVM_fragment 256 32] 0
	@DEBUG_VALUE: __compressed_pair<std::nullptr_t, std::__2::__default_init_tag>:this <- [DW_OP_plus_uconst 32, DW_OP_plus_uconst 36, DW_OP_stack_value] $sp
	@DEBUG_VALUE: __compressed_pair<std::nullptr_t, std::__2::__default_init_tag>:__t1 <- undef
	@DEBUG_VALUE: __compressed_pair<std::nullptr_t, std::__2::__default_init_tag>:__t2 <- undef
	@DEBUG_VALUE: __compressed_pair_elem<std::nullptr_t, 0>:this <- [DW_OP_plus_uconst 32, DW_OP_plus_uconst 36, DW_OP_stack_value] $sp
	@DEBUG_VALUE: __compressed_pair_elem<std::nullptr_t, 0>:__u <- undef
	@DEBUG_VALUE: det <- [DW_OP_LLVM_fragment 288 32] 0
	.loc	1 272 87                        @ ../YOLOv8nODPostProcessing.cpp:272:87
	ldrsb.w	r0, [r9]
	ldr	r4, [sp, #28]                   @ 4-byte Reload
	.loc	1 272 132 is_stmt 0             @ ../YOLOv8nODPostProcessing.cpp:272:132
	subs	r0, r0, r6
	.loc	1 272 87                        @ ../YOLOv8nODPostProcessing.cpp:272:87
	vmov	s0, r0
.Ltmp354:
	.loc	1 267 20 is_stmt 1              @ ../YOLOv8nODPostProcessing.cpp:267:20
	str	r4, [sp, #48]
.Ltmp355:
	@DEBUG_VALUE: det <- [DW_OP_plus_uconst 32, DW_OP_plus_uconst 16, DW_OP_deref, DW_OP_LLVM_fragment 128 32] $sp
	@DEBUG_VALUE: det <- [DW_OP_plus_uconst 32, DW_OP_plus_uconst 20, DW_OP_deref, DW_OP_LLVM_fragment 160 64] $sp
	@DEBUG_VALUE: det <- [DW_OP_plus_uconst 32, DW_OP_deref, DW_OP_LLVM_fragment 0 128] $sp
	.loc	1 272 87                        @ ../YOLOv8nODPostProcessing.cpp:272:87
	vcvt.f32.s32	s0, s0
.Ltmp356:
	.loc	1 268 20                        @ ../YOLOv8nODPostProcessing.cpp:268:20
	str	r7, [sp, #52]
.Ltmp357:
	@DEBUG_VALUE: det <- [DW_OP_plus_uconst 32, DW_OP_plus_uconst 20, DW_OP_deref, DW_OP_LLVM_fragment 160 32] $sp
	@DEBUG_VALUE: det <- [DW_OP_plus_uconst 32, DW_OP_plus_uconst 24, DW_OP_deref, DW_OP_LLVM_fragment 192 32] $sp
	@DEBUG_VALUE: det <- [DW_OP_plus_uconst 32, DW_OP_deref, DW_OP_LLVM_fragment 0 160] $sp
	.loc	1 272 65                        @ ../YOLOv8nODPostProcessing.cpp:272:65
	vmul.f32	s0, s20, s0
.Ltmp358:
	.loc	1 269 12                        @ ../YOLOv8nODPostProcessing.cpp:269:12
	str.w	r11, [sp, #56]
.Ltmp359:
	@DEBUG_VALUE: det <- [DW_OP_plus_uconst 32, DW_OP_deref, DW_OP_LLVM_fragment 0 192] $sp
	@DEBUG_VALUE: CalDetectionBox:j <- undef
	.loc	1 272 17                        @ ../YOLOv8nODPostProcessing.cpp:272:17
	bl	_ZN3arm3app4math9MathUtils10SigmoidF32Ef
.Ltmp360:
	.loc	4 272 10 is_stmt 0              @ AppData\Local\Keil_v5\ARM\ARMCLANG\bin\..\include\libcxx\new:272:10
	movs	r0, #4
.Ltmp361:
	.loc	1 272 17                        @ ../YOLOv8nODPostProcessing.cpp:272:17
	vmov.f32	s18, s0
.Ltmp362:
	@DEBUG_VALUE: __libcpp_operator_new<unsigned int>:__args <- 4
	@DEBUG_VALUE: __libcpp_allocate:__align <- 4
	@DEBUG_VALUE: __libcpp_allocate:__size <- 4
	@DEBUG_VALUE: allocate:__n <- 1
	@DEBUG_VALUE: allocate:this <- undef
	@DEBUG_VALUE: __allocate_at_least<std::__2::allocator<float> >:__n <- 1
	@DEBUG_VALUE: __allocate_at_least<std::__2::allocator<float> >:__alloc <- undef
	@DEBUG_VALUE: __emplace_back_slow_path<float &>:__v <- [DW_OP_plus_uconst 32, DW_OP_plus_uconst 36, DW_OP_stack_value, DW_OP_LLVM_fragment 128 32] $sp
	@DEBUG_VALUE: __emplace_back_slow_path<float &>:__v <- [DW_OP_LLVM_fragment 96 32] 0
	@DEBUG_VALUE: __split_buffer:__a <- [DW_OP_plus_uconst 32, DW_OP_plus_uconst 36, DW_OP_stack_value] $sp
	@DEBUG_VALUE: __split_buffer:__start <- 0
	@DEBUG_VALUE: __split_buffer:__cap <- 1
	@DEBUG_VALUE: __split_buffer:this <- undef
	@DEBUG_VALUE: size:this <- [DW_OP_plus_uconst 32, DW_OP_plus_uconst 28, DW_OP_stack_value] $sp
	@DEBUG_VALUE: capacity:this <- [DW_OP_plus_uconst 32, DW_OP_plus_uconst 28, DW_OP_stack_value] $sp
	@DEBUG_VALUE: size:this <- [DW_OP_plus_uconst 32, DW_OP_plus_uconst 28, DW_OP_stack_value] $sp
	@DEBUG_VALUE: __emplace_back_slow_path<float &>:__a <- [DW_OP_plus_uconst 32, DW_OP_plus_uconst 36, DW_OP_stack_value] $sp
	@DEBUG_VALUE: __emplace_back_slow_path<float &>:__args <- undef
	@DEBUG_VALUE: __emplace_back_slow_path<float &>:this <- [DW_OP_plus_uconst 32, DW_OP_plus_uconst 28, DW_OP_stack_value] $sp
	@DEBUG_VALUE: __swap_out_circular_buffer:__v <- undef
	@DEBUG_VALUE: emplace_back<float &>:__end <- 0
	@DEBUG_VALUE: emplace_back<float &>:__args <- undef
	@DEBUG_VALUE: emplace_back<float &>:this <- [DW_OP_plus_uconst 32, DW_OP_plus_uconst 28, DW_OP_stack_value] $sp
	@DEBUG_VALUE: CalDetectionBox:maxScore <- $s18
	.loc	4 272 10                        @ AppData\Local\Keil_v5\ARM\ARMCLANG\bin\..\include\libcxx\new:272:10
	bl	_Znwj
.Ltmp363:
	@DEBUG_VALUE: construct<float, float &>:__args <- undef
	@DEBUG_VALUE: construct<float, float &>:this <- [DW_OP_plus_uconst 32, DW_OP_plus_uconst 36, DW_OP_stack_value] $sp
	@DEBUG_VALUE: construct<float, float &, 0>:__args <- undef
	@DEBUG_VALUE: construct<float, float &, 0>:__a <- [DW_OP_plus_uconst 32, DW_OP_plus_uconst 36, DW_OP_stack_value] $sp
	@DEBUG_VALUE: construct<float, float &>:__p <- $r0
	@DEBUG_VALUE: construct<float, float &, 0>:__p <- $r0
	@DEBUG_VALUE: __allocation <- [DW_OP_LLVM_fragment 32 32] 1
	@DEBUG_VALUE: __emplace_back_slow_path<float &>:__v <- [DW_OP_LLVM_fragment 32 32] $r0
	@DEBUG_VALUE: __emplace_back_slow_path<float &>:__v <- [DW_OP_LLVM_fragment 64 32] $r0
	@DEBUG_VALUE: __emplace_back_slow_path<float &>:__v <- [DW_OP_LLVM_fragment 0 32] $r0
	@DEBUG_VALUE: __allocation <- [DW_OP_LLVM_fragment 0 32] $r0
	.loc	18 358 32 is_stmt 1             @ AppData\Local\Keil_v5\ARM\ARMCLANG\bin\..\include\libcxx\__split_buffer:358:32
	adds	r1, r0, #4
.Ltmp364:
	@DEBUG_VALUE: swap<float *>:__t <- 0
	@DEBUG_VALUE: swap<float *>:__x <- [DW_OP_plus_uconst 32, DW_OP_plus_uconst 28, DW_OP_stack_value] $sp
	@DEBUG_VALUE: __swap_out_circular_buffer:this <- [DW_OP_plus_uconst 32, DW_OP_plus_uconst 28, DW_OP_stack_value] $sp
	@DEBUG_VALUE: __swap_out_circular_buffer:__new_begin <- $r0
	@DEBUG_VALUE: __emplace_back_slow_path<float &>:__v <- [DW_OP_LLVM_fragment 96 32] $r1
	@DEBUG_VALUE: __split_buffer:__a <- [DW_OP_plus_uconst 32, DW_OP_plus_uconst 36, DW_OP_stack_value] $sp
	@DEBUG_VALUE: __split_buffer:__start <- 0
	@DEBUG_VALUE: __split_buffer:__cap <- 1
	@DEBUG_VALUE: swap<float *>:__t <- 0
	@DEBUG_VALUE: swap<float *>:__y <- undef
	@DEBUG_VALUE: swap<float *>:__x <- [DW_OP_plus_uconst 32, DW_OP_plus_uconst 36, DW_OP_stack_value] $sp
	@DEBUG_VALUE: swap<float *>:__t <- 0
	@DEBUG_VALUE: swap<float *>:__y <- undef
	@DEBUG_VALUE: swap<float *>:__x <- [DW_OP_plus_uconst 32, DW_OP_plus_uconst 32, DW_OP_stack_value] $sp
	@DEBUG_VALUE: __emplace_back_slow_path<float &>:__v <- [DW_OP_LLVM_fragment 32 32] 0
	@DEBUG_VALUE: __emplace_back_slow_path<float &>:__v <- [DW_OP_LLVM_fragment 64 32] 0
	@DEBUG_VALUE: det <- [DW_OP_LLVM_fragment 256 32] $r1
	@DEBUG_VALUE: det <- [DW_OP_plus_uconst 32, DW_OP_plus_uconst 28, DW_OP_deref, DW_OP_LLVM_fragment 224 32] $sp
	.loc	1 277 4                         @ ../YOLOv8nODPostProcessing.cpp:277:4
	mov	r2, r7
.Ltmp365:
	.loc	13 151 5                        @ AppData\Local\Keil_v5\ARM\ARMCLANG\bin\..\include\libcxx\__memory\allocator.h:151:5
	vstr	s18, [r0]
.Ltmp366:
	@DEBUG_VALUE: swap<float *>:__y <- undef
	@DEBUG_VALUE: __emplace_back_slow_path<float &>:__v <- [DW_OP_LLVM_fragment 64 32] undef
	.loc	34 43 7                         @ AppData\Local\Keil_v5\ARM\ARMCLANG\bin\..\include\libcxx\__utility\swap.h:43:7
	str	r1, [sp, #68]
.Ltmp367:
	@DEBUG_VALUE: __emplace_back_slow_path<float &>:__v <- [DW_OP_LLVM_fragment 0 32] 0
	@DEBUG_VALUE: __emplace_back_slow_path<float &>:__v <- [DW_OP_LLVM_fragment 96 32] 0
	@DEBUG_VALUE: emplace_back<float &>:__end <- $r1
	@DEBUG_VALUE: det <- [DW_OP_plus_uconst 32, DW_OP_plus_uconst 36, DW_OP_deref, DW_OP_LLVM_fragment 288 32] $sp
	.loc	1 277 4                         @ ../YOLOv8nODPostProcessing.cpp:277:4
	mov	r3, r4
.Ltmp368:
	.loc	34 43 7                         @ AppData\Local\Keil_v5\ARM\ARMCLANG\bin\..\include\libcxx\__utility\swap.h:43:7
	strd	r0, r1, [sp, #60]
.Ltmp369:
	@DEBUG_VALUE: det <- [DW_OP_plus_uconst 32, DW_OP_plus_uconst 32, DW_OP_deref, DW_OP_LLVM_fragment 256 32] $sp
	.loc	1 277 4                         @ ../YOLOv8nODPostProcessing.cpp:277:4
	ldrd	r0, r1, [sp, #20]               @ 8-byte Folded Reload
.Ltmp370:
	add	r6, sp, #32
	strd	r5, r6, [sp]
	bl	_Z10CalBoxXYWHP12TfLiteTensorRNSt3__26vectorIN3arm3app10yolov8n_od9AnchorBoxENS1_9allocatorIS6_EEEEiiiRNS5_9DetectionE
.Ltmp371:
	@DEBUG_VALUE: emplace_front<arm::app::yolov8n_od::Detection &>:__args <- [DW_OP_plus_uconst 32, DW_OP_stack_value] $sp
	@DEBUG_VALUE: emplace_front<arm::app::yolov8n_od::Detection &>:this <- [DW_OP_plus_uconst 8] [$sp+0]
	.loc	21 1062 64                      @ AppData\Local\Keil_v5\ARM\ARMCLANG\bin\..\include\libcxx\forward_list:1062:64
	ldr.w	r10, [r10]
.Ltmp372:
	@DEBUG_VALUE: __libcpp_operator_new<unsigned int>:__args <- 44
	@DEBUG_VALUE: __libcpp_allocate:__align <- 4
	@DEBUG_VALUE: __libcpp_allocate:__size <- 44
	@DEBUG_VALUE: allocate:__n <- 1
	@DEBUG_VALUE: allocate:this <- undef
	@DEBUG_VALUE: allocate:__n <- 1
	@DEBUG_VALUE: allocate:__a <- undef
	@DEBUG_VALUE: __create_node<arm::app::yolov8n_od::Detection &>:__guard <- [DW_OP_LLVM_fragment 32 32] 1
	@DEBUG_VALUE: __allocation_guard<std::__2::allocator<std::__2::__forward_list_node<arm::app::yolov8n_od::Detection, void *> > >:__n <- 1
	@DEBUG_VALUE: __allocation_guard<std::__2::allocator<std::__2::__forward_list_node<arm::app::yolov8n_od::Detection, void *> > >:this <- undef
	@DEBUG_VALUE: __create_node<arm::app::yolov8n_od::Detection &>:__a <- [DW_OP_plus_uconst 8] [$sp+0]
	@DEBUG_VALUE: __create_node<arm::app::yolov8n_od::Detection &>:__args <- [DW_OP_plus_uconst 32, DW_OP_stack_value] $sp
	@DEBUG_VALUE: __create_node<arm::app::yolov8n_od::Detection &>:this <- [DW_OP_plus_uconst 8] [$sp+0]
	@DEBUG_VALUE: __create_node<arm::app::yolov8n_od::Detection &>:__next <- $r10
	.loc	4 272 10                        @ AppData\Local\Keil_v5\ARM\ARMCLANG\bin\..\include\libcxx\new:272:10
	movs	r0, #44
	bl	_Znwj
.Ltmp373:
	.loc	12 48 8                         @ ..\YOLOv8nODPostProcessing.hpp:48:8
	add	r6, sp, #32
.Ltmp374:
	.loc	4 272 10                        @ AppData\Local\Keil_v5\ARM\ARMCLANG\bin\..\include\libcxx\new:272:10
	mov	r5, r0
.Ltmp375:
	@DEBUG_VALUE: Detection: <- [DW_OP_plus_uconst 32, DW_OP_stack_value] $sp
	@DEBUG_VALUE: construct<arm::app::yolov8n_od::Detection, arm::app::yolov8n_od::Detection &>:__args <- [DW_OP_plus_uconst 32, DW_OP_stack_value] $sp
	@DEBUG_VALUE: construct<arm::app::yolov8n_od::Detection, arm::app::yolov8n_od::Detection &>:this <- [DW_OP_plus_uconst 8] [$sp+0]
	@DEBUG_VALUE: construct<arm::app::yolov8n_od::Detection, arm::app::yolov8n_od::Detection &, 0>:__args <- [DW_OP_plus_uconst 32, DW_OP_stack_value] $sp
	@DEBUG_VALUE: construct<arm::app::yolov8n_od::Detection, arm::app::yolov8n_od::Detection &, 0>:__a <- [DW_OP_plus_uconst 8] [$sp+0]
	@DEBUG_VALUE: Detection:this <- [DW_OP_plus_uconst 4, DW_OP_stack_value] $r5
	@DEBUG_VALUE: construct<arm::app::yolov8n_od::Detection, arm::app::yolov8n_od::Detection &>:__p <- [DW_OP_plus_uconst 4, DW_OP_stack_value] $r5
	@DEBUG_VALUE: construct<arm::app::yolov8n_od::Detection, arm::app::yolov8n_od::Detection &, 0>:__p <- [DW_OP_plus_uconst 4, DW_OP_stack_value] $r5
	@DEBUG_VALUE: __get_value:this <- $r5
	@DEBUG_VALUE: __construct_at<std::__2::__forward_list_node<arm::app::yolov8n_od::Detection, void *>, std::__2::__forward_list_node<arm::app::yolov8n_od::Detection, void *> *&, std::__2::__forward_list_node<arm::app::yolov8n_od::Detection, void *> *>:__args <- undef
	@DEBUG_VALUE: __create_node<arm::app::yolov8n_od::Detection &>:__guard <- [DW_OP_LLVM_fragment 64 32] $r5
	.loc	12 48 8                         @ ..\YOLOv8nODPostProcessing.hpp:48:8
	ldm	r6, {r0, r1, r2, r3, r6}
	ldrd	r4, r12, [sp, #52]
.Ltmp376:
	@DEBUG_VALUE: __compressed_pair<std::nullptr_t, std::__2::allocator<float> >:__t2 <- [DW_OP_LLVM_fragment 0 8] undef
	@DEBUG_VALUE: __forward_begin_node:__n <- $r10
	@DEBUG_VALUE: __forward_list_node:__next <- $r10
	@DEBUG_VALUE: __forward_begin_node:this <- $r5
	@DEBUG_VALUE: __forward_list_node:this <- $r5
	@DEBUG_VALUE: __construct_at<std::__2::__forward_list_node<arm::app::yolov8n_od::Detection, void *>, std::__2::__forward_list_node<arm::app::yolov8n_od::Detection, void *> *&, std::__2::__forward_list_node<arm::app::yolov8n_od::Detection, void *> *>:__location <- $r5
	.loc	21 302 70                       @ AppData\Local\Keil_v5\ARM\ARMCLANG\bin\..\include\libcxx\forward_list:302:70
	strd	r10, r0, [r5]
.Ltmp377:
	@DEBUG_VALUE: Detection: <- [DW_OP_plus_uconst 32, DW_OP_stack_value] $sp
	@DEBUG_VALUE: construct<arm::app::yolov8n_od::Detection, arm::app::yolov8n_od::Detection &>:__args <- [DW_OP_plus_uconst 32, DW_OP_stack_value] $sp
	@DEBUG_VALUE: construct<arm::app::yolov8n_od::Detection, arm::app::yolov8n_od::Detection &>:this <- [DW_OP_plus_uconst 8] [$sp+0]
	@DEBUG_VALUE: construct<arm::app::yolov8n_od::Detection, arm::app::yolov8n_od::Detection &, 0>:__args <- [DW_OP_plus_uconst 32, DW_OP_stack_value] $sp
	@DEBUG_VALUE: construct<arm::app::yolov8n_od::Detection, arm::app::yolov8n_od::Detection &, 0>:__a <- [DW_OP_plus_uconst 8] [$sp+0]
	.loc	12 48 8                         @ ..\YOLOv8nODPostProcessing.hpp:48:8
	add.w	r0, r5, #8
.Ltmp378:
	.loc	2 766 11                        @ AppData\Local\Keil_v5\ARM\ARMCLANG\bin\..\include\libcxx\vector:766:11
	str.w	r11, [r5, #36]
.Ltmp379:
	@DEBUG_VALUE: __init_with_size<float *, float *>:this <- $r0
	@DEBUG_VALUE: __init_with_size<float *, float *>:__guard <- 0
	@DEBUG_VALUE: __init_with_size<float *, float *>:__last <- $r1
	@DEBUG_VALUE: __init_with_size<float *, float *>:__first <- $r6
	.loc	12 48 8                         @ ..\YOLOv8nODPostProcessing.hpp:48:8
	stm	r0!, {r1, r2, r3, r6}
.Ltmp380:
	.loc	2 765 11                        @ AppData\Local\Keil_v5\ARM\ARMCLANG\bin\..\include\libcxx\vector:765:11
	mov	r0, r5
.Ltmp381:
	.loc	2 1237 24                       @ AppData\Local\Keil_v5\ARM\ARMCLANG\bin\..\include\libcxx\vector:1237:24
	ldrd	r6, r1, [sp, #60]
.Ltmp382:
	@DEBUG_VALUE: __init_with_size<float *, float *>:__n <- [DW_OP_constu 2, DW_OP_shra, DW_OP_stack_value] undef
	@DEBUG_VALUE: size:this <- [DW_OP_plus_uconst 32, DW_OP_plus_uconst 28, DW_OP_stack_value] $sp
	.loc	2 765 11                        @ AppData\Local\Keil_v5\ARM\ARMCLANG\bin\..\include\libcxx\vector:765:11
	str	r11, [r0, #32]!
.Ltmp383:
	@DEBUG_VALUE: __compressed_pair_elem<std::nullptr_t, 0>:__u <- undef
	@DEBUG_VALUE: __compressed_pair<std::nullptr_t, std::__2::allocator<float> >:__t2 <- undef
	@DEBUG_VALUE: __compressed_pair<std::nullptr_t, std::__2::allocator<float> >:__t1 <- undef
	@DEBUG_VALUE: vector:this <- $r0
	.loc	12 48 8                         @ ..\YOLOv8nODPostProcessing.hpp:48:8
	strd	r4, r12, [r5, #24]
.Ltmp384:
	@DEBUG_VALUE: vector:__x <- [DW_OP_plus_uconst 28, DW_OP_stack_value] undef
	.loc	16 53 9                         @ AppData\Local\Keil_v5\ARM\ARMCLANG\bin\..\include\libcxx\__memory\compressed_pair.h:53:9
	str.w	r11, [r5, #40]
.Ltmp385:
	@DEBUG_VALUE: __init_with_size<float *, float *>:__guard <- 0
	.loc	2 797 9                         @ AppData\Local\Keil_v5\ARM\ARMCLANG\bin\..\include\libcxx\vector:797:9
	cmp	r1, r6
	@DEBUG_VALUE: __compressed_pair_elem<std::nullptr_t, 0>:this <- [DW_OP_plus_uconst 40, DW_OP_stack_value] $r5
	@DEBUG_VALUE: __compressed_pair<std::nullptr_t, std::__2::allocator<float> >:this <- [DW_OP_plus_uconst 40, DW_OP_stack_value] $r5
	beq	.LBB7_9
.Ltmp386:
@ %bb.7:                                @   in Loop: Header=BB7_5 Depth=1
	@DEBUG_VALUE: vector:this <- $r0
	@DEBUG_VALUE: __init_with_size<float *, float *>:__guard <- 0
	@DEBUG_VALUE: __create_node<arm::app::yolov8n_od::Detection &>:__guard <- [DW_OP_LLVM_fragment 64 32] $r5
	@DEBUG_VALUE: construct<arm::app::yolov8n_od::Detection, arm::app::yolov8n_od::Detection &, 0>:__p <- [DW_OP_plus_uconst 4, DW_OP_stack_value] $r5
	@DEBUG_VALUE: construct<arm::app::yolov8n_od::Detection, arm::app::yolov8n_od::Detection &>:__p <- [DW_OP_plus_uconst 4, DW_OP_stack_value] $r5
	@DEBUG_VALUE: Detection:this <- [DW_OP_plus_uconst 4, DW_OP_stack_value] $r5
	@DEBUG_VALUE: construct<arm::app::yolov8n_od::Detection, arm::app::yolov8n_od::Detection &, 0>:__a <- [DW_OP_plus_uconst 8] [$sp+0]
	@DEBUG_VALUE: construct<arm::app::yolov8n_od::Detection, arm::app::yolov8n_od::Detection &, 0>:__args <- [DW_OP_plus_uconst 32, DW_OP_stack_value] $sp
	@DEBUG_VALUE: construct<arm::app::yolov8n_od::Detection, arm::app::yolov8n_od::Detection &>:this <- [DW_OP_plus_uconst 8] [$sp+0]
	@DEBUG_VALUE: construct<arm::app::yolov8n_od::Detection, arm::app::yolov8n_od::Detection &>:__args <- [DW_OP_plus_uconst 32, DW_OP_stack_value] $sp
	@DEBUG_VALUE: Detection: <- [DW_OP_plus_uconst 32, DW_OP_stack_value] $sp
	@DEBUG_VALUE: __create_node<arm::app::yolov8n_od::Detection &>:__next <- $r10
	@DEBUG_VALUE: __create_node<arm::app::yolov8n_od::Detection &>:this <- [DW_OP_plus_uconst 8] [$sp+0]
	@DEBUG_VALUE: __create_node<arm::app::yolov8n_od::Detection &>:__args <- [DW_OP_plus_uconst 32, DW_OP_stack_value] $sp
	@DEBUG_VALUE: __create_node<arm::app::yolov8n_od::Detection &>:__a <- [DW_OP_plus_uconst 8] [$sp+0]
	@DEBUG_VALUE: __create_node<arm::app::yolov8n_od::Detection &>:__guard <- [DW_OP_LLVM_fragment 32 32] 1
	@DEBUG_VALUE: emplace_front<arm::app::yolov8n_od::Detection &>:this <- [DW_OP_plus_uconst 8] [$sp+0]
	@DEBUG_VALUE: emplace_front<arm::app::yolov8n_od::Detection &>:__args <- [DW_OP_plus_uconst 32, DW_OP_stack_value] $sp
	@DEBUG_VALUE: det <- [DW_OP_plus_uconst 32, DW_OP_plus_uconst 32, DW_OP_deref, DW_OP_LLVM_fragment 256 32] $sp
	@DEBUG_VALUE: det <- [DW_OP_plus_uconst 32, DW_OP_plus_uconst 36, DW_OP_deref, DW_OP_LLVM_fragment 288 32] $sp
	@DEBUG_VALUE: det <- [DW_OP_plus_uconst 32, DW_OP_plus_uconst 28, DW_OP_deref, DW_OP_LLVM_fragment 224 32] $sp
	@DEBUG_VALUE: CalDetectionBox:maxScore <- $s18
	@DEBUG_VALUE: det <- [DW_OP_plus_uconst 32, DW_OP_deref, DW_OP_LLVM_fragment 0 192] $sp
	@DEBUG_VALUE: det <- [DW_OP_plus_uconst 32, DW_OP_plus_uconst 24, DW_OP_deref, DW_OP_LLVM_fragment 192 32] $sp
	@DEBUG_VALUE: CalDetectionBox:i <- $r7
	@DEBUG_VALUE: CalDetectionBox:fThreshold <- $s16
	@DEBUG_VALUE: CalDetectionBox:scaleConf <- $s20
	@DEBUG_VALUE: CalDetectionBox:psBoxOutputTensor <- [DW_OP_plus_uconst 20] [$sp+0]
	@DEBUG_VALUE: CalDetectionBox:vAnchorBoxs <- [DW_OP_plus_uconst 24] [$sp+0]
	@DEBUG_VALUE: CalDetectionBox:cls <- 0
	@DEBUG_VALUE: CalDetectionBox:i32Stride <- [DW_OP_plus_uconst 28] [$sp+0]
	@DEBUG_VALUE: CalDetectionBox:sDetections <- [DW_OP_plus_uconst 140] [$sp+0]
	@DEBUG_VALUE: CalDetectionBox:i32StrideTotalAnchors <- [DW_OP_plus_uconst 136] [$sp+0]
	.loc	2 1237 0                        @ AppData\Local\Keil_v5\ARM\ARMCLANG\bin\..\include\libcxx\vector:1237:0
	subs	r4, r1, r6
.Ltmp387:
	@DEBUG_VALUE: __vallocate:__n <- [DW_OP_constu 2, DW_OP_shra, DW_OP_stack_value] $r4
	@DEBUG_VALUE: __vallocate:this <- $r0
	@DEBUG_VALUE: __init_with_size<float *, float *>:__n <- [DW_OP_constu 2, DW_OP_shra, DW_OP_stack_value] $r4
	.loc	2 778 9                         @ AppData\Local\Keil_v5\ARM\ARMCLANG\bin\..\include\libcxx\vector:778:9
	cmp.w	r4, #-1
	ble	.LBB7_13
.Ltmp388:
@ %bb.8:                                @   in Loop: Header=BB7_5 Depth=1
	@DEBUG_VALUE: __init_with_size<float *, float *>:__n <- [DW_OP_constu 2, DW_OP_shra, DW_OP_stack_value] $r4
	@DEBUG_VALUE: __vallocate:this <- $r0
	@DEBUG_VALUE: __vallocate:__n <- [DW_OP_constu 2, DW_OP_shra, DW_OP_stack_value] $r4
	@DEBUG_VALUE: vector:this <- $r0
	@DEBUG_VALUE: __init_with_size<float *, float *>:__guard <- 0
	@DEBUG_VALUE: __create_node<arm::app::yolov8n_od::Detection &>:__guard <- [DW_OP_LLVM_fragment 64 32] $r5
	@DEBUG_VALUE: construct<arm::app::yolov8n_od::Detection, arm::app::yolov8n_od::Detection &, 0>:__p <- [DW_OP_plus_uconst 4, DW_OP_stack_value] $r5
	@DEBUG_VALUE: construct<arm::app::yolov8n_od::Detection, arm::app::yolov8n_od::Detection &>:__p <- [DW_OP_plus_uconst 4, DW_OP_stack_value] $r5
	@DEBUG_VALUE: Detection:this <- [DW_OP_plus_uconst 4, DW_OP_stack_value] $r5
	@DEBUG_VALUE: construct<arm::app::yolov8n_od::Detection, arm::app::yolov8n_od::Detection &, 0>:__a <- [DW_OP_plus_uconst 8] [$sp+0]
	@DEBUG_VALUE: construct<arm::app::yolov8n_od::Detection, arm::app::yolov8n_od::Detection &, 0>:__args <- [DW_OP_plus_uconst 32, DW_OP_stack_value] $sp
	@DEBUG_VALUE: construct<arm::app::yolov8n_od::Detection, arm::app::yolov8n_od::Detection &>:this <- [DW_OP_plus_uconst 8] [$sp+0]
	@DEBUG_VALUE: construct<arm::app::yolov8n_od::Detection, arm::app::yolov8n_od::Detection &>:__args <- [DW_OP_plus_uconst 32, DW_OP_stack_value] $sp
	@DEBUG_VALUE: Detection: <- [DW_OP_plus_uconst 32, DW_OP_stack_value] $sp
	@DEBUG_VALUE: __create_node<arm::app::yolov8n_od::Detection &>:__next <- $r10
	@DEBUG_VALUE: __create_node<arm::app::yolov8n_od::Detection &>:this <- [DW_OP_plus_uconst 8] [$sp+0]
	@DEBUG_VALUE: __create_node<arm::app::yolov8n_od::Detection &>:__args <- [DW_OP_plus_uconst 32, DW_OP_stack_value] $sp
	@DEBUG_VALUE: __create_node<arm::app::yolov8n_od::Detection &>:__a <- [DW_OP_plus_uconst 8] [$sp+0]
	@DEBUG_VALUE: __create_node<arm::app::yolov8n_od::Detection &>:__guard <- [DW_OP_LLVM_fragment 32 32] 1
	@DEBUG_VALUE: emplace_front<arm::app::yolov8n_od::Detection &>:this <- [DW_OP_plus_uconst 8] [$sp+0]
	@DEBUG_VALUE: emplace_front<arm::app::yolov8n_od::Detection &>:__args <- [DW_OP_plus_uconst 32, DW_OP_stack_value] $sp
	@DEBUG_VALUE: det <- [DW_OP_plus_uconst 32, DW_OP_plus_uconst 32, DW_OP_deref, DW_OP_LLVM_fragment 256 32] $sp
	@DEBUG_VALUE: det <- [DW_OP_plus_uconst 32, DW_OP_plus_uconst 36, DW_OP_deref, DW_OP_LLVM_fragment 288 32] $sp
	@DEBUG_VALUE: det <- [DW_OP_plus_uconst 32, DW_OP_plus_uconst 28, DW_OP_deref, DW_OP_LLVM_fragment 224 32] $sp
	@DEBUG_VALUE: CalDetectionBox:maxScore <- $s18
	@DEBUG_VALUE: det <- [DW_OP_plus_uconst 32, DW_OP_deref, DW_OP_LLVM_fragment 0 192] $sp
	@DEBUG_VALUE: det <- [DW_OP_plus_uconst 32, DW_OP_plus_uconst 24, DW_OP_deref, DW_OP_LLVM_fragment 192 32] $sp
	@DEBUG_VALUE: CalDetectionBox:i <- $r7
	@DEBUG_VALUE: CalDetectionBox:fThreshold <- $s16
	@DEBUG_VALUE: CalDetectionBox:scaleConf <- $s20
	@DEBUG_VALUE: CalDetectionBox:psBoxOutputTensor <- [DW_OP_plus_uconst 20] [$sp+0]
	@DEBUG_VALUE: CalDetectionBox:vAnchorBoxs <- [DW_OP_plus_uconst 24] [$sp+0]
	@DEBUG_VALUE: CalDetectionBox:cls <- 0
	@DEBUG_VALUE: CalDetectionBox:i32Stride <- [DW_OP_plus_uconst 28] [$sp+0]
	@DEBUG_VALUE: CalDetectionBox:sDetections <- [DW_OP_plus_uconst 140] [$sp+0]
	@DEBUG_VALUE: CalDetectionBox:i32StrideTotalAnchors <- [DW_OP_plus_uconst 136] [$sp+0]
	@DEBUG_VALUE: __init_with_size<float *, float *>:__n <- [DW_OP_constu 2, DW_OP_shra, DW_OP_stack_value] $r4
	@DEBUG_VALUE: __vallocate:__n <- [DW_OP_constu 2, DW_OP_shra, DW_OP_stack_value] $r4
	@DEBUG_VALUE: __allocate_at_least<std::__2::allocator<float> >:__alloc <- [DW_OP_plus_uconst 8, DW_OP_stack_value] undef
	@DEBUG_VALUE: __allocate_at_least<std::__2::allocator<float> >:__n <- [DW_OP_constu 2, DW_OP_shra, DW_OP_stack_value] $r4
	@DEBUG_VALUE: allocate:this <- [DW_OP_plus_uconst 8, DW_OP_stack_value] undef
	@DEBUG_VALUE: allocate:__n <- [DW_OP_constu 2, DW_OP_shra, DW_OP_stack_value] $r4
	@DEBUG_VALUE: __libcpp_allocate:__size <- $r4
	@DEBUG_VALUE: __libcpp_allocate:__align <- 4
	@DEBUG_VALUE: __libcpp_operator_new<unsigned int>:__args <- $r4
	.loc	4 272 10                        @ AppData\Local\Keil_v5\ARM\ARMCLANG\bin\..\include\libcxx\new:272:10
	mov	r0, r4
.Ltmp389:
	bl	_Znwj
.Ltmp390:
	@DEBUG_VALUE: __vallocate:__allocation <- [DW_OP_constu 2, DW_OP_shra, DW_OP_stack_value, DW_OP_LLVM_fragment 32 32] $r4
	@DEBUG_VALUE: __vallocate:__allocation <- [DW_OP_LLVM_fragment 0 32] $r0
	.loc	2 783 34                        @ AppData\Local\Keil_v5\ARM\ARMCLANG\bin\..\include\libcxx\vector:783:34
	add.w	r10, r0, r4
.Ltmp391:
	.loc	10 227 5                        @ AppData\Local\Keil_v5\ARM\ARMCLANG\bin\..\include\libcxx\__string\constexpr_c_functions.h:227:5
	mov	r1, r6
	mov	r2, r4
.Ltmp392:
	.loc	2 781 23                        @ AppData\Local\Keil_v5\ARM\ARMCLANG\bin\..\include\libcxx\vector:781:23
	str	r0, [r5, #32]
	.loc	2 783 23                        @ AppData\Local\Keil_v5\ARM\ARMCLANG\bin\..\include\libcxx\vector:783:23
	str.w	r10, [r5, #40]
.Ltmp393:
	@DEBUG_VALUE: __uninitialized_allocator_copy_impl<std::__2::allocator<float>, float, float, 0>: <- [DW_OP_plus_uconst 32, DW_OP_plus_uconst 8, DW_OP_stack_value] $r5
	@DEBUG_VALUE: __uninitialized_allocator_copy<std::__2::allocator<float>, float *, float *, float *>:__alloc <- [DW_OP_plus_uconst 32, DW_OP_plus_uconst 8, DW_OP_stack_value] $r5
	@DEBUG_VALUE: __construct_at_end<float *, float *>:__tx <- [DW_OP_plus_uconst 32, DW_OP_stack_value, DW_OP_LLVM_fragment 0 32] $r5
	@DEBUG_VALUE: __construct_at_end<float *, float *>:this <- [DW_OP_plus_uconst 32, DW_OP_stack_value] $r5
	@DEBUG_VALUE: __constexpr_memmove<float, float, 0>:__count <- [DW_OP_constu 2, DW_OP_shra, DW_OP_stack_value] $r4
	@DEBUG_VALUE: __constexpr_memmove<float, float, 0>:__n <- [DW_OP_constu 2, DW_OP_shra, DW_OP_stack_value] $r4
	@DEBUG_VALUE: __constexpr_memmove<float, float, 0>:__src <- $r6
	@DEBUG_VALUE: __copy_trivial_impl<float, float>:__n <- [DW_OP_constu 2, DW_OP_shra, DW_OP_stack_value] $r4
	@DEBUG_VALUE: __copy_trivial_impl<float, float>:__first <- $r6
	@DEBUG_VALUE: operator()<float, float, 0>:__first <- $r6
	@DEBUG_VALUE: operator()<float, float, 0>:this <- undef
	@DEBUG_VALUE: __copy_move_unwrap_iters<std::__2::__copy_impl<std::__2::_ClassicAlgPolicy>, float *, float *, float *, 0>:__range <- [DW_OP_LLVM_fragment 0 32] $r6
	@DEBUG_VALUE: __copy_move_unwrap_iters<std::__2::__copy_impl<std::__2::_ClassicAlgPolicy>, float *, float *, float *, 0>:__first <- $r6
	@DEBUG_VALUE: __copy<std::__2::_ClassicAlgPolicy, float *, float *, float *>:__first <- $r6
	@DEBUG_VALUE: copy<float *, float *>:__first <- $r6
	@DEBUG_VALUE: __uninitialized_allocator_copy_impl<std::__2::allocator<float>, float, float, 0>:__first1 <- $r6
	@DEBUG_VALUE: __uninitialized_allocator_copy<std::__2::allocator<float>, float *, float *, float *>:__unwrapped_range <- [DW_OP_LLVM_fragment 0 32] $r6
	@DEBUG_VALUE: __uninitialized_allocator_copy<std::__2::allocator<float>, float *, float *, float *>:__first1 <- $r6
	@DEBUG_VALUE: __construct_at_end<float *, float *>:__n <- [DW_OP_constu 2, DW_OP_shra, DW_OP_stack_value] $r4
	@DEBUG_VALUE: __construct_at_end<float *, float *>:__first <- $r6
	@DEBUG_VALUE: ~_ConstructTransaction:this <- undef
	@DEBUG_VALUE: __constexpr_memmove<float, float, 0>:__dest <- $r0
	@DEBUG_VALUE: __copy_trivial_impl<float, float>:__result <- $r0
	@DEBUG_VALUE: operator()<float, float, 0>:__result <- $r0
	@DEBUG_VALUE: __copy_move_unwrap_iters<std::__2::__copy_impl<std::__2::_ClassicAlgPolicy>, float *, float *, float *, 0>:__out_first <- $r0
	@DEBUG_VALUE: __copy<std::__2::_ClassicAlgPolicy, float *, float *, float *>:__result <- $r0
	@DEBUG_VALUE: copy<float *, float *>:__result <- $r0
	@DEBUG_VALUE: __uninitialized_allocator_copy_impl<std::__2::allocator<float>, float, float, 0>:__first2 <- $r0
	@DEBUG_VALUE: __uninitialized_allocator_copy<std::__2::allocator<float>, float *, float *, float *>:__first2 <- $r0
	@DEBUG_VALUE: __construct_at_end<float *, float *>:__tx <- [DW_OP_LLVM_arg 0, DW_OP_LLVM_arg 1, DW_OP_constu 2, DW_OP_shra, DW_OP_constu 4, DW_OP_mul, DW_OP_plus, DW_OP_stack_value, DW_OP_LLVM_fragment 64 32] $r0, $r4
	@DEBUG_VALUE: __construct_at_end<float *, float *>:__tx <- [DW_OP_LLVM_fragment 32 32] $r0
	.loc	10 227 5                        @ AppData\Local\Keil_v5\ARM\ARMCLANG\bin\..\include\libcxx\__string\constexpr_c_functions.h:227:5
	bl	__aeabi_memcpy4
.Ltmp394:
	@DEBUG_VALUE: __uninitialized_allocator_copy<std::__2::allocator<float>, float *, float *, float *>:__result <- $r10
	@DEBUG_VALUE: __copy_move_unwrap_iters<std::__2::__copy_impl<std::__2::_ClassicAlgPolicy>, float *, float *, float *, 0>:__result <- [DW_OP_LLVM_fragment 32 32] $r10
	@DEBUG_VALUE: __construct_at_end<float *, float *>:__tx <- [DW_OP_LLVM_fragment 32 32] $r10
	.loc	2 941 19                        @ AppData\Local\Keil_v5\ARM\ARMCLANG\bin\..\include\libcxx\vector:941:19
	str.w	r10, [r5, #36]
.Ltmp395:
	@DEBUG_VALUE: __copy_move_unwrap_iters<std::__2::__copy_impl<std::__2::_ClassicAlgPolicy>, float *, float *, float *, 0>:__result <- [DW_OP_LLVM_fragment 0 32] undef
	@DEBUG_VALUE: __copy_trivial_impl<float, float>:__last <- undef
	@DEBUG_VALUE: operator()<float, float, 0>:__last <- undef
	@DEBUG_VALUE: __copy_move_unwrap_iters<std::__2::__copy_impl<std::__2::_ClassicAlgPolicy>, float *, float *, float *, 0>:__range <- [DW_OP_LLVM_fragment 32 32] undef
	@DEBUG_VALUE: __copy_move_unwrap_iters<std::__2::__copy_impl<std::__2::_ClassicAlgPolicy>, float *, float *, float *, 0>:__last <- undef
	@DEBUG_VALUE: __copy<std::__2::_ClassicAlgPolicy, float *, float *, float *>:__last <- undef
	@DEBUG_VALUE: copy<float *, float *>:__last <- undef
	@DEBUG_VALUE: __uninitialized_allocator_copy_impl<std::__2::allocator<float>, float, float, 0>:__last1 <- undef
	@DEBUG_VALUE: __uninitialized_allocator_copy<std::__2::allocator<float>, float *, float *, float *>:__unwrapped_range <- [DW_OP_LLVM_fragment 32 32] undef
	@DEBUG_VALUE: __uninitialized_allocator_copy<std::__2::allocator<float>, float *, float *, float *>:__last1 <- undef
	@DEBUG_VALUE: __construct_at_end<float *, float *>:__last <- undef
.LBB7_9:                                @   in Loop: Header=BB7_5 Depth=1
	@DEBUG_VALUE: emplace_front<arm::app::yolov8n_od::Detection &>:this <- [DW_OP_plus_uconst 8] [$sp+0]
	@DEBUG_VALUE: emplace_front<arm::app::yolov8n_od::Detection &>:__args <- [DW_OP_plus_uconst 32, DW_OP_stack_value] $sp
	@DEBUG_VALUE: det <- [DW_OP_plus_uconst 32, DW_OP_plus_uconst 32, DW_OP_deref, DW_OP_LLVM_fragment 256 32] $sp
	@DEBUG_VALUE: det <- [DW_OP_plus_uconst 32, DW_OP_plus_uconst 36, DW_OP_deref, DW_OP_LLVM_fragment 288 32] $sp
	@DEBUG_VALUE: det <- [DW_OP_plus_uconst 32, DW_OP_plus_uconst 28, DW_OP_deref, DW_OP_LLVM_fragment 224 32] $sp
	@DEBUG_VALUE: CalDetectionBox:maxScore <- $s18
	@DEBUG_VALUE: det <- [DW_OP_plus_uconst 32, DW_OP_deref, DW_OP_LLVM_fragment 0 192] $sp
	@DEBUG_VALUE: det <- [DW_OP_plus_uconst 32, DW_OP_plus_uconst 24, DW_OP_deref, DW_OP_LLVM_fragment 192 32] $sp
	@DEBUG_VALUE: CalDetectionBox:i <- $r7
	@DEBUG_VALUE: CalDetectionBox:fThreshold <- $s16
	@DEBUG_VALUE: CalDetectionBox:scaleConf <- $s20
	@DEBUG_VALUE: CalDetectionBox:psBoxOutputTensor <- [DW_OP_plus_uconst 20] [$sp+0]
	@DEBUG_VALUE: CalDetectionBox:vAnchorBoxs <- [DW_OP_plus_uconst 24] [$sp+0]
	@DEBUG_VALUE: CalDetectionBox:cls <- 0
	@DEBUG_VALUE: CalDetectionBox:i32Stride <- [DW_OP_plus_uconst 28] [$sp+0]
	@DEBUG_VALUE: CalDetectionBox:sDetections <- [DW_OP_plus_uconst 140] [$sp+0]
	@DEBUG_VALUE: CalDetectionBox:i32StrideTotalAnchors <- [DW_OP_plus_uconst 136] [$sp+0]
	.loc	2 0 19 is_stmt 0                @ AppData\Local\Keil_v5\ARM\ARMCLANG\bin\..\include\libcxx\vector:0:19
	ldr.w	r10, [sp, #8]                   @ 4-byte Reload
.Ltmp396:
	.loc	2 528 11 is_stmt 1              @ AppData\Local\Keil_v5\ARM\ARMCLANG\bin\..\include\libcxx\vector:528:11
	cmp	r6, #0
.Ltmp397:
	.loc	21 1061 35                      @ AppData\Local\Keil_v5\ARM\ARMCLANG\bin\..\include\libcxx\forward_list:1061:35
	str.w	r5, [r10]
.Ltmp398:
	@DEBUG_VALUE: operator():this <- undef
	@DEBUG_VALUE: ~vector:this <- [DW_OP_plus_uconst 32, DW_OP_plus_uconst 28, DW_OP_stack_value] $sp
	@DEBUG_VALUE: ~Detection:this <- [DW_OP_plus_uconst 32, DW_OP_stack_value] $sp
	@DEBUG_VALUE: __get_value:this <- undef
	.loc	2 528 11                        @ AppData\Local\Keil_v5\ARM\ARMCLANG\bin\..\include\libcxx\vector:528:11
	beq	.LBB7_3
.Ltmp399:
@ %bb.10:                               @   in Loop: Header=BB7_5 Depth=1
	@DEBUG_VALUE: ~Detection:this <- [DW_OP_plus_uconst 32, DW_OP_stack_value] $sp
	@DEBUG_VALUE: ~vector:this <- [DW_OP_plus_uconst 32, DW_OP_plus_uconst 28, DW_OP_stack_value] $sp
	@DEBUG_VALUE: CalDetectionBox:maxScore <- $s18
	@DEBUG_VALUE: CalDetectionBox:i <- $r7
	@DEBUG_VALUE: CalDetectionBox:fThreshold <- $s16
	@DEBUG_VALUE: CalDetectionBox:scaleConf <- $s20
	@DEBUG_VALUE: CalDetectionBox:psBoxOutputTensor <- [DW_OP_plus_uconst 20] [$sp+0]
	@DEBUG_VALUE: CalDetectionBox:vAnchorBoxs <- [DW_OP_plus_uconst 24] [$sp+0]
	@DEBUG_VALUE: CalDetectionBox:cls <- 0
	@DEBUG_VALUE: CalDetectionBox:i32Stride <- [DW_OP_plus_uconst 28] [$sp+0]
	@DEBUG_VALUE: CalDetectionBox:sDetections <- [DW_OP_plus_uconst 140] [$sp+0]
	@DEBUG_VALUE: CalDetectionBox:i32StrideTotalAnchors <- [DW_OP_plus_uconst 136] [$sp+0]
	@DEBUG_VALUE: __base_destruct_at_end:__soon_to_be_end <- undef
	.loc	2 637 35                        @ AppData\Local\Keil_v5\ARM\ARMCLANG\bin\..\include\libcxx\vector:637:35
	ldr	r0, [sp, #68]
.Ltmp400:
	@DEBUG_VALUE: __base_destruct_at_end:__new_last <- $r6
	@DEBUG_VALUE: __base_destruct_at_end:this <- [DW_OP_plus_uconst 32, DW_OP_plus_uconst 28, DW_OP_stack_value] $sp
	@DEBUG_VALUE: __clear:this <- [DW_OP_plus_uconst 32, DW_OP_plus_uconst 28, DW_OP_stack_value] $sp
	.loc	2 985 18                        @ AppData\Local\Keil_v5\ARM\ARMCLANG\bin\..\include\libcxx\vector:985:18
	str	r6, [sp, #64]
.Ltmp401:
	@DEBUG_VALUE: capacity:this <- [DW_OP_plus_uconst 32, DW_OP_plus_uconst 28, DW_OP_stack_value] $sp
	@DEBUG_VALUE: det <- [DW_OP_plus_uconst 32, DW_OP_deref, DW_OP_LLVM_fragment 0 256] $sp
	@DEBUG_VALUE: det <- [DW_OP_plus_uconst 32, DW_OP_plus_uconst 36, DW_OP_deref, DW_OP_LLVM_fragment 288 32] $sp
	@DEBUG_VALUE: det <- [DW_OP_plus_uconst 32, DW_OP_plus_uconst 32, DW_OP_deref, DW_OP_LLVM_fragment 256 32] $sp
	.loc	2 637 47                        @ AppData\Local\Keil_v5\ARM\ARMCLANG\bin\..\include\libcxx\vector:637:47
	subs	r1, r0, r6
.Ltmp402:
	@DEBUG_VALUE: __libcpp_operator_delete<void *, unsigned int>:__args <- $r6
	@DEBUG_VALUE: __do_deallocate_handle_size<>:__ptr <- $r6
	@DEBUG_VALUE: __libcpp_deallocate:__align <- 4
	@DEBUG_VALUE: __libcpp_deallocate:__ptr <- $r6
	@DEBUG_VALUE: deallocate:__p <- $r6
	@DEBUG_VALUE: deallocate:this <- [DW_OP_plus_uconst 32, DW_OP_plus_uconst 36, DW_OP_stack_value] $sp
	@DEBUG_VALUE: deallocate:__p <- $r6
	@DEBUG_VALUE: deallocate:__a <- [DW_OP_plus_uconst 32, DW_OP_plus_uconst 36, DW_OP_stack_value] $sp
	@DEBUG_VALUE: __libcpp_operator_delete<void *, unsigned int>:__args <- $r1
	@DEBUG_VALUE: __do_deallocate_handle_size<>:__size <- $r1
	@DEBUG_VALUE: __libcpp_deallocate:__size <- $r1
	@DEBUG_VALUE: deallocate:__n <- [DW_OP_constu 2, DW_OP_shra, DW_OP_stack_value] $r1
	@DEBUG_VALUE: deallocate:__n <- [DW_OP_constu 2, DW_OP_shra, DW_OP_stack_value] $r1
	.loc	4 281 3                         @ AppData\Local\Keil_v5\ARM\ARMCLANG\bin\..\include\libcxx\new:281:3
	mov	r0, r6
	bl	_ZdlPvj
.Ltmp403:
	.loc	4 0 3 is_stmt 0                 @ AppData\Local\Keil_v5\ARM\ARMCLANG\bin\..\include\libcxx\new:0:3
	b	.LBB7_3
.Ltmp404:
.LBB7_11:
	@DEBUG_VALUE: CalDetectionBox:tensorSizeConf <- $r3
	@DEBUG_VALUE: CalDetectionBox:psBoxOutputTensor <- [DW_OP_plus_uconst 20] [$sp+0]
	@DEBUG_VALUE: CalDetectionBox:vAnchorBoxs <- [DW_OP_plus_uconst 24] [$sp+0]
	@DEBUG_VALUE: CalDetectionBox:maxScore <- 0.000000e+00
	@DEBUG_VALUE: CalDetectionBox:cls <- 0
	@DEBUG_VALUE: CalDetectionBox:i32Stride <- [DW_OP_plus_uconst 28] [$sp+0]
	@DEBUG_VALUE: CalDetectionBox:sDetections <- [DW_OP_plus_uconst 140] [$sp+0]
	@DEBUG_VALUE: CalDetectionBox:i32StrideTotalAnchors <- [DW_OP_plus_uconst 136] [$sp+0]
	@DEBUG_VALUE: CalDetectionBox:fThreshold <- $s0
	@DEBUG_VALUE: CalDetectionBox:psConfidenceOutputTensor <- $r0
	.loc	1 236 3 is_stmt 1               @ ../YOLOv8nODPostProcessing.cpp:236:3
	adr	r0, .LCPI7_0
.Ltmp405:
	@DEBUG_VALUE: CalDetectionBox:psConfidenceOutputTensor <- [DW_OP_LLVM_entry_value 1] $r0
	.loc	1 236 3 epilogue_begin is_stmt 0 @ ../YOLOv8nODPostProcessing.cpp:236:3
	add	sp, #72
	vpop	{d8, d9, d10}
	add	sp, #4
	pop.w	{r4, r5, r6, r7, r8, r9, r10, r11, lr}
.Ltmp406:
	b	puts
.Ltmp407:
.LBB7_12:
	@DEBUG_VALUE: CalDetectionBox:psBoxOutputTensor <- [DW_OP_plus_uconst 20] [$sp+0]
	@DEBUG_VALUE: CalDetectionBox:vAnchorBoxs <- [DW_OP_plus_uconst 24] [$sp+0]
	@DEBUG_VALUE: CalDetectionBox:cls <- 0
	@DEBUG_VALUE: CalDetectionBox:i32Stride <- [DW_OP_plus_uconst 28] [$sp+0]
	@DEBUG_VALUE: CalDetectionBox:sDetections <- [DW_OP_plus_uconst 140] [$sp+0]
	@DEBUG_VALUE: CalDetectionBox:i32StrideTotalAnchors <- [DW_OP_plus_uconst 136] [$sp+0]
	.loc	1 286 1 epilogue_begin is_stmt 1 @ ../YOLOv8nODPostProcessing.cpp:286:1
	add	sp, #72
	vpop	{d8, d9, d10}
	add	sp, #4
	pop.w	{r4, r5, r6, r7, r8, r9, r10, r11, pc}
.Ltmp408:
.LBB7_13:
	@DEBUG_VALUE: __init_with_size<float *, float *>:__n <- [DW_OP_constu 2, DW_OP_shra, DW_OP_stack_value] $r4
	@DEBUG_VALUE: __vallocate:this <- $r0
	@DEBUG_VALUE: __vallocate:__n <- [DW_OP_constu 2, DW_OP_shra, DW_OP_stack_value] $r4
	@DEBUG_VALUE: vector:this <- $r0
	@DEBUG_VALUE: __init_with_size<float *, float *>:__guard <- 0
	@DEBUG_VALUE: __create_node<arm::app::yolov8n_od::Detection &>:__guard <- [DW_OP_LLVM_fragment 64 32] $r5
	@DEBUG_VALUE: construct<arm::app::yolov8n_od::Detection, arm::app::yolov8n_od::Detection &, 0>:__p <- [DW_OP_plus_uconst 4, DW_OP_stack_value] $r5
	@DEBUG_VALUE: construct<arm::app::yolov8n_od::Detection, arm::app::yolov8n_od::Detection &>:__p <- [DW_OP_plus_uconst 4, DW_OP_stack_value] $r5
	@DEBUG_VALUE: Detection:this <- [DW_OP_plus_uconst 4, DW_OP_stack_value] $r5
	@DEBUG_VALUE: construct<arm::app::yolov8n_od::Detection, arm::app::yolov8n_od::Detection &, 0>:__a <- [DW_OP_plus_uconst 8] [$sp+0]
	@DEBUG_VALUE: construct<arm::app::yolov8n_od::Detection, arm::app::yolov8n_od::Detection &, 0>:__args <- [DW_OP_plus_uconst 32, DW_OP_stack_value] $sp
	@DEBUG_VALUE: construct<arm::app::yolov8n_od::Detection, arm::app::yolov8n_od::Detection &>:this <- [DW_OP_plus_uconst 8] [$sp+0]
	@DEBUG_VALUE: construct<arm::app::yolov8n_od::Detection, arm::app::yolov8n_od::Detection &>:__args <- [DW_OP_plus_uconst 32, DW_OP_stack_value] $sp
	@DEBUG_VALUE: Detection: <- [DW_OP_plus_uconst 32, DW_OP_stack_value] $sp
	@DEBUG_VALUE: __create_node<arm::app::yolov8n_od::Detection &>:__next <- $r10
	@DEBUG_VALUE: __create_node<arm::app::yolov8n_od::Detection &>:this <- [DW_OP_plus_uconst 8] [$sp+0]
	@DEBUG_VALUE: __create_node<arm::app::yolov8n_od::Detection &>:__args <- [DW_OP_plus_uconst 32, DW_OP_stack_value] $sp
	@DEBUG_VALUE: __create_node<arm::app::yolov8n_od::Detection &>:__a <- [DW_OP_plus_uconst 8] [$sp+0]
	@DEBUG_VALUE: __create_node<arm::app::yolov8n_od::Detection &>:__guard <- [DW_OP_LLVM_fragment 32 32] 1
	@DEBUG_VALUE: emplace_front<arm::app::yolov8n_od::Detection &>:this <- [DW_OP_plus_uconst 8] [$sp+0]
	@DEBUG_VALUE: emplace_front<arm::app::yolov8n_od::Detection &>:__args <- [DW_OP_plus_uconst 32, DW_OP_stack_value] $sp
	@DEBUG_VALUE: det <- [DW_OP_plus_uconst 32, DW_OP_plus_uconst 32, DW_OP_deref, DW_OP_LLVM_fragment 256 32] $sp
	@DEBUG_VALUE: det <- [DW_OP_plus_uconst 32, DW_OP_plus_uconst 36, DW_OP_deref, DW_OP_LLVM_fragment 288 32] $sp
	@DEBUG_VALUE: det <- [DW_OP_plus_uconst 32, DW_OP_plus_uconst 28, DW_OP_deref, DW_OP_LLVM_fragment 224 32] $sp
	@DEBUG_VALUE: CalDetectionBox:maxScore <- $s18
	@DEBUG_VALUE: det <- [DW_OP_plus_uconst 32, DW_OP_deref, DW_OP_LLVM_fragment 0 192] $sp
	@DEBUG_VALUE: det <- [DW_OP_plus_uconst 32, DW_OP_plus_uconst 24, DW_OP_deref, DW_OP_LLVM_fragment 192 32] $sp
	@DEBUG_VALUE: CalDetectionBox:i <- $r7
	@DEBUG_VALUE: CalDetectionBox:fThreshold <- $s16
	@DEBUG_VALUE: CalDetectionBox:scaleConf <- $s20
	@DEBUG_VALUE: CalDetectionBox:psBoxOutputTensor <- [DW_OP_plus_uconst 20] [$sp+0]
	@DEBUG_VALUE: CalDetectionBox:vAnchorBoxs <- [DW_OP_plus_uconst 24] [$sp+0]
	@DEBUG_VALUE: CalDetectionBox:cls <- 0
	@DEBUG_VALUE: CalDetectionBox:i32Stride <- [DW_OP_plus_uconst 28] [$sp+0]
	@DEBUG_VALUE: CalDetectionBox:sDetections <- [DW_OP_plus_uconst 140] [$sp+0]
	@DEBUG_VALUE: CalDetectionBox:i32StrideTotalAnchors <- [DW_OP_plus_uconst 136] [$sp+0]
	@DEBUG_VALUE: __vallocate:this <- $r0
	.loc	2 779 7                         @ AppData\Local\Keil_v5\ARM\ARMCLANG\bin\..\include\libcxx\vector:779:7
	bl	_ZNKSt3__26vectorIfNS_9allocatorIfEEE20__throw_length_errorB8nn200000Ev
.Ltmp409:
	.loc	2 0 7 is_stmt 0                 @ :0:7
.Ltmp410:
	.p2align	2
@ %bb.14:
.LCPI7_0:
.Lstr.6:
	.asciz	"CalDetectionBox(): error tensor size not match "
.Lfunc_end7:
	.size	_Z15CalDetectionBoxP12TfLiteTensorS0_RNSt3__26vectorIN3arm3app10yolov8n_od9AnchorBoxENS1_9allocatorIS6_EEEEiifRNS1_12forward_listINS5_9DetectionENS7_ISC_EEEE, .Lfunc_end7-_Z15CalDetectionBoxP12TfLiteTensorS0_RNSt3__26vectorIN3arm3app10yolov8n_od9AnchorBoxENS1_9allocatorIS6_EEEEiifRNS1_12forward_listINS5_9DetectionENS7_ISC_EEEE
	.cfi_endproc
	.file	38 "<stdin>"
	.file	39 "C:\\Users\\jimmy" "AppData\\Local\\Keil_v5\\ARM\\ARMCLANG\\bin\\..\\include\\libcxx\\__memory\\construct_at.h"
	.file	40 "C:\\Users\\jimmy" "AppData\\Local\\Keil_v5\\ARM\\ARMCLANG\\bin\\..\\include\\libcxx\\__algorithm\\copy_move_common.h"
	.file	41 "C:\\Users\\jimmy" "AppData\\Local\\Keil_v5\\ARM\\ARMCLANG\\bin\\..\\include\\libcxx\\__algorithm\\copy.h"
	.cantunwind
	.fnend
                                        @ -- End function
	.section	.text._ZN3arm3app10yolov8n_od23YOLOv8nODPostProcessingC2EPNS0_14YOLOv8nODModelEf,"ax",%progbits
	.hidden	_ZN3arm3app10yolov8n_od23YOLOv8nODPostProcessingC2EPNS0_14YOLOv8nODModelEf @ -- Begin function _ZN3arm3app10yolov8n_od23YOLOv8nODPostProcessingC2EPNS0_14YOLOv8nODModelEf
	.globl	_ZN3arm3app10yolov8n_od23YOLOv8nODPostProcessingC2EPNS0_14YOLOv8nODModelEf
	.p2align	2
	.type	_ZN3arm3app10yolov8n_od23YOLOv8nODPostProcessingC2EPNS0_14YOLOv8nODModelEf,%function
	.code	16                              @ @_ZN3arm3app10yolov8n_od23YOLOv8nODPostProcessingC2EPNS0_14YOLOv8nODModelEf
	.thumb_func
_ZN3arm3app10yolov8n_od23YOLOv8nODPostProcessingC2EPNS0_14YOLOv8nODModelEf:
.Lfunc_begin8:
	.loc	1 302 0 is_stmt 1               @ ../YOLOv8nODPostProcessing.cpp:302:0
	.fnstart
	.cfi_startproc
@ %bb.0:
	@DEBUG_VALUE: YOLOv8nODPostProcessing:this <- $r0
	@DEBUG_VALUE: YOLOv8nODPostProcessing:model <- $r1
	@DEBUG_VALUE: YOLOv8nODPostProcessing:threshold <- $s0
	.save	{r4, r5, r6, r7, r8, lr}
	push.w	{r4, r5, r6, r7, r8, lr}
	.cfi_def_cfa_offset 24
	.cfi_offset lr, -4
	.cfi_offset r8, -8
	.cfi_offset r7, -12
	.cfi_offset r6, -16
	.cfi_offset r5, -20
	.cfi_offset r4, -24
.Ltmp411:
	.loc	1 297 26 prologue_end           @ ../YOLOv8nODPostProcessing.cpp:297:26
	add.w	r6, r0, #20
.Ltmp412:
	@DEBUG_VALUE: __compressed_pair_elem<std::nullptr_t, 0>:this <- [DW_OP_plus_uconst 28, DW_OP_stack_value] $r4
	@DEBUG_VALUE: __compressed_pair<std::nullptr_t, std::__2::__default_init_tag>:this <- [DW_OP_plus_uconst 28, DW_OP_stack_value] $r4
	.loc	1 0 26 is_stmt 0                @ ../YOLOv8nODPostProcessing.cpp:0:26
	mov	r4, r0
.Ltmp413:
	@DEBUG_VALUE: YOLOv8nODPostProcessing:this <- $r4
	.loc	1 300 9 is_stmt 1               @ ../YOLOv8nODPostProcessing.cpp:300:9
	vstr	s0, [r0, #4]
	.loc	1 301 3                         @ ../YOLOv8nODPostProcessing.cpp:301:3
	str	r1, [r0]
	.loc	1 297 26                        @ ../YOLOv8nODPostProcessing.cpp:297:26
	add.w	r7, r0, #32
.Ltmp414:
	@DEBUG_VALUE: __compressed_pair_elem<std::nullptr_t, 0>:this <- [DW_OP_plus_uconst 40, DW_OP_stack_value] $r4
	@DEBUG_VALUE: __compressed_pair<std::nullptr_t, std::__2::__default_init_tag>:this <- [DW_OP_plus_uconst 40, DW_OP_stack_value] $r4
	@DEBUG_VALUE: vector:this <- $r7
	add.w	r5, r0, #44
.Ltmp415:
	@DEBUG_VALUE: __compressed_pair_elem<std::nullptr_t, 0>:this <- [DW_OP_plus_uconst 52, DW_OP_stack_value] $r4
	@DEBUG_VALUE: __compressed_pair<std::nullptr_t, std::__2::__default_init_tag>:this <- [DW_OP_plus_uconst 52, DW_OP_stack_value] $r4
	@DEBUG_VALUE: vector:this <- $r5
	@DEBUG_VALUE: vector:this <- $r6
	.loc	2 766 11                        @ AppData\Local\Keil_v5\ARM\ARMCLANG\bin\..\include\libcxx\vector:766:11
	mov	r0, r6
	movs	r1, #36
.Ltmp416:
	@DEBUG_VALUE: YOLOv8nODPostProcessing:model <- [DW_OP_LLVM_entry_value 1] $r1
	.loc	2 0 11 is_stmt 0                @ AppData\Local\Keil_v5\ARM\ARMCLANG\bin\..\include\libcxx\vector:0:11
	mov.w	r8, #36
	.loc	2 766 11                        @ AppData\Local\Keil_v5\ARM\ARMCLANG\bin\..\include\libcxx\vector:766:11
	bl	__aeabi_memclr4
.Ltmp417:
	@DEBUG_VALUE: YOLOv8nODPostProcessing:threshold <- [DW_OP_LLVM_entry_value 1] $s0
	.loc	2 0 11                          @ AppData\Local\Keil_v5\ARM\ARMCLANG\bin\..\include\libcxx\vector:0:11
	mov.w	r0, #576
.Ltmp418:
	.loc	1 307 26 is_stmt 1              @ ../YOLOv8nODPostProcessing.cpp:307:26
	add.w	r2, r4, #8
	movs	r1, #144
	stm.w	r2, {r0, r1, r8}
	movs	r0, #0
.Ltmp419:
	@DEBUG_VALUE: __base_destruct_at_end:__new_last <- 0
	@DEBUG_VALUE: __base_destruct_at_end:this <- $r7
	@DEBUG_VALUE: __clear:this <- $r7
	@DEBUG_VALUE: clear:this <- $r7
	@DEBUG_VALUE: __base_destruct_at_end:__new_last <- 0
	@DEBUG_VALUE: __base_destruct_at_end:this <- $r6
	@DEBUG_VALUE: __clear:this <- $r6
	@DEBUG_VALUE: clear:this <- $r6
	.loc	1 325 2                         @ ../YOLOv8nODPostProcessing.cpp:325:2
	movs	r1, #8
.Ltmp420:
	.loc	2 985 18                        @ AppData\Local\Keil_v5\ARM\ARMCLANG\bin\..\include\libcxx\vector:985:18
	str	r0, [r4, #36]
.Ltmp421:
	@DEBUG_VALUE: __base_destruct_at_end:__new_last <- 0
	@DEBUG_VALUE: __base_destruct_at_end:this <- $r5
	@DEBUG_VALUE: __clear:this <- $r5
	@DEBUG_VALUE: clear:this <- $r5
	.loc	1 325 2                         @ ../YOLOv8nODPostProcessing.cpp:325:2
	mov	r0, r6
.Ltmp422:
	@DEBUG_VALUE: vector:this <- $r0
	mov.w	r2, #576
	bl	_Z21AnchorMatrixConstructRNSt3__26vectorIN3arm3app10yolov8n_od9AnchorBoxENS_9allocatorIS4_EEEEii
.Ltmp423:
	.loc	1 332 66                        @ ../YOLOv8nODPostProcessing.cpp:332:66
	ldr	r2, [r4, #12]
	.loc	1 332 2 is_stmt 0               @ ../YOLOv8nODPostProcessing.cpp:332:2
	mov	r0, r7
.Ltmp424:
	@DEBUG_VALUE: vector:this <- $r0
	movs	r1, #16
	bl	_Z21AnchorMatrixConstructRNSt3__26vectorIN3arm3app10yolov8n_od9AnchorBoxENS_9allocatorIS4_EEEEii
.Ltmp425:
	.loc	1 339 66 is_stmt 1              @ ../YOLOv8nODPostProcessing.cpp:339:66
	ldr	r2, [r4, #16]
	.loc	1 339 2 is_stmt 0               @ ../YOLOv8nODPostProcessing.cpp:339:2
	mov	r0, r5
.Ltmp426:
	@DEBUG_VALUE: vector:this <- $r0
	movs	r1, #32
	bl	_Z21AnchorMatrixConstructRNSt3__26vectorIN3arm3app10yolov8n_od9AnchorBoxENS_9allocatorIS4_EEEEii
.Ltmp427:
	.loc	1 341 1 is_stmt 1               @ ../YOLOv8nODPostProcessing.cpp:341:1
	mov	r0, r4
.Ltmp428:
	@DEBUG_VALUE: YOLOv8nODPostProcessing:this <- $r0
	.loc	1 341 1 epilogue_begin is_stmt 0 @ ../YOLOv8nODPostProcessing.cpp:341:1
	pop.w	{r4, r5, r6, r7, r8, pc}
.Ltmp429:
.Lfunc_end8:
	.size	_ZN3arm3app10yolov8n_od23YOLOv8nODPostProcessingC2EPNS0_14YOLOv8nODModelEf, .Lfunc_end8-_ZN3arm3app10yolov8n_od23YOLOv8nODPostProcessingC2EPNS0_14YOLOv8nODModelEf
	.cfi_endproc
	.cantunwind
	.fnend
                                        @ -- End function
	.section	.text._ZN3arm3app10yolov8n_od23YOLOv8nODPostProcessing17RunPostProcessingEjjjjRNSt3__26vectorINS1_15DetectionResultENS3_9allocatorIS5_EEEE,"ax",%progbits
	.hidden	_ZN3arm3app10yolov8n_od23YOLOv8nODPostProcessing17RunPostProcessingEjjjjRNSt3__26vectorINS1_15DetectionResultENS3_9allocatorIS5_EEEE @ -- Begin function _ZN3arm3app10yolov8n_od23YOLOv8nODPostProcessing17RunPostProcessingEjjjjRNSt3__26vectorINS1_15DetectionResultENS3_9allocatorIS5_EEEE
	.globl	_ZN3arm3app10yolov8n_od23YOLOv8nODPostProcessing17RunPostProcessingEjjjjRNSt3__26vectorINS1_15DetectionResultENS3_9allocatorIS5_EEEE
	.p2align	2
	.type	_ZN3arm3app10yolov8n_od23YOLOv8nODPostProcessing17RunPostProcessingEjjjjRNSt3__26vectorINS1_15DetectionResultENS3_9allocatorIS5_EEEE,%function
	.code	16                              @ @_ZN3arm3app10yolov8n_od23YOLOv8nODPostProcessing17RunPostProcessingEjjjjRNSt3__26vectorINS1_15DetectionResultENS3_9allocatorIS5_EEEE
	.thumb_func
_ZN3arm3app10yolov8n_od23YOLOv8nODPostProcessing17RunPostProcessingEjjjjRNSt3__26vectorINS1_15DetectionResultENS3_9allocatorIS5_EEEE:
.Lfunc_begin9:
	.loc	1 350 0 is_stmt 1               @ ../YOLOv8nODPostProcessing.cpp:350:0
	.fnstart
	.cfi_startproc
@ %bb.0:
	@DEBUG_VALUE: RunPostProcessing:this <- $r0
	@DEBUG_VALUE: RunPostProcessing:imgNetCols <- $r1
	@DEBUG_VALUE: RunPostProcessing:imgNetRows <- $r2
	@DEBUG_VALUE: RunPostProcessing:imgSrcCols <- $r3
	.save	{r4, r5, r6, r7, r8, r9, r10, r11, lr}
	push.w	{r4, r5, r6, r7, r8, r9, r10, r11, lr}
	.cfi_def_cfa_offset 36
	.cfi_offset lr, -4
	.cfi_offset r11, -8
	.cfi_offset r10, -12
	.cfi_offset r9, -16
	.cfi_offset r8, -20
	.cfi_offset r7, -24
	.cfi_offset r6, -28
	.cfi_offset r5, -32
	.cfi_offset r4, -36
	.pad	#4
	sub	sp, #4
	.cfi_def_cfa_offset 40
	.vsave	{d8, d9, d10}
	vpush	{d8, d9, d10}
	.cfi_def_cfa_offset 64
	.cfi_offset d10, -48
	.cfi_offset d9, -56
	.cfi_offset d8, -64
	.pad	#40
	sub	sp, #40
	.cfi_def_cfa_offset 104
.Ltmp430:
	@DEBUG_VALUE: RunPostProcessing:imgSrcRows <- [DW_OP_plus_uconst 104] [$sp+0]
	@DEBUG_VALUE: RunPostProcessing:resultsOut <- [DW_OP_plus_uconst 108] [$sp+0]
	mov	r7, r1
.Ltmp431:
	@DEBUG_VALUE: RunPostProcessing:imgNetCols <- $r7
	@DEBUG_VALUE: RunPostProcessing:imgNetCols <- $r7
	movs	r1, #0
.Ltmp432:
	@DEBUG_VALUE: __compressed_pair_elem<std::__2::__forward_begin_node<std::__2::__forward_list_node<arm::app::yolov8n_od::Detection, void *> *>, 0>:this <- [DW_OP_plus_uconst 36, DW_OP_stack_value] $sp
	@DEBUG_VALUE: __compressed_pair<std::__2::__forward_begin_node<std::__2::__forward_list_node<arm::app::yolov8n_od::Detection, void *> *>, std::__2::__default_init_tag>:this <- [DW_OP_plus_uconst 36, DW_OP_stack_value] $sp
	@DEBUG_VALUE: __forward_list_base:this <- [DW_OP_plus_uconst 36, DW_OP_stack_value] $sp
	@DEBUG_VALUE: forward_list:this <- [DW_OP_plus_uconst 36, DW_OP_stack_value] $sp
	add	r4, sp, #36
	ldr.w	r10, [sp, #108]
.Ltmp433:
	@DEBUG_VALUE: RunPostProcessing:fYScale <- undef
	@DEBUG_VALUE: RunPostProcessing:fXScale <- undef
	@DEBUG_VALUE: RunPostProcessing:sDetections <- [DW_OP_plus_uconst 36, DW_OP_deref] $sp
	.loc	16 53 9 prologue_end            @ AppData\Local\Keil_v5\ARM\ARMCLANG\bin\..\include\libcxx\__memory\compressed_pair.h:53:9
	str	r1, [sp, #36]
.Ltmp434:
	.loc	1 356 2                         @ ../YOLOv8nODPostProcessing.cpp:356:2
	mov	r1, r4
	mov	r6, r3
.Ltmp435:
	@DEBUG_VALUE: RunPostProcessing:imgSrcCols <- $r6
	@DEBUG_VALUE: RunPostProcessing:imgSrcCols <- $r6
	.loc	1 0 2 is_stmt 0                 @ ../YOLOv8nODPostProcessing.cpp:0:2
	mov	r5, r2
.Ltmp436:
	@DEBUG_VALUE: RunPostProcessing:imgNetRows <- $r5
	@DEBUG_VALUE: RunPostProcessing:imgNetRows <- $r5
	.loc	1 356 2                         @ ../YOLOv8nODPostProcessing.cpp:356:2
	bl	_ZN3arm3app10yolov8n_od23YOLOv8nODPostProcessing15GetNetworkBoxesERNSt3__212forward_listINS1_9DetectionENS3_9allocatorIS5_EEEE
.Ltmp437:
	@DEBUG_VALUE: RunPostProcessing:this <- [DW_OP_LLVM_entry_value 1] $r0
	.loc	1 0 2                           @ ../YOLOv8nODPostProcessing.cpp:0:2
	vldr	s0, .LCPI9_0
	.loc	1 357 2 is_stmt 1               @ ../YOLOv8nODPostProcessing.cpp:357:2
	mov	r0, r4
	movs	r1, #1
	bl	_Z12CalculateNMSRNSt3__212forward_listIN3arm3app10yolov8n_od9DetectionENS_9allocatorIS4_EEEEif
.Ltmp438:
	.loc	1 364 0                         @ ../YOLOv8nODPostProcessing.cpp:364:0
	ldr.w	r8, [sp, #36]
.Ltmp439:
	@DEBUG_VALUE: size:this <- $r10
	@DEBUG_VALUE: clear:this <- $r10
	.loc	2 634 56                        @ AppData\Local\Keil_v5\ARM\ARMCLANG\bin\..\include\libcxx\vector:634:56
	ldr.w	r9, [r10]
.Ltmp440:
	.loc	1 364 2                         @ ../YOLOv8nODPostProcessing.cpp:364:2
	cmp.w	r8, #0
.Ltmp441:
	@DEBUG_VALUE: __base_destruct_at_end:this <- $r10
	@DEBUG_VALUE: __clear:this <- $r10
	@DEBUG_VALUE: __base_destruct_at_end:__new_last <- $r9
	.loc	2 985 18                        @ AppData\Local\Keil_v5\ARM\ARMCLANG\bin\..\include\libcxx\vector:985:18
	str.w	r9, [r10, #4]
.Ltmp442:
	@DEBUG_VALUE: RunPostProcessing:cls <- 0
	@DEBUG_VALUE: RunPostProcessing:score <- 0.000000e+00
	.loc	1 364 2                         @ ../YOLOv8nODPostProcessing.cpp:364:2
	beq.w	.LBB9_16
.Ltmp443:
@ %bb.1:
	@DEBUG_VALUE: RunPostProcessing:score <- 0.000000e+00
	@DEBUG_VALUE: RunPostProcessing:cls <- 0
	@DEBUG_VALUE: __base_destruct_at_end:__new_last <- $r9
	@DEBUG_VALUE: __clear:this <- $r10
	@DEBUG_VALUE: __base_destruct_at_end:this <- $r10
	@DEBUG_VALUE: clear:this <- $r10
	@DEBUG_VALUE: size:this <- $r10
	@DEBUG_VALUE: RunPostProcessing:this <- [DW_OP_LLVM_entry_value 1] $r0
	@DEBUG_VALUE: RunPostProcessing:imgNetRows <- $r5
	@DEBUG_VALUE: RunPostProcessing:imgSrcCols <- $r6
	@DEBUG_VALUE: RunPostProcessing:sDetections <- [DW_OP_plus_uconst 36, DW_OP_deref] $sp
	@DEBUG_VALUE: forward_list:this <- [DW_OP_plus_uconst 36, DW_OP_stack_value] $sp
	@DEBUG_VALUE: __forward_list_base:this <- [DW_OP_plus_uconst 36, DW_OP_stack_value] $sp
	@DEBUG_VALUE: __compressed_pair<std::__2::__forward_begin_node<std::__2::__forward_list_node<arm::app::yolov8n_od::Detection, void *> *>, std::__2::__default_init_tag>:this <- [DW_OP_plus_uconst 36, DW_OP_stack_value] $sp
	@DEBUG_VALUE: __compressed_pair_elem<std::__2::__forward_begin_node<std::__2::__forward_list_node<arm::app::yolov8n_od::Detection, void *> *>, 0>:this <- [DW_OP_plus_uconst 36, DW_OP_stack_value] $sp
	@DEBUG_VALUE: RunPostProcessing:imgNetCols <- $r7
	@DEBUG_VALUE: RunPostProcessing:resultsOut <- [DW_OP_plus_uconst 108] [$sp+0]
	@DEBUG_VALUE: RunPostProcessing:imgSrcRows <- [DW_OP_plus_uconst 104] [$sp+0]
	.loc	1 0 2 is_stmt 0                 @ ../YOLOv8nODPostProcessing.cpp:0:2
	ldr	r0, [sp, #104]
	movw	r12, #43690
	vmov	s0, r6
	vmov	s2, r7
.Ltmp444:
	@DEBUG_VALUE: RunPostProcessing:imgNetCols <- $s2
	vmov	s4, r0
	vmov	s6, r5
.Ltmp445:
	@DEBUG_VALUE: RunPostProcessing:imgNetRows <- $s6
	vcvt.f32.u32	s0, s0
	vcvt.f32.u32	s2, s2
.Ltmp446:
	vcvt.f32.u32	s4, s4
	vcvt.f32.u32	s6, s6
.Ltmp447:
	vdiv.f32	s16, s0, s2
.Ltmp448:
	@DEBUG_VALUE: RunPostProcessing:fXScale <- $s16
	vdiv.f32	s18, s4, s6
.Ltmp449:
	@DEBUG_VALUE: RunPostProcessing:fYScale <- $s18
	movw	lr, #43691
	subs	r7, r0, #1
	movt	r12, #2730
	subs	r6, #1
.Ltmp450:
	@DEBUG_VALUE: RunPostProcessing:imgSrcCols <- [DW_OP_LLVM_entry_value 1] $r3
	movt	lr, #43690
	mov	r4, r8
	strd	r6, r7, [sp, #4]                @ 8-byte Folded Spill
	b	.LBB9_5
.Ltmp451:
	.p2align	2
.LBB9_2:                                @   in Loop: Header=BB9_5 Depth=1
	@DEBUG_VALUE: detectBox <- [DW_OP_LLVM_fragment 96 32] $r1
	@DEBUG_VALUE: detectResult <- [DW_OP_LLVM_fragment 96 32] $r1
	@DEBUG_VALUE: detectBox <- [DW_OP_LLVM_fragment 128 32] $r11
	@DEBUG_VALUE: detectBox <- [DW_OP_LLVM_fragment 160 32] $s20
	@DEBUG_VALUE: detectResult <- [DW_OP_LLVM_fragment 128 32] $r11
	@DEBUG_VALUE: detectResult <- [DW_OP_LLVM_fragment 160 32] $s20
	@DEBUG_VALUE: push_back:this <- $r10
	@DEBUG_VALUE: push_back:__end <- $r9
	@DEBUG_VALUE: detectBox <- [DW_OP_LLVM_fragment 64 32] $r3
	@DEBUG_VALUE: detectResult <- [DW_OP_LLVM_fragment 64 32] $r3
	@DEBUG_VALUE: detectBox <- [DW_OP_LLVM_fragment 32 32] $r2
	@DEBUG_VALUE: detectResult <- [DW_OP_LLVM_fragment 32 32] $r2
	@DEBUG_VALUE: detectBox <- [DW_OP_LLVM_fragment 0 32] $r5
	@DEBUG_VALUE: detectResult <- [DW_OP_LLVM_fragment 0 32] $r5
	@DEBUG_VALUE: RunPostProcessing:score <- $s20
	@DEBUG_VALUE: RunPostProcessing:imgSrcCols <- [DW_OP_LLVM_entry_value 1] $r3
	@DEBUG_VALUE: RunPostProcessing:fYScale <- $s18
	@DEBUG_VALUE: RunPostProcessing:fXScale <- $s16
	@DEBUG_VALUE: RunPostProcessing:cls <- 0
	@DEBUG_VALUE: RunPostProcessing:this <- [DW_OP_LLVM_entry_value 1] $r0
	@DEBUG_VALUE: RunPostProcessing:sDetections <- [DW_OP_plus_uconst 36, DW_OP_deref] $sp
	@DEBUG_VALUE: RunPostProcessing:resultsOut <- [DW_OP_plus_uconst 108] [$sp+0]
	@DEBUG_VALUE: RunPostProcessing:imgSrcRows <- [DW_OP_plus_uconst 104] [$sp+0]
	@DEBUG_VALUE: detectResult <- [DW_OP_LLVM_fragment 160 32] $s20
	@DEBUG_VALUE: __construct_one_at_end<const arm::app::yolov8n_od::DetectionResult &>:this <- $r10
	@DEBUG_VALUE: __construct_one_at_end<const arm::app::yolov8n_od::DetectionResult &>:__args <- undef
	@DEBUG_VALUE: __construct_one_at_end<const arm::app::yolov8n_od::DetectionResult &>:__tx <- [DW_OP_LLVM_fragment 0 32] $r10
	@DEBUG_VALUE: __construct_one_at_end<const arm::app::yolov8n_od::DetectionResult &>:__tx <- [DW_OP_LLVM_fragment 32 32] $r9
	@DEBUG_VALUE: __construct_one_at_end<const arm::app::yolov8n_od::DetectionResult &>:__tx <- [DW_OP_plus_uconst 24, DW_OP_stack_value, DW_OP_LLVM_fragment 64 32] $r9
	@DEBUG_VALUE: construct<arm::app::yolov8n_od::DetectionResult, const arm::app::yolov8n_od::DetectionResult &, 0>:__a <- [DW_OP_plus_uconst 8, DW_OP_stack_value] $r10
	@DEBUG_VALUE: construct<arm::app::yolov8n_od::DetectionResult, const arm::app::yolov8n_od::DetectionResult &, 0>:__p <- $r9
	@DEBUG_VALUE: construct<arm::app::yolov8n_od::DetectionResult, const arm::app::yolov8n_od::DetectionResult &, 0>:__args <- undef
	@DEBUG_VALUE: construct<arm::app::yolov8n_od::DetectionResult, const arm::app::yolov8n_od::DetectionResult &>:this <- [DW_OP_plus_uconst 8, DW_OP_stack_value] $r10
	@DEBUG_VALUE: construct<arm::app::yolov8n_od::DetectionResult, const arm::app::yolov8n_od::DetectionResult &>:__p <- $r9
	@DEBUG_VALUE: construct<arm::app::yolov8n_od::DetectionResult, const arm::app::yolov8n_od::DetectionResult &>:__args <- undef
	.loc	13 151 24 is_stmt 1             @ AppData\Local\Keil_v5\ARM\ARMCLANG\bin\..\include\libcxx\__memory\allocator.h:151:24
	strd	r5, r2, [r9]
	strd	r3, r1, [r9, #8]
	vstr	s20, [r9, #20]
	str.w	r11, [r9, #16]
.Ltmp452:
	.loc	2 961 5                         @ AppData\Local\Keil_v5\ARM\ARMCLANG\bin\..\include\libcxx\vector:961:5
	add.w	r9, r9, #24
.Ltmp453:
	@DEBUG_VALUE: __construct_one_at_end<const arm::app::yolov8n_od::DetectionResult &>:__tx <- [DW_OP_LLVM_fragment 32 32] $r9
	@DEBUG_VALUE: push_back:__end <- $r9
.LBB9_3:                                @   in Loop: Header=BB9_5 Depth=1
	@DEBUG_VALUE: detectBox <- [DW_OP_LLVM_fragment 128 32] $r11
	@DEBUG_VALUE: detectBox <- [DW_OP_LLVM_fragment 160 32] $s20
	@DEBUG_VALUE: detectResult <- [DW_OP_LLVM_fragment 128 32] $r11
	@DEBUG_VALUE: detectResult <- [DW_OP_LLVM_fragment 160 32] $s20
	@DEBUG_VALUE: RunPostProcessing:score <- $s20
	@DEBUG_VALUE: RunPostProcessing:imgSrcCols <- [DW_OP_LLVM_entry_value 1] $r3
	@DEBUG_VALUE: RunPostProcessing:fYScale <- $s18
	@DEBUG_VALUE: RunPostProcessing:fXScale <- $s16
	@DEBUG_VALUE: RunPostProcessing:cls <- 0
	@DEBUG_VALUE: RunPostProcessing:this <- [DW_OP_LLVM_entry_value 1] $r0
	@DEBUG_VALUE: RunPostProcessing:sDetections <- [DW_OP_plus_uconst 36, DW_OP_deref] $sp
	@DEBUG_VALUE: RunPostProcessing:resultsOut <- [DW_OP_plus_uconst 108] [$sp+0]
	@DEBUG_VALUE: RunPostProcessing:imgSrcRows <- [DW_OP_plus_uconst 104] [$sp+0]
	@DEBUG_VALUE: push_back:__end <- $r9
	.loc	2 1515 16                       @ AppData\Local\Keil_v5\ARM\ARMCLANG\bin\..\include\libcxx\vector:1515:16
	str.w	r9, [r10, #4]
.Ltmp454:
.LBB9_4:                                @   in Loop: Header=BB9_5 Depth=1
	@DEBUG_VALUE: RunPostProcessing:score <- $s20
	@DEBUG_VALUE: RunPostProcessing:imgSrcCols <- [DW_OP_LLVM_entry_value 1] $r3
	@DEBUG_VALUE: RunPostProcessing:fYScale <- $s18
	@DEBUG_VALUE: RunPostProcessing:fXScale <- $s16
	@DEBUG_VALUE: RunPostProcessing:cls <- 0
	@DEBUG_VALUE: RunPostProcessing:this <- [DW_OP_LLVM_entry_value 1] $r0
	@DEBUG_VALUE: RunPostProcessing:sDetections <- [DW_OP_plus_uconst 36, DW_OP_deref] $sp
	@DEBUG_VALUE: RunPostProcessing:resultsOut <- [DW_OP_plus_uconst 108] [$sp+0]
	@DEBUG_VALUE: RunPostProcessing:imgSrcRows <- [DW_OP_plus_uconst 104] [$sp+0]
	@DEBUG_VALUE: box <- undef
	.loc	1 364 0                         @ ../YOLOv8nODPostProcessing.cpp:364:0
	ldr	r4, [r4]
.Ltmp455:
	@DEBUG_VALUE: operator==:__y <- undef
	@DEBUG_VALUE: operator==:__x <- undef
	@DEBUG_VALUE: operator!=:__y <- undef
	@DEBUG_VALUE: operator!=:__x <- undef
	@DEBUG_VALUE: box <- $r4
	.loc	1 364 2 is_stmt 0               @ ../YOLOv8nODPostProcessing.cpp:364:2
	cmp	r4, #0
	beq.w	.LBB9_15
.Ltmp456:
.LBB9_5:                                @ =>This Inner Loop Header: Depth=1
	@DEBUG_VALUE: RunPostProcessing:imgSrcCols <- [DW_OP_LLVM_entry_value 1] $r3
	@DEBUG_VALUE: RunPostProcessing:fYScale <- $s18
	@DEBUG_VALUE: RunPostProcessing:fXScale <- $s16
	@DEBUG_VALUE: RunPostProcessing:cls <- 0
	@DEBUG_VALUE: RunPostProcessing:this <- [DW_OP_LLVM_entry_value 1] $r0
	@DEBUG_VALUE: RunPostProcessing:sDetections <- [DW_OP_plus_uconst 36, DW_OP_deref] $sp
	@DEBUG_VALUE: RunPostProcessing:resultsOut <- [DW_OP_plus_uconst 108] [$sp+0]
	@DEBUG_VALUE: RunPostProcessing:imgSrcRows <- [DW_OP_plus_uconst 104] [$sp+0]
	@DEBUG_VALUE: operator->:this <- undef
	@DEBUG_VALUE: __get_value:this <- $r4
	@DEBUG_VALUE: operator->:this <- undef
	@DEBUG_VALUE: __get_value:this <- $r4
	@DEBUG_VALUE: operator[]:__n <- undef
	.loc	1 366 26 is_stmt 1              @ ../YOLOv8nODPostProcessing.cpp:366:26
	ldrd	r11, r0, [r4, #28]
.Ltmp457:
	@DEBUG_VALUE: operator[]:this <- [DW_OP_plus_uconst 32, DW_OP_stack_value] $r4
	.loc	2 1436 10                       @ AppData\Local\Keil_v5\ARM\ARMCLANG\bin\..\include\libcxx\vector:1436:10
	add.w	r0, r0, r11, lsl #2
.Ltmp458:
	.loc	1 366 11                        @ ../YOLOv8nODPostProcessing.cpp:366:11
	vldr	s20, [r0]
.Ltmp459:
	@DEBUG_VALUE: RunPostProcessing:score <- $s20
	.loc	1 368 6                         @ ../YOLOv8nODPostProcessing.cpp:368:6
	vcmp.f32	s20, #0
	vmrs	APSR_nzcv, fpscr
	ble	.LBB9_4
.Ltmp460:
@ %bb.6:                                @   in Loop: Header=BB9_5 Depth=1
	@DEBUG_VALUE: RunPostProcessing:score <- $s20
	@DEBUG_VALUE: RunPostProcessing:imgSrcCols <- [DW_OP_LLVM_entry_value 1] $r3
	@DEBUG_VALUE: RunPostProcessing:fYScale <- $s18
	@DEBUG_VALUE: RunPostProcessing:fXScale <- $s16
	@DEBUG_VALUE: RunPostProcessing:cls <- 0
	@DEBUG_VALUE: RunPostProcessing:this <- [DW_OP_LLVM_entry_value 1] $r0
	@DEBUG_VALUE: RunPostProcessing:sDetections <- [DW_OP_plus_uconst 36, DW_OP_deref] $sp
	@DEBUG_VALUE: RunPostProcessing:resultsOut <- [DW_OP_plus_uconst 108] [$sp+0]
	@DEBUG_VALUE: RunPostProcessing:imgSrcRows <- [DW_OP_plus_uconst 104] [$sp+0]
	@DEBUG_VALUE: operator->:this <- undef
	@DEBUG_VALUE: __get_value:this <- $r4
	@DEBUG_VALUE: operator->:this <- undef
	@DEBUG_VALUE: __get_value:this <- $r4
	@DEBUG_VALUE: operator->:this <- undef
	@DEBUG_VALUE: __get_value:this <- $r4
	@DEBUG_VALUE: operator->:this <- undef
	@DEBUG_VALUE: __get_value:this <- $r4
	.loc	1 372 28                        @ ../YOLOv8nODPostProcessing.cpp:372:28
	vldr	s0, [r4, #4]
	.loc	1 373 28                        @ ../YOLOv8nODPostProcessing.cpp:373:28
	vldr	s2, [r4, #8]
	.loc	1 372 30                        @ ../YOLOv8nODPostProcessing.cpp:372:30
	vmul.f32	s0, s16, s0
	.loc	1 374 28                        @ ../YOLOv8nODPostProcessing.cpp:374:28
	vldr	s4, [r4, #12]
	.loc	1 372 18                        @ ../YOLOv8nODPostProcessing.cpp:372:18
	vcvt.s32.f32	s0, s0
	.loc	1 373 30                        @ ../YOLOv8nODPostProcessing.cpp:373:30
	vmul.f32	s2, s18, s2
	.loc	1 375 28                        @ ../YOLOv8nODPostProcessing.cpp:375:28
	vldr	s6, [r4, #16]
	.loc	1 372 18                        @ ../YOLOv8nODPostProcessing.cpp:372:18
	vmov	r0, s0
.Ltmp461:
	@DEBUG_VALUE: detectBox <- [DW_OP_LLVM_fragment 0 32] $r0
	.loc	1 373 18                        @ ../YOLOv8nODPostProcessing.cpp:373:18
	vcvt.s32.f32	s0, s2
	.loc	1 374 30                        @ ../YOLOv8nODPostProcessing.cpp:374:30
	vmul.f32	s2, s16, s4
	.loc	1 373 18                        @ ../YOLOv8nODPostProcessing.cpp:373:18
	vmov	r1, s0
.Ltmp462:
	@DEBUG_VALUE: detectBox <- [DW_OP_LLVM_fragment 32 32] $r1
	.loc	1 374 18                        @ ../YOLOv8nODPostProcessing.cpp:374:18
	vcvt.s32.f32	s0, s2
	.loc	1 375 30                        @ ../YOLOv8nODPostProcessing.cpp:375:30
	vmul.f32	s2, s18, s6
.Ltmp463:
	.file	42 "C:\\Users\\jimmy" "AppData\\Local\\Keil_v5\\ARM\\ARMCLANG\\bin\\..\\include\\libcxx\\__algorithm\\comp.h"
	.loc	42 41 20                        @ AppData\Local\Keil_v5\ARM\ARMCLANG\bin\..\include\libcxx\__algorithm\comp.h:41:20
	bic.w	r0, r0, r0, asr #31
.Ltmp464:
	.loc	1 374 18                        @ ../YOLOv8nODPostProcessing.cpp:374:18
	vmov	r2, s0
.Ltmp465:
	@DEBUG_VALUE: detectBox <- [DW_OP_LLVM_fragment 64 32] $r2
	.loc	1 375 18                        @ ../YOLOv8nODPostProcessing.cpp:375:18
	vcvt.s32.f32	s0, s2
	.loc	1 382 18                        @ ../YOLOv8nODPostProcessing.cpp:382:18
	cmp	r6, r0
.Ltmp466:
	.loc	42 41 20                        @ AppData\Local\Keil_v5\ARM\ARMCLANG\bin\..\include\libcxx\__algorithm\comp.h:41:20
	bic.w	r1, r1, r1, asr #31
.Ltmp467:
	.loc	1 382 18                        @ ../YOLOv8nODPostProcessing.cpp:382:18
	csel	r5, r6, r0, lt
	@DEBUG_VALUE: operator()<int, int>:__rhs <- undef
	@DEBUG_VALUE: operator()<int, int>:__lhs <- undef
	@DEBUG_VALUE: operator()<int, int>:this <- undef
	@DEBUG_VALUE: min<int, std::__2::__less<void, void> >:__b <- undef
	@DEBUG_VALUE: min<int, std::__2::__less<void, void> >:__a <- undef
	@DEBUG_VALUE: min<int>:__b <- undef
	@DEBUG_VALUE: min<int>:__a <- undef
.Ltmp468:
	@DEBUG_VALUE: operator()<int, int>:__rhs <- undef
	@DEBUG_VALUE: operator()<int, int>:__lhs <- undef
	@DEBUG_VALUE: operator()<int, int>:this <- undef
	@DEBUG_VALUE: detectResult <- [DW_OP_LLVM_fragment 0 32] $r5
	@DEBUG_VALUE: detectBox <- [DW_OP_LLVM_fragment 0 32] $r5
	.loc	42 41 20                        @ AppData\Local\Keil_v5\ARM\ARMCLANG\bin\..\include\libcxx\__algorithm\comp.h:41:20
	bic.w	r0, r2, r2, asr #31
.Ltmp469:
	.loc	1 375 18                        @ ../YOLOv8nODPostProcessing.cpp:375:18
	vmov	r3, s0
	@DEBUG_VALUE: operator()<int, int>:__rhs <- undef
	@DEBUG_VALUE: operator()<int, int>:__lhs <- undef
	@DEBUG_VALUE: operator()<int, int>:this <- undef
	@DEBUG_VALUE: min<int, std::__2::__less<void, void> >:__b <- undef
	@DEBUG_VALUE: min<int, std::__2::__less<void, void> >:__a <- undef
	@DEBUG_VALUE: min<int>:__b <- undef
	@DEBUG_VALUE: min<int>:__a <- undef
.Ltmp470:
	@DEBUG_VALUE: operator()<int, int>:__rhs <- undef
	@DEBUG_VALUE: operator()<int, int>:__lhs <- undef
	@DEBUG_VALUE: operator()<int, int>:this <- undef
	@DEBUG_VALUE: detectBox <- [DW_OP_LLVM_fragment 96 32] $r3
	.loc	1 383 18                        @ ../YOLOv8nODPostProcessing.cpp:383:18
	cmp	r7, r1
	csel	r2, r7, r1, lt
.Ltmp471:
	@DEBUG_VALUE: operator()<int, int>:__rhs <- undef
	@DEBUG_VALUE: operator()<int, int>:__lhs <- undef
	@DEBUG_VALUE: operator()<int, int>:this <- undef
	@DEBUG_VALUE: min<int, std::__2::__less<void, void> >:__b <- undef
	@DEBUG_VALUE: min<int, std::__2::__less<void, void> >:__a <- undef
	@DEBUG_VALUE: min<int>:__b <- undef
	@DEBUG_VALUE: min<int>:__a <- undef
	@DEBUG_VALUE: operator()<int, int>:__rhs <- undef
	@DEBUG_VALUE: operator()<int, int>:__lhs <- undef
	@DEBUG_VALUE: operator()<int, int>:this <- undef
	@DEBUG_VALUE: detectResult <- [DW_OP_LLVM_fragment 32 32] $r2
	@DEBUG_VALUE: detectBox <- [DW_OP_LLVM_fragment 32 32] $r2
	.loc	1 385 18                        @ ../YOLOv8nODPostProcessing.cpp:385:18
	cmp	r6, r0
.Ltmp472:
	.loc	42 41 20                        @ AppData\Local\Keil_v5\ARM\ARMCLANG\bin\..\include\libcxx\__algorithm\comp.h:41:20
	bic.w	r1, r3, r3, asr #31
.Ltmp473:
	.loc	1 385 18                        @ ../YOLOv8nODPostProcessing.cpp:385:18
	csel	r3, r6, r0, lt
.Ltmp474:
	@DEBUG_VALUE: operator()<int, int>:__rhs <- undef
	@DEBUG_VALUE: operator()<int, int>:__lhs <- undef
	@DEBUG_VALUE: operator()<int, int>:this <- undef
	@DEBUG_VALUE: min<int, std::__2::__less<void, void> >:__b <- undef
	@DEBUG_VALUE: min<int, std::__2::__less<void, void> >:__a <- undef
	@DEBUG_VALUE: min<int>:__b <- undef
	@DEBUG_VALUE: min<int>:__a <- undef
	@DEBUG_VALUE: operator()<int, int>:__rhs <- undef
	@DEBUG_VALUE: operator()<int, int>:__lhs <- undef
	@DEBUG_VALUE: operator()<int, int>:this <- undef
	@DEBUG_VALUE: detectResult <- [DW_OP_LLVM_fragment 64 32] $r3
	@DEBUG_VALUE: detectBox <- [DW_OP_LLVM_fragment 64 32] $r3
	.loc	2 1509 21                       @ AppData\Local\Keil_v5\ARM\ARMCLANG\bin\..\include\libcxx\vector:1509:21
	ldr.w	r0, [r10, #8]
.Ltmp475:
	.loc	1 386 18                        @ ../YOLOv8nODPostProcessing.cpp:386:18
	cmp	r7, r1
	csel	r1, r7, r1, lt
.Ltmp476:
	@DEBUG_VALUE: push_back:__end <- $r9
	@DEBUG_VALUE: push_back:__x <- undef
	@DEBUG_VALUE: push_back:this <- $r10
	@DEBUG_VALUE: detectResult <- [DW_OP_LLVM_fragment 160 32] $s20
	@DEBUG_VALUE: detectResult <- [DW_OP_LLVM_fragment 128 32] $r11
	@DEBUG_VALUE: detectBox <- [DW_OP_LLVM_fragment 160 32] $s20
	@DEBUG_VALUE: detectBox <- [DW_OP_LLVM_fragment 128 32] $r11
	@DEBUG_VALUE: __get_value:this <- $r4
	@DEBUG_VALUE: operator->:this <- undef
	@DEBUG_VALUE: detectResult <- [DW_OP_LLVM_fragment 96 32] $r1
	@DEBUG_VALUE: detectBox <- [DW_OP_LLVM_fragment 96 32] $r1
	.loc	2 1509 7                        @ AppData\Local\Keil_v5\ARM\ARMCLANG\bin\..\include\libcxx\vector:1509:7
	cmp	r9, r0
	blo	.LBB9_2
.Ltmp477:
@ %bb.7:                                @   in Loop: Header=BB9_5 Depth=1
	@DEBUG_VALUE: detectBox <- [DW_OP_LLVM_fragment 96 32] $r1
	@DEBUG_VALUE: detectResult <- [DW_OP_LLVM_fragment 96 32] $r1
	@DEBUG_VALUE: detectBox <- [DW_OP_LLVM_fragment 128 32] $r11
	@DEBUG_VALUE: detectBox <- [DW_OP_LLVM_fragment 160 32] $s20
	@DEBUG_VALUE: detectResult <- [DW_OP_LLVM_fragment 128 32] $r11
	@DEBUG_VALUE: detectResult <- [DW_OP_LLVM_fragment 160 32] $s20
	@DEBUG_VALUE: push_back:this <- $r10
	@DEBUG_VALUE: push_back:__end <- $r9
	@DEBUG_VALUE: detectBox <- [DW_OP_LLVM_fragment 64 32] $r3
	@DEBUG_VALUE: detectResult <- [DW_OP_LLVM_fragment 64 32] $r3
	@DEBUG_VALUE: detectBox <- [DW_OP_LLVM_fragment 32 32] $r2
	@DEBUG_VALUE: detectResult <- [DW_OP_LLVM_fragment 32 32] $r2
	@DEBUG_VALUE: detectBox <- [DW_OP_LLVM_fragment 0 32] $r5
	@DEBUG_VALUE: detectResult <- [DW_OP_LLVM_fragment 0 32] $r5
	@DEBUG_VALUE: RunPostProcessing:score <- $s20
	@DEBUG_VALUE: RunPostProcessing:imgSrcCols <- [DW_OP_LLVM_entry_value 1] $r3
	@DEBUG_VALUE: RunPostProcessing:fYScale <- $s18
	@DEBUG_VALUE: RunPostProcessing:fXScale <- $s16
	@DEBUG_VALUE: RunPostProcessing:cls <- 0
	@DEBUG_VALUE: RunPostProcessing:this <- [DW_OP_LLVM_entry_value 1] $r0
	@DEBUG_VALUE: RunPostProcessing:sDetections <- [DW_OP_plus_uconst 36, DW_OP_deref] $sp
	@DEBUG_VALUE: RunPostProcessing:resultsOut <- [DW_OP_plus_uconst 108] [$sp+0]
	@DEBUG_VALUE: RunPostProcessing:imgSrcRows <- [DW_OP_plus_uconst 104] [$sp+0]
	@DEBUG_VALUE: __destruct_at_end:this <- undef
	@DEBUG_VALUE: __destruct_at_end:this <- undef
	@DEBUG_VALUE: clear:this <- undef
	@DEBUG_VALUE: ~__split_buffer:this <- undef
	@DEBUG_VALUE: __swap_out_circular_buffer:__v <- undef
	@DEBUG_VALUE: __split_buffer:this <- undef
	@DEBUG_VALUE: __push_back_slow_path<const arm::app::yolov8n_od::DetectionResult &>:this <- $r10
	@DEBUG_VALUE: __push_back_slow_path<const arm::app::yolov8n_od::DetectionResult &>:__x <- undef
	@DEBUG_VALUE: __push_back_slow_path<const arm::app::yolov8n_od::DetectionResult &>:__a <- [DW_OP_plus_uconst 8, DW_OP_stack_value] $r10
	@DEBUG_VALUE: size:this <- $r10
	.loc	2 634 56                        @ AppData\Local\Keil_v5\ARM\ARMCLANG\bin\..\include\libcxx\vector:634:56
	ldr.w	r6, [r10]
	strd	r1, r3, [sp, #20]               @ 8-byte Folded Spill
	.loc	2 634 48 is_stmt 0              @ AppData\Local\Keil_v5\ARM\ARMCLANG\bin\..\include\libcxx\vector:634:48
	sub.w	r10, r9, r6
.Ltmp478:
	asr.w	r1, r10, #3
.Ltmp479:
	.loc	2 0 48                          @ AppData\Local\Keil_v5\ARM\ARMCLANG\bin\..\include\libcxx\vector:0:48
	strd	r2, r5, [sp, #28]               @ 8-byte Folded Spill
.Ltmp480:
	@DEBUG_VALUE: size:this <- undef
	@DEBUG_VALUE: __push_back_slow_path<const arm::app::yolov8n_od::DetectionResult &>:__a <- [DW_OP_plus_uconst 8, DW_OP_stack_value] undef
	@DEBUG_VALUE: __push_back_slow_path<const arm::app::yolov8n_od::DetectionResult &>:this <- undef
	.loc	2 634 48                        @ AppData\Local\Keil_v5\ARM\ARMCLANG\bin\..\include\libcxx\vector:634:48
	mul	r5, r1, lr
.Ltmp481:
	.loc	2 1497 70 is_stmt 1             @ AppData\Local\Keil_v5\ARM\ARMCLANG\bin\..\include\libcxx\vector:1497:70
	adds	r1, r5, #1
.Ltmp482:
	@DEBUG_VALUE: __recommend:__ms <- 178956970
	@DEBUG_VALUE: __recommend:this <- undef
	@DEBUG_VALUE: __recommend:__new_size <- $r1
	.loc	2 1114 7                        @ AppData\Local\Keil_v5\ARM\ARMCLANG\bin\..\include\libcxx\vector:1114:7
	cmp	r1, r12
	bhi	.LBB9_20
.Ltmp483:
@ %bb.8:                                @   in Loop: Header=BB9_5 Depth=1
	@DEBUG_VALUE: __recommend:__new_size <- $r1
	@DEBUG_VALUE: __recommend:__ms <- 178956970
	@DEBUG_VALUE: detectBox <- [DW_OP_LLVM_fragment 128 32] $r11
	@DEBUG_VALUE: detectBox <- [DW_OP_LLVM_fragment 160 32] $s20
	@DEBUG_VALUE: detectResult <- [DW_OP_LLVM_fragment 128 32] $r11
	@DEBUG_VALUE: detectResult <- [DW_OP_LLVM_fragment 160 32] $s20
	@DEBUG_VALUE: push_back:__end <- $r9
	@DEBUG_VALUE: detectBox <- [DW_OP_LLVM_fragment 64 32] $r3
	@DEBUG_VALUE: detectResult <- [DW_OP_LLVM_fragment 64 32] $r3
	@DEBUG_VALUE: detectBox <- [DW_OP_LLVM_fragment 32 32] $r2
	@DEBUG_VALUE: detectResult <- [DW_OP_LLVM_fragment 32 32] $r2
	@DEBUG_VALUE: RunPostProcessing:score <- $s20
	@DEBUG_VALUE: RunPostProcessing:imgSrcCols <- [DW_OP_LLVM_entry_value 1] $r3
	@DEBUG_VALUE: RunPostProcessing:fYScale <- $s18
	@DEBUG_VALUE: RunPostProcessing:fXScale <- $s16
	@DEBUG_VALUE: RunPostProcessing:cls <- 0
	@DEBUG_VALUE: RunPostProcessing:this <- [DW_OP_LLVM_entry_value 1] $r0
	@DEBUG_VALUE: RunPostProcessing:sDetections <- [DW_OP_plus_uconst 36, DW_OP_deref] $sp
	@DEBUG_VALUE: RunPostProcessing:resultsOut <- [DW_OP_plus_uconst 108] [$sp+0]
	@DEBUG_VALUE: RunPostProcessing:imgSrcRows <- [DW_OP_plus_uconst 104] [$sp+0]
	@DEBUG_VALUE: capacity:this <- undef
	.loc	2 637 47                        @ AppData\Local\Keil_v5\ARM\ARMCLANG\bin\..\include\libcxx\vector:637:47
	subs	r3, r0, r6
.Ltmp484:
	.loc	2 1117 7                        @ AppData\Local\Keil_v5\ARM\ARMCLANG\bin\..\include\libcxx\vector:1117:7
	movw	r2, #21845
.Ltmp485:
	.loc	2 637 47                        @ AppData\Local\Keil_v5\ARM\ARMCLANG\bin\..\include\libcxx\vector:637:47
	asrs	r0, r3, #3
	mul	r0, r0, lr
.Ltmp486:
	@DEBUG_VALUE: __recommend:__cap <- $r0
	.loc	2 1117 7                        @ AppData\Local\Keil_v5\ARM\ARMCLANG\bin\..\include\libcxx\vector:1117:7
	movt	r2, #1365
	cmp.w	r1, r0, lsl #1
	it	lo
	lsllo	r1, r0, #1
.Ltmp487:
	cmp	r0, r2
	csel	r7, r1, r12, lo
.Ltmp488:
	@DEBUG_VALUE: __push_back_slow_path<const arm::app::yolov8n_od::DetectionResult &>:__v <- [DW_OP_plus_uconst 8, DW_OP_stack_value, DW_OP_LLVM_fragment 128 32] undef
	@DEBUG_VALUE: __push_back_slow_path<const arm::app::yolov8n_od::DetectionResult &>:__v <- [DW_OP_LLVM_fragment 96 32] 0
	@DEBUG_VALUE: __split_buffer:__a <- [DW_OP_plus_uconst 8, DW_OP_stack_value] undef
	@DEBUG_VALUE: __split_buffer:__start <- $r5
	@DEBUG_VALUE: size:this <- undef
	@DEBUG_VALUE: __split_buffer:__cap <- $r7
	@DEBUG_VALUE: __split_buffer:this <- undef
	.loc	18 350 7                        @ AppData\Local\Keil_v5\ARM\ARMCLANG\bin\..\include\libcxx\__split_buffer:350:7
	str	r3, [sp, #12]                   @ 4-byte Spill
	cbz	r7, .LBB9_11
.Ltmp489:
@ %bb.9:                                @   in Loop: Header=BB9_5 Depth=1
	@DEBUG_VALUE: __split_buffer:__cap <- $r7
	@DEBUG_VALUE: __split_buffer:__start <- $r5
	@DEBUG_VALUE: __push_back_slow_path<const arm::app::yolov8n_od::DetectionResult &>:__v <- [DW_OP_LLVM_fragment 96 32] 0
	@DEBUG_VALUE: detectBox <- [DW_OP_LLVM_fragment 128 32] $r11
	@DEBUG_VALUE: detectBox <- [DW_OP_LLVM_fragment 160 32] $s20
	@DEBUG_VALUE: detectResult <- [DW_OP_LLVM_fragment 128 32] $r11
	@DEBUG_VALUE: detectResult <- [DW_OP_LLVM_fragment 160 32] $s20
	@DEBUG_VALUE: push_back:__end <- $r9
	@DEBUG_VALUE: RunPostProcessing:score <- $s20
	@DEBUG_VALUE: RunPostProcessing:imgSrcCols <- [DW_OP_LLVM_entry_value 1] $r3
	@DEBUG_VALUE: RunPostProcessing:fYScale <- $s18
	@DEBUG_VALUE: RunPostProcessing:fXScale <- $s16
	@DEBUG_VALUE: RunPostProcessing:cls <- 0
	@DEBUG_VALUE: RunPostProcessing:this <- [DW_OP_LLVM_entry_value 1] $r0
	@DEBUG_VALUE: RunPostProcessing:sDetections <- [DW_OP_plus_uconst 36, DW_OP_deref] $sp
	@DEBUG_VALUE: RunPostProcessing:resultsOut <- [DW_OP_plus_uconst 108] [$sp+0]
	@DEBUG_VALUE: RunPostProcessing:imgSrcRows <- [DW_OP_plus_uconst 104] [$sp+0]
	@DEBUG_VALUE: __allocate_at_least<std::__2::allocator<arm::app::yolov8n_od::DetectionResult> >:__alloc <- undef
	@DEBUG_VALUE: __allocate_at_least<std::__2::allocator<arm::app::yolov8n_od::DetectionResult> >:__n <- $r7
	@DEBUG_VALUE: allocate:this <- undef
	@DEBUG_VALUE: allocate:__n <- $r7
	.loc	13 98 9                         @ AppData\Local\Keil_v5\ARM\ARMCLANG\bin\..\include\libcxx\__memory\allocator.h:98:9
	cmp	r7, r12
	bhi	.LBB9_21
.Ltmp490:
@ %bb.10:                               @   in Loop: Header=BB9_5 Depth=1
	@DEBUG_VALUE: allocate:__n <- $r7
	@DEBUG_VALUE: __allocate_at_least<std::__2::allocator<arm::app::yolov8n_od::DetectionResult> >:__n <- $r7
	@DEBUG_VALUE: __split_buffer:__cap <- $r7
	@DEBUG_VALUE: __split_buffer:__start <- $r5
	@DEBUG_VALUE: __push_back_slow_path<const arm::app::yolov8n_od::DetectionResult &>:__v <- [DW_OP_LLVM_fragment 96 32] 0
	@DEBUG_VALUE: detectBox <- [DW_OP_LLVM_fragment 128 32] $r11
	@DEBUG_VALUE: detectBox <- [DW_OP_LLVM_fragment 160 32] $s20
	@DEBUG_VALUE: detectResult <- [DW_OP_LLVM_fragment 128 32] $r11
	@DEBUG_VALUE: detectResult <- [DW_OP_LLVM_fragment 160 32] $s20
	@DEBUG_VALUE: push_back:__end <- $r9
	@DEBUG_VALUE: RunPostProcessing:score <- $s20
	@DEBUG_VALUE: RunPostProcessing:imgSrcCols <- [DW_OP_LLVM_entry_value 1] $r3
	@DEBUG_VALUE: RunPostProcessing:fYScale <- $s18
	@DEBUG_VALUE: RunPostProcessing:fXScale <- $s16
	@DEBUG_VALUE: RunPostProcessing:cls <- 0
	@DEBUG_VALUE: RunPostProcessing:this <- [DW_OP_LLVM_entry_value 1] $r0
	@DEBUG_VALUE: RunPostProcessing:sDetections <- [DW_OP_plus_uconst 36, DW_OP_deref] $sp
	@DEBUG_VALUE: RunPostProcessing:resultsOut <- [DW_OP_plus_uconst 108] [$sp+0]
	@DEBUG_VALUE: RunPostProcessing:imgSrcRows <- [DW_OP_plus_uconst 104] [$sp+0]
	.loc	13 103 59                       @ AppData\Local\Keil_v5\ARM\ARMCLANG\bin\..\include\libcxx\__memory\allocator.h:103:59
	add.w	r0, r7, r7, lsl #1
	lsls	r0, r0, #3
.Ltmp491:
	@DEBUG_VALUE: __libcpp_allocate:__align <- 4
	@DEBUG_VALUE: __libcpp_operator_new<unsigned int>:__args <- $r0
	@DEBUG_VALUE: __libcpp_allocate:__size <- $r0
	.loc	4 272 10                        @ AppData\Local\Keil_v5\ARM\ARMCLANG\bin\..\include\libcxx\new:272:10
	bl	_Znwj
.Ltmp492:
	@DEBUG_VALUE: __allocation <- [DW_OP_LLVM_fragment 32 32] $r7
	@DEBUG_VALUE: __allocation <- [DW_OP_LLVM_fragment 0 32] $r0
	@DEBUG_VALUE: __split_buffer:__cap <- $r7
	.loc	4 0 10 is_stmt 0                @ AppData\Local\Keil_v5\ARM\ARMCLANG\bin\..\include\libcxx\new:0:10
	b	.LBB9_12
.Ltmp493:
.LBB9_11:                               @   in Loop: Header=BB9_5 Depth=1
	@DEBUG_VALUE: __split_buffer:__cap <- $r7
	@DEBUG_VALUE: __split_buffer:__start <- $r5
	@DEBUG_VALUE: __push_back_slow_path<const arm::app::yolov8n_od::DetectionResult &>:__v <- [DW_OP_LLVM_fragment 96 32] 0
	@DEBUG_VALUE: __recommend:__cap <- $r0
	@DEBUG_VALUE: __recommend:__ms <- 178956970
	@DEBUG_VALUE: detectBox <- [DW_OP_LLVM_fragment 128 32] $r11
	@DEBUG_VALUE: detectBox <- [DW_OP_LLVM_fragment 160 32] $s20
	@DEBUG_VALUE: detectResult <- [DW_OP_LLVM_fragment 128 32] $r11
	@DEBUG_VALUE: detectResult <- [DW_OP_LLVM_fragment 160 32] $s20
	@DEBUG_VALUE: push_back:__end <- $r9
	@DEBUG_VALUE: RunPostProcessing:score <- $s20
	@DEBUG_VALUE: RunPostProcessing:imgSrcCols <- [DW_OP_LLVM_entry_value 1] $r3
	@DEBUG_VALUE: RunPostProcessing:fYScale <- $s18
	@DEBUG_VALUE: RunPostProcessing:fXScale <- $s16
	@DEBUG_VALUE: RunPostProcessing:cls <- 0
	@DEBUG_VALUE: RunPostProcessing:this <- [DW_OP_LLVM_entry_value 1] $r0
	@DEBUG_VALUE: RunPostProcessing:sDetections <- [DW_OP_plus_uconst 36, DW_OP_deref] $sp
	@DEBUG_VALUE: RunPostProcessing:resultsOut <- [DW_OP_plus_uconst 108] [$sp+0]
	@DEBUG_VALUE: RunPostProcessing:imgSrcRows <- [DW_OP_plus_uconst 104] [$sp+0]
	movs	r0, #0
.Ltmp494:
.LBB9_12:                               @   in Loop: Header=BB9_5 Depth=1
	@DEBUG_VALUE: __split_buffer:__cap <- $r7
	@DEBUG_VALUE: __split_buffer:__start <- $r5
	@DEBUG_VALUE: __push_back_slow_path<const arm::app::yolov8n_od::DetectionResult &>:__v <- [DW_OP_LLVM_fragment 96 32] 0
	@DEBUG_VALUE: detectBox <- [DW_OP_LLVM_fragment 128 32] $r11
	@DEBUG_VALUE: detectBox <- [DW_OP_LLVM_fragment 160 32] $s20
	@DEBUG_VALUE: detectResult <- [DW_OP_LLVM_fragment 128 32] $r11
	@DEBUG_VALUE: detectResult <- [DW_OP_LLVM_fragment 160 32] $s20
	@DEBUG_VALUE: push_back:__end <- $r9
	@DEBUG_VALUE: RunPostProcessing:score <- $s20
	@DEBUG_VALUE: RunPostProcessing:imgSrcCols <- [DW_OP_LLVM_entry_value 1] $r3
	@DEBUG_VALUE: RunPostProcessing:fYScale <- $s18
	@DEBUG_VALUE: RunPostProcessing:fXScale <- $s16
	@DEBUG_VALUE: RunPostProcessing:cls <- 0
	@DEBUG_VALUE: RunPostProcessing:this <- [DW_OP_LLVM_entry_value 1] $r0
	@DEBUG_VALUE: RunPostProcessing:sDetections <- [DW_OP_plus_uconst 36, DW_OP_deref] $sp
	@DEBUG_VALUE: RunPostProcessing:resultsOut <- [DW_OP_plus_uconst 108] [$sp+0]
	@DEBUG_VALUE: RunPostProcessing:imgSrcRows <- [DW_OP_plus_uconst 104] [$sp+0]
	@DEBUG_VALUE: __split_buffer:__cap <- $r7
	@DEBUG_VALUE: __push_back_slow_path<const arm::app::yolov8n_od::DetectionResult &>:__v <- [DW_OP_LLVM_fragment 0 32] $r0
	.loc	18 358 32 is_stmt 1             @ AppData\Local\Keil_v5\ARM\ARMCLANG\bin\..\include\libcxx\__split_buffer:358:32
	add.w	r2, r7, r7, lsl #1
	.loc	18 357 32                       @ AppData\Local\Keil_v5\ARM\ARMCLANG\bin\..\include\libcxx\__split_buffer:357:32
	add.w	r1, r5, r5, lsl #1
	.loc	18 358 32                       @ AppData\Local\Keil_v5\ARM\ARMCLANG\bin\..\include\libcxx\__split_buffer:358:32
	add.w	r2, r0, r2, lsl #3
.Ltmp495:
	@DEBUG_VALUE: construct<arm::app::yolov8n_od::DetectionResult, const arm::app::yolov8n_od::DetectionResult &>:__args <- undef
	@DEBUG_VALUE: construct<arm::app::yolov8n_od::DetectionResult, const arm::app::yolov8n_od::DetectionResult &, 0>:__args <- undef
	@DEBUG_VALUE: __push_back_slow_path<const arm::app::yolov8n_od::DetectionResult &>:__v <- [DW_OP_LLVM_fragment 96 32] $r2
	.loc	18 357 32                       @ AppData\Local\Keil_v5\ARM\ARMCLANG\bin\..\include\libcxx\__split_buffer:357:32
	add.w	r3, r0, r1, lsl #3
.Ltmp496:
	@DEBUG_VALUE: __push_back_slow_path<const arm::app::yolov8n_od::DetectionResult &>:__v <- [DW_OP_LLVM_fragment 32 32] $r3
	@DEBUG_VALUE: __push_back_slow_path<const arm::app::yolov8n_od::DetectionResult &>:__v <- [DW_OP_LLVM_fragment 64 32] $r3
	.loc	13 151 24                       @ AppData\Local\Keil_v5\ARM\ARMCLANG\bin\..\include\libcxx\__memory\allocator.h:151:24
	str	r2, [sp, #16]                   @ 4-byte Spill
.Ltmp497:
	@DEBUG_VALUE: __push_back_slow_path<const arm::app::yolov8n_od::DetectionResult &>:__v <- [DW_OP_plus_uconst 16, DW_OP_LLVM_fragment 96 32] [$sp+0]
	@DEBUG_VALUE: __push_back_slow_path<const arm::app::yolov8n_od::DetectionResult &>:__v <- [DW_OP_plus_uconst 16, DW_OP_LLVM_fragment 96 32] [$sp+0]
	ldr	r2, [sp, #32]                   @ 4-byte Reload
.Ltmp498:
	@DEBUG_VALUE: construct<arm::app::yolov8n_od::DetectionResult, const arm::app::yolov8n_od::DetectionResult &>:this <- [DW_OP_plus_uconst 8, DW_OP_stack_value] undef
	@DEBUG_VALUE: construct<arm::app::yolov8n_od::DetectionResult, const arm::app::yolov8n_od::DetectionResult &, 0>:__a <- [DW_OP_plus_uconst 8, DW_OP_stack_value] undef
	@DEBUG_VALUE: construct<arm::app::yolov8n_od::DetectionResult, const arm::app::yolov8n_od::DetectionResult &>:__p <- $r3
	@DEBUG_VALUE: construct<arm::app::yolov8n_od::DetectionResult, const arm::app::yolov8n_od::DetectionResult &, 0>:__p <- $r3
	.loc	2 1500 13                       @ AppData\Local\Keil_v5\ARM\ARMCLANG\bin\..\include\libcxx\vector:1500:13
	add.w	r9, r3, #24
.Ltmp499:
	@DEBUG_VALUE: __swap_out_circular_buffer:this <- undef
	@DEBUG_VALUE: __push_back_slow_path<const arm::app::yolov8n_od::DetectionResult &>:__v <- [DW_OP_LLVM_fragment 64 32] $r9
	@DEBUG_VALUE: __swap_out_circular_buffer:__v <- undef
	.loc	2 1050 35                       @ AppData\Local\Keil_v5\ARM\ARMCLANG\bin\..\include\libcxx\vector:1050:35
	sub.w	r7, r3, r10
.Ltmp500:
	@DEBUG_VALUE: __uninitialized_allocator_relocate<std::__2::allocator<arm::app::yolov8n_od::DetectionResult>, arm::app::yolov8n_od::DetectionResult>:__last <- $r9
	@DEBUG_VALUE: __uninitialized_allocator_relocate<std::__2::allocator<arm::app::yolov8n_od::DetectionResult>, arm::app::yolov8n_od::DetectionResult>:__alloc <- [DW_OP_plus_uconst 8, DW_OP_stack_value] undef
	@DEBUG_VALUE: __uninitialized_allocator_relocate<std::__2::allocator<arm::app::yolov8n_od::DetectionResult>, arm::app::yolov8n_od::DetectionResult>:__result <- $r7
	@DEBUG_VALUE: __swap_out_circular_buffer:__new_begin <- $r7
	.loc	13 151 24                       @ AppData\Local\Keil_v5\ARM\ARMCLANG\bin\..\include\libcxx\__memory\allocator.h:151:24
	str.w	r2, [r0, r1, lsl #3]
.Ltmp501:
	.loc	33 641 5                        @ AppData\Local\Keil_v5\ARM\ARMCLANG\bin\..\include\libcxx\__memory\uninitialized_algorithms.h:641:5
	mov	r1, r6
.Ltmp502:
	.loc	13 151 24                       @ AppData\Local\Keil_v5\ARM\ARMCLANG\bin\..\include\libcxx\__memory\allocator.h:151:24
	ldr	r0, [sp, #28]                   @ 4-byte Reload
.Ltmp503:
	.loc	33 641 5                        @ AppData\Local\Keil_v5\ARM\ARMCLANG\bin\..\include\libcxx\__memory\uninitialized_algorithms.h:641:5
	mov	r2, r10
.Ltmp504:
	.loc	13 151 24                       @ AppData\Local\Keil_v5\ARM\ARMCLANG\bin\..\include\libcxx\__memory\allocator.h:151:24
	vstr	s20, [r3, #20]
	str	r0, [r3, #4]
	ldr	r0, [sp, #24]                   @ 4-byte Reload
	str	r0, [r3, #8]
	ldr	r0, [sp, #20]                   @ 4-byte Reload
	strd	r0, r11, [r3, #12]
.Ltmp505:
	.loc	33 641 5                        @ AppData\Local\Keil_v5\ARM\ARMCLANG\bin\..\include\libcxx\__memory\uninitialized_algorithms.h:641:5
	mov	r0, r7
	bl	__aeabi_memcpy4
.Ltmp506:
	@DEBUG_VALUE: swap<arm::app::yolov8n_od::DetectionResult *>:__t <- undef
	@DEBUG_VALUE: swap<arm::app::yolov8n_od::DetectionResult *>:__t <- undef
	@DEBUG_VALUE: swap<arm::app::yolov8n_od::DetectionResult *>:__y <- undef
	@DEBUG_VALUE: swap<arm::app::yolov8n_od::DetectionResult *>:__t <- undef
	@DEBUG_VALUE: swap<arm::app::yolov8n_od::DetectionResult *>:__y <- undef
	@DEBUG_VALUE: swap<arm::app::yolov8n_od::DetectionResult *>:__y <- undef
	@DEBUG_VALUE: __push_back_slow_path<const arm::app::yolov8n_od::DetectionResult &>:__v <- [DW_OP_LLVM_fragment 32 32] $r7
	@DEBUG_VALUE: __push_back_slow_path<const arm::app::yolov8n_od::DetectionResult &>:__v <- [DW_OP_LLVM_fragment 96 32] undef
	@DEBUG_VALUE: ~__split_buffer:this <- undef
	@DEBUG_VALUE: clear:this <- undef
	@DEBUG_VALUE: __destruct_at_end:this <- undef
	@DEBUG_VALUE: __destruct_at_end:this <- undef
	.loc	33 0 5 is_stmt 0                @ AppData\Local\Keil_v5\ARM\ARMCLANG\bin\..\include\libcxx\__memory\uninitialized_algorithms.h:0:5
	ldr.w	r10, [sp, #108]
.Ltmp507:
	@DEBUG_VALUE: swap<arm::app::yolov8n_od::DetectionResult *>:__x <- $r10
	@DEBUG_VALUE: __uninitialized_allocator_relocate<std::__2::allocator<arm::app::yolov8n_od::DetectionResult>, arm::app::yolov8n_od::DetectionResult>:__alloc <- [DW_OP_plus_uconst 8, DW_OP_stack_value] $r10
	@DEBUG_VALUE: __swap_out_circular_buffer:this <- $r10
	@DEBUG_VALUE: swap<arm::app::yolov8n_od::DetectionResult *>:__x <- [DW_OP_plus_uconst 4, DW_OP_stack_value] $r10
	.loc	34 43 7 is_stmt 1               @ AppData\Local\Keil_v5\ARM\ARMCLANG\bin\..\include\libcxx\__utility\swap.h:43:7
	ldr	r0, [sp, #16]                   @ 4-byte Reload
.Ltmp508:
	@DEBUG_VALUE: swap<arm::app::yolov8n_od::DetectionResult *>:__x <- [DW_OP_plus_uconst 8, DW_OP_stack_value] $r10
	@DEBUG_VALUE: __destruct_at_end:__new_last <- undef
	@DEBUG_VALUE: __destruct_at_end:__new_last <- undef
	@DEBUG_VALUE: __uninitialized_allocator_relocate<std::__2::allocator<arm::app::yolov8n_od::DetectionResult>, arm::app::yolov8n_od::DetectionResult>:__first <- undef
	@DEBUG_VALUE: __push_back_slow_path<const arm::app::yolov8n_od::DetectionResult &>:__v <- [DW_OP_LLVM_fragment 32 32] undef
	@DEBUG_VALUE: __push_back_slow_path<const arm::app::yolov8n_od::DetectionResult &>:__v <- [DW_OP_LLVM_fragment 64 32] undef
	@DEBUG_VALUE: __push_back_slow_path<const arm::app::yolov8n_od::DetectionResult &>:__v <- [DW_OP_LLVM_fragment 0 32] undef
	.loc	34 43 7 is_stmt 0               @ AppData\Local\Keil_v5\ARM\ARMCLANG\bin\..\include\libcxx\__utility\swap.h:43:7
	strd	r7, r9, [r10]
.Ltmp509:
	.loc	34 43 7                         @ AppData\Local\Keil_v5\ARM\ARMCLANG\bin\..\include\libcxx\__utility\swap.h:43:7
	str.w	r0, [r10, #8]
.Ltmp510:
	.loc	18 364 7 is_stmt 1              @ AppData\Local\Keil_v5\ARM\ARMCLANG\bin\..\include\libcxx\__split_buffer:364:7
	cbz	r6, .LBB9_14
.Ltmp511:
@ %bb.13:                               @   in Loop: Header=BB9_5 Depth=1
	@DEBUG_VALUE: detectBox <- [DW_OP_LLVM_fragment 128 32] $r11
	@DEBUG_VALUE: detectBox <- [DW_OP_LLVM_fragment 160 32] $s20
	@DEBUG_VALUE: detectResult <- [DW_OP_LLVM_fragment 128 32] $r11
	@DEBUG_VALUE: detectResult <- [DW_OP_LLVM_fragment 160 32] $s20
	@DEBUG_VALUE: RunPostProcessing:score <- $s20
	@DEBUG_VALUE: RunPostProcessing:imgSrcCols <- [DW_OP_LLVM_entry_value 1] $r3
	@DEBUG_VALUE: RunPostProcessing:fYScale <- $s18
	@DEBUG_VALUE: RunPostProcessing:fXScale <- $s16
	@DEBUG_VALUE: RunPostProcessing:cls <- 0
	@DEBUG_VALUE: RunPostProcessing:this <- [DW_OP_LLVM_entry_value 1] $r0
	@DEBUG_VALUE: RunPostProcessing:sDetections <- [DW_OP_plus_uconst 36, DW_OP_deref] $sp
	@DEBUG_VALUE: RunPostProcessing:resultsOut <- [DW_OP_plus_uconst 108] [$sp+0]
	@DEBUG_VALUE: RunPostProcessing:imgSrcRows <- [DW_OP_plus_uconst 104] [$sp+0]
	@DEBUG_VALUE: deallocate:__a <- undef
	@DEBUG_VALUE: deallocate:__n <- [DW_OP_plus_uconst 12, DW_OP_deref_size 4, DW_OP_constu 24, DW_OP_div, DW_OP_stack_value] $sp
	@DEBUG_VALUE: deallocate:this <- undef
	@DEBUG_VALUE: deallocate:__n <- [DW_OP_plus_uconst 12, DW_OP_deref_size 4, DW_OP_constu 24, DW_OP_div, DW_OP_stack_value] $sp
	@DEBUG_VALUE: __libcpp_deallocate:__size <- [DW_OP_plus_uconst 12] [$sp+0]
	@DEBUG_VALUE: __libcpp_deallocate:__align <- 4
	@DEBUG_VALUE: __do_deallocate_handle_size<>:__size <- [DW_OP_plus_uconst 12] [$sp+0]
	@DEBUG_VALUE: __libcpp_operator_delete<void *, unsigned int>:__args <- [DW_OP_plus_uconst 12] [$sp+0]
	.loc	4 281 3                         @ AppData\Local\Keil_v5\ARM\ARMCLANG\bin\..\include\libcxx\new:281:3
	ldr	r1, [sp, #12]                   @ 4-byte Reload
	mov	r0, r6
	bl	_ZdlPvj
.Ltmp512:
	@DEBUG_VALUE: __libcpp_operator_delete<void *, unsigned int>:__args <- undef
	@DEBUG_VALUE: __do_deallocate_handle_size<>:__ptr <- undef
	@DEBUG_VALUE: __libcpp_deallocate:__ptr <- undef
	@DEBUG_VALUE: deallocate:__p <- undef
	@DEBUG_VALUE: deallocate:__p <- undef
.LBB9_14:                               @   in Loop: Header=BB9_5 Depth=1
	@DEBUG_VALUE: detectBox <- [DW_OP_LLVM_fragment 128 32] $r11
	@DEBUG_VALUE: detectBox <- [DW_OP_LLVM_fragment 160 32] $s20
	@DEBUG_VALUE: detectResult <- [DW_OP_LLVM_fragment 128 32] $r11
	@DEBUG_VALUE: detectResult <- [DW_OP_LLVM_fragment 160 32] $s20
	@DEBUG_VALUE: RunPostProcessing:score <- $s20
	@DEBUG_VALUE: RunPostProcessing:imgSrcCols <- [DW_OP_LLVM_entry_value 1] $r3
	@DEBUG_VALUE: RunPostProcessing:fYScale <- $s18
	@DEBUG_VALUE: RunPostProcessing:fXScale <- $s16
	@DEBUG_VALUE: RunPostProcessing:cls <- 0
	@DEBUG_VALUE: RunPostProcessing:this <- [DW_OP_LLVM_entry_value 1] $r0
	@DEBUG_VALUE: RunPostProcessing:sDetections <- [DW_OP_plus_uconst 36, DW_OP_deref] $sp
	@DEBUG_VALUE: RunPostProcessing:resultsOut <- [DW_OP_plus_uconst 108] [$sp+0]
	@DEBUG_VALUE: RunPostProcessing:imgSrcRows <- [DW_OP_plus_uconst 104] [$sp+0]
	.loc	4 0 3 is_stmt 0                 @ AppData\Local\Keil_v5\ARM\ARMCLANG\bin\..\include\libcxx\new:0:3
	ldr	r7, [sp, #8]                    @ 4-byte Reload
	movw	r12, #43690
	ldr	r6, [sp, #4]                    @ 4-byte Reload
	movw	lr, #43691
	movt	r12, #2730
	movt	lr, #43690
	b	.LBB9_3
.Ltmp513:
.LBB9_15:
	@DEBUG_VALUE: RunPostProcessing:score <- $s20
	@DEBUG_VALUE: RunPostProcessing:imgSrcCols <- [DW_OP_LLVM_entry_value 1] $r3
	@DEBUG_VALUE: RunPostProcessing:fYScale <- $s18
	@DEBUG_VALUE: RunPostProcessing:fXScale <- $s16
	@DEBUG_VALUE: RunPostProcessing:cls <- 0
	@DEBUG_VALUE: RunPostProcessing:this <- [DW_OP_LLVM_entry_value 1] $r0
	@DEBUG_VALUE: RunPostProcessing:sDetections <- [DW_OP_plus_uconst 36, DW_OP_deref] $sp
	@DEBUG_VALUE: RunPostProcessing:resultsOut <- [DW_OP_plus_uconst 108] [$sp+0]
	@DEBUG_VALUE: RunPostProcessing:imgSrcRows <- [DW_OP_plus_uconst 104] [$sp+0]
	@DEBUG_VALUE: ~__forward_list_base:this <- [DW_OP_plus_uconst 36, DW_OP_stack_value] $sp
	@DEBUG_VALUE: clear:this <- [DW_OP_plus_uconst 36, DW_OP_stack_value] $sp
	@DEBUG_VALUE: __p <- $r8
	.loc	21 630 3 is_stmt 1              @ AppData\Local\Keil_v5\ARM\ARMCLANG\bin\..\include\libcxx\forward_list:630:3
	cmp.w	r8, #0
	bne	.LBB9_18
.Ltmp514:
.LBB9_16:
	@DEBUG_VALUE: RunPostProcessing:cls <- 0
	@DEBUG_VALUE: RunPostProcessing:this <- [DW_OP_LLVM_entry_value 1] $r0
	@DEBUG_VALUE: RunPostProcessing:sDetections <- [DW_OP_plus_uconst 36, DW_OP_deref] $sp
	@DEBUG_VALUE: RunPostProcessing:resultsOut <- [DW_OP_plus_uconst 108] [$sp+0]
	@DEBUG_VALUE: RunPostProcessing:imgSrcRows <- [DW_OP_plus_uconst 104] [$sp+0]
	@DEBUG_VALUE: RunPostProcessing:sDetections <- 0
	.loc	1 395 1 epilogue_begin          @ ../YOLOv8nODPostProcessing.cpp:395:1
	add	sp, #40
	vpop	{d8, d9, d10}
	add	sp, #4
	pop.w	{r4, r5, r6, r7, r8, r9, r10, r11, pc}
.Ltmp515:
	.loc	1 0 1 is_stmt 0                 @ :0:1
.Ltmp516:
	.p2align	2
.LBB9_17:                               @   in Loop: Header=BB9_18 Depth=1
	@DEBUG_VALUE: __next <- $r4
	@DEBUG_VALUE: __delete_node:this <- [DW_OP_plus_uconst 36, DW_OP_stack_value] $sp
	@DEBUG_VALUE: __delete_node:__node <- $r8
	@DEBUG_VALUE: __delete_node:__a <- [DW_OP_plus_uconst 36, DW_OP_stack_value] $sp
	@DEBUG_VALUE: __p <- $r8
	@DEBUG_VALUE: clear:this <- [DW_OP_plus_uconst 36, DW_OP_stack_value] $sp
	@DEBUG_VALUE: ~__forward_list_base:this <- [DW_OP_plus_uconst 36, DW_OP_stack_value] $sp
	@DEBUG_VALUE: RunPostProcessing:score <- $s20
	@DEBUG_VALUE: RunPostProcessing:imgSrcCols <- [DW_OP_LLVM_entry_value 1] $r3
	@DEBUG_VALUE: RunPostProcessing:fYScale <- $s18
	@DEBUG_VALUE: RunPostProcessing:fXScale <- $s16
	@DEBUG_VALUE: RunPostProcessing:cls <- 0
	@DEBUG_VALUE: RunPostProcessing:this <- [DW_OP_LLVM_entry_value 1] $r0
	@DEBUG_VALUE: RunPostProcessing:sDetections <- [DW_OP_plus_uconst 36, DW_OP_deref] $sp
	@DEBUG_VALUE: RunPostProcessing:resultsOut <- [DW_OP_plus_uconst 108] [$sp+0]
	@DEBUG_VALUE: RunPostProcessing:imgSrcRows <- [DW_OP_plus_uconst 104] [$sp+0]
	@DEBUG_VALUE: deallocate:__a <- [DW_OP_plus_uconst 36, DW_OP_stack_value] $sp
	@DEBUG_VALUE: deallocate:__p <- $r8
	@DEBUG_VALUE: deallocate:__n <- 1
	@DEBUG_VALUE: deallocate:this <- [DW_OP_plus_uconst 36, DW_OP_stack_value] $sp
	@DEBUG_VALUE: deallocate:__p <- $r8
	@DEBUG_VALUE: deallocate:__n <- 1
	@DEBUG_VALUE: __libcpp_deallocate:__ptr <- $r8
	@DEBUG_VALUE: __libcpp_deallocate:__size <- 44
	@DEBUG_VALUE: __libcpp_deallocate:__align <- 4
	@DEBUG_VALUE: __do_deallocate_handle_size<>:__ptr <- $r8
	@DEBUG_VALUE: __do_deallocate_handle_size<>:__size <- 44
	@DEBUG_VALUE: __libcpp_operator_delete<void *, unsigned int>:__args <- $r8
	@DEBUG_VALUE: __libcpp_operator_delete<void *, unsigned int>:__args <- 44
	.loc	4 281 3 is_stmt 1               @ AppData\Local\Keil_v5\ARM\ARMCLANG\bin\..\include\libcxx\new:281:3
	mov	r0, r8
.Ltmp517:
	@DEBUG_VALUE: __p <- $r0
	movs	r1, #44
	bl	_ZdlPvj
.Ltmp518:
	@DEBUG_VALUE: __p <- $r4
	.loc	21 630 3                        @ AppData\Local\Keil_v5\ARM\ARMCLANG\bin\..\include\libcxx\forward_list:630:3
	cmp	r4, #0
	mov	r8, r4
.Ltmp519:
	@DEBUG_VALUE: __next <- $r8
	@DEBUG_VALUE: __p <- $r8
	beq	.LBB9_16
.Ltmp520:
.LBB9_18:                               @ =>This Inner Loop Header: Depth=1
	@DEBUG_VALUE: __p <- $r8
	@DEBUG_VALUE: clear:this <- [DW_OP_plus_uconst 36, DW_OP_stack_value] $sp
	@DEBUG_VALUE: ~__forward_list_base:this <- [DW_OP_plus_uconst 36, DW_OP_stack_value] $sp
	@DEBUG_VALUE: RunPostProcessing:score <- $s20
	@DEBUG_VALUE: RunPostProcessing:imgSrcCols <- [DW_OP_LLVM_entry_value 1] $r3
	@DEBUG_VALUE: RunPostProcessing:fYScale <- $s18
	@DEBUG_VALUE: RunPostProcessing:fXScale <- $s16
	@DEBUG_VALUE: RunPostProcessing:cls <- 0
	@DEBUG_VALUE: RunPostProcessing:this <- [DW_OP_LLVM_entry_value 1] $r0
	@DEBUG_VALUE: RunPostProcessing:sDetections <- [DW_OP_plus_uconst 36, DW_OP_deref] $sp
	@DEBUG_VALUE: RunPostProcessing:resultsOut <- [DW_OP_plus_uconst 108] [$sp+0]
	@DEBUG_VALUE: RunPostProcessing:imgSrcRows <- [DW_OP_plus_uconst 104] [$sp+0]
	@DEBUG_VALUE: __p <- $r8
	.loc	2 528 18                        @ AppData\Local\Keil_v5\ARM\ARMCLANG\bin\..\include\libcxx\vector:528:18
	ldr.w	r0, [r8, #32]
.Ltmp521:
	.loc	21 631 34                       @ AppData\Local\Keil_v5\ARM\ARMCLANG\bin\..\include\libcxx\forward_list:631:34
	ldr.w	r4, [r8]
.Ltmp522:
	@DEBUG_VALUE: ~vector:this <- [DW_OP_plus_uconst 32, DW_OP_stack_value] $r8
	@DEBUG_VALUE: operator():this <- undef
	@DEBUG_VALUE: ~Detection:this <- [DW_OP_plus_uconst 4, DW_OP_stack_value] $r8
	@DEBUG_VALUE: __destroy_at<arm::app::yolov8n_od::Detection, 0>:__loc <- [DW_OP_plus_uconst 4, DW_OP_stack_value] $r8
	@DEBUG_VALUE: destroy<arm::app::yolov8n_od::Detection, void, 0>:__p <- [DW_OP_plus_uconst 4, DW_OP_stack_value] $r8
	@DEBUG_VALUE: destroy<arm::app::yolov8n_od::Detection, void, 0>: <- [DW_OP_plus_uconst 36, DW_OP_stack_value] $sp
	@DEBUG_VALUE: __delete_node:__a <- [DW_OP_plus_uconst 36, DW_OP_stack_value] $sp
	@DEBUG_VALUE: __delete_node:__node <- $r8
	@DEBUG_VALUE: __delete_node:this <- [DW_OP_plus_uconst 36, DW_OP_stack_value] $sp
	@DEBUG_VALUE: __next <- $r4
	.loc	2 528 11                        @ AppData\Local\Keil_v5\ARM\ARMCLANG\bin\..\include\libcxx\vector:528:11
	cmp	r0, #0
	beq	.LBB9_17
.Ltmp523:
@ %bb.19:                               @   in Loop: Header=BB9_18 Depth=1
	@DEBUG_VALUE: __next <- $r4
	@DEBUG_VALUE: __delete_node:this <- [DW_OP_plus_uconst 36, DW_OP_stack_value] $sp
	@DEBUG_VALUE: __delete_node:__node <- $r8
	@DEBUG_VALUE: __delete_node:__a <- [DW_OP_plus_uconst 36, DW_OP_stack_value] $sp
	@DEBUG_VALUE: destroy<arm::app::yolov8n_od::Detection, void, 0>: <- [DW_OP_plus_uconst 36, DW_OP_stack_value] $sp
	@DEBUG_VALUE: destroy<arm::app::yolov8n_od::Detection, void, 0>:__p <- [DW_OP_plus_uconst 4, DW_OP_stack_value] $r8
	@DEBUG_VALUE: __destroy_at<arm::app::yolov8n_od::Detection, 0>:__loc <- [DW_OP_plus_uconst 4, DW_OP_stack_value] $r8
	@DEBUG_VALUE: ~Detection:this <- [DW_OP_plus_uconst 4, DW_OP_stack_value] $r8
	@DEBUG_VALUE: ~vector:this <- [DW_OP_plus_uconst 32, DW_OP_stack_value] $r8
	@DEBUG_VALUE: __p <- $r8
	@DEBUG_VALUE: clear:this <- [DW_OP_plus_uconst 36, DW_OP_stack_value] $sp
	@DEBUG_VALUE: ~__forward_list_base:this <- [DW_OP_plus_uconst 36, DW_OP_stack_value] $sp
	@DEBUG_VALUE: RunPostProcessing:score <- $s20
	@DEBUG_VALUE: RunPostProcessing:imgSrcCols <- [DW_OP_LLVM_entry_value 1] $r3
	@DEBUG_VALUE: RunPostProcessing:fYScale <- $s18
	@DEBUG_VALUE: RunPostProcessing:fXScale <- $s16
	@DEBUG_VALUE: RunPostProcessing:cls <- 0
	@DEBUG_VALUE: RunPostProcessing:this <- [DW_OP_LLVM_entry_value 1] $r0
	@DEBUG_VALUE: RunPostProcessing:sDetections <- [DW_OP_plus_uconst 36, DW_OP_deref] $sp
	@DEBUG_VALUE: RunPostProcessing:resultsOut <- [DW_OP_plus_uconst 108] [$sp+0]
	@DEBUG_VALUE: RunPostProcessing:imgSrcRows <- [DW_OP_plus_uconst 104] [$sp+0]
	@DEBUG_VALUE: destroy<arm::app::yolov8n_od::Detection, void, 0>:__p <- [DW_OP_plus_uconst 4, DW_OP_stack_value] $r8
	@DEBUG_VALUE: __destroy_at<arm::app::yolov8n_od::Detection, 0>:__loc <- [DW_OP_plus_uconst 4, DW_OP_stack_value] $r8
	@DEBUG_VALUE: ~Detection:this <- [DW_OP_plus_uconst 4, DW_OP_stack_value] $r8
	@DEBUG_VALUE: __base_destruct_at_end:__soon_to_be_end <- undef
	.loc	2 637 35                        @ AppData\Local\Keil_v5\ARM\ARMCLANG\bin\..\include\libcxx\vector:637:35
	ldr.w	r1, [r8, #40]
.Ltmp524:
	@DEBUG_VALUE: __base_destruct_at_end:this <- [DW_OP_plus_uconst 32, DW_OP_stack_value] $r8
	@DEBUG_VALUE: __clear:this <- [DW_OP_plus_uconst 32, DW_OP_stack_value] $r8
	@DEBUG_VALUE: __base_destruct_at_end:__new_last <- $r0
	.loc	2 985 18                        @ AppData\Local\Keil_v5\ARM\ARMCLANG\bin\..\include\libcxx\vector:985:18
	str.w	r0, [r8, #36]
.Ltmp525:
	@DEBUG_VALUE: __end_cap:this <- [DW_OP_plus_uconst 32, DW_OP_stack_value] $r8
	@DEBUG_VALUE: capacity:this <- [DW_OP_plus_uconst 32, DW_OP_stack_value] $r8
	.loc	2 637 47                        @ AppData\Local\Keil_v5\ARM\ARMCLANG\bin\..\include\libcxx\vector:637:47
	subs	r1, r1, r0
.Ltmp526:
	@DEBUG_VALUE: deallocate:this <- [DW_OP_plus_uconst 32, DW_OP_plus_uconst 8, DW_OP_stack_value] $r8
	@DEBUG_VALUE: deallocate:__a <- [DW_OP_plus_uconst 32, DW_OP_plus_uconst 8, DW_OP_stack_value] $r8
	@DEBUG_VALUE: __libcpp_operator_delete<void *, unsigned int>:__args <- $r0
	@DEBUG_VALUE: __do_deallocate_handle_size<>:__ptr <- $r0
	@DEBUG_VALUE: __libcpp_deallocate:__align <- 4
	@DEBUG_VALUE: __libcpp_deallocate:__ptr <- $r0
	@DEBUG_VALUE: deallocate:__p <- $r0
	@DEBUG_VALUE: deallocate:__p <- $r0
	@DEBUG_VALUE: __libcpp_operator_delete<void *, unsigned int>:__args <- $r1
	@DEBUG_VALUE: __do_deallocate_handle_size<>:__size <- $r1
	@DEBUG_VALUE: __libcpp_deallocate:__size <- $r1
	@DEBUG_VALUE: deallocate:__n <- [DW_OP_constu 2, DW_OP_shra, DW_OP_stack_value] $r1
	@DEBUG_VALUE: deallocate:__n <- [DW_OP_constu 2, DW_OP_shra, DW_OP_stack_value] $r1
	.loc	4 281 3                         @ AppData\Local\Keil_v5\ARM\ARMCLANG\bin\..\include\libcxx\new:281:3
	bl	_ZdlPvj
.Ltmp527:
	.loc	4 0 3 is_stmt 0                 @ AppData\Local\Keil_v5\ARM\ARMCLANG\bin\..\include\libcxx\new:0:3
	b	.LBB9_17
.Ltmp528:
.LBB9_20:
	@DEBUG_VALUE: __recommend:__new_size <- $r1
	@DEBUG_VALUE: __recommend:__ms <- 178956970
	@DEBUG_VALUE: detectBox <- [DW_OP_LLVM_fragment 128 32] $r11
	@DEBUG_VALUE: detectBox <- [DW_OP_LLVM_fragment 160 32] $s20
	@DEBUG_VALUE: detectResult <- [DW_OP_LLVM_fragment 128 32] $r11
	@DEBUG_VALUE: detectResult <- [DW_OP_LLVM_fragment 160 32] $s20
	@DEBUG_VALUE: push_back:__end <- $r9
	@DEBUG_VALUE: detectBox <- [DW_OP_LLVM_fragment 64 32] $r3
	@DEBUG_VALUE: detectResult <- [DW_OP_LLVM_fragment 64 32] $r3
	@DEBUG_VALUE: detectBox <- [DW_OP_LLVM_fragment 32 32] $r2
	@DEBUG_VALUE: detectResult <- [DW_OP_LLVM_fragment 32 32] $r2
	@DEBUG_VALUE: RunPostProcessing:score <- $s20
	@DEBUG_VALUE: RunPostProcessing:imgSrcCols <- [DW_OP_LLVM_entry_value 1] $r3
	@DEBUG_VALUE: RunPostProcessing:fYScale <- $s18
	@DEBUG_VALUE: RunPostProcessing:fXScale <- $s16
	@DEBUG_VALUE: RunPostProcessing:cls <- 0
	@DEBUG_VALUE: RunPostProcessing:this <- [DW_OP_LLVM_entry_value 1] $r0
	@DEBUG_VALUE: RunPostProcessing:sDetections <- [DW_OP_plus_uconst 36, DW_OP_deref] $sp
	@DEBUG_VALUE: RunPostProcessing:resultsOut <- [DW_OP_plus_uconst 108] [$sp+0]
	@DEBUG_VALUE: RunPostProcessing:imgSrcRows <- [DW_OP_plus_uconst 104] [$sp+0]
	.loc	2 1115 11 is_stmt 1             @ AppData\Local\Keil_v5\ARM\ARMCLANG\bin\..\include\libcxx\vector:1115:11
	ldr	r0, [sp, #108]
	bl	_ZNKSt3__26vectorIN3arm3app10yolov8n_od15DetectionResultENS_9allocatorIS4_EEE20__throw_length_errorB8nn200000Ev
.Ltmp529:
.LBB9_21:
	@DEBUG_VALUE: allocate:__n <- $r7
	@DEBUG_VALUE: __allocate_at_least<std::__2::allocator<arm::app::yolov8n_od::DetectionResult> >:__n <- $r7
	@DEBUG_VALUE: __split_buffer:__cap <- $r7
	@DEBUG_VALUE: __split_buffer:__start <- $r5
	@DEBUG_VALUE: __push_back_slow_path<const arm::app::yolov8n_od::DetectionResult &>:__v <- [DW_OP_LLVM_fragment 96 32] 0
	@DEBUG_VALUE: detectBox <- [DW_OP_LLVM_fragment 128 32] $r11
	@DEBUG_VALUE: detectBox <- [DW_OP_LLVM_fragment 160 32] $s20
	@DEBUG_VALUE: detectResult <- [DW_OP_LLVM_fragment 128 32] $r11
	@DEBUG_VALUE: detectResult <- [DW_OP_LLVM_fragment 160 32] $s20
	@DEBUG_VALUE: push_back:__end <- $r9
	@DEBUG_VALUE: RunPostProcessing:score <- $s20
	@DEBUG_VALUE: RunPostProcessing:imgSrcCols <- [DW_OP_LLVM_entry_value 1] $r3
	@DEBUG_VALUE: RunPostProcessing:fYScale <- $s18
	@DEBUG_VALUE: RunPostProcessing:fXScale <- $s16
	@DEBUG_VALUE: RunPostProcessing:cls <- 0
	@DEBUG_VALUE: RunPostProcessing:this <- [DW_OP_LLVM_entry_value 1] $r0
	@DEBUG_VALUE: RunPostProcessing:sDetections <- [DW_OP_plus_uconst 36, DW_OP_deref] $sp
	@DEBUG_VALUE: RunPostProcessing:resultsOut <- [DW_OP_plus_uconst 108] [$sp+0]
	@DEBUG_VALUE: RunPostProcessing:imgSrcRows <- [DW_OP_plus_uconst 104] [$sp+0]
	.loc	13 99 7                         @ AppData\Local\Keil_v5\ARM\ARMCLANG\bin\..\include\libcxx\__memory\allocator.h:99:7
	bl	_ZSt28__throw_bad_array_new_lengthB8nn200000v
.Ltmp530:
	.loc	13 0 7 is_stmt 0                @ :0:7
.Ltmp531:
	.p2align	2
@ %bb.22:
.LCPI9_0:
	.long	0x3ee66666                      @ float 0.449999988
.Lfunc_end9:
	.size	_ZN3arm3app10yolov8n_od23YOLOv8nODPostProcessing17RunPostProcessingEjjjjRNSt3__26vectorINS1_15DetectionResultENS3_9allocatorIS5_EEEE, .Lfunc_end9-_ZN3arm3app10yolov8n_od23YOLOv8nODPostProcessing17RunPostProcessingEjjjjRNSt3__26vectorINS1_15DetectionResultENS3_9allocatorIS5_EEEE
	.cfi_endproc
	.file	43 "C:\\Users\\jimmy" "AppData\\Local\\Keil_v5\\ARM\\ARMCLANG\\bin\\..\\include\\libcxx\\__algorithm\\min.h"
	.cantunwind
	.fnend
                                        @ -- End function
	.section	.text._ZN3arm3app10yolov8n_od23YOLOv8nODPostProcessing15GetNetworkBoxesERNSt3__212forward_listINS1_9DetectionENS3_9allocatorIS5_EEEE,"ax",%progbits
	.hidden	_ZN3arm3app10yolov8n_od23YOLOv8nODPostProcessing15GetNetworkBoxesERNSt3__212forward_listINS1_9DetectionENS3_9allocatorIS5_EEEE @ -- Begin function _ZN3arm3app10yolov8n_od23YOLOv8nODPostProcessing15GetNetworkBoxesERNSt3__212forward_listINS1_9DetectionENS3_9allocatorIS5_EEEE
	.globl	_ZN3arm3app10yolov8n_od23YOLOv8nODPostProcessing15GetNetworkBoxesERNSt3__212forward_listINS1_9DetectionENS3_9allocatorIS5_EEEE
	.p2align	2
