	.text
	.syntax unified
	.eabi_attribute	67, "2.09"	@ Tag_conformance
	.cpu	cortex-m55
	.eabi_attribute	6, 21	@ Tag_CPU_arch
	.eabi_attribute	7, 77	@ Tag_CPU_arch_profile
	.eabi_attribute	8, 0	@ Tag_ARM_ISA_use
	.eabi_attribute	9, 3	@ Tag_THUMB_ISA_use
	.fpu	fpv5-d16
	.arch_extension	mve.fp
	.eabi_attribute	36, 1	@ Tag_FP_HP_extension
	.eabi_attribute	48, 2	@ Tag_MVE_arch
	.eabi_attribute	46, 1	@ Tag_DSP_extension
	.eabi_attribute	34, 1	@ Tag_CPU_unaligned_access
	.eabi_attribute	17, 1	@ Tag_ABI_PCS_GOT_use
	.eabi_attribute	20, 2	@ Tag_ABI_FP_denormal
	.eabi_attribute	21, 0	@ Tag_ABI_FP_exceptions
	.eabi_attribute	23, 1	@ Tag_ABI_FP_number_model
	.eabi_attribute	24, 1	@ Tag_ABI_align_needed
	.eabi_attribute	25, 1	@ Tag_ABI_align_preserved
	.eabi_attribute	28, 1	@ Tag_ABI_VFP_args
	.eabi_attribute	38, 1	@ Tag_ABI_FP_16bit_format
	.eabi_attribute	18, 2	@ Tag_ABI_PCS_wchar_t
	.eabi_attribute	26, 1	@ Tag_ABI_enum_size
	.eabi_attribute	14, 0	@ Tag_ABI_PCS_R9_use
	.file	"YOLOv8nODModel.cpp"
	.file	1 "C:\\Users\\jimmy\\Desktop\\Nuvoton\\Nuvoton-Team-2\\repos\\m55m1-ElevatorCounting-YOLOv8n\\KEIL" "../Model/YOLOv8nODModel.cpp"
	.file	2 "C:\\Users\\jimmy\\Desktop\\Nuvoton\\Nuvoton-Team-2\\repos\\m55m1-ElevatorCounting-YOLOv8n\\KEIL" "../../../../ThirdParty/tflite_micro\\tensorflow/lite/micro/micro_mutable_op_resolver.h"
	.file	3 "C:\\Users\\jimmy\\Desktop\\Nuvoton\\Nuvoton-Team-2\\repos\\m55m1-ElevatorCounting-YOLOv8n\\KEIL" "../../../../ThirdParty/tflite_micro\\tensorflow/lite/core/c/c_api_types.h"
	.file	4 "C:\\Users\\jimmy\\Desktop\\Nuvoton\\Nuvoton-Team-2\\repos\\m55m1-ElevatorCounting-YOLOv8n\\KEIL" "../../../../ThirdParty/tflite_micro\\tensorflow/lite/core/c/common.h"
	.file	5 "C:\\Users\\jimmy" "AppData\\Local\\Keil_v5\\ARM\\ARMCLANG\\bin\\..\\include\\wchar.h"
	.file	6 "C:\\Users\\jimmy" "AppData\\Local\\Keil_v5\\ARM\\ARMCLANG\\bin\\..\\include\\libcxx\\new"
	.file	7 "C:\\Users\\jimmy" "AppData\\Local\\Keil_v5\\ARM\\ARMCLANG\\bin\\..\\include\\stdint.h"
	.file	8 "C:\\Users\\jimmy\\Desktop\\Nuvoton\\Nuvoton-Team-2\\repos\\m55m1-ElevatorCounting-YOLOv8n\\KEIL" "../../../../ThirdParty/tflite_micro\\tensorflow/lite/schema/schema_generated.h"
	.file	9 "C:\\Users\\jimmy" "AppData\\Local\\Keil_v5\\ARM\\ARMCLANG\\bin\\..\\include\\libcxx\\vector"
	.file	10 "C:\\Users\\jimmy" "AppData\\Local\\Keil_v5\\ARM\\ARMCLANG\\bin\\..\\include\\stddef.h"
	.file	11 "C:\\Users\\jimmy" "AppData\\Local\\Keil_v5\\ARM\\ARMCLANG\\bin\\..\\include\\libcxx\\__memory\\allocator.h"
	.file	12 "C:\\Users\\jimmy" "AppData\\Local\\Keil_v5\\ARM\\ARMCLANG\\bin\\..\\include\\time.h"
	.file	13 "C:\\Users\\jimmy" "AppData\\Local\\Keil_v5\\ARM\\ARMCLANG\\bin\\..\\include\\libcxx\\__memory\\allocator_traits.h"
	.file	14 "C:\\Users\\jimmy" "AppData\\Local\\Keil_v5\\ARM\\ARMCLANG\\bin\\..\\include\\libcxx\\__memory\\compressed_pair.h"
	.file	15 "C:\\Users\\jimmy" "AppData\\Local\\Keil_v5\\ARM\\ARMCLANG\\bin\\..\\include\\libcxx\\__memory\\unique_ptr.h"
	.file	16 "C:\\Users\\jimmy" "AppData\\Local\\Keil_v5\\ARM\\ARMCLANG\\bin\\..\\include\\libcxx\\stddef.h"
	.file	17 "C:\\Users\\jimmy" "AppData\\Local\\Keil_v5\\ARM\\ARMCLANG\\bin\\..\\include\\libcxx\\__type_traits\\add_lvalue_reference.h"
	.file	18 "C:\\Users\\jimmy" "AppData\\Local\\Keil_v5\\ARM\\ARMCLANG\\bin\\..\\include\\libcxx\\__string\\char_traits.h"
	.file	19 "C:\\Users\\jimmy" "AppData\\Local\\Keil_v5\\ARM\\ARMCLANG\\bin\\..\\include\\libcxx\\string_view"
	.section	.text._ZN3arm3app14YOLOv8nODModel13GetOpResolverEv,"ax",%progbits
	.hidden	_ZN3arm3app14YOLOv8nODModel13GetOpResolverEv @ -- Begin function _ZN3arm3app14YOLOv8nODModel13GetOpResolverEv
	.globl	_ZN3arm3app14YOLOv8nODModel13GetOpResolverEv
	.p2align	2
	.type	_ZN3arm3app14YOLOv8nODModel13GetOpResolverEv,%function
	.code	16                              @ @_ZN3arm3app14YOLOv8nODModel13GetOpResolverEv
	.thumb_func
_ZN3arm3app14YOLOv8nODModel13GetOpResolverEv:
.Lfunc_begin0:
	.fnstart
	.cfi_sections .debug_frame
	.cfi_startproc
@ %bb.0:
	@DEBUG_VALUE: GetOpResolver:this <- $r0
	.loc	1 14 18 prologue_end            @ ../Model/YOLOv8nODModel.cpp:14:18
	adds	r0, #56
.Ltmp0:
	@DEBUG_VALUE: GetOpResolver:this <- [DW_OP_LLVM_entry_value 1] $r0
	.loc	1 14 5 is_stmt 0                @ ../Model/YOLOv8nODModel.cpp:14:5
	bx	lr
.Ltmp1:
.Lfunc_end0:
	.size	_ZN3arm3app14YOLOv8nODModel13GetOpResolverEv, .Lfunc_end0-_ZN3arm3app14YOLOv8nODModel13GetOpResolverEv
	.cfi_endproc
	.file	20 "C:\\Users\\jimmy\\Desktop\\Nuvoton\\Nuvoton-Team-2\\repos\\m55m1-ElevatorCounting-YOLOv8n\\KEIL" "../Model/include\\YOLOv8nODModel.hpp"
	.cantunwind
	.fnend
                                        @ -- End function
	.section	.text._ZN3arm3app14YOLOv8nODModel16EnlistOperationsEv,"ax",%progbits
	.hidden	_ZN3arm3app14YOLOv8nODModel16EnlistOperationsEv @ -- Begin function _ZN3arm3app14YOLOv8nODModel16EnlistOperationsEv
	.globl	_ZN3arm3app14YOLOv8nODModel16EnlistOperationsEv
	.p2align	2
	.type	_ZN3arm3app14YOLOv8nODModel16EnlistOperationsEv,%function
	.code	16                              @ @_ZN3arm3app14YOLOv8nODModel16EnlistOperationsEv
	.thumb_func
_ZN3arm3app14YOLOv8nODModel16EnlistOperationsEv:
.Lfunc_begin1:
	.loc	1 18 0 is_stmt 1                @ ../Model/YOLOv8nODModel.cpp:18:0
	.fnstart
	.cfi_startproc
@ %bb.0:
	@DEBUG_VALUE: EnlistOperations:this <- $r0
	.save	{r4, lr}
	push	{r4, lr}
	.cfi_def_cfa_offset 8
	.cfi_offset lr, -4
	.cfi_offset r4, -8
.Ltmp2:
	.loc	1 19 11 prologue_end            @ ../Model/YOLOv8nODModel.cpp:19:11
	add.w	r4, r0, #56
	.loc	1 19 24 is_stmt 0               @ ../Model/YOLOv8nODModel.cpp:19:24
	mov	r0, r4
.Ltmp3:
	@DEBUG_VALUE: EnlistOperations:this <- [DW_OP_LLVM_entry_value 1] $r0
	bl	_ZN6tflite22MicroMutableOpResolverILj2EE12AddTransposeEv
.Ltmp4:
	.loc	1 23 41 is_stmt 1               @ ../Model/YOLOv8nODModel.cpp:23:41
	mov	r0, r4
	bl	_ZN6tflite22MicroMutableOpResolverILj2EE9AddEthosUEv
.Ltmp5:
	mov	r4, r0
.Ltmp6:
	.loc	1 23 9 is_stmt 0                @ ../Model/YOLOv8nODModel.cpp:23:9
	cbz	r0, .LBB1_2
.Ltmp7:
@ %bb.1:
	@DEBUG_VALUE: EnlistOperations:this <- [DW_OP_LLVM_entry_value 1] $r0
	.loc	1 30 9 is_stmt 1                @ ../Model/YOLOv8nODModel.cpp:30:9
	adr	r0, .LCPI1_0
	bl	__2printf
.Ltmp8:
	adr	r0, .LCPI1_1
	bl	__2printf
.Ltmp9:
	.loc	1 0 9 is_stmt 0                 @ ../Model/YOLOv8nODModel.cpp:0:9
	b	.LBB1_3
.Ltmp10:
.LBB1_2:
	@DEBUG_VALUE: EnlistOperations:this <- [DW_OP_LLVM_entry_value 1] $r0
	.loc	1 25 9 is_stmt 1                @ ../Model/YOLOv8nODModel.cpp:25:9
	adr	r0, .LCPI1_2
	bl	__2printf
.Ltmp11:
	bl	_ZN6tflite16GetString_ETHOSUEv
.Ltmp12:
	mov	r1, r0
	adr	r0, .LCPI1_3
	bl	__2printf
.Ltmp13:
.LBB1_3:
	@DEBUG_VALUE: EnlistOperations:this <- [DW_OP_LLVM_entry_value 1] $r0
	.loc	1 23 19                         @ ../Model/YOLOv8nODModel.cpp:23:19
	cmp	r4, #0
	cset	r0, eq
.Ltmp14:
	.loc	1 36 1 epilogue_begin           @ ../Model/YOLOv8nODModel.cpp:36:1
	pop	{r4, pc}
.Ltmp15:
	.loc	1 0 1 is_stmt 0                 @ :0:1
.Ltmp16:
	.p2align	2
@ %bb.4:
.LCPI1_0:
.L.str.2:
	.asciz	"ERROR - \000\000\000"
.LCPI1_1:
.L.str.3:
	.asciz	"Failed to add Arm NPU support to op resolver.\000\000"
.LCPI1_2:
.L.str:
	.asciz	"INFO - "
.LCPI1_3:
.L.str.1:
	.asciz	"Added %s support to op resolver\n\000\000\000"
.Lfunc_end1:
	.size	_ZN3arm3app14YOLOv8nODModel16EnlistOperationsEv, .Lfunc_end1-_ZN3arm3app14YOLOv8nODModel16EnlistOperationsEv
	.cfi_endproc
	.cantunwind
	.fnend
                                        @ -- End function
	.section	.text._ZN6tflite22MicroMutableOpResolverILj2EE12AddTransposeEv,"axG",%progbits,_ZN6tflite22MicroMutableOpResolverILj2EE12AddTransposeEv,comdat
	.hidden	_ZN6tflite22MicroMutableOpResolverILj2EE12AddTransposeEv @ -- Begin function _ZN6tflite22MicroMutableOpResolverILj2EE12AddTransposeEv
	.weak	_ZN6tflite22MicroMutableOpResolverILj2EE12AddTransposeEv
	.p2align	2
	.type	_ZN6tflite22MicroMutableOpResolverILj2EE12AddTransposeEv,%function
	.code	16                              @ @_ZN6tflite22MicroMutableOpResolverILj2EE12AddTransposeEv
	.thumb_func
_ZN6tflite22MicroMutableOpResolverILj2EE12AddTransposeEv:
.Lfunc_begin2:
	.loc	2 635 0 is_stmt 1               @ ../../../../ThirdParty/tflite_micro\tensorflow/lite/micro/micro_mutable_op_resolver.h:635:0
	.fnstart
	.cfi_startproc
@ %bb.0:
	@DEBUG_VALUE: AddTranspose:this <- $r0
	.save	{r4, r5, r6, lr}
	push	{r4, r5, r6, lr}
	.cfi_def_cfa_offset 16
	.cfi_offset lr, -4
	.cfi_offset r6, -8
	.cfi_offset r5, -12
	.cfi_offset r4, -16
	.pad	#32
	sub	sp, #32
	.cfi_def_cfa_offset 48
	mov	r4, r0
.Ltmp17:
	@DEBUG_VALUE: AddTranspose:this <- $r4
	@DEBUG_VALUE: AddTranspose:this <- $r4
	add	r0, sp, #4
.Ltmp18:
	.loc	2 636 50 prologue_end           @ ../../../../ThirdParty/tflite_micro\tensorflow/lite/micro/micro_mutable_op_resolver.h:636:50
	bl	_ZN6tflite18Register_TRANSPOSEEv
.Ltmp19:
	@DEBUG_VALUE: AddBuiltin:registration <- [DW_OP_plus_uconst 4, DW_OP_stack_value] $sp
	@DEBUG_VALUE: AddBuiltin:op <- 39
	@DEBUG_VALUE: AddBuiltin:this <- $r4
	.loc	2 682 9                         @ ../../../../ThirdParty/tflite_micro\tensorflow/lite/micro/micro_mutable_op_resolver.h:682:9
	ldr	r0, [r4]
	movs	r1, #39
	ldr	r2, [r0]
	mov	r0, r4
	blx	r2
.Ltmp20:
	@DEBUG_VALUE: AddBuiltin:parser <- undef
	.loc	2 682 9 is_stmt 0               @ ../../../../ThirdParty/tflite_micro\tensorflow/lite/micro/micro_mutable_op_resolver.h:682:9
	cbz	r0, .LBB2_2
.Ltmp21:
@ %bb.1:
	@DEBUG_VALUE: AddBuiltin:this <- $r4
	@DEBUG_VALUE: AddBuiltin:op <- 39
	@DEBUG_VALUE: AddBuiltin:registration <- [DW_OP_plus_uconst 4, DW_OP_stack_value] $sp
	@DEBUG_VALUE: AddTranspose:this <- $r4
	.loc	2 683 7 is_stmt 1               @ ../../../../ThirdParty/tflite_micro\tensorflow/lite/micro/micro_mutable_op_resolver.h:683:7
	adr	r0, .LCPI2_0
	bl	_Z11MicroPrintfPKcz
.Ltmp22:
	.loc	2 684 7                         @ ../../../../ThirdParty/tflite_micro\tensorflow/lite/micro/micro_mutable_op_resolver.h:684:7
	adr	r0, .LCPI2_1
	movs	r1, #39
	b	.LBB2_4
.Ltmp23:
.LBB2_2:
	@DEBUG_VALUE: AddBuiltin:this <- $r4
	@DEBUG_VALUE: AddBuiltin:op <- 39
	@DEBUG_VALUE: AddBuiltin:registration <- [DW_OP_plus_uconst 4, DW_OP_stack_value] $sp
	@DEBUG_VALUE: AddTranspose:this <- $r4
	.loc	2 688 9                         @ ../../../../ThirdParty/tflite_micro\tensorflow/lite/micro/micro_mutable_op_resolver.h:688:9
	ldr	r0, [r4, #60]
.Ltmp24:
	.loc	2 688 9 is_stmt 0               @ ../../../../ThirdParty/tflite_micro\tensorflow/lite/micro/micro_mutable_op_resolver.h:688:9
	cmp	r0, #2
	blo	.LBB2_5
.Ltmp25:
@ %bb.3:
	@DEBUG_VALUE: AddBuiltin:this <- $r4
	@DEBUG_VALUE: AddBuiltin:op <- 39
	@DEBUG_VALUE: AddBuiltin:registration <- [DW_OP_plus_uconst 4, DW_OP_stack_value] $sp
	@DEBUG_VALUE: AddTranspose:this <- $r4
	.loc	2 689 7 is_stmt 1               @ ../../../../ThirdParty/tflite_micro\tensorflow/lite/micro/micro_mutable_op_resolver.h:689:7
	movw	r0, :lower16:.L.str.8
	movs	r1, #39
	movt	r0, :upper16:.L.str.8
	bl	_Z11MicroPrintfPKcz
.Ltmp26:
	.loc	2 690 7                         @ ../../../../ThirdParty/tflite_micro\tensorflow/lite/micro/micro_mutable_op_resolver.h:690:7
	adr	r0, .LCPI2_2
	movs	r1, #2
.Ltmp27:
.LBB2_4:
	@DEBUG_VALUE: AddBuiltin:this <- $r4
	@DEBUG_VALUE: AddBuiltin:op <- 39
	@DEBUG_VALUE: AddBuiltin:registration <- [DW_OP_plus_uconst 4, DW_OP_stack_value] $sp
	@DEBUG_VALUE: AddTranspose:this <- $r4
	.loc	2 0 0 is_stmt 0                 @ ../../../../ThirdParty/tflite_micro\tensorflow/lite/micro/micro_mutable_op_resolver.h:0:0
	bl	_Z11MicroPrintfPKcz
.Ltmp28:
	movs	r0, #1
.Ltmp29:
	.loc	2 636 5 epilogue_begin is_stmt 1 @ ../../../../ThirdParty/tflite_micro\tensorflow/lite/micro/micro_mutable_op_resolver.h:636:5
	add	sp, #32
	pop	{r4, r5, r6, pc}
.Ltmp30:
.LBB2_5:
	@DEBUG_VALUE: AddBuiltin:this <- $r4
	@DEBUG_VALUE: AddBuiltin:op <- 39
	@DEBUG_VALUE: AddBuiltin:registration <- [DW_OP_plus_uconst 4, DW_OP_stack_value] $sp
	@DEBUG_VALUE: AddTranspose:this <- $r4
	.loc	2 694 40                        @ ../../../../ThirdParty/tflite_micro\tensorflow/lite/micro/micro_mutable_op_resolver.h:694:40
	add.w	lr, sp, #4
	.loc	2 694 5 is_stmt 0               @ ../../../../ThirdParty/tflite_micro\tensorflow/lite/micro/micro_mutable_op_resolver.h:694:5
	adds	r1, r4, #4
	rsb	r0, r0, r0, lsl #3
	.loc	2 694 40                        @ ../../../../ThirdParty/tflite_micro\tensorflow/lite/micro/micro_mutable_op_resolver.h:694:40
	ldm.w	lr, {r3, r12, lr}
	add	r6, sp, #20
	.loc	2 694 5                         @ ../../../../ThirdParty/tflite_micro\tensorflow/lite/micro/micro_mutable_op_resolver.h:694:5
	add.w	r2, r1, r0, lsl #2
	.loc	2 694 40                        @ ../../../../ThirdParty/tflite_micro\tensorflow/lite/micro/micro_mutable_op_resolver.h:694:40
	ldr	r5, [sp, #16]
	str.w	r3, [r1, r0, lsl #2]
	ldm	r6, {r0, r3, r6}
	strd	r12, lr, [r2, #4]
	strd	r5, r0, [r2, #12]
	strd	r3, r6, [r2, #20]
	.loc	2 697 20 is_stmt 1              @ ../../../../ThirdParty/tflite_micro\tensorflow/lite/micro/micro_mutable_op_resolver.h:697:20
	ldr	r0, [r4, #60]
	.loc	2 700 20                        @ ../../../../ThirdParty/tflite_micro\tensorflow/lite/micro/micro_mutable_op_resolver.h:700:20
	ldr	r3, [r4, #80]
	.loc	2 697 40                        @ ../../../../ThirdParty/tflite_micro\tensorflow/lite/micro/micro_mutable_op_resolver.h:697:40
	rsb	r2, r0, r0, lsl #3
	.loc	2 698 23                        @ ../../../../ThirdParty/tflite_micro\tensorflow/lite/micro/micro_mutable_op_resolver.h:698:23
	adds	r0, #1
	.loc	2 697 40                        @ ../../../../ThirdParty/tflite_micro\tensorflow/lite/micro/micro_mutable_op_resolver.h:697:40
	add.w	r1, r1, r2, lsl #2
	movs	r2, #39
	.loc	2 698 23                        @ ../../../../ThirdParty/tflite_micro\tensorflow/lite/micro/micro_mutable_op_resolver.h:698:23
	str	r0, [r4, #60]
	.loc	2 697 53                        @ ../../../../ThirdParty/tflite_micro\tensorflow/lite/micro/micro_mutable_op_resolver.h:697:53
	str	r2, [r1, #20]
	.loc	2 701 39                        @ ../../../../ThirdParty/tflite_micro\tensorflow/lite/micro/micro_mutable_op_resolver.h:701:39
	movw	r0, :lower16:_ZN6tflite14ParseTransposeEPKNS_8OperatorEPNS_13ErrorReporterEPNS_20BuiltinDataAllocatorEPPv
	.loc	2 700 5                         @ ../../../../ThirdParty/tflite_micro\tensorflow/lite/micro/micro_mutable_op_resolver.h:700:5
	add.w	r1, r4, r3, lsl #2
	.loc	2 701 39                        @ ../../../../ThirdParty/tflite_micro\tensorflow/lite/micro/micro_mutable_op_resolver.h:701:39
	movt	r0, :upper16:_ZN6tflite14ParseTransposeEPKNS_8OperatorEPNS_13ErrorReporterEPNS_20BuiltinDataAllocatorEPPv
	str	r0, [r1, #72]
	.loc	2 702 20                        @ ../../../../ThirdParty/tflite_micro\tensorflow/lite/micro/micro_mutable_op_resolver.h:702:20
	adds	r0, r3, #1
	.loc	2 700 37                        @ ../../../../ThirdParty/tflite_micro\tensorflow/lite/micro/micro_mutable_op_resolver.h:700:37
	str	r2, [r1, #64]
	.loc	2 702 20                        @ ../../../../ThirdParty/tflite_micro\tensorflow/lite/micro/micro_mutable_op_resolver.h:702:20
	str	r0, [r4, #80]
	movs	r0, #0
.Ltmp31:
	.loc	2 636 5 epilogue_begin          @ ../../../../ThirdParty/tflite_micro\tensorflow/lite/micro/micro_mutable_op_resolver.h:636:5
	add	sp, #32
	pop	{r4, r5, r6, pc}
.Ltmp32:
	.loc	2 0 5 is_stmt 0                 @ :0:5
.Ltmp33:
	.p2align	2
@ %bb.6:
.LCPI2_0:
.L.str.6:
	.asciz	"Calling AddBuiltin with the same op more than \000"
.LCPI2_1:
.L.str.7:
	.asciz	"once is not supported (Op: #%d).\000\000\000"
.LCPI2_2:
.L.str.9:
	.asciz	"is too small (%d).\000"
.Lfunc_end2:
	.size	_ZN6tflite22MicroMutableOpResolverILj2EE12AddTransposeEv, .Lfunc_end2-_ZN6tflite22MicroMutableOpResolverILj2EE12AddTransposeEv
	.cfi_endproc
	.file	21 "C:\\Users\\jimmy\\Desktop\\Nuvoton\\Nuvoton-Team-2\\repos\\m55m1-ElevatorCounting-YOLOv8n\\KEIL" "../../../../ThirdParty/tflite_micro\\tensorflow/lite/micro/micro_common.h"
	.file	22 "C:\\Users\\jimmy\\Desktop\\Nuvoton\\Nuvoton-Team-2\\repos\\m55m1-ElevatorCounting-YOLOv8n\\KEIL" "../../../../ThirdParty/tflite_micro/_deps/tensorflow-flatbuffers-src/include\\flatbuffers/flatbuffers.h"
	.file	23 "C:\\Users\\jimmy\\Desktop\\Nuvoton\\Nuvoton-Team-2\\repos\\m55m1-ElevatorCounting-YOLOv8n\\KEIL" "../../../../ThirdParty/tflite_micro/_deps/tensorflow-flatbuffers-src/include\\flatbuffers/flatbuffer_builder.h"
	.file	24 "C:\\Users\\jimmy\\Desktop\\Nuvoton\\Nuvoton-Team-2\\repos\\m55m1-ElevatorCounting-YOLOv8n\\KEIL" "../../../../ThirdParty/tflite_micro/_deps/tensorflow-flatbuffers-src/include\\flatbuffers/string.h"
	.file	25 "C:\\Users\\jimmy" "AppData\\Local\\Keil_v5\\ARM\\ARMCLANG\\bin\\..\\include\\libcxx\\__fwd\\string.h"
	.file	26 "C:\\Users\\jimmy" "AppData\\Local\\Keil_v5\\ARM\\ARMCLANG\\bin\\..\\include\\libcxx\\__fwd\\string_view.h"
	.file	27 "C:\\Users\\jimmy\\Desktop\\Nuvoton\\Nuvoton-Team-2\\repos\\m55m1-ElevatorCounting-YOLOv8n\\KEIL" "../../../../ThirdParty/tflite_micro/_deps/tensorflow-flatbuffers-src/include\\flatbuffers/base.h"
	.file	28 "C:\\Users\\jimmy\\Desktop\\Nuvoton\\Nuvoton-Team-2\\repos\\m55m1-ElevatorCounting-YOLOv8n\\KEIL" "../../../../ThirdParty/tflite_micro\\tensorflow/lite/micro/tflite_bridge/flatbuffer_conversions_bridge.h"
	.cantunwind
	.fnend
                                        @ -- End function
	.section	.text._ZN6tflite22MicroMutableOpResolverILj2EE9AddEthosUEv,"axG",%progbits,_ZN6tflite22MicroMutableOpResolverILj2EE9AddEthosUEv,comdat
	.hidden	_ZN6tflite22MicroMutableOpResolverILj2EE9AddEthosUEv @ -- Begin function _ZN6tflite22MicroMutableOpResolverILj2EE9AddEthosUEv
	.weak	_ZN6tflite22MicroMutableOpResolverILj2EE9AddEthosUEv
	.p2align	2
	.type	_ZN6tflite22MicroMutableOpResolverILj2EE9AddEthosUEv,%function
	.code	16                              @ @_ZN6tflite22MicroMutableOpResolverILj2EE9AddEthosUEv
	.thumb_func
_ZN6tflite22MicroMutableOpResolverILj2EE9AddEthosUEv:
.Lfunc_begin3:
	.loc	2 252 0 is_stmt 1               @ ../../../../ThirdParty/tflite_micro\tensorflow/lite/micro/micro_mutable_op_resolver.h:252:0
	.fnstart
	.cfi_startproc
@ %bb.0:
	@DEBUG_VALUE: AddEthosU:this <- $r0
	.save	{r4, r5, r6, lr}
	push	{r4, r5, r6, lr}
	.cfi_def_cfa_offset 16
	.cfi_offset lr, -4
	.cfi_offset r6, -8
	.cfi_offset r5, -12
	.cfi_offset r4, -16
	mov	r5, r0
.Ltmp34:
	@DEBUG_VALUE: AddEthosU:this <- $r5
	@DEBUG_VALUE: AddEthosU:this <- $r5
	.loc	2 253 38 prologue_end           @ ../../../../ThirdParty/tflite_micro\tensorflow/lite/micro/micro_mutable_op_resolver.h:253:38
	bl	_ZN6tflite15Register_ETHOSUEv
.Ltmp35:
	@DEBUG_VALUE: AddEthosU:registration <- $r0
	.loc	2 254 9                         @ ../../../../ThirdParty/tflite_micro\tensorflow/lite/micro/micro_mutable_op_resolver.h:254:9
	cbz	r0, .LBB3_6
.Ltmp36:
@ %bb.1:
	@DEBUG_VALUE: AddEthosU:registration <- $r0
	@DEBUG_VALUE: AddEthosU:this <- $r5
	.loc	2 0 9 is_stmt 0                 @ ../../../../ThirdParty/tflite_micro\tensorflow/lite/micro/micro_mutable_op_resolver.h:0:9
	mov	r6, r0
.Ltmp37:
	@DEBUG_VALUE: AddEthosU:registration <- $r6
	.loc	2 255 24 is_stmt 1              @ ../../../../ThirdParty/tflite_micro\tensorflow/lite/micro/micro_mutable_op_resolver.h:255:24
	bl	_ZN6tflite16GetString_ETHOSUEv
.Ltmp38:
	.loc	2 91 9                          @ ../../../../ThirdParty/tflite_micro\tensorflow/lite/micro/micro_mutable_op_resolver.h:91:9
	ldr	r1, [r5, #60]
.Ltmp39:
	.loc	2 255 24                        @ ../../../../ThirdParty/tflite_micro\tensorflow/lite/micro/micro_mutable_op_resolver.h:255:24
	mov	r4, r0
.Ltmp40:
	@DEBUG_VALUE: AddCustom:registration <- $r6
	@DEBUG_VALUE: AddCustom:this <- $r5
	@DEBUG_VALUE: AddCustom:name <- $r4
	.loc	2 91 9                          @ ../../../../ThirdParty/tflite_micro\tensorflow/lite/micro/micro_mutable_op_resolver.h:91:9
	cmp	r1, #2
	blo	.LBB3_3
.Ltmp41:
@ %bb.2:
	@DEBUG_VALUE: AddCustom:name <- $r4
	@DEBUG_VALUE: AddCustom:this <- $r5
	@DEBUG_VALUE: AddCustom:registration <- $r6
	@DEBUG_VALUE: AddEthosU:registration <- $r6
	@DEBUG_VALUE: AddEthosU:this <- $r5
	.loc	2 92 7                          @ ../../../../ThirdParty/tflite_micro\tensorflow/lite/micro/micro_mutable_op_resolver.h:92:7
	movw	r0, :lower16:.L.str.10
	mov	r1, r4
	movt	r0, :upper16:.L.str.10
	movs	r2, #2
	bl	_Z11MicroPrintfPKcz
.Ltmp42:
	.loc	2 0 7 is_stmt 0                 @ ../../../../ThirdParty/tflite_micro\tensorflow/lite/micro/micro_mutable_op_resolver.h:0:7
	movs	r0, #1
.Ltmp43:
	.loc	2 258 3 epilogue_begin is_stmt 1 @ ../../../../ThirdParty/tflite_micro\tensorflow/lite/micro/micro_mutable_op_resolver.h:258:3
	pop	{r4, r5, r6, pc}
.Ltmp44:
.LBB3_3:
	@DEBUG_VALUE: AddCustom:name <- $r4
	@DEBUG_VALUE: AddCustom:this <- $r5
	@DEBUG_VALUE: AddCustom:registration <- $r6
	@DEBUG_VALUE: AddEthosU:registration <- $r6
	@DEBUG_VALUE: AddEthosU:this <- $r5
	@DEBUG_VALUE: AddCustom:registration <- $r6
	.loc	2 99 9                          @ ../../../../ThirdParty/tflite_micro\tensorflow/lite/micro/micro_mutable_op_resolver.h:99:9
	ldr	r0, [r5]
	mov	r1, r4
	ldr	r2, [r0, #4]
	mov	r0, r5
	blx	r2
.Ltmp45:
	.loc	2 99 9 is_stmt 0                @ ../../../../ThirdParty/tflite_micro\tensorflow/lite/micro/micro_mutable_op_resolver.h:99:9
	cbz	r0, .LBB3_5
.Ltmp46:
@ %bb.4:
	@DEBUG_VALUE: AddCustom:name <- $r4
	@DEBUG_VALUE: AddCustom:this <- $r5
	@DEBUG_VALUE: AddCustom:registration <- $r6
	@DEBUG_VALUE: AddEthosU:registration <- $r6
	@DEBUG_VALUE: AddEthosU:this <- $r5
	.loc	2 100 7 is_stmt 1               @ ../../../../ThirdParty/tflite_micro\tensorflow/lite/micro/micro_mutable_op_resolver.h:100:7
	adr	r0, .LCPI3_0
	bl	_Z11MicroPrintfPKcz
.Ltmp47:
	.loc	2 101 7                         @ ../../../../ThirdParty/tflite_micro\tensorflow/lite/micro/micro_mutable_op_resolver.h:101:7
	adr	r0, .LCPI3_1
	mov	r1, r4
	bl	_Z11MicroPrintfPKcz
.Ltmp48:
	.loc	2 0 7 is_stmt 0                 @ ../../../../ThirdParty/tflite_micro\tensorflow/lite/micro/micro_mutable_op_resolver.h:0:7
	movs	r0, #1
.Ltmp49:
	.loc	2 258 3 epilogue_begin is_stmt 1 @ ../../../../ThirdParty/tflite_micro\tensorflow/lite/micro/micro_mutable_op_resolver.h:258:3
	pop	{r4, r5, r6, pc}
.Ltmp50:
.LBB3_5:
	@DEBUG_VALUE: AddCustom:name <- $r4
	@DEBUG_VALUE: AddCustom:this <- $r5
	@DEBUG_VALUE: AddCustom:registration <- $r6
	@DEBUG_VALUE: AddEthosU:registration <- $r6
	@DEBUG_VALUE: AddEthosU:this <- $r5
	@DEBUG_VALUE: AddCustom:registration <- $r6
	.loc	2 105 58                        @ ../../../../ThirdParty/tflite_micro\tensorflow/lite/micro/micro_mutable_op_resolver.h:105:58
	ldr	r0, [r5, #60]
	.loc	2 105 43 is_stmt 0              @ ../../../../ThirdParty/tflite_micro\tensorflow/lite/micro/micro_mutable_op_resolver.h:105:43
	rsb	r1, r0, r0, lsl #3
	.loc	2 106 24 is_stmt 1              @ ../../../../ThirdParty/tflite_micro\tensorflow/lite/micro/micro_mutable_op_resolver.h:106:24
	adds	r0, #1
	.loc	2 105 43                        @ ../../../../ThirdParty/tflite_micro\tensorflow/lite/micro/micro_mutable_op_resolver.h:105:43
	add.w	r1, r5, r1, lsl #2
.Ltmp51:
	@DEBUG_VALUE: AddCustom:new_registration <- [DW_OP_plus_uconst 4, DW_OP_stack_value] $r1
	.loc	2 106 24                        @ ../../../../ThirdParty/tflite_micro\tensorflow/lite/micro/micro_mutable_op_resolver.h:106:24
	str	r0, [r5, #60]
	.loc	2 108 23                        @ ../../../../ThirdParty/tflite_micro\tensorflow/lite/micro/micro_mutable_op_resolver.h:108:23
	ldm	r6, {r0, r2, r3, r5, r6}
.Ltmp52:
	@DEBUG_VALUE: AddEthosU:this <- [DW_OP_LLVM_entry_value 1] $r0
	add.w	r12, r1, #4
	.loc	2 110 35                        @ ../../../../ThirdParty/tflite_micro\tensorflow/lite/micro/micro_mutable_op_resolver.h:110:35
	str	r4, [r1, #28]
	.loc	2 108 23                        @ ../../../../ThirdParty/tflite_micro\tensorflow/lite/micro/micro_mutable_op_resolver.h:108:23
	stm.w	r12, {r0, r2, r3, r5}
	movs	r0, #32
	strd	r6, r0, [r1, #20]
.Ltmp53:
.LBB3_6:
	.loc	2 0 23 is_stmt 0                @ ../../../../ThirdParty/tflite_micro\tensorflow/lite/micro/micro_mutable_op_resolver.h:0:23
	movs	r0, #0
	.loc	2 258 3 epilogue_begin is_stmt 1 @ ../../../../ThirdParty/tflite_micro\tensorflow/lite/micro/micro_mutable_op_resolver.h:258:3
	pop	{r4, r5, r6, pc}
.Ltmp54:
	.loc	2 0 3 is_stmt 0                 @ :0:3
.Ltmp55:
	.p2align	2
@ %bb.7:
.LCPI3_0:
.L.str.11:
	.asciz	"Calling AddCustom for the same op more than once \000\000"
.LCPI3_1:
.L.str.12:
	.asciz	"is not supported (Op: %s).\000"
.Lfunc_end3:
	.size	_ZN6tflite22MicroMutableOpResolverILj2EE9AddEthosUEv, .Lfunc_end3-_ZN6tflite22MicroMutableOpResolverILj2EE9AddEthosUEv
	.cfi_endproc
	.cantunwind
	.fnend
                                        @ -- End function
	.section	.text._ZN3arm3app14YOLOv8nODModelD2Ev,"axG",%progbits,_ZN3arm3app14YOLOv8nODModelD2Ev,comdat
	.hidden	_ZN3arm3app14YOLOv8nODModelD2Ev @ -- Begin function _ZN3arm3app14YOLOv8nODModelD2Ev
	.weak	_ZN3arm3app14YOLOv8nODModelD2Ev
	.p2align	2
	.type	_ZN3arm3app14YOLOv8nODModelD2Ev,%function
	.code	16                              @ @_ZN3arm3app14YOLOv8nODModelD2Ev
	.thumb_func
_ZN3arm3app14YOLOv8nODModelD2Ev:
.Lfunc_begin4:
	.loc	20 22 0 is_stmt 1               @ ../Model/include\YOLOv8nODModel.hpp:22:0
	.fnstart
	.cfi_startproc
@ %bb.0:
	@DEBUG_VALUE: ~YOLOv8nODModel:this <- $r0
	@DEBUG_VALUE: ~Model:this <- $r0
	.save	{r4, lr}
	push	{r4, lr}
	.cfi_def_cfa_offset 8
	.cfi_offset lr, -4
	.cfi_offset r4, -8
	mov	r4, r0
.Ltmp56:
	@DEBUG_VALUE: ~Model:this <- $r4
	@DEBUG_VALUE: ~YOLOv8nODModel:this <- $r4
	.loc	9 528 18 prologue_end           @ AppData\Local\Keil_v5\ARM\ARMCLANG\bin\..\include\libcxx\vector:528:18
	ldr	r0, [r0, #40]
.Ltmp57:
	.file	29 "C:\\Users\\jimmy\\Desktop\\Nuvoton\\Nuvoton-Team-2\\repos\\m55m1-ElevatorCounting-YOLOv8n\\KEIL" "../../../../ThirdParty/ml-embedded-evaluation-kit/source/application/api/common/include\\Model.hpp"
	.loc	29 36 28                        @ ../../../../ThirdParty/ml-embedded-evaluation-kit/source/application/api/common/include\Model.hpp:36:28
	movw	r1, :lower16:_ZTVN3arm3app5ModelE
	movt	r1, :upper16:_ZTVN3arm3app5ModelE
	adds	r1, #8
	str	r1, [r4]
.Ltmp58:
	@DEBUG_VALUE: ~vector:this <- [DW_OP_plus_uconst 40, DW_OP_stack_value] $r4
	.loc	9 528 11                        @ AppData\Local\Keil_v5\ARM\ARMCLANG\bin\..\include\libcxx\vector:528:11
	cbz	r0, .LBB4_2
.Ltmp59:
@ %bb.1:
	@DEBUG_VALUE: ~vector:this <- [DW_OP_plus_uconst 40, DW_OP_stack_value] $r4
	@DEBUG_VALUE: ~YOLOv8nODModel:this <- $r4
	@DEBUG_VALUE: ~Model:this <- $r4
	@DEBUG_VALUE: __base_destruct_at_end:__soon_to_be_end <- undef
	.loc	9 637 35                        @ AppData\Local\Keil_v5\ARM\ARMCLANG\bin\..\include\libcxx\vector:637:35
	ldr	r1, [r4, #48]
.Ltmp60:
	@DEBUG_VALUE: __base_destruct_at_end:this <- [DW_OP_plus_uconst 40, DW_OP_stack_value] $r4
	@DEBUG_VALUE: __clear:this <- [DW_OP_plus_uconst 40, DW_OP_stack_value] $r4
	@DEBUG_VALUE: __base_destruct_at_end:__new_last <- $r0
	.loc	9 985 18                        @ AppData\Local\Keil_v5\ARM\ARMCLANG\bin\..\include\libcxx\vector:985:18
	str	r0, [r4, #44]
.Ltmp61:
	@DEBUG_VALUE: __end_cap:this <- [DW_OP_plus_uconst 40, DW_OP_stack_value] $r4
	@DEBUG_VALUE: capacity:this <- [DW_OP_plus_uconst 40, DW_OP_stack_value] $r4
	.loc	9 637 47                        @ AppData\Local\Keil_v5\ARM\ARMCLANG\bin\..\include\libcxx\vector:637:47
	subs	r1, r1, r0
.Ltmp62:
	@DEBUG_VALUE: deallocate:this <- [DW_OP_plus_uconst 40, DW_OP_plus_uconst 8, DW_OP_stack_value] $r4
	@DEBUG_VALUE: deallocate:__a <- [DW_OP_plus_uconst 40, DW_OP_plus_uconst 8, DW_OP_stack_value] $r4
	@DEBUG_VALUE: __libcpp_operator_delete<void *, unsigned int>:__args <- $r0
	@DEBUG_VALUE: __do_deallocate_handle_size<>:__ptr <- $r0
	@DEBUG_VALUE: __libcpp_deallocate:__align <- 4
	@DEBUG_VALUE: __libcpp_deallocate:__ptr <- $r0
	@DEBUG_VALUE: deallocate:__p <- $r0
	@DEBUG_VALUE: deallocate:__p <- $r0
	@DEBUG_VALUE: __libcpp_operator_delete<void *, unsigned int>:__args <- $r1
	@DEBUG_VALUE: __do_deallocate_handle_size<>:__size <- $r1
	@DEBUG_VALUE: __libcpp_deallocate:__size <- $r1
	@DEBUG_VALUE: deallocate:__n <- [DW_OP_constu 2, DW_OP_shra, DW_OP_stack_value] $r1
	@DEBUG_VALUE: deallocate:__n <- [DW_OP_constu 2, DW_OP_shra, DW_OP_stack_value] $r1
	.loc	6 281 3                         @ AppData\Local\Keil_v5\ARM\ARMCLANG\bin\..\include\libcxx\new:281:3
	bl	_ZdlPvj
.Ltmp63:
.LBB4_2:
	@DEBUG_VALUE: ~YOLOv8nODModel:this <- $r4
	@DEBUG_VALUE: ~Model:this <- $r4
	@DEBUG_VALUE: ~vector:this <- [DW_OP_plus_uconst 28, DW_OP_stack_value] $r4
	@DEBUG_VALUE: operator():this <- undef
	.loc	9 528 18                        @ AppData\Local\Keil_v5\ARM\ARMCLANG\bin\..\include\libcxx\vector:528:18
	ldr	r0, [r4, #28]
.Ltmp64:
	.loc	9 528 11 is_stmt 0              @ AppData\Local\Keil_v5\ARM\ARMCLANG\bin\..\include\libcxx\vector:528:11
	cbz	r0, .LBB4_4
.Ltmp65:
@ %bb.3:
	@DEBUG_VALUE: ~vector:this <- [DW_OP_plus_uconst 28, DW_OP_stack_value] $r4
	@DEBUG_VALUE: ~YOLOv8nODModel:this <- $r4
	@DEBUG_VALUE: ~Model:this <- $r4
	@DEBUG_VALUE: __base_destruct_at_end:__soon_to_be_end <- undef
	.loc	9 637 35 is_stmt 1              @ AppData\Local\Keil_v5\ARM\ARMCLANG\bin\..\include\libcxx\vector:637:35
	ldr	r1, [r4, #36]
.Ltmp66:
	@DEBUG_VALUE: __base_destruct_at_end:this <- [DW_OP_plus_uconst 28, DW_OP_stack_value] $r4
	@DEBUG_VALUE: __clear:this <- [DW_OP_plus_uconst 28, DW_OP_stack_value] $r4
	@DEBUG_VALUE: __base_destruct_at_end:__new_last <- $r0
	.loc	9 985 18                        @ AppData\Local\Keil_v5\ARM\ARMCLANG\bin\..\include\libcxx\vector:985:18
	str	r0, [r4, #32]
.Ltmp67:
	@DEBUG_VALUE: __end_cap:this <- [DW_OP_plus_uconst 28, DW_OP_stack_value] $r4
	@DEBUG_VALUE: capacity:this <- [DW_OP_plus_uconst 28, DW_OP_stack_value] $r4
	.loc	9 637 47                        @ AppData\Local\Keil_v5\ARM\ARMCLANG\bin\..\include\libcxx\vector:637:47
	subs	r1, r1, r0
.Ltmp68:
	@DEBUG_VALUE: deallocate:this <- [DW_OP_plus_uconst 28, DW_OP_plus_uconst 8, DW_OP_stack_value] $r4
	@DEBUG_VALUE: deallocate:__a <- [DW_OP_plus_uconst 28, DW_OP_plus_uconst 8, DW_OP_stack_value] $r4
	@DEBUG_VALUE: __libcpp_operator_delete<void *, unsigned int>:__args <- $r0
	@DEBUG_VALUE: __do_deallocate_handle_size<>:__ptr <- $r0
	@DEBUG_VALUE: __libcpp_deallocate:__align <- 4
	@DEBUG_VALUE: __libcpp_deallocate:__ptr <- $r0
	@DEBUG_VALUE: deallocate:__p <- $r0
	@DEBUG_VALUE: deallocate:__p <- $r0
	@DEBUG_VALUE: __libcpp_operator_delete<void *, unsigned int>:__args <- $r1
	@DEBUG_VALUE: __do_deallocate_handle_size<>:__size <- $r1
	@DEBUG_VALUE: __libcpp_deallocate:__size <- $r1
	@DEBUG_VALUE: deallocate:__n <- [DW_OP_constu 2, DW_OP_shra, DW_OP_stack_value] $r1
	@DEBUG_VALUE: deallocate:__n <- [DW_OP_constu 2, DW_OP_shra, DW_OP_stack_value] $r1
	.loc	6 281 3                         @ AppData\Local\Keil_v5\ARM\ARMCLANG\bin\..\include\libcxx\new:281:3
	bl	_ZdlPvj
.Ltmp69:
.LBB4_4:
	@DEBUG_VALUE: ~YOLOv8nODModel:this <- $r4
	@DEBUG_VALUE: ~Model:this <- $r4
	@DEBUG_VALUE: ~unique_ptr:this <- [DW_OP_plus_uconst 8, DW_OP_stack_value] $r4
	@DEBUG_VALUE: reset:this <- [DW_OP_plus_uconst 8, DW_OP_stack_value] $r4
	@DEBUG_VALUE: reset:__p <- 0
	.loc	15 277 29                       @ AppData\Local\Keil_v5\ARM\ARMCLANG\bin\..\include\libcxx\__memory\unique_ptr.h:277:29
	ldr	r0, [r4, #8]
.Ltmp70:
	@DEBUG_VALUE: reset:__tmp <- $r0
	.loc	15 0 29 is_stmt 0               @ AppData\Local\Keil_v5\ARM\ARMCLANG\bin\..\include\libcxx\__memory\unique_ptr.h:0:29
	movs	r1, #0
	.loc	15 278 20 is_stmt 1             @ AppData\Local\Keil_v5\ARM\ARMCLANG\bin\..\include\libcxx\__memory\unique_ptr.h:278:20
	str	r1, [r4, #8]
	.loc	15 279 9                        @ AppData\Local\Keil_v5\ARM\ARMCLANG\bin\..\include\libcxx\__memory\unique_ptr.h:279:9
	cbz	r0, .LBB4_6
.Ltmp71:
@ %bb.5:
	@DEBUG_VALUE: reset:__tmp <- $r0
	@DEBUG_VALUE: reset:__p <- 0
	@DEBUG_VALUE: reset:this <- [DW_OP_plus_uconst 8, DW_OP_stack_value] $r4
	@DEBUG_VALUE: ~unique_ptr:this <- [DW_OP_plus_uconst 8, DW_OP_stack_value] $r4
	@DEBUG_VALUE: ~YOLOv8nODModel:this <- $r4
	@DEBUG_VALUE: ~Model:this <- $r4
	@DEBUG_VALUE: operator():__ptr <- $r0
	@DEBUG_VALUE: operator():this <- [DW_OP_plus_uconst 8, DW_OP_stack_value] $r4
	.loc	15 68 5                         @ AppData\Local\Keil_v5\ARM\ARMCLANG\bin\..\include\libcxx\__memory\unique_ptr.h:68:5
	bl	_ZN6tflite16MicroInterpreterD1Ev
.Ltmp72:
	movs	r1, #192
	bl	_ZdlPvj
.Ltmp73:
.LBB4_6:
	@DEBUG_VALUE: ~YOLOv8nODModel:this <- $r4
	.loc	20 22 7                         @ ../Model/include\YOLOv8nODModel.hpp:22:7
	mov	r0, r4
.Ltmp74:
	@DEBUG_VALUE: ~YOLOv8nODModel:this <- $r0
	.loc	20 22 7 epilogue_begin is_stmt 0 @ ../Model/include\YOLOv8nODModel.hpp:22:7
	pop	{r4, pc}
.Ltmp75:
.Lfunc_end4:
	.size	_ZN3arm3app14YOLOv8nODModelD2Ev, .Lfunc_end4-_ZN3arm3app14YOLOv8nODModelD2Ev
	.cfi_endproc
	.file	30 "C:\\Users\\jimmy" "AppData\\Local\\Keil_v5\\ARM\\ARMCLANG\\bin\\..\\include\\stdlib.h"
	.cantunwind
	.fnend
                                        @ -- End function
	.section	.text._ZN3arm3app14YOLOv8nODModelD0Ev,"axG",%progbits,_ZN3arm3app14YOLOv8nODModelD0Ev,comdat
	.hidden	_ZN3arm3app14YOLOv8nODModelD0Ev @ -- Begin function _ZN3arm3app14YOLOv8nODModelD0Ev
	.weak	_ZN3arm3app14YOLOv8nODModelD0Ev
	.p2align	2
	.type	_ZN3arm3app14YOLOv8nODModelD0Ev,%function
	.code	16                              @ @_ZN3arm3app14YOLOv8nODModelD0Ev
	.thumb_func
_ZN3arm3app14YOLOv8nODModelD0Ev:
.Lfunc_begin5:
	.loc	20 22 0 is_stmt 1               @ ../Model/include\YOLOv8nODModel.hpp:22:0
	.fnstart
	.cfi_startproc
@ %bb.0:
	@DEBUG_VALUE: ~YOLOv8nODModel:this <- $r0
	@DEBUG_VALUE: ~YOLOv8nODModel:this <- $r0
	@DEBUG_VALUE: ~Model:this <- $r0
	.save	{r4, lr}
	push	{r4, lr}
	.cfi_def_cfa_offset 8
	.cfi_offset lr, -4
	.cfi_offset r4, -8
	mov	r4, r0
.Ltmp76:
	@DEBUG_VALUE: ~Model:this <- $r4
	@DEBUG_VALUE: ~YOLOv8nODModel:this <- $r4
	@DEBUG_VALUE: ~YOLOv8nODModel:this <- $r4
	.loc	9 528 18 prologue_end           @ AppData\Local\Keil_v5\ARM\ARMCLANG\bin\..\include\libcxx\vector:528:18
	ldr	r0, [r0, #40]
.Ltmp77:
	.loc	29 36 28                        @ ../../../../ThirdParty/ml-embedded-evaluation-kit/source/application/api/common/include\Model.hpp:36:28
	movw	r1, :lower16:_ZTVN3arm3app5ModelE
	movt	r1, :upper16:_ZTVN3arm3app5ModelE
	adds	r1, #8
	str	r1, [r4]
.Ltmp78:
	@DEBUG_VALUE: ~vector:this <- [DW_OP_plus_uconst 40, DW_OP_stack_value] $r4
	.loc	9 528 11                        @ AppData\Local\Keil_v5\ARM\ARMCLANG\bin\..\include\libcxx\vector:528:11
	cbz	r0, .LBB5_2
.Ltmp79:
@ %bb.1:
	@DEBUG_VALUE: ~vector:this <- [DW_OP_plus_uconst 40, DW_OP_stack_value] $r4
	@DEBUG_VALUE: ~YOLOv8nODModel:this <- $r4
	@DEBUG_VALUE: ~YOLOv8nODModel:this <- $r4
	@DEBUG_VALUE: ~Model:this <- $r4
	@DEBUG_VALUE: __base_destruct_at_end:__soon_to_be_end <- undef
	.loc	9 637 35                        @ AppData\Local\Keil_v5\ARM\ARMCLANG\bin\..\include\libcxx\vector:637:35
	ldr	r1, [r4, #48]
.Ltmp80:
	@DEBUG_VALUE: __base_destruct_at_end:this <- [DW_OP_plus_uconst 40, DW_OP_stack_value] $r4
	@DEBUG_VALUE: __clear:this <- [DW_OP_plus_uconst 40, DW_OP_stack_value] $r4
	@DEBUG_VALUE: __base_destruct_at_end:__new_last <- $r0
	.loc	9 985 18                        @ AppData\Local\Keil_v5\ARM\ARMCLANG\bin\..\include\libcxx\vector:985:18
	str	r0, [r4, #44]
.Ltmp81:
	@DEBUG_VALUE: __end_cap:this <- [DW_OP_plus_uconst 40, DW_OP_stack_value] $r4
	@DEBUG_VALUE: capacity:this <- [DW_OP_plus_uconst 40, DW_OP_stack_value] $r4
	.loc	9 637 47                        @ AppData\Local\Keil_v5\ARM\ARMCLANG\bin\..\include\libcxx\vector:637:47
	subs	r1, r1, r0
.Ltmp82:
	@DEBUG_VALUE: deallocate:this <- [DW_OP_plus_uconst 40, DW_OP_plus_uconst 8, DW_OP_stack_value] $r4
	@DEBUG_VALUE: deallocate:__a <- [DW_OP_plus_uconst 40, DW_OP_plus_uconst 8, DW_OP_stack_value] $r4
	@DEBUG_VALUE: __libcpp_operator_delete<void *, unsigned int>:__args <- $r0
	@DEBUG_VALUE: __do_deallocate_handle_size<>:__ptr <- $r0
	@DEBUG_VALUE: __libcpp_deallocate:__align <- 4
	@DEBUG_VALUE: __libcpp_deallocate:__ptr <- $r0
	@DEBUG_VALUE: deallocate:__p <- $r0
	@DEBUG_VALUE: deallocate:__p <- $r0
	@DEBUG_VALUE: __libcpp_operator_delete<void *, unsigned int>:__args <- $r1
	@DEBUG_VALUE: __do_deallocate_handle_size<>:__size <- $r1
	@DEBUG_VALUE: __libcpp_deallocate:__size <- $r1
	@DEBUG_VALUE: deallocate:__n <- [DW_OP_constu 2, DW_OP_shra, DW_OP_stack_value] $r1
	@DEBUG_VALUE: deallocate:__n <- [DW_OP_constu 2, DW_OP_shra, DW_OP_stack_value] $r1
	.loc	6 281 3                         @ AppData\Local\Keil_v5\ARM\ARMCLANG\bin\..\include\libcxx\new:281:3
	bl	_ZdlPvj
.Ltmp83:
.LBB5_2:
	@DEBUG_VALUE: ~YOLOv8nODModel:this <- $r4
	@DEBUG_VALUE: ~YOLOv8nODModel:this <- $r4
	@DEBUG_VALUE: ~Model:this <- $r4
	@DEBUG_VALUE: ~vector:this <- [DW_OP_plus_uconst 28, DW_OP_stack_value] $r4
	@DEBUG_VALUE: operator():this <- undef
	.loc	9 528 18                        @ AppData\Local\Keil_v5\ARM\ARMCLANG\bin\..\include\libcxx\vector:528:18
	ldr	r0, [r4, #28]
.Ltmp84:
	.loc	9 528 11 is_stmt 0              @ AppData\Local\Keil_v5\ARM\ARMCLANG\bin\..\include\libcxx\vector:528:11
	cbz	r0, .LBB5_4
.Ltmp85:
@ %bb.3:
	@DEBUG_VALUE: ~vector:this <- [DW_OP_plus_uconst 28, DW_OP_stack_value] $r4
	@DEBUG_VALUE: ~YOLOv8nODModel:this <- $r4
	@DEBUG_VALUE: ~YOLOv8nODModel:this <- $r4
	@DEBUG_VALUE: ~Model:this <- $r4
	@DEBUG_VALUE: __base_destruct_at_end:__soon_to_be_end <- undef
	.loc	9 637 35 is_stmt 1              @ AppData\Local\Keil_v5\ARM\ARMCLANG\bin\..\include\libcxx\vector:637:35
	ldr	r1, [r4, #36]
.Ltmp86:
	@DEBUG_VALUE: __base_destruct_at_end:this <- [DW_OP_plus_uconst 28, DW_OP_stack_value] $r4
	@DEBUG_VALUE: __clear:this <- [DW_OP_plus_uconst 28, DW_OP_stack_value] $r4
	@DEBUG_VALUE: __base_destruct_at_end:__new_last <- $r0
	.loc	9 985 18                        @ AppData\Local\Keil_v5\ARM\ARMCLANG\bin\..\include\libcxx\vector:985:18
	str	r0, [r4, #32]
.Ltmp87:
	@DEBUG_VALUE: __end_cap:this <- [DW_OP_plus_uconst 28, DW_OP_stack_value] $r4
	@DEBUG_VALUE: capacity:this <- [DW_OP_plus_uconst 28, DW_OP_stack_value] $r4
	.loc	9 637 47                        @ AppData\Local\Keil_v5\ARM\ARMCLANG\bin\..\include\libcxx\vector:637:47
	subs	r1, r1, r0
.Ltmp88:
	@DEBUG_VALUE: deallocate:this <- [DW_OP_plus_uconst 28, DW_OP_plus_uconst 8, DW_OP_stack_value] $r4
	@DEBUG_VALUE: deallocate:__a <- [DW_OP_plus_uconst 28, DW_OP_plus_uconst 8, DW_OP_stack_value] $r4
	@DEBUG_VALUE: __libcpp_operator_delete<void *, unsigned int>:__args <- $r0
	@DEBUG_VALUE: __do_deallocate_handle_size<>:__ptr <- $r0
	@DEBUG_VALUE: __libcpp_deallocate:__align <- 4
	@DEBUG_VALUE: __libcpp_deallocate:__ptr <- $r0
	@DEBUG_VALUE: deallocate:__p <- $r0
	@DEBUG_VALUE: deallocate:__p <- $r0
	@DEBUG_VALUE: __libcpp_operator_delete<void *, unsigned int>:__args <- $r1
	@DEBUG_VALUE: __do_deallocate_handle_size<>:__size <- $r1
	@DEBUG_VALUE: __libcpp_deallocate:__size <- $r1
	@DEBUG_VALUE: deallocate:__n <- [DW_OP_constu 2, DW_OP_shra, DW_OP_stack_value] $r1
	@DEBUG_VALUE: deallocate:__n <- [DW_OP_constu 2, DW_OP_shra, DW_OP_stack_value] $r1
	.loc	6 281 3                         @ AppData\Local\Keil_v5\ARM\ARMCLANG\bin\..\include\libcxx\new:281:3
	bl	_ZdlPvj
.Ltmp89:
.LBB5_4:
	@DEBUG_VALUE: ~YOLOv8nODModel:this <- $r4
	@DEBUG_VALUE: ~YOLOv8nODModel:this <- $r4
	@DEBUG_VALUE: ~Model:this <- $r4
	@DEBUG_VALUE: ~unique_ptr:this <- [DW_OP_plus_uconst 8, DW_OP_stack_value] $r4
	@DEBUG_VALUE: reset:this <- [DW_OP_plus_uconst 8, DW_OP_stack_value] $r4
	@DEBUG_VALUE: reset:__p <- 0
	.loc	15 277 29                       @ AppData\Local\Keil_v5\ARM\ARMCLANG\bin\..\include\libcxx\__memory\unique_ptr.h:277:29
	ldr	r0, [r4, #8]
.Ltmp90:
	@DEBUG_VALUE: reset:__tmp <- $r0
	.loc	15 0 29 is_stmt 0               @ AppData\Local\Keil_v5\ARM\ARMCLANG\bin\..\include\libcxx\__memory\unique_ptr.h:0:29
	movs	r1, #0
	.loc	15 278 20 is_stmt 1             @ AppData\Local\Keil_v5\ARM\ARMCLANG\bin\..\include\libcxx\__memory\unique_ptr.h:278:20
	str	r1, [r4, #8]
	.loc	15 279 9                        @ AppData\Local\Keil_v5\ARM\ARMCLANG\bin\..\include\libcxx\__memory\unique_ptr.h:279:9
	cbz	r0, .LBB5_6
.Ltmp91:
@ %bb.5:
	@DEBUG_VALUE: reset:__tmp <- $r0
	@DEBUG_VALUE: reset:__p <- 0
	@DEBUG_VALUE: reset:this <- [DW_OP_plus_uconst 8, DW_OP_stack_value] $r4
	@DEBUG_VALUE: ~unique_ptr:this <- [DW_OP_plus_uconst 8, DW_OP_stack_value] $r4
	@DEBUG_VALUE: ~YOLOv8nODModel:this <- $r4
	@DEBUG_VALUE: ~YOLOv8nODModel:this <- $r4
	@DEBUG_VALUE: ~Model:this <- $r4
	@DEBUG_VALUE: operator():__ptr <- $r0
	@DEBUG_VALUE: operator():this <- [DW_OP_plus_uconst 8, DW_OP_stack_value] $r4
	.loc	15 68 5                         @ AppData\Local\Keil_v5\ARM\ARMCLANG\bin\..\include\libcxx\__memory\unique_ptr.h:68:5
	bl	_ZN6tflite16MicroInterpreterD1Ev
.Ltmp92:
	movs	r1, #192
	bl	_ZdlPvj
.Ltmp93:
.LBB5_6:
	@DEBUG_VALUE: ~YOLOv8nODModel:this <- $r4
	.loc	20 22 7                         @ ../Model/include\YOLOv8nODModel.hpp:22:7
	mov	r0, r4
.Ltmp94:
	@DEBUG_VALUE: ~YOLOv8nODModel:this <- $r0
	movs	r1, #140
	.loc	20 22 7 epilogue_begin is_stmt 0 @ ../Model/include\YOLOv8nODModel.hpp:22:7
	pop.w	{r4, lr}
.Ltmp95:
	b	_ZdlPvj
.Ltmp96:
.Lfunc_end5:
	.size	_ZN3arm3app14YOLOv8nODModelD0Ev, .Lfunc_end5-_ZN3arm3app14YOLOv8nODModelD0Ev
	.cfi_endproc
	.file	31 "<stdin>"
	.cantunwind
	.fnend
                                        @ -- End function
	.hidden	_ZTVN3arm3app14YOLOv8nODModelE  @ @_ZTVN3arm3app14YOLOv8nODModelE
	.type	_ZTVN3arm3app14YOLOv8nODModelE,%object
	.section	.rodata._ZTVN3arm3app14YOLOv8nODModelE,"a",%progbits
	.globl	_ZTVN3arm3app14YOLOv8nODModelE
	.p2align	2, 0x0
_ZTVN3arm3app14YOLOv8nODModelE:
	.long	0
	.long	0
	.long	_ZN3arm3app14YOLOv8nODModelD2Ev
	.long	_ZN3arm3app14YOLOv8nODModelD0Ev
	.long	_ZN3arm3app5Model12RunInferenceEv
	.long	_ZN3arm3app14YOLOv8nODModel13GetOpResolverEv
	.long	_ZN3arm3app14YOLOv8nODModel16EnlistOperationsEv
	.size	_ZTVN3arm3app14YOLOv8nODModelE, 28

	.type	.L.str.8,%object                @ @.str.8
	.section	.rodata.str1.1,"aMS",%progbits,1
.L.str.8:
	.asciz	"Couldn't register builtin op #%d, resolver size "
	.size	.L.str.8, 49

	.type	.L.str.10,%object               @ @.str.10
.L.str.10:
	.asciz	"Couldn't register custom op '%s', resolver size is toosmall (%d)"
	.size	.L.str.10, 65

	.hidden	_printf_percent
	.hidden	_printf_s
	.hidden	_printf_str
	.file	32 "C:\\Users\\jimmy" "AppData\\Local\\Keil_v5\\ARM\\ARMCLANG\\bin\\..\\include\\stdio.h"
	.file	33 "C:\\Users\\jimmy\\Desktop\\Nuvoton\\Nuvoton-Team-2\\repos\\m55m1-ElevatorCounting-YOLOv8n\\KEIL" "../Model\\YOLOv8nODModel.cpp"
	.file	34 "C:\\Users\\jimmy" "AppData\\Local\\Keil_v5\\ARM\\ARMCLANG\\bin\\..\\include\\libcxx\\cstdio"
	.file	35 "C:\\Users\\jimmy" "AppData\\Local\\Keil_v5\\ARM\\ARMCLANG\\bin\\..\\include\\string.h"
	.file	36 "C:\\Users\\jimmy" "AppData\\Local\\Keil_v5\\ARM\\ARMCLANG\\bin\\..\\include\\libcxx\\cstring"
	.file	37 "C:\\Users\\jimmy" "AppData\\Local\\Keil_v5\\ARM\\ARMCLANG\\bin\\..\\include\\libcxx\\string.h"
	.file	38 "C:\\Users\\jimmy" "AppData\\Local\\Keil_v5\\ARM\\ARMCLANG\\bin\\..\\include\\stdarg.h"
	.file	39 "C:\\Users\\jimmy" "AppData\\Local\\Keil_v5\\ARM\\ARMCLANG\\bin\\..\\include\\libcxx\\cstddef"
	.file	40 "C:\\Users\\jimmy" "AppData\\Local\\Keil_v5\\ARM\\ARMCLANG\\bin\\..\\include\\libcxx\\cstdint"
	.file	41 "C:\\Users\\jimmy" "AppData\\Local\\Keil_v5\\ARM\\ARMCLANG\\bin\\..\\include\\math.h"
	.file	42 "C:\\Users\\jimmy" "AppData\\Local\\Keil_v5\\ARM\\ARMCLANG\\bin\\..\\include\\libcxx\\__math\\traits.h"
	.file	43 "C:\\Users\\jimmy" "AppData\\Local\\Keil_v5\\ARM\\ARMCLANG\\bin\\..\\include\\libcxx\\math.h"
	.file	44 "C:\\Users\\jimmy" "AppData\\Local\\Keil_v5\\ARM\\ARMCLANG\\bin\\..\\include\\libcxx\\__math\\modulo.h"
	.file	45 "C:\\Users\\jimmy" "AppData\\Local\\Keil_v5\\ARM\\ARMCLANG\\bin\\..\\include\\libcxx\\cmath"
	.file	46 "C:\\Users\\jimmy" "AppData\\Local\\Keil_v5\\ARM\\ARMCLANG\\bin\\..\\include\\libcxx\\stdlib.h"
	.file	47 "C:\\Users\\jimmy" "AppData\\Local\\Keil_v5\\ARM\\ARMCLANG\\bin\\..\\include\\libcxx\\cstdlib"
	.file	48 "C:\\Users\\jimmy" "AppData\\Local\\Keil_v5\\ARM\\ARMCLANG\\bin\\..\\include\\libcxx\\__std_mbstate_t.h"
	.file	49 "C:\\Users\\jimmy" "AppData\\Local\\Keil_v5\\ARM\\ARMCLANG\\bin\\..\\include\\libcxx\\cstdarg"
	.file	50 "C:\\Users\\jimmy" "AppData\\Local\\Keil_v5\\ARM\\ARMCLANG\\bin\\..\\include\\ctype.h"
	.file	51 "C:\\Users\\jimmy" "AppData\\Local\\Keil_v5\\ARM\\ARMCLANG\\bin\\..\\include\\libcxx\\cctype"
	.file	52 "C:\\Users\\jimmy" "AppData\\Local\\Keil_v5\\ARM\\ARMCLANG\\bin\\..\\include\\wctype.h"
	.file	53 "C:\\Users\\jimmy" "AppData\\Local\\Keil_v5\\ARM\\ARMCLANG\\bin\\..\\include\\libcxx\\cwctype"
	.file	54 "C:\\Users\\jimmy" "AppData\\Local\\Keil_v5\\ARM\\ARMCLANG\\bin\\..\\include\\libcxx\\cwchar"
	.file	55 "C:\\Users\\jimmy" "AppData\\Local\\Keil_v5\\ARM\\ARMCLANG\\bin\\..\\include\\libcxx\\wchar.h"
	.file	56 "C:\\Users\\jimmy" "AppData\\Local\\Keil_v5\\ARM\\ARMCLANG\\bin\\..\\include\\libcxx\\__chrono\\duration.h"
	.file	57 "C:\\Users\\jimmy" "AppData\\Local\\Keil_v5\\ARM\\ARMCLANG\\bin\\..\\include\\libcxx\\ctime"
	.file	58 "C:\\Users\\jimmy" "AppData\\Local\\Keil_v5\\ARM\\ARMCLANG\\bin\\..\\include\\errno.h"
	.file	59 "C:\\Users\\jimmy" "AppData\\Local\\Keil_v5\\ARM\\ARMCLANG\\bin\\..\\include\\locale.h"
	.file	60 "C:\\Users\\jimmy" "AppData\\Local\\Keil_v5\\ARM\\ARMCLANG\\bin\\..\\include\\libcxx\\clocale"